ARM GAS  /var/folders/f9/8bk2lnw15zn4cbgn6wrnb4lm0000gn/T//cc63YBRb.s 			page 1


   1              		.cpu cortex-m0
   2              		.fpu softvfp
   3              		.eabi_attribute 20, 1	@ Tag_ABI_FP_denormal
   4              		.eabi_attribute 21, 1	@ Tag_ABI_FP_exceptions
   5              		.eabi_attribute 23, 3	@ Tag_ABI_FP_number_model
   6              		.eabi_attribute 24, 1	@ Tag_ABI_align8_needed
   7              		.eabi_attribute 25, 1	@ Tag_ABI_align8_preserved
   8              		.eabi_attribute 26, 1	@ Tag_ABI_enum_size
   9              		.eabi_attribute 30, 4	@ Tag_ABI_optimization_goals
  10              		.eabi_attribute 34, 0	@ Tag_CPU_unaligned_access
  11              		.eabi_attribute 18, 4	@ Tag_ABI_PCS_wchar_t
  12              		.file	"a123mbb.c"
  13              	@ GNU C (GNU Tools for ARM Embedded Processors) version 4.8.4 20140725 (release) [ARM/embedded-4_8-
  14              	@	compiled by GNU C version 4.2.1 (Based on Apple Inc. build 5658) (LLVM build 2336.9.00), GMP vers
  15              	@ GGC heuristics: --param ggc-min-expand=100 --param ggc-min-heapsize=131072
  16              	@ options passed:  -I . -I ../../lpc11cx4-library/lpc_chip_11cxx_lib/inc
  17              	@ -I ../../lpc11cx4-library/evt_lib/inc -I inc -imultilib armv6-m
  18              	@ -iprefix /usr/local/Cellar/gcc-arm-none-eabi/20140805/bin/../lib/gcc/arm-none-eabi/4.8.4/
  19              	@ -isysroot /usr/local/Cellar/gcc-arm-none-eabi/20140805/bin/../arm-none-eabi
  20              	@ -MD bin/a123mbb.d -MF bin/a123mbb.d -MP -MQ bin/a123mbb.o
  21              	@ -D__USES_INITFINI__ -D CORE_M0
  22              	@ ../../lpc11cx4-library/evt_lib/src/a123mbb.c -mcpu=cortex-m0 -mthumb
  23              	@ -auxbase-strip bin/a123mbb.o -g -ggdb3 -Os -Wall -Wstrict-prototypes
  24              	@ -Wextra -std=gnu90 -ffunction-sections -fdata-sections -fverbose-asm
  25              	@ -fstack-usage
  26              	@ options enabled:  -faggressive-loop-optimizations -fauto-inc-dec
  27              	@ -fbranch-count-reg -fcaller-saves -fcombine-stack-adjustments -fcommon
  28              	@ -fcompare-elim -fcprop-registers -fcrossjumping -fcse-follow-jumps
  29              	@ -fdata-sections -fdefer-pop -fdelete-null-pointer-checks -fdevirtualize
  30              	@ -fdwarf2-cfi-asm -fearly-inlining -feliminate-unused-debug-types
  31              	@ -fexpensive-optimizations -fforward-propagate -ffunction-cse
  32              	@ -ffunction-sections -fgcse -fgcse-lm -fgnu-runtime -fgnu-unique
  33              	@ -fguess-branch-probability -fhoist-adjacent-loads -fident -fif-conversion
  34              	@ -fif-conversion2 -findirect-inlining -finline -finline-atomics
  35              	@ -finline-functions -finline-functions-called-once
  36              	@ -finline-small-functions -fipa-cp -fipa-profile -fipa-pure-const
  37              	@ -fipa-reference -fipa-sra -fira-hoist-pressure -fira-share-save-slots
  38              	@ -fira-share-spill-slots -fivopts -fkeep-static-consts
  39              	@ -fleading-underscore -fmath-errno -fmerge-constants -fmerge-debug-strings
  40              	@ -fomit-frame-pointer -foptimize-register-move -foptimize-sibling-calls
  41              	@ -fpartial-inlining -fpeephole -fpeephole2 -fprefetch-loop-arrays
  42              	@ -freg-struct-return -fregmove -freorder-blocks -freorder-functions
  43              	@ -frerun-cse-after-loop -fsched-critical-path-heuristic
  44              	@ -fsched-dep-count-heuristic -fsched-group-heuristic -fsched-interblock
  45              	@ -fsched-last-insn-heuristic -fsched-pressure -fsched-rank-heuristic
  46              	@ -fsched-spec -fsched-spec-insn-heuristic -fsched-stalled-insns-dep
  47              	@ -fschedule-insns2 -fsection-anchors -fshow-column -fshrink-wrap
  48              	@ -fsigned-zeros -fsplit-ivs-in-unroller -fsplit-wide-types
  49              	@ -fstrict-aliasing -fstrict-overflow -fstrict-volatile-bitfields
  50              	@ -fsync-libcalls -fthread-jumps -ftoplevel-reorder -ftrapping-math
  51              	@ -ftree-bit-ccp -ftree-builtin-call-dce -ftree-ccp -ftree-ch
  52              	@ -ftree-coalesce-vars -ftree-copy-prop -ftree-copyrename -ftree-cselim
  53              	@ -ftree-dce -ftree-dominator-opts -ftree-dse -ftree-forwprop -ftree-fre
  54              	@ -ftree-loop-if-convert -ftree-loop-im -ftree-loop-ivcanon
  55              	@ -ftree-loop-optimize -ftree-parallelize-loops= -ftree-phiprop -ftree-pre
  56              	@ -ftree-pta -ftree-reassoc -ftree-scev-cprop -ftree-sink
  57              	@ -ftree-slp-vectorize -ftree-slsr -ftree-sra -ftree-switch-conversion
ARM GAS  /var/folders/f9/8bk2lnw15zn4cbgn6wrnb4lm0000gn/T//cc63YBRb.s 			page 2


  58              	@ -ftree-tail-merge -ftree-ter -ftree-vect-loop-version -ftree-vrp
  59              	@ -funit-at-a-time -fvar-tracking -fvar-tracking-assignments -fverbose-asm
  60              	@ -fzero-initialized-in-bss -mlittle-endian -mpic-data-is-text-relative
  61              	@ -msched-prolog -mthumb -mvectorize-with-neon-quad
  62              	
  63              		.text
  64              	.Ltext0:
  65              		.cfi_sections	.debug_frame
  66              		.section	.text.MBB_MakeCMD,"ax",%progbits
  67              		.align	1
  68              		.global	MBB_MakeCMD
  69              		.code	16
  70              		.thumb_func
  71              		.type	MBB_MakeCMD, %function
  72              	MBB_MakeCMD:
  73              	.LFB198:
  74              		.file 1 "../../lpc11cx4-library/evt_lib/src/a123mbb.c"
   1:../../lpc11cx4-library/evt_lib/src/a123mbb.c **** #include "a123mbb.h"
   2:../../lpc11cx4-library/evt_lib/src/a123mbb.c **** 
   3:../../lpc11cx4-library/evt_lib/src/a123mbb.c **** 
   4:../../lpc11cx4-library/evt_lib/src/a123mbb.c **** void MBB_MakeCMD(MBB_CMD_T *contents, CCAN_MSG_OBJ_T *msg_obj) {
  75              		.loc 1 4 0
  76              		.cfi_startproc
  77              	.LVL0:
   5:../../lpc11cx4-library/evt_lib/src/a123mbb.c **** 	msg_obj->mode_id = BCM_CMD;
  78              		.loc 1 5 0
  79 0000 5023     		mov	r3, #80	@ tmp129,
  80 0002 0B60     		str	r3, [r1]	@ tmp129, msg_obj_3(D)->mode_id
   6:../../lpc11cx4-library/evt_lib/src/a123mbb.c **** 	msg_obj->dlc = 3;
  81              		.loc 1 6 0
  82 0004 0323     		mov	r3, #3	@ tmp130,
  83 0006 0B74     		strb	r3, [r1, #16]	@ tmp130, msg_obj_3(D)->dlc
   7:../../lpc11cx4-library/evt_lib/src/a123mbb.c **** 	msg_obj->data[0] = (contents->request_id << 4) | (contents->request_type);
  84              		.loc 1 7 0
  85 0008 4378     		ldrb	r3, [r0, #1]	@ D.6269,
  86 000a 0278     		ldrb	r2, [r0]	@ *contents_6(D), *contents_6(D)
  87 000c 1B01     		lsl	r3, r3, #4	@ D.6269, D.6269,
  88 000e 1343     		orr	r3, r2	@ tmp137, *contents_6(D)
  89 0010 0B72     		strb	r3, [r1, #8]	@ tmp137, msg_obj_3(D)->data
   8:../../lpc11cx4-library/evt_lib/src/a123mbb.c **** 	uint16_t balance;
   9:../../lpc11cx4-library/evt_lib/src/a123mbb.c **** 	if (contents->balance) {
  90              		.loc 1 9 0
  91 0012 8378     		ldrb	r3, [r0, #2]	@ tmp139,
  92 0014 002B     		cmp	r3, #0	@ tmp139,
  93 0016 05D0     		beq	.L3	@,
  10:../../lpc11cx4-library/evt_lib/src/a123mbb.c **** 		balance = mVolts2Num(contents->balance_target_mVolts);
  94              		.loc 1 10 0
  95 0018 8388     		ldrh	r3, [r0, #4]	@ tmp141,
  96 001a 054A     		ldr	r2, .L5	@,
  97 001c 9B18     		add	r3, r3, r2	@ tmp142, tmp141,
  98 001e 5B00     		lsl	r3, r3, #1	@ tmp144, tmp142,
  99 0020 9BB2     		uxth	r3, r3	@ balance, tmp144
 100              	.LVL1:
 101 0022 00E0     		b	.L2	@
 102              	.LVL2:
 103              	.L3:
  11:../../lpc11cx4-library/evt_lib/src/a123mbb.c **** 	} else {
ARM GAS  /var/folders/f9/8bk2lnw15zn4cbgn6wrnb4lm0000gn/T//cc63YBRb.s 			page 3


  12:../../lpc11cx4-library/evt_lib/src/a123mbb.c **** 		balance = BCM_BALANCE_OFF;
 104              		.loc 1 12 0
 105 0024 034B     		ldr	r3, .L5+4	@ balance,
 106              	.L2:
 107              	.LVL3:
  13:../../lpc11cx4-library/evt_lib/src/a123mbb.c **** 	}
  14:../../lpc11cx4-library/evt_lib/src/a123mbb.c **** 	
  15:../../lpc11cx4-library/evt_lib/src/a123mbb.c **** 	msg_obj->data[1] = (balance >> 5) & 0xFF;
 108              		.loc 1 15 0
 109 0026 5A09     		lsr	r2, r3, #5	@ tmp145, balance,
  16:../../lpc11cx4-library/evt_lib/src/a123mbb.c **** 	msg_obj->data[2] = (balance & 0x1F) << 3;
 110              		.loc 1 16 0
 111 0028 DB00     		lsl	r3, r3, #3	@ D.6269, balance,
 112              	.LVL4:
  15:../../lpc11cx4-library/evt_lib/src/a123mbb.c **** 	msg_obj->data[1] = (balance >> 5) & 0xFF;
 113              		.loc 1 15 0
 114 002a 4A72     		strb	r2, [r1, #9]	@ tmp145, msg_obj_3(D)->data
 115              		.loc 1 16 0
 116 002c 8B72     		strb	r3, [r1, #10]	@ D.6269, msg_obj_3(D)->data
  17:../../lpc11cx4-library/evt_lib/src/a123mbb.c **** }
 117              		.loc 1 17 0
 118              		@ sp needed	@
 119 002e 7047     		bx	lr
 120              	.L6:
 121              		.align	2
 122              	.L5:
 123 0030 18FCFFFF 		.word	-1000
 124 0034 FE1F0000 		.word	8190
 125              		.cfi_endproc
 126              	.LFE198:
 127              		.size	MBB_MakeCMD, .-MBB_MakeCMD
 128              		.section	.text.MBB_DecodeStd,"ax",%progbits
 129              		.align	1
 130              		.global	MBB_DecodeStd
 131              		.code	16
 132              		.thumb_func
 133              		.type	MBB_DecodeStd, %function
 134              	MBB_DecodeStd:
 135              	.LFB199:
  18:../../lpc11cx4-library/evt_lib/src/a123mbb.c **** 
  19:../../lpc11cx4-library/evt_lib/src/a123mbb.c **** int8_t MBB_DecodeStd(MBB_STD_T *contents, CCAN_MSG_OBJ_T *msg_obj) {
 136              		.loc 1 19 0
 137              		.cfi_startproc
 138              	.LVL5:
  20:../../lpc11cx4-library/evt_lib/src/a123mbb.c **** 	if (msg_obj->dlc != MBB_STD_DLC) {
 139              		.loc 1 20 0
 140 0000 0B7C     		ldrb	r3, [r1, #16]	@ tmp159,
  19:../../lpc11cx4-library/evt_lib/src/a123mbb.c **** int8_t MBB_DecodeStd(MBB_STD_T *contents, CCAN_MSG_OBJ_T *msg_obj) {
 141              		.loc 1 19 0
 142 0002 10B5     		push	{r4, lr}	@
 143              		.cfi_def_cfa_offset 8
 144              		.cfi_offset 4, -8
 145              		.cfi_offset 14, -4
 146              		.loc 1 20 0
 147 0004 082B     		cmp	r3, #8	@ tmp159,
 148 0006 35D1     		bne	.L9	@,
  21:../../lpc11cx4-library/evt_lib/src/a123mbb.c **** 		return -1;
ARM GAS  /var/folders/f9/8bk2lnw15zn4cbgn6wrnb4lm0000gn/T//cc63YBRb.s 			page 4


  22:../../lpc11cx4-library/evt_lib/src/a123mbb.c **** 	} 
  23:../../lpc11cx4-library/evt_lib/src/a123mbb.c **** 
  24:../../lpc11cx4-library/evt_lib/src/a123mbb.c **** 	contents->id = MBB_GetModID(msg_obj->mode_id);
 149              		.loc 1 24 0
 150 0008 0B68     		ldr	r3, [r1]	@, msg_obj_4(D)->mode_id
 151 000a 0370     		strb	r3, [r0]	@, contents_8(D)->id
  25:../../lpc11cx4-library/evt_lib/src/a123mbb.c **** 	contents->cell_overvolt = (msg_obj->data[0] >> 2) & 1;
 152              		.loc 1 25 0
 153 000c 0A7A     		ldrb	r2, [r1, #8]	@ tmp162,
 154 000e 0123     		mov	r3, #1	@ tmp166,
 155 0010 9208     		lsr	r2, r2, #2	@ tmp163, tmp162,
 156 0012 1A40     		and	r2, r3	@ tmp165, tmp166
 157 0014 4270     		strb	r2, [r0, #1]	@ tmp165, contents_8(D)->cell_overvolt
  26:../../lpc11cx4-library/evt_lib/src/a123mbb.c **** 	contents->cell_undervolt = (msg_obj->data[0] >> 3) & 1;
 158              		.loc 1 26 0
 159 0016 0A7A     		ldrb	r2, [r1, #8]	@ tmp168,
 160 0018 D208     		lsr	r2, r2, #3	@ tmp169, tmp168,
 161 001a 1340     		and	r3, r2	@ tmp171, tmp169
 162 001c 8370     		strb	r3, [r0, #2]	@ tmp171, contents_8(D)->cell_undervolt
  27:../../lpc11cx4-library/evt_lib/src/a123mbb.c **** 	contents->response_id = msg_obj->data[0] >> 4;
 163              		.loc 1 27 0
 164 001e 0B7A     		ldrb	r3, [r1, #8]	@ tmp174,
 165 0020 1B09     		lsr	r3, r3, #4	@ tmp175, tmp174,
 166 0022 C370     		strb	r3, [r0, #3]	@ tmp175, contents_8(D)->response_id
  28:../../lpc11cx4-library/evt_lib/src/a123mbb.c **** 	contents->temp_degC = msg_obj->data[1];
  29:../../lpc11cx4-library/evt_lib/src/a123mbb.c **** 	contents->temp_degC = num2degC(contents->temp_degC);
 167              		.loc 1 29 0
 168 0024 0923     		mov	r3, #9	@ tmp177,
 169 0026 CB56     		ldrsb	r3, [r1, r3]	@ tmp177,
 170 0028 5B10     		asr	r3, r3, #1	@ tmp178, tmp177,
 171 002a 283B     		sub	r3, r3, #40	@ tmp180,
 172 002c 0371     		strb	r3, [r0, #4]	@ tmp180, contents_8(D)->temp_degC
  30:../../lpc11cx4-library/evt_lib/src/a123mbb.c **** 	contents->mod_min_mVolts = ((msg_obj->data[2] << 8)| (msg_obj->data[3] & 0xF8)) >> 3;
 173              		.loc 1 30 0
 174 002e CA7A     		ldrb	r2, [r1, #11]	@ tmp183,
 175 0030 8C7A     		ldrb	r4, [r1, #10]	@ D.6280,
 176 0032 0723     		mov	r3, #7	@ tmp185,
 177 0034 9A43     		bic	r2, r3	@ D.6280, tmp185
 178 0036 2402     		lsl	r4, r4, #8	@ D.6280, D.6280,
 179 0038 2243     		orr	r2, r4	@ D.6280, D.6280
  31:../../lpc11cx4-library/evt_lib/src/a123mbb.c **** 	contents->mod_min_mVolts = num2mVolts(contents->mod_min_mVolts);
 180              		.loc 1 31 0
 181 003a FA24     		mov	r4, #250	@,
 182 003c E400     		lsl	r4, r4, #3	@,,
  30:../../lpc11cx4-library/evt_lib/src/a123mbb.c **** 	contents->mod_min_mVolts = ((msg_obj->data[2] << 8)| (msg_obj->data[3] & 0xF8)) >> 3;
 183              		.loc 1 30 0
 184 003e D210     		asr	r2, r2, #3	@ D.6280, D.6280,
 185              		.loc 1 31 0
 186 0040 1219     		add	r2, r2, r4	@ D.6277, D.6280,
 187 0042 5208     		lsr	r2, r2, #1	@ D.6277, D.6277,
 188 0044 8260     		str	r2, [r0, #8]	@ D.6277, contents_8(D)->mod_min_mVolts
  32:../../lpc11cx4-library/evt_lib/src/a123mbb.c **** 	contents->temp_chn = msg_obj->data[3] & 0x7;
 189              		.loc 1 32 0
 190 0046 CA7A     		ldrb	r2, [r1, #11]	@ tmp194,
 191 0048 1A40     		and	r2, r3	@ tmp195, tmp185
 192 004a 0273     		strb	r2, [r0, #12]	@ tmp195, contents_8(D)->temp_chn
  33:../../lpc11cx4-library/evt_lib/src/a123mbb.c **** 	contents->mod_max_mVolts = ((msg_obj->data[4] << 8) | (msg_obj->data[5] & 0xF8)) >> 3;
ARM GAS  /var/folders/f9/8bk2lnw15zn4cbgn6wrnb4lm0000gn/T//cc63YBRb.s 			page 5


 193              		.loc 1 33 0
 194 004c 4A7B     		ldrb	r2, [r1, #13]	@ tmp199,
 195 004e 0C7B     		ldrb	r4, [r1, #12]	@ D.6280,
 196 0050 9A43     		bic	r2, r3	@ D.6280, tmp185
 197 0052 2402     		lsl	r4, r4, #8	@ D.6280, D.6280,
 198 0054 2243     		orr	r2, r4	@ D.6280, D.6280
  34:../../lpc11cx4-library/evt_lib/src/a123mbb.c **** 	contents->mod_max_mVolts = num2mVolts(contents->mod_max_mVolts);
 199              		.loc 1 34 0
 200 0056 FA24     		mov	r4, #250	@,
  33:../../lpc11cx4-library/evt_lib/src/a123mbb.c **** 	contents->mod_max_mVolts = ((msg_obj->data[4] << 8) | (msg_obj->data[5] & 0xF8)) >> 3;
 201              		.loc 1 33 0
 202 0058 D210     		asr	r2, r2, #3	@ D.6280, D.6280,
 203              		.loc 1 34 0
 204 005a E400     		lsl	r4, r4, #3	@,,
 205 005c 1219     		add	r2, r2, r4	@ D.6277, D.6280,
 206 005e 5208     		lsr	r2, r2, #1	@ D.6277, D.6277,
 207 0060 0261     		str	r2, [r0, #16]	@ D.6277, contents_8(D)->mod_max_mVolts
  35:../../lpc11cx4-library/evt_lib/src/a123mbb.c **** 	contents->balance_c_count = msg_obj->data[5] & 0x7;
 208              		.loc 1 35 0
 209 0062 4A7B     		ldrb	r2, [r1, #13]	@ tmp210,
 210 0064 1340     		and	r3, r2	@ tmp211, tmp210
 211 0066 0375     		strb	r3, [r0, #20]	@ tmp211, contents_8(D)->balance_c_count
  36:../../lpc11cx4-library/evt_lib/src/a123mbb.c **** 	// contents->mod_avg_mVolts = ((msg_obj->data[6] << 8) | (msg_obj->data[7] & 0xF8)) >> 3;
  37:../../lpc11cx4-library/evt_lib/src/a123mbb.c **** 	// contents->mod_avg_mVolts = num2mVolts(contents->mod_avg_mVolts);
  38:../../lpc11cx4-library/evt_lib/src/a123mbb.c **** 	contents->voltage_mismatch = msg_obj->data[7] & 0x4;
 212              		.loc 1 38 0
 213 0068 CA7B     		ldrb	r2, [r1, #15]	@ tmp215,
 214 006a 0423     		mov	r3, #4	@ tmp217,
 215 006c 1340     		and	r3, r2	@ tmp216, tmp215
 216 006e 4375     		strb	r3, [r0, #21]	@ tmp216, contents_8(D)->voltage_mismatch
  39:../../lpc11cx4-library/evt_lib/src/a123mbb.c **** 
  40:../../lpc11cx4-library/evt_lib/src/a123mbb.c **** 	return 0;
 217              		.loc 1 40 0
 218 0070 0020     		mov	r0, #0	@ D.6275,
 219              	.LVL6:
 220 0072 00E0     		b	.L8	@
 221              	.LVL7:
 222              	.L9:
  21:../../lpc11cx4-library/evt_lib/src/a123mbb.c **** 		return -1;
 223              		.loc 1 21 0
 224 0074 FF20     		mov	r0, #255	@ D.6275,
 225              	.LVL8:
 226              	.L8:
 227 0076 40B2     		sxtb	r0, r0	@ D.6275, D.6275
  41:../../lpc11cx4-library/evt_lib/src/a123mbb.c **** }
 228              		.loc 1 41 0
 229              		@ sp needed	@
 230 0078 10BD     		pop	{r4, pc}
 231              		.cfi_endproc
 232              	.LFE199:
 233              		.size	MBB_DecodeStd, .-MBB_DecodeStd
 234              		.section	.text.MBB_DecodeExt,"ax",%progbits
 235              		.align	1
 236              		.global	MBB_DecodeExt
 237              		.code	16
 238              		.thumb_func
 239              		.type	MBB_DecodeExt, %function
ARM GAS  /var/folders/f9/8bk2lnw15zn4cbgn6wrnb4lm0000gn/T//cc63YBRb.s 			page 6


 240              	MBB_DecodeExt:
 241              	.LFB200:
  42:../../lpc11cx4-library/evt_lib/src/a123mbb.c **** 
  43:../../lpc11cx4-library/evt_lib/src/a123mbb.c **** int8_t MBB_DecodeExt(MBB_EXT_T *contents, CCAN_MSG_OBJ_T *msg_obj) {
 242              		.loc 1 43 0
 243              		.cfi_startproc
 244              	.LVL9:
 245 0000 F0B5     		push	{r4, r5, r6, r7, lr}	@
 246              		.cfi_def_cfa_offset 20
 247              		.cfi_offset 4, -20
 248              		.cfi_offset 5, -16
 249              		.cfi_offset 6, -12
 250              		.cfi_offset 7, -8
 251              		.cfi_offset 14, -4
  44:../../lpc11cx4-library/evt_lib/src/a123mbb.c **** 	if (msg_obj->dlc != MBB_EXT_DLC) {
 252              		.loc 1 44 0
 253 0002 0B7C     		ldrb	r3, [r1, #16]	@ tmp208,
 254 0004 082B     		cmp	r3, #8	@ tmp208,
 255 0006 61D1     		bne	.L13	@,
  45:../../lpc11cx4-library/evt_lib/src/a123mbb.c **** 		return -1;
  46:../../lpc11cx4-library/evt_lib/src/a123mbb.c **** 	}
  47:../../lpc11cx4-library/evt_lib/src/a123mbb.c **** 
  48:../../lpc11cx4-library/evt_lib/src/a123mbb.c **** 	uint8_t range =  MBB_GetExtRange(msg_obj->mode_id);
 256              		.loc 1 48 0
 257 0008 0B68     		ldr	r3, [r1]	@ D.6285, msg_obj_4(D)->mode_id
 258 000a 1C05     		lsl	r4, r3, #20	@ D.6285, D.6285,
 259 000c 240F     		lsr	r4, r4, #28	@ D.6285, D.6285,
 260 000e 033C     		sub	r4, r4, #3	@ tmp213,
 261 0010 E4B2     		uxtb	r4, r4	@ range, tmp213
 262              	.LVL10:
  49:../../lpc11cx4-library/evt_lib/src/a123mbb.c **** 
  50:../../lpc11cx4-library/evt_lib/src/a123mbb.c **** 	if (range > 2) {
 263              		.loc 1 50 0
 264 0012 022C     		cmp	r4, #2	@ range,
 265 0014 5AD8     		bhi	.L13	@,
  51:../../lpc11cx4-library/evt_lib/src/a123mbb.c **** 		return -1;
  52:../../lpc11cx4-library/evt_lib/src/a123mbb.c **** 	}
  53:../../lpc11cx4-library/evt_lib/src/a123mbb.c **** 	contents->id = MBB_GetModID(msg_obj->mode_id);
 266              		.loc 1 53 0
 267 0016 0370     		strb	r3, [r0]	@ D.6285, contents_12(D)->id
  54:../../lpc11cx4-library/evt_lib/src/a123mbb.c **** 	contents->bal &= ~(0xF << range * 4);
 268              		.loc 1 54 0
 269 0018 4788     		ldrh	r7, [r0, #2]	@ tmp221,
 270 001a A300     		lsl	r3, r4, #2	@ D.6288, range,
 271 001c 0F22     		mov	r2, #15	@ tmp216,
 272 001e 9A40     		lsl	r2, r2, r3	@ D.6288, tmp216, D.6288
 273 0020 9743     		bic	r7, r2	@ D.6287, D.6288
 274 0022 4780     		strh	r7, [r0, #2]	@ D.6287, contents_12(D)->bal
  55:../../lpc11cx4-library/evt_lib/src/a123mbb.c **** 	contents->bal |= ((msg_obj->data[1] & 0x04) >> 2) << range * 4;
 275              		.loc 1 55 0
 276 0024 4E7A     		ldrb	r6, [r1, #9]	@ tmp226,
 277 0026 0422     		mov	r2, #4	@ tmp228,
 278 0028 1640     		and	r6, r2	@ D.6288, tmp228
 279 002a B610     		asr	r6, r6, #2	@ D.6288, D.6288,
 280 002c 9E40     		lsl	r6, r6, r3	@ D.6288, D.6288, D.6288
 281 002e 3743     		orr	r7, r6	@ tmp234, D.6288
 282 0030 BFB2     		uxth	r7, r7	@ D.6287, tmp234
ARM GAS  /var/folders/f9/8bk2lnw15zn4cbgn6wrnb4lm0000gn/T//cc63YBRb.s 			page 7


 283 0032 4780     		strh	r7, [r0, #2]	@ D.6287, contents_12(D)->bal
  56:../../lpc11cx4-library/evt_lib/src/a123mbb.c **** 	contents->bal |= ((msg_obj->data[3] & 0x04) >> 1) << range * 4;
 284              		.loc 1 56 0
 285 0034 CE7A     		ldrb	r6, [r1, #11]	@ tmp237,
  57:../../lpc11cx4-library/evt_lib/src/a123mbb.c **** 	contents->bal |= ((msg_obj->data[5] & 0x04) >> 0) << range * 4;
  58:../../lpc11cx4-library/evt_lib/src/a123mbb.c **** 	contents->bal |= ((msg_obj->data[7] & 0x04) << 1) << range * 4;
  59:../../lpc11cx4-library/evt_lib/src/a123mbb.c **** 	contents->cell_mVolts[range * 4 + 0] = ((msg_obj->data[0] << 8) | (msg_obj->data[1] & 0xF8)) >> 3;
  60:../../lpc11cx4-library/evt_lib/src/a123mbb.c **** 	contents->cell_mVolts[range * 4 + 0] = num2mVolts(contents->cell_mVolts[range * 4 + 0]);
 286              		.loc 1 60 0
 287 0036 E400     		lsl	r4, r4, #3	@ tmp268, range,
 288              	.LVL11:
  56:../../lpc11cx4-library/evt_lib/src/a123mbb.c **** 	contents->bal |= ((msg_obj->data[3] & 0x04) >> 1) << range * 4;
 289              		.loc 1 56 0
 290 0038 1640     		and	r6, r2	@ D.6288, tmp228
 291 003a 7610     		asr	r6, r6, #1	@ D.6288, D.6288,
 292 003c 9E40     		lsl	r6, r6, r3	@ D.6288, D.6288, D.6288
 293 003e 3743     		orr	r7, r6	@ tmp245, D.6288
 294 0040 BEB2     		uxth	r6, r7	@ D.6287, tmp245
 295 0042 4680     		strh	r6, [r0, #2]	@ D.6287, contents_12(D)->bal
  57:../../lpc11cx4-library/evt_lib/src/a123mbb.c **** 	contents->bal |= ((msg_obj->data[5] & 0x04) >> 0) << range * 4;
 296              		.loc 1 57 0
 297 0044 4D7B     		ldrb	r5, [r1, #13]	@ tmp248,
 298              		.loc 1 60 0
 299 0046 0419     		add	r4, r0, r4	@ tmp280, contents, tmp268
  57:../../lpc11cx4-library/evt_lib/src/a123mbb.c **** 	contents->bal |= ((msg_obj->data[5] & 0x04) >> 0) << range * 4;
 300              		.loc 1 57 0
 301 0048 1540     		and	r5, r2	@ D.6288, tmp228
 302 004a 9D40     		lsl	r5, r5, r3	@ D.6288, D.6288, D.6288
 303 004c 2E43     		orr	r6, r5	@ tmp255, D.6288
 304 004e B5B2     		uxth	r5, r6	@ D.6287, tmp255
 305 0050 4580     		strh	r5, [r0, #2]	@ D.6287, contents_12(D)->bal
  58:../../lpc11cx4-library/evt_lib/src/a123mbb.c **** 	contents->bal |= ((msg_obj->data[7] & 0x04) << 1) << range * 4;
 306              		.loc 1 58 0
 307 0052 CE7B     		ldrb	r6, [r1, #15]	@ tmp258,
 308 0054 3240     		and	r2, r6	@ D.6288, tmp258
 309 0056 5200     		lsl	r2, r2, #1	@ D.6288, D.6288,
 310 0058 9A40     		lsl	r2, r2, r3	@ D.6288, D.6288, D.6288
 311 005a 1543     		orr	r5, r2	@ tmp266, D.6288
 312 005c 4580     		strh	r5, [r0, #2]	@ tmp266, contents_12(D)->bal
  59:../../lpc11cx4-library/evt_lib/src/a123mbb.c **** 	contents->cell_mVolts[range * 4 + 0] = ((msg_obj->data[0] << 8) | (msg_obj->data[1] & 0xF8)) >> 3;
 313              		.loc 1 59 0
 314 005e 4D7A     		ldrb	r5, [r1, #9]	@ tmp270,
 315 0060 0E7A     		ldrb	r6, [r1, #8]	@ D.6288,
 316 0062 0722     		mov	r2, #7	@ tmp272,
 317 0064 9543     		bic	r5, r2	@ D.6288, tmp272
 318 0066 3602     		lsl	r6, r6, #8	@ D.6288, D.6288,
 319 0068 3543     		orr	r5, r6	@ D.6288, D.6288
 320              		.loc 1 60 0
 321 006a FA26     		mov	r6, #250	@,
 322 006c F600     		lsl	r6, r6, #3	@,,
  59:../../lpc11cx4-library/evt_lib/src/a123mbb.c **** 	contents->cell_mVolts[range * 4 + 0] = ((msg_obj->data[0] << 8) | (msg_obj->data[1] & 0xF8)) >> 3;
 323              		.loc 1 59 0
 324 006e ED10     		asr	r5, r5, #3	@ D.6288, D.6288,
 325              		.loc 1 60 0
 326 0070 AD19     		add	r5, r5, r6	@ D.6288, D.6288,
 327 0072 6D10     		asr	r5, r5, #1	@ D.6288, D.6288,
 328 0074 A580     		strh	r5, [r4, #4]	@ D.6288,
ARM GAS  /var/folders/f9/8bk2lnw15zn4cbgn6wrnb4lm0000gn/T//cc63YBRb.s 			page 8


  61:../../lpc11cx4-library/evt_lib/src/a123mbb.c **** 	contents->cell_mVolts[range * 4 + 1] = ((msg_obj->data[2] << 8) | (msg_obj->data[3] & 0xF8)) >> 3;
 329              		.loc 1 61 0
 330 0076 CD7A     		ldrb	r5, [r1, #11]	@ tmp285,
 331 0078 8E7A     		ldrb	r6, [r1, #10]	@ D.6288,
 332 007a 9543     		bic	r5, r2	@ D.6288, tmp272
 333 007c 3602     		lsl	r6, r6, #8	@ D.6288, D.6288,
 334 007e 3543     		orr	r5, r6	@ D.6288, D.6288
  62:../../lpc11cx4-library/evt_lib/src/a123mbb.c **** 	contents->cell_mVolts[range * 4 + 1] = num2mVolts(contents->cell_mVolts[range * 4 + 1]);
 335              		.loc 1 62 0
 336 0080 FA26     		mov	r6, #250	@,
 337 0082 5C1C     		add	r4, r3, #1	@ tmp282, D.6288,
 338 0084 F600     		lsl	r6, r6, #3	@,,
  61:../../lpc11cx4-library/evt_lib/src/a123mbb.c **** 	contents->cell_mVolts[range * 4 + 1] = ((msg_obj->data[2] << 8) | (msg_obj->data[3] & 0xF8)) >> 3;
 339              		.loc 1 61 0
 340 0086 ED10     		asr	r5, r5, #3	@ D.6288, D.6288,
 341              		.loc 1 62 0
 342 0088 AD19     		add	r5, r5, r6	@ D.6288, D.6288,
 343 008a 6400     		lsl	r4, r4, #1	@ tmp283, tmp282,
 344 008c 0419     		add	r4, r0, r4	@ tmp295, contents, tmp283
 345 008e 6D10     		asr	r5, r5, #1	@ D.6288, D.6288,
 346 0090 A580     		strh	r5, [r4, #4]	@ D.6288,
  63:../../lpc11cx4-library/evt_lib/src/a123mbb.c **** 	contents->cell_mVolts[range * 4 + 2] = ((msg_obj->data[4] << 8) | (msg_obj->data[5] & 0xF8)) >> 3;
 347              		.loc 1 63 0
 348 0092 4D7B     		ldrb	r5, [r1, #13]	@ tmp300,
 349 0094 0E7B     		ldrb	r6, [r1, #12]	@ D.6288,
 350 0096 9543     		bic	r5, r2	@ D.6288, tmp272
 351 0098 3602     		lsl	r6, r6, #8	@ D.6288, D.6288,
 352 009a 3543     		orr	r5, r6	@ D.6288, D.6288
  64:../../lpc11cx4-library/evt_lib/src/a123mbb.c **** 	contents->cell_mVolts[range * 4 + 2] = num2mVolts(contents->cell_mVolts[range * 4 + 2]);
 353              		.loc 1 64 0
 354 009c FA26     		mov	r6, #250	@,
 355 009e 9C1C     		add	r4, r3, #2	@ tmp297, D.6288,
 356 00a0 F600     		lsl	r6, r6, #3	@,,
  63:../../lpc11cx4-library/evt_lib/src/a123mbb.c **** 	contents->cell_mVolts[range * 4 + 2] = ((msg_obj->data[4] << 8) | (msg_obj->data[5] & 0xF8)) >> 3;
 357              		.loc 1 63 0
 358 00a2 ED10     		asr	r5, r5, #3	@ D.6288, D.6288,
 359              		.loc 1 64 0
 360 00a4 6400     		lsl	r4, r4, #1	@ tmp298, tmp297,
 361 00a6 AD19     		add	r5, r5, r6	@ D.6288, D.6288,
 362 00a8 0419     		add	r4, r0, r4	@ tmp310, contents, tmp298
 363 00aa 6D10     		asr	r5, r5, #1	@ D.6288, D.6288,
 364 00ac A580     		strh	r5, [r4, #4]	@ D.6288,
  65:../../lpc11cx4-library/evt_lib/src/a123mbb.c **** 	contents->cell_mVolts[range * 4 + 3] = ((msg_obj->data[6] << 8) | (msg_obj->data[7] & 0xF8)) >> 3;
 365              		.loc 1 65 0
 366 00ae CC7B     		ldrb	r4, [r1, #15]	@ tmp315,
 367 00b0 897B     		ldrb	r1, [r1, #14]	@ D.6288,
 368              	.LVL12:
 369 00b2 9443     		bic	r4, r2	@ tmp315, tmp272
 370 00b4 221C     		mov	r2, r4	@ D.6288, tmp315
 371 00b6 0902     		lsl	r1, r1, #8	@ D.6288, D.6288,
 372 00b8 0A43     		orr	r2, r1	@ D.6288, D.6288
  66:../../lpc11cx4-library/evt_lib/src/a123mbb.c **** 	contents->cell_mVolts[range * 4 + 3] = num2mVolts(contents->cell_mVolts[range * 4 + 3]);
 373              		.loc 1 66 0
 374 00ba 0333     		add	r3, r3, #3	@ tmp312,
  65:../../lpc11cx4-library/evt_lib/src/a123mbb.c **** 	contents->cell_mVolts[range * 4 + 3] = ((msg_obj->data[6] << 8) | (msg_obj->data[7] & 0xF8)) >> 3;
 375              		.loc 1 65 0
 376 00bc D210     		asr	r2, r2, #3	@ D.6288, D.6288,
ARM GAS  /var/folders/f9/8bk2lnw15zn4cbgn6wrnb4lm0000gn/T//cc63YBRb.s 			page 9


 377              		.loc 1 66 0
 378 00be 5B00     		lsl	r3, r3, #1	@ tmp313, tmp312,
 379 00c0 9219     		add	r2, r2, r6	@ D.6288, D.6288,
 380 00c2 C018     		add	r0, r0, r3	@ tmp325, contents, tmp313
 381              	.LVL13:
 382 00c4 5210     		asr	r2, r2, #1	@ D.6288, D.6288,
 383 00c6 8280     		strh	r2, [r0, #4]	@ D.6288,
  67:../../lpc11cx4-library/evt_lib/src/a123mbb.c **** 	
  68:../../lpc11cx4-library/evt_lib/src/a123mbb.c **** 
  69:../../lpc11cx4-library/evt_lib/src/a123mbb.c **** 	return 0;
 384              		.loc 1 69 0
 385 00c8 0020     		mov	r0, #0	@ D.6283,
 386 00ca 00E0     		b	.L11	@
 387              	.LVL14:
 388              	.L13:
  45:../../lpc11cx4-library/evt_lib/src/a123mbb.c **** 		return -1;
 389              		.loc 1 45 0
 390 00cc FF20     		mov	r0, #255	@ D.6283,
 391              	.LVL15:
 392              	.L11:
 393 00ce 40B2     		sxtb	r0, r0	@ D.6283, D.6283
  70:../../lpc11cx4-library/evt_lib/src/a123mbb.c **** }
 394              		.loc 1 70 0
 395              		@ sp needed	@
 396 00d0 F0BD     		pop	{r4, r5, r6, r7, pc}
 397              		.cfi_endproc
 398              	.LFE200:
 399              		.size	MBB_DecodeExt, .-MBB_DecodeExt
 400              		.text
 401              	.Letext0:
 402              		.file 2 "/usr/local/Cellar/gcc-arm-none-eabi/20140805/arm-none-eabi/include/machine/_default_types
 403              		.file 3 "/usr/local/Cellar/gcc-arm-none-eabi/20140805/arm-none-eabi/include/stdint.h"
 404              		.file 4 "../../lpc11cx4-library/lpc_chip_11cxx_lib/inc/ccand_11xx.h"
 405              		.file 5 "../../lpc11cx4-library/evt_lib/inc/a123mbb.h"
 406              		.file 6 "../../lpc11cx4-library/lpc_chip_11cxx_lib/inc/chip.h"