ARM GAS  /var/folders/f9/8bk2lnw15zn4cbgn6wrnb4lm0000gn/T//ccQJhxmN.s 			page 1


   1              		.cpu cortex-m0
   2              		.fpu softvfp
   3              		.eabi_attribute 20, 1	@ Tag_ABI_FP_denormal
   4              		.eabi_attribute 21, 1	@ Tag_ABI_FP_exceptions
   5              		.eabi_attribute 23, 3	@ Tag_ABI_FP_number_model
   6              		.eabi_attribute 24, 1	@ Tag_ABI_align8_needed
   7              		.eabi_attribute 25, 1	@ Tag_ABI_align8_preserved
   8              		.eabi_attribute 26, 1	@ Tag_ABI_enum_size
   9              		.eabi_attribute 30, 4	@ Tag_ABI_optimization_goals
  10              		.eabi_attribute 34, 0	@ Tag_CPU_unaligned_access
  11              		.eabi_attribute 18, 4	@ Tag_ABI_PCS_wchar_t
  12              		.file	"adc_11xx.c"
  13              	@ GNU C (GNU Tools for ARM Embedded Processors) version 4.8.4 20140725 (release) [ARM/embedded-4_8-
  14              	@	compiled by GNU C version 4.2.1 (Based on Apple Inc. build 5658) (LLVM build 2336.9.00), GMP vers
  15              	@ GGC heuristics: --param ggc-min-expand=100 --param ggc-min-heapsize=131072
  16              	@ options passed:  -I . -I ../../lpc11cx4-library/lpc_chip_11cxx_lib/inc
  17              	@ -I ../../lpc11cx4-library/evt_lib/inc -I inc -imultilib armv6-m
  18              	@ -iprefix /usr/local/Cellar/gcc-arm-none-eabi/20140805/bin/../lib/gcc/arm-none-eabi/4.8.4/
  19              	@ -isysroot /usr/local/Cellar/gcc-arm-none-eabi/20140805/bin/../arm-none-eabi
  20              	@ -MD bin/adc_11xx.d -MF bin/adc_11xx.d -MP -MQ bin/adc_11xx.o
  21              	@ -D__USES_INITFINI__ -D CORE_M0
  22              	@ ../../lpc11cx4-library/lpc_chip_11cxx_lib/src/adc_11xx.c -mcpu=cortex-m0
  23              	@ -mthumb -auxbase-strip bin/adc_11xx.o -g -ggdb3 -Os -Wall
  24              	@ -Wstrict-prototypes -Wextra -std=gnu90 -ffunction-sections
  25              	@ -fdata-sections -fverbose-asm -fstack-usage
  26              	@ options enabled:  -faggressive-loop-optimizations -fauto-inc-dec
  27              	@ -fbranch-count-reg -fcaller-saves -fcombine-stack-adjustments -fcommon
  28              	@ -fcompare-elim -fcprop-registers -fcrossjumping -fcse-follow-jumps
  29              	@ -fdata-sections -fdefer-pop -fdelete-null-pointer-checks -fdevirtualize
  30              	@ -fdwarf2-cfi-asm -fearly-inlining -feliminate-unused-debug-types
  31              	@ -fexpensive-optimizations -fforward-propagate -ffunction-cse
  32              	@ -ffunction-sections -fgcse -fgcse-lm -fgnu-runtime -fgnu-unique
  33              	@ -fguess-branch-probability -fhoist-adjacent-loads -fident -fif-conversion
  34              	@ -fif-conversion2 -findirect-inlining -finline -finline-atomics
  35              	@ -finline-functions -finline-functions-called-once
  36              	@ -finline-small-functions -fipa-cp -fipa-profile -fipa-pure-const
  37              	@ -fipa-reference -fipa-sra -fira-hoist-pressure -fira-share-save-slots
  38              	@ -fira-share-spill-slots -fivopts -fkeep-static-consts
  39              	@ -fleading-underscore -fmath-errno -fmerge-constants -fmerge-debug-strings
  40              	@ -fomit-frame-pointer -foptimize-register-move -foptimize-sibling-calls
  41              	@ -fpartial-inlining -fpeephole -fpeephole2 -fprefetch-loop-arrays
  42              	@ -freg-struct-return -fregmove -freorder-blocks -freorder-functions
  43              	@ -frerun-cse-after-loop -fsched-critical-path-heuristic
  44              	@ -fsched-dep-count-heuristic -fsched-group-heuristic -fsched-interblock
  45              	@ -fsched-last-insn-heuristic -fsched-pressure -fsched-rank-heuristic
  46              	@ -fsched-spec -fsched-spec-insn-heuristic -fsched-stalled-insns-dep
  47              	@ -fschedule-insns2 -fsection-anchors -fshow-column -fshrink-wrap
  48              	@ -fsigned-zeros -fsplit-ivs-in-unroller -fsplit-wide-types
  49              	@ -fstrict-aliasing -fstrict-overflow -fstrict-volatile-bitfields
  50              	@ -fsync-libcalls -fthread-jumps -ftoplevel-reorder -ftrapping-math
  51              	@ -ftree-bit-ccp -ftree-builtin-call-dce -ftree-ccp -ftree-ch
  52              	@ -ftree-coalesce-vars -ftree-copy-prop -ftree-copyrename -ftree-cselim
  53              	@ -ftree-dce -ftree-dominator-opts -ftree-dse -ftree-forwprop -ftree-fre
  54              	@ -ftree-loop-if-convert -ftree-loop-im -ftree-loop-ivcanon
  55              	@ -ftree-loop-optimize -ftree-parallelize-loops= -ftree-phiprop -ftree-pre
  56              	@ -ftree-pta -ftree-reassoc -ftree-scev-cprop -ftree-sink
  57              	@ -ftree-slp-vectorize -ftree-slsr -ftree-sra -ftree-switch-conversion
ARM GAS  /var/folders/f9/8bk2lnw15zn4cbgn6wrnb4lm0000gn/T//ccQJhxmN.s 			page 2


  58              	@ -ftree-tail-merge -ftree-ter -ftree-vect-loop-version -ftree-vrp
  59              	@ -funit-at-a-time -fvar-tracking -fvar-tracking-assignments -fverbose-asm
  60              	@ -fzero-initialized-in-bss -mlittle-endian -mpic-data-is-text-relative
  61              	@ -msched-prolog -mthumb -mvectorize-with-neon-quad
  62              	
  63              		.text
  64              	.Ltext0:
  65              		.cfi_sections	.debug_frame
  66              		.section	.text.setStartMode,"ax",%progbits
  67              		.align	1
  68              		.global	setStartMode
  69              		.code	16
  70              		.thumb_func
  71              		.type	setStartMode, %function
  72              	setStartMode:
  73              	.LFB200:
  74              		.file 1 "../../lpc11cx4-library/lpc_chip_11cxx_lib/src/adc_11xx.c"
   1:../../lpc11cx4-library/lpc_chip_11cxx_lib/src/adc_11xx.c **** /*
   2:../../lpc11cx4-library/lpc_chip_11cxx_lib/src/adc_11xx.c ****  * @brief LPC11xx A/D conversion driver
   3:../../lpc11cx4-library/lpc_chip_11cxx_lib/src/adc_11xx.c ****  *
   4:../../lpc11cx4-library/lpc_chip_11cxx_lib/src/adc_11xx.c ****  * @note
   5:../../lpc11cx4-library/lpc_chip_11cxx_lib/src/adc_11xx.c ****  * Copyright(C) NXP Semiconductors, 2012
   6:../../lpc11cx4-library/lpc_chip_11cxx_lib/src/adc_11xx.c ****  * All rights reserved.
   7:../../lpc11cx4-library/lpc_chip_11cxx_lib/src/adc_11xx.c ****  *
   8:../../lpc11cx4-library/lpc_chip_11cxx_lib/src/adc_11xx.c ****  * @par
   9:../../lpc11cx4-library/lpc_chip_11cxx_lib/src/adc_11xx.c ****  * Software that is described herein is for illustrative purposes only
  10:../../lpc11cx4-library/lpc_chip_11cxx_lib/src/adc_11xx.c ****  * which provides customers with programming information regarding the
  11:../../lpc11cx4-library/lpc_chip_11cxx_lib/src/adc_11xx.c ****  * LPC products.  This software is supplied "AS IS" without any warranties of
  12:../../lpc11cx4-library/lpc_chip_11cxx_lib/src/adc_11xx.c ****  * any kind, and NXP Semiconductors and its licensor disclaim any and
  13:../../lpc11cx4-library/lpc_chip_11cxx_lib/src/adc_11xx.c ****  * all warranties, express or implied, including all implied warranties of
  14:../../lpc11cx4-library/lpc_chip_11cxx_lib/src/adc_11xx.c ****  * merchantability, fitness for a particular purpose and non-infringement of
  15:../../lpc11cx4-library/lpc_chip_11cxx_lib/src/adc_11xx.c ****  * intellectual property rights.  NXP Semiconductors assumes no responsibility
  16:../../lpc11cx4-library/lpc_chip_11cxx_lib/src/adc_11xx.c ****  * or liability for the use of the software, conveys no license or rights under any
  17:../../lpc11cx4-library/lpc_chip_11cxx_lib/src/adc_11xx.c ****  * patent, copyright, mask work right, or any other intellectual property rights in
  18:../../lpc11cx4-library/lpc_chip_11cxx_lib/src/adc_11xx.c ****  * or to any products. NXP Semiconductors reserves the right to make changes
  19:../../lpc11cx4-library/lpc_chip_11cxx_lib/src/adc_11xx.c ****  * in the software without notification. NXP Semiconductors also makes no
  20:../../lpc11cx4-library/lpc_chip_11cxx_lib/src/adc_11xx.c ****  * representation or warranty that such application will be suitable for the
  21:../../lpc11cx4-library/lpc_chip_11cxx_lib/src/adc_11xx.c ****  * specified use without further testing or modification.
  22:../../lpc11cx4-library/lpc_chip_11cxx_lib/src/adc_11xx.c ****  *
  23:../../lpc11cx4-library/lpc_chip_11cxx_lib/src/adc_11xx.c ****  * @par
  24:../../lpc11cx4-library/lpc_chip_11cxx_lib/src/adc_11xx.c ****  * Permission to use, copy, modify, and distribute this software and its
  25:../../lpc11cx4-library/lpc_chip_11cxx_lib/src/adc_11xx.c ****  * documentation is hereby granted, under NXP Semiconductors' and its
  26:../../lpc11cx4-library/lpc_chip_11cxx_lib/src/adc_11xx.c ****  * licensor's relevant copyrights in the software, without fee, provided that it
  27:../../lpc11cx4-library/lpc_chip_11cxx_lib/src/adc_11xx.c ****  * is used in conjunction with NXP Semiconductors microcontrollers.  This
  28:../../lpc11cx4-library/lpc_chip_11cxx_lib/src/adc_11xx.c ****  * copyright, permission, and disclaimer notice must appear in all copies of
  29:../../lpc11cx4-library/lpc_chip_11cxx_lib/src/adc_11xx.c ****  * this code.
  30:../../lpc11cx4-library/lpc_chip_11cxx_lib/src/adc_11xx.c ****  */
  31:../../lpc11cx4-library/lpc_chip_11cxx_lib/src/adc_11xx.c **** 
  32:../../lpc11cx4-library/lpc_chip_11cxx_lib/src/adc_11xx.c **** #include "chip.h"
  33:../../lpc11cx4-library/lpc_chip_11cxx_lib/src/adc_11xx.c **** 
  34:../../lpc11cx4-library/lpc_chip_11cxx_lib/src/adc_11xx.c **** #if !defined(CHIP_LPC1125)
  35:../../lpc11cx4-library/lpc_chip_11cxx_lib/src/adc_11xx.c **** 
  36:../../lpc11cx4-library/lpc_chip_11cxx_lib/src/adc_11xx.c **** /*****************************************************************************
  37:../../lpc11cx4-library/lpc_chip_11cxx_lib/src/adc_11xx.c ****  * Private types/enumerations/variables
  38:../../lpc11cx4-library/lpc_chip_11cxx_lib/src/adc_11xx.c ****  ****************************************************************************/
  39:../../lpc11cx4-library/lpc_chip_11cxx_lib/src/adc_11xx.c **** 
  40:../../lpc11cx4-library/lpc_chip_11cxx_lib/src/adc_11xx.c **** /*****************************************************************************
ARM GAS  /var/folders/f9/8bk2lnw15zn4cbgn6wrnb4lm0000gn/T//ccQJhxmN.s 			page 3


  41:../../lpc11cx4-library/lpc_chip_11cxx_lib/src/adc_11xx.c ****  * Public types/enumerations/variables
  42:../../lpc11cx4-library/lpc_chip_11cxx_lib/src/adc_11xx.c ****  ****************************************************************************/
  43:../../lpc11cx4-library/lpc_chip_11cxx_lib/src/adc_11xx.c **** 
  44:../../lpc11cx4-library/lpc_chip_11cxx_lib/src/adc_11xx.c **** /*****************************************************************************
  45:../../lpc11cx4-library/lpc_chip_11cxx_lib/src/adc_11xx.c ****  * Private functions
  46:../../lpc11cx4-library/lpc_chip_11cxx_lib/src/adc_11xx.c ****  ****************************************************************************/
  47:../../lpc11cx4-library/lpc_chip_11cxx_lib/src/adc_11xx.c **** 
  48:../../lpc11cx4-library/lpc_chip_11cxx_lib/src/adc_11xx.c **** /* Get the number of clock for a full conversion */
  49:../../lpc11cx4-library/lpc_chip_11cxx_lib/src/adc_11xx.c **** STATIC INLINE uint8_t getFullConvClk(void)
  50:../../lpc11cx4-library/lpc_chip_11cxx_lib/src/adc_11xx.c **** {
  51:../../lpc11cx4-library/lpc_chip_11cxx_lib/src/adc_11xx.c **** 	return 11;
  52:../../lpc11cx4-library/lpc_chip_11cxx_lib/src/adc_11xx.c **** }
  53:../../lpc11cx4-library/lpc_chip_11cxx_lib/src/adc_11xx.c **** 
  54:../../lpc11cx4-library/lpc_chip_11cxx_lib/src/adc_11xx.c **** /* Get divider value */
  55:../../lpc11cx4-library/lpc_chip_11cxx_lib/src/adc_11xx.c **** STATIC uint8_t getClkDiv(bool burstMode, uint32_t adcRate, uint8_t clks)
  56:../../lpc11cx4-library/lpc_chip_11cxx_lib/src/adc_11xx.c **** {
  57:../../lpc11cx4-library/lpc_chip_11cxx_lib/src/adc_11xx.c **** 	uint32_t adcBlockFreq;
  58:../../lpc11cx4-library/lpc_chip_11cxx_lib/src/adc_11xx.c **** 	uint32_t fullAdcRate;
  59:../../lpc11cx4-library/lpc_chip_11cxx_lib/src/adc_11xx.c **** 	uint8_t div;
  60:../../lpc11cx4-library/lpc_chip_11cxx_lib/src/adc_11xx.c **** 
  61:../../lpc11cx4-library/lpc_chip_11cxx_lib/src/adc_11xx.c **** 	/* The APB clock (PCLK_ADC0) is divided by (CLKDIV+1) to produce the clock for
  62:../../lpc11cx4-library/lpc_chip_11cxx_lib/src/adc_11xx.c **** 	   A/D converter, which should be less than or equal to 4.5MHz.
  63:../../lpc11cx4-library/lpc_chip_11cxx_lib/src/adc_11xx.c **** 	   A fully conversion requires (bits_accuracy+1) of these clocks.
  64:../../lpc11cx4-library/lpc_chip_11cxx_lib/src/adc_11xx.c **** 	   ADC Clock = PCLK_ADC0 / (CLKDIV + 1);
  65:../../lpc11cx4-library/lpc_chip_11cxx_lib/src/adc_11xx.c **** 	   ADC rate = ADC clock / (the number of clocks required for each conversion);
  66:../../lpc11cx4-library/lpc_chip_11cxx_lib/src/adc_11xx.c **** 	 */
  67:../../lpc11cx4-library/lpc_chip_11cxx_lib/src/adc_11xx.c **** 	adcBlockFreq = Chip_Clock_GetSystemClockRate();
  68:../../lpc11cx4-library/lpc_chip_11cxx_lib/src/adc_11xx.c **** 
  69:../../lpc11cx4-library/lpc_chip_11cxx_lib/src/adc_11xx.c **** 	if (burstMode) {
  70:../../lpc11cx4-library/lpc_chip_11cxx_lib/src/adc_11xx.c **** 		fullAdcRate = adcRate * clks;
  71:../../lpc11cx4-library/lpc_chip_11cxx_lib/src/adc_11xx.c **** 	}
  72:../../lpc11cx4-library/lpc_chip_11cxx_lib/src/adc_11xx.c **** 	else {
  73:../../lpc11cx4-library/lpc_chip_11cxx_lib/src/adc_11xx.c **** 		fullAdcRate = adcRate * getFullConvClk();
  74:../../lpc11cx4-library/lpc_chip_11cxx_lib/src/adc_11xx.c **** 	}
  75:../../lpc11cx4-library/lpc_chip_11cxx_lib/src/adc_11xx.c **** 
  76:../../lpc11cx4-library/lpc_chip_11cxx_lib/src/adc_11xx.c **** 	/* Get the round value by fomular: (2*A + B)/(2*B) */
  77:../../lpc11cx4-library/lpc_chip_11cxx_lib/src/adc_11xx.c **** 	div = ((adcBlockFreq * 2 + fullAdcRate) / (fullAdcRate * 2)) - 1;
  78:../../lpc11cx4-library/lpc_chip_11cxx_lib/src/adc_11xx.c **** 	return div;
  79:../../lpc11cx4-library/lpc_chip_11cxx_lib/src/adc_11xx.c **** }
  80:../../lpc11cx4-library/lpc_chip_11cxx_lib/src/adc_11xx.c **** 
  81:../../lpc11cx4-library/lpc_chip_11cxx_lib/src/adc_11xx.c **** /* Set start mode for ADC */
  82:../../lpc11cx4-library/lpc_chip_11cxx_lib/src/adc_11xx.c **** void setStartMode(LPC_ADC_T *pADC, uint8_t start_mode)
  83:../../lpc11cx4-library/lpc_chip_11cxx_lib/src/adc_11xx.c **** {
  75              		.loc 1 83 0
  76              		.cfi_startproc
  77              	.LVL0:
  78 0000 10B5     		push	{r4, lr}	@
  79              		.cfi_def_cfa_offset 8
  80              		.cfi_offset 4, -8
  81              		.cfi_offset 14, -4
  84:../../lpc11cx4-library/lpc_chip_11cxx_lib/src/adc_11xx.c **** 	uint32_t temp;
  85:../../lpc11cx4-library/lpc_chip_11cxx_lib/src/adc_11xx.c **** 	temp = pADC->CR & (~ADC_CR_START_MASK);
  82              		.loc 1 85 0
  83 0002 0468     		ldr	r4, [r0]	@ D.6312, pADC_2(D)->CR
  84              	.LVL1:
  85 0004 034A     		ldr	r2, .L2	@ tmp119,
  86:../../lpc11cx4-library/lpc_chip_11cxx_lib/src/adc_11xx.c **** 	pADC->CR = temp | (ADC_CR_START_MODE_SEL((uint32_t) start_mode));
ARM GAS  /var/folders/f9/8bk2lnw15zn4cbgn6wrnb4lm0000gn/T//ccQJhxmN.s 			page 4


  86              		.loc 1 86 0
  87 0006 0B06     		lsl	r3, r1, #24	@ D.6312, start_mode,
  85:../../lpc11cx4-library/lpc_chip_11cxx_lib/src/adc_11xx.c **** 	temp = pADC->CR & (~ADC_CR_START_MASK);
  88              		.loc 1 85 0
  89 0008 211C     		mov	r1, r4	@ temp, D.6312
  90              	.LVL2:
  91 000a 1140     		and	r1, r2	@ temp, tmp119
  92              	.LVL3:
  93              		.loc 1 86 0
  94 000c 1943     		orr	r1, r3	@ D.6312, D.6312
  95              	.LVL4:
  96 000e 0160     		str	r1, [r0]	@ D.6312, pADC_2(D)->CR
  87:../../lpc11cx4-library/lpc_chip_11cxx_lib/src/adc_11xx.c **** }
  97              		.loc 1 87 0
  98              		@ sp needed	@
  99              	.LVL5:
 100 0010 10BD     		pop	{r4, pc}
 101              	.L3:
 102 0012 C046     		.align	2
 103              	.L2:
 104 0014 FFFFFFF8 		.word	-117440513
 105              		.cfi_endproc
 106              	.LFE200:
 107              		.size	setStartMode, .-setStartMode
 108              		.section	.text.readAdcVal,"ax",%progbits
 109              		.align	1
 110              		.global	readAdcVal
 111              		.code	16
 112              		.thumb_func
 113              		.type	readAdcVal, %function
 114              	readAdcVal:
 115              	.LFB201:
  88:../../lpc11cx4-library/lpc_chip_11cxx_lib/src/adc_11xx.c **** 
  89:../../lpc11cx4-library/lpc_chip_11cxx_lib/src/adc_11xx.c **** /* Get the ADC value */
  90:../../lpc11cx4-library/lpc_chip_11cxx_lib/src/adc_11xx.c **** Status readAdcVal(LPC_ADC_T *pADC, uint8_t channel, uint16_t *data)
  91:../../lpc11cx4-library/lpc_chip_11cxx_lib/src/adc_11xx.c **** {
 116              		.loc 1 91 0
 117              		.cfi_startproc
 118              	.LVL6:
  92:../../lpc11cx4-library/lpc_chip_11cxx_lib/src/adc_11xx.c **** 	uint32_t temp;
  93:../../lpc11cx4-library/lpc_chip_11cxx_lib/src/adc_11xx.c **** 	temp = pADC->DR[channel];
 119              		.loc 1 93 0
 120 0000 0431     		add	r1, r1, #4	@ tmp121,
 121              	.LVL7:
 122 0002 8900     		lsl	r1, r1, #2	@ tmp122, tmp121,
 123 0004 0B58     		ldr	r3, [r1, r0]	@ temp, pADC_6(D)->DR
 124              	.LVL8:
  94:../../lpc11cx4-library/lpc_chip_11cxx_lib/src/adc_11xx.c **** 	if (!ADC_DR_DONE(temp)) {
  95:../../lpc11cx4-library/lpc_chip_11cxx_lib/src/adc_11xx.c **** 		return ERROR;
 125              		.loc 1 95 0
 126 0006 0020     		mov	r0, #0	@ D.6315,
 127              	.LVL9:
  94:../../lpc11cx4-library/lpc_chip_11cxx_lib/src/adc_11xx.c **** 	if (!ADC_DR_DONE(temp)) {
 128              		.loc 1 94 0
 129 0008 8342     		cmp	r3, r0	@ temp,
 130 000a 03DA     		bge	.L5	@,
  96:../../lpc11cx4-library/lpc_chip_11cxx_lib/src/adc_11xx.c **** 	}
ARM GAS  /var/folders/f9/8bk2lnw15zn4cbgn6wrnb4lm0000gn/T//ccQJhxmN.s 			page 5


  97:../../lpc11cx4-library/lpc_chip_11cxx_lib/src/adc_11xx.c **** 	/*	if(ADC_DR_OVERRUN(temp) && (pADC->CR & ADC_CR_BURST)) */
  98:../../lpc11cx4-library/lpc_chip_11cxx_lib/src/adc_11xx.c **** 	/*	return ERROR; */
  99:../../lpc11cx4-library/lpc_chip_11cxx_lib/src/adc_11xx.c **** 	*data = (uint16_t) ADC_DR_RESULT(temp);
 131              		.loc 1 99 0
 132 000c 1B04     		lsl	r3, r3, #16	@ tmp126, temp,
 133              	.LVL10:
 134 000e 9B0D     		lsr	r3, r3, #22	@ tmp125, tmp126,
 135 0010 1380     		strh	r3, [r2]	@ tmp125, *data_12(D)
 100:../../lpc11cx4-library/lpc_chip_11cxx_lib/src/adc_11xx.c **** 	return SUCCESS;
 136              		.loc 1 100 0
 137 0012 0120     		mov	r0, #1	@ D.6315,
 138              	.L5:
 101:../../lpc11cx4-library/lpc_chip_11cxx_lib/src/adc_11xx.c **** }
 139              		.loc 1 101 0
 140              		@ sp needed	@
 141 0014 7047     		bx	lr
 142              		.cfi_endproc
 143              	.LFE201:
 144              		.size	readAdcVal, .-readAdcVal
 145              		.global	__aeabi_uidiv
 146              		.section	.text.Chip_ADC_Init,"ax",%progbits
 147              		.align	1
 148              		.global	Chip_ADC_Init
 149              		.code	16
 150              		.thumb_func
 151              		.type	Chip_ADC_Init, %function
 152              	Chip_ADC_Init:
 153              	.LFB202:
 102:../../lpc11cx4-library/lpc_chip_11cxx_lib/src/adc_11xx.c **** 
 103:../../lpc11cx4-library/lpc_chip_11cxx_lib/src/adc_11xx.c **** /*****************************************************************************
 104:../../lpc11cx4-library/lpc_chip_11cxx_lib/src/adc_11xx.c ****  * Public functions
 105:../../lpc11cx4-library/lpc_chip_11cxx_lib/src/adc_11xx.c ****  ****************************************************************************/
 106:../../lpc11cx4-library/lpc_chip_11cxx_lib/src/adc_11xx.c **** 
 107:../../lpc11cx4-library/lpc_chip_11cxx_lib/src/adc_11xx.c **** /* Initialize the ADC peripheral and the ADC setup structure to default value */
 108:../../lpc11cx4-library/lpc_chip_11cxx_lib/src/adc_11xx.c **** void Chip_ADC_Init(LPC_ADC_T *pADC, ADC_CLOCK_SETUP_T *ADCSetup)
 109:../../lpc11cx4-library/lpc_chip_11cxx_lib/src/adc_11xx.c **** {
 154              		.loc 1 109 0
 155              		.cfi_startproc
 156              	.LVL11:
 157 0000 38B5     		push	{r3, r4, r5, lr}	@
 158              		.cfi_def_cfa_offset 16
 159              		.cfi_offset 3, -16
 160              		.cfi_offset 4, -12
 161              		.cfi_offset 5, -8
 162              		.cfi_offset 14, -4
 163              		.loc 1 109 0
 164 0002 051C     		mov	r5, r0	@ pADC, pADC
 110:../../lpc11cx4-library/lpc_chip_11cxx_lib/src/adc_11xx.c **** 	uint8_t div;
 111:../../lpc11cx4-library/lpc_chip_11cxx_lib/src/adc_11xx.c **** 	uint32_t cr = 0;
 112:../../lpc11cx4-library/lpc_chip_11cxx_lib/src/adc_11xx.c **** 	uint32_t clk;
 113:../../lpc11cx4-library/lpc_chip_11cxx_lib/src/adc_11xx.c **** 
 114:../../lpc11cx4-library/lpc_chip_11cxx_lib/src/adc_11xx.c **** 	Chip_SYSCTL_PowerUp(SYSCTL_POWERDOWN_ADC_PD);
 165              		.loc 1 114 0
 166 0004 1020     		mov	r0, #16	@,
 167              	.LVL12:
 109:../../lpc11cx4-library/lpc_chip_11cxx_lib/src/adc_11xx.c **** {
 168              		.loc 1 109 0
ARM GAS  /var/folders/f9/8bk2lnw15zn4cbgn6wrnb4lm0000gn/T//ccQJhxmN.s 			page 6


 169 0006 0C1C     		mov	r4, r1	@ ADCSetup, ADCSetup
 170              		.loc 1 114 0
 171 0008 FFF7FEFF 		bl	Chip_SYSCTL_PowerUp	@
 172              	.LVL13:
 173              	.LBB12:
 174              	.LBB13:
 175              		.file 2 "../../lpc11cx4-library/lpc_chip_11cxx_lib/inc/clock_11xx.h"
   1:../../lpc11cx4-library/lpc_chip_11cxx_lib/inc/clock_11xx.h **** /*
   2:../../lpc11cx4-library/lpc_chip_11cxx_lib/inc/clock_11xx.h ****  * @brief LPC11XX Clock control functions
   3:../../lpc11cx4-library/lpc_chip_11cxx_lib/inc/clock_11xx.h ****  *
   4:../../lpc11cx4-library/lpc_chip_11cxx_lib/inc/clock_11xx.h ****  * @note
   5:../../lpc11cx4-library/lpc_chip_11cxx_lib/inc/clock_11xx.h ****  * Copyright(C) NXP Semiconductors, 2012
   6:../../lpc11cx4-library/lpc_chip_11cxx_lib/inc/clock_11xx.h ****  * All rights reserved.
   7:../../lpc11cx4-library/lpc_chip_11cxx_lib/inc/clock_11xx.h ****  *
   8:../../lpc11cx4-library/lpc_chip_11cxx_lib/inc/clock_11xx.h ****  * @par
   9:../../lpc11cx4-library/lpc_chip_11cxx_lib/inc/clock_11xx.h ****  * Software that is described herein is for illustrative purposes only
  10:../../lpc11cx4-library/lpc_chip_11cxx_lib/inc/clock_11xx.h ****  * which provides customers with programming information regarding the
  11:../../lpc11cx4-library/lpc_chip_11cxx_lib/inc/clock_11xx.h ****  * LPC products.  This software is supplied "AS IS" without any warranties of
  12:../../lpc11cx4-library/lpc_chip_11cxx_lib/inc/clock_11xx.h ****  * any kind, and NXP Semiconductors and its licensor disclaim any and
  13:../../lpc11cx4-library/lpc_chip_11cxx_lib/inc/clock_11xx.h ****  * all warranties, express or implied, including all implied warranties of
  14:../../lpc11cx4-library/lpc_chip_11cxx_lib/inc/clock_11xx.h ****  * merchantability, fitness for a particular purpose and non-infringement of
  15:../../lpc11cx4-library/lpc_chip_11cxx_lib/inc/clock_11xx.h ****  * intellectual property rights.  NXP Semiconductors assumes no responsibility
  16:../../lpc11cx4-library/lpc_chip_11cxx_lib/inc/clock_11xx.h ****  * or liability for the use of the software, conveys no license or rights under any
  17:../../lpc11cx4-library/lpc_chip_11cxx_lib/inc/clock_11xx.h ****  * patent, copyright, mask work right, or any other intellectual property rights in
  18:../../lpc11cx4-library/lpc_chip_11cxx_lib/inc/clock_11xx.h ****  * or to any products. NXP Semiconductors reserves the right to make changes
  19:../../lpc11cx4-library/lpc_chip_11cxx_lib/inc/clock_11xx.h ****  * in the software without notification. NXP Semiconductors also makes no
  20:../../lpc11cx4-library/lpc_chip_11cxx_lib/inc/clock_11xx.h ****  * representation or warranty that such application will be suitable for the
  21:../../lpc11cx4-library/lpc_chip_11cxx_lib/inc/clock_11xx.h ****  * specified use without further testing or modification.
  22:../../lpc11cx4-library/lpc_chip_11cxx_lib/inc/clock_11xx.h ****  *
  23:../../lpc11cx4-library/lpc_chip_11cxx_lib/inc/clock_11xx.h ****  * @par
  24:../../lpc11cx4-library/lpc_chip_11cxx_lib/inc/clock_11xx.h ****  * Permission to use, copy, modify, and distribute this software and its
  25:../../lpc11cx4-library/lpc_chip_11cxx_lib/inc/clock_11xx.h ****  * documentation is hereby granted, under NXP Semiconductors' and its
  26:../../lpc11cx4-library/lpc_chip_11cxx_lib/inc/clock_11xx.h ****  * licensor's relevant copyrights in the software, without fee, provided that it
  27:../../lpc11cx4-library/lpc_chip_11cxx_lib/inc/clock_11xx.h ****  * is used in conjunction with NXP Semiconductors microcontrollers.  This
  28:../../lpc11cx4-library/lpc_chip_11cxx_lib/inc/clock_11xx.h ****  * copyright, permission, and disclaimer notice must appear in all copies of
  29:../../lpc11cx4-library/lpc_chip_11cxx_lib/inc/clock_11xx.h ****  * this code.
  30:../../lpc11cx4-library/lpc_chip_11cxx_lib/inc/clock_11xx.h ****  */
  31:../../lpc11cx4-library/lpc_chip_11cxx_lib/inc/clock_11xx.h **** 
  32:../../lpc11cx4-library/lpc_chip_11cxx_lib/inc/clock_11xx.h **** #ifndef __CLOCK_11XX_H_
  33:../../lpc11cx4-library/lpc_chip_11cxx_lib/inc/clock_11xx.h **** #define __CLOCK_11XX_H_
  34:../../lpc11cx4-library/lpc_chip_11cxx_lib/inc/clock_11xx.h **** 
  35:../../lpc11cx4-library/lpc_chip_11cxx_lib/inc/clock_11xx.h **** #ifdef __cplusplus
  36:../../lpc11cx4-library/lpc_chip_11cxx_lib/inc/clock_11xx.h **** extern "C" {
  37:../../lpc11cx4-library/lpc_chip_11cxx_lib/inc/clock_11xx.h **** #endif
  38:../../lpc11cx4-library/lpc_chip_11cxx_lib/inc/clock_11xx.h **** 
  39:../../lpc11cx4-library/lpc_chip_11cxx_lib/inc/clock_11xx.h **** /** @defgroup CLOCK_11XX CHIP: LPC11xx Clock Control block driver
  40:../../lpc11cx4-library/lpc_chip_11cxx_lib/inc/clock_11xx.h ****  * @ingroup CHIP_11XX_Drivers
  41:../../lpc11cx4-library/lpc_chip_11cxx_lib/inc/clock_11xx.h ****  * @{
  42:../../lpc11cx4-library/lpc_chip_11cxx_lib/inc/clock_11xx.h ****  */
  43:../../lpc11cx4-library/lpc_chip_11cxx_lib/inc/clock_11xx.h **** 
  44:../../lpc11cx4-library/lpc_chip_11cxx_lib/inc/clock_11xx.h **** /** Internal oscillator frequency */
  45:../../lpc11cx4-library/lpc_chip_11cxx_lib/inc/clock_11xx.h **** #define SYSCTL_IRC_FREQ (12000000)
  46:../../lpc11cx4-library/lpc_chip_11cxx_lib/inc/clock_11xx.h **** 
  47:../../lpc11cx4-library/lpc_chip_11cxx_lib/inc/clock_11xx.h **** /**
  48:../../lpc11cx4-library/lpc_chip_11cxx_lib/inc/clock_11xx.h ****  * @brief	Set System PLL divider values
  49:../../lpc11cx4-library/lpc_chip_11cxx_lib/inc/clock_11xx.h ****  * @param	msel    : PLL feedback divider value. M = msel + 1.
  50:../../lpc11cx4-library/lpc_chip_11cxx_lib/inc/clock_11xx.h ****  * @param	psel    : PLL post divider value. P =  (1<<psel).
ARM GAS  /var/folders/f9/8bk2lnw15zn4cbgn6wrnb4lm0000gn/T//ccQJhxmN.s 			page 7


  51:../../lpc11cx4-library/lpc_chip_11cxx_lib/inc/clock_11xx.h ****  * @return	Nothing
  52:../../lpc11cx4-library/lpc_chip_11cxx_lib/inc/clock_11xx.h ****  * @note	See the user manual for how to setup the PLL.
  53:../../lpc11cx4-library/lpc_chip_11cxx_lib/inc/clock_11xx.h ****  */
  54:../../lpc11cx4-library/lpc_chip_11cxx_lib/inc/clock_11xx.h **** STATIC INLINE void Chip_Clock_SetupSystemPLL(uint8_t msel, uint8_t psel)
  55:../../lpc11cx4-library/lpc_chip_11cxx_lib/inc/clock_11xx.h **** {
  56:../../lpc11cx4-library/lpc_chip_11cxx_lib/inc/clock_11xx.h **** 	LPC_SYSCTL->SYSPLLCTRL = (msel & 0x1F) | ((psel & 0x3) << 5);
  57:../../lpc11cx4-library/lpc_chip_11cxx_lib/inc/clock_11xx.h **** }
  58:../../lpc11cx4-library/lpc_chip_11cxx_lib/inc/clock_11xx.h **** 
  59:../../lpc11cx4-library/lpc_chip_11cxx_lib/inc/clock_11xx.h **** /**
  60:../../lpc11cx4-library/lpc_chip_11cxx_lib/inc/clock_11xx.h ****  * @brief	Read System PLL lock status
  61:../../lpc11cx4-library/lpc_chip_11cxx_lib/inc/clock_11xx.h ****  * @return	true of the PLL is locked. false if not locked
  62:../../lpc11cx4-library/lpc_chip_11cxx_lib/inc/clock_11xx.h ****  */
  63:../../lpc11cx4-library/lpc_chip_11cxx_lib/inc/clock_11xx.h **** STATIC INLINE bool Chip_Clock_IsSystemPLLLocked(void)
  64:../../lpc11cx4-library/lpc_chip_11cxx_lib/inc/clock_11xx.h **** {
  65:../../lpc11cx4-library/lpc_chip_11cxx_lib/inc/clock_11xx.h **** 	return (bool) ((LPC_SYSCTL->SYSPLLSTAT & 1) != 0);
  66:../../lpc11cx4-library/lpc_chip_11cxx_lib/inc/clock_11xx.h **** }
  67:../../lpc11cx4-library/lpc_chip_11cxx_lib/inc/clock_11xx.h **** 
  68:../../lpc11cx4-library/lpc_chip_11cxx_lib/inc/clock_11xx.h **** /**
  69:../../lpc11cx4-library/lpc_chip_11cxx_lib/inc/clock_11xx.h ****  * Clock sources for system and USB PLLs
  70:../../lpc11cx4-library/lpc_chip_11cxx_lib/inc/clock_11xx.h ****  */
  71:../../lpc11cx4-library/lpc_chip_11cxx_lib/inc/clock_11xx.h **** typedef enum CHIP_SYSCTL_PLLCLKSRC {
  72:../../lpc11cx4-library/lpc_chip_11cxx_lib/inc/clock_11xx.h **** 	SYSCTL_PLLCLKSRC_IRC = 0,		/*!< Internal oscillator in */
  73:../../lpc11cx4-library/lpc_chip_11cxx_lib/inc/clock_11xx.h **** 	SYSCTL_PLLCLKSRC_MAINOSC,		/*!< Crystal (main) oscillator in */
  74:../../lpc11cx4-library/lpc_chip_11cxx_lib/inc/clock_11xx.h **** #if defined(CHIP_LPC11AXX)
  75:../../lpc11cx4-library/lpc_chip_11cxx_lib/inc/clock_11xx.h **** 	SYSCTL_PLLCLKSRC_EXT_CLKIN,	/*!< External clock in (11Axx only) */
  76:../../lpc11cx4-library/lpc_chip_11cxx_lib/inc/clock_11xx.h **** #else
  77:../../lpc11cx4-library/lpc_chip_11cxx_lib/inc/clock_11xx.h **** 	SYSCTL_PLLCLKSRC_RESERVED1,	/*!< Reserved */
  78:../../lpc11cx4-library/lpc_chip_11cxx_lib/inc/clock_11xx.h **** #endif
  79:../../lpc11cx4-library/lpc_chip_11cxx_lib/inc/clock_11xx.h **** 	SYSCTL_PLLCLKSRC_RESERVED2,	/*!< Reserved */
  80:../../lpc11cx4-library/lpc_chip_11cxx_lib/inc/clock_11xx.h **** } CHIP_SYSCTL_PLLCLKSRC_T;
  81:../../lpc11cx4-library/lpc_chip_11cxx_lib/inc/clock_11xx.h **** 
  82:../../lpc11cx4-library/lpc_chip_11cxx_lib/inc/clock_11xx.h **** /**
  83:../../lpc11cx4-library/lpc_chip_11cxx_lib/inc/clock_11xx.h ****  * @brief	Set System PLL clock source
  84:../../lpc11cx4-library/lpc_chip_11cxx_lib/inc/clock_11xx.h ****  * @param	src	: Clock source for system PLL
  85:../../lpc11cx4-library/lpc_chip_11cxx_lib/inc/clock_11xx.h ****  * @return	Nothing
  86:../../lpc11cx4-library/lpc_chip_11cxx_lib/inc/clock_11xx.h ****  * @note	This function will also toggle the clock source update register
  87:../../lpc11cx4-library/lpc_chip_11cxx_lib/inc/clock_11xx.h ****  * to update the clock source.
  88:../../lpc11cx4-library/lpc_chip_11cxx_lib/inc/clock_11xx.h ****  */
  89:../../lpc11cx4-library/lpc_chip_11cxx_lib/inc/clock_11xx.h **** void Chip_Clock_SetSystemPLLSource(CHIP_SYSCTL_PLLCLKSRC_T src);
  90:../../lpc11cx4-library/lpc_chip_11cxx_lib/inc/clock_11xx.h **** 
  91:../../lpc11cx4-library/lpc_chip_11cxx_lib/inc/clock_11xx.h **** #if defined(CHIP_LPC11UXX)
  92:../../lpc11cx4-library/lpc_chip_11cxx_lib/inc/clock_11xx.h **** /**
  93:../../lpc11cx4-library/lpc_chip_11cxx_lib/inc/clock_11xx.h ****  * @brief	Set USB PLL divider values
  94:../../lpc11cx4-library/lpc_chip_11cxx_lib/inc/clock_11xx.h ****  * @param	msel    : PLL feedback divider value. M = msel + 1.
  95:../../lpc11cx4-library/lpc_chip_11cxx_lib/inc/clock_11xx.h ****  * @param	psel    : PLL post divider value. P = (1<<psel).
  96:../../lpc11cx4-library/lpc_chip_11cxx_lib/inc/clock_11xx.h ****  * @return	Nothing
  97:../../lpc11cx4-library/lpc_chip_11cxx_lib/inc/clock_11xx.h ****  * @note	See the user manual for how to setup the PLL.
  98:../../lpc11cx4-library/lpc_chip_11cxx_lib/inc/clock_11xx.h ****  */
  99:../../lpc11cx4-library/lpc_chip_11cxx_lib/inc/clock_11xx.h **** STATIC INLINE void Chip_Clock_SetupUSBPLL(uint8_t msel, uint8_t psel)
 100:../../lpc11cx4-library/lpc_chip_11cxx_lib/inc/clock_11xx.h **** {
 101:../../lpc11cx4-library/lpc_chip_11cxx_lib/inc/clock_11xx.h **** 	LPC_SYSCTL->USBPLLCTRL = (msel & 0x1F) | ((psel & 0x3) << 5);
 102:../../lpc11cx4-library/lpc_chip_11cxx_lib/inc/clock_11xx.h **** }
 103:../../lpc11cx4-library/lpc_chip_11cxx_lib/inc/clock_11xx.h **** 
 104:../../lpc11cx4-library/lpc_chip_11cxx_lib/inc/clock_11xx.h **** /**
 105:../../lpc11cx4-library/lpc_chip_11cxx_lib/inc/clock_11xx.h ****  * @brief	Read USB PLL lock status
 106:../../lpc11cx4-library/lpc_chip_11cxx_lib/inc/clock_11xx.h ****  * @return	true of the PLL is locked. false if not locked
 107:../../lpc11cx4-library/lpc_chip_11cxx_lib/inc/clock_11xx.h ****  */
ARM GAS  /var/folders/f9/8bk2lnw15zn4cbgn6wrnb4lm0000gn/T//ccQJhxmN.s 			page 8


 108:../../lpc11cx4-library/lpc_chip_11cxx_lib/inc/clock_11xx.h **** STATIC INLINE bool Chip_Clock_IsUSBPLLLocked(void)
 109:../../lpc11cx4-library/lpc_chip_11cxx_lib/inc/clock_11xx.h **** {
 110:../../lpc11cx4-library/lpc_chip_11cxx_lib/inc/clock_11xx.h **** 	return (bool) ((LPC_SYSCTL->USBPLLSTAT & 1) != 0);
 111:../../lpc11cx4-library/lpc_chip_11cxx_lib/inc/clock_11xx.h **** }
 112:../../lpc11cx4-library/lpc_chip_11cxx_lib/inc/clock_11xx.h **** 
 113:../../lpc11cx4-library/lpc_chip_11cxx_lib/inc/clock_11xx.h **** /**
 114:../../lpc11cx4-library/lpc_chip_11cxx_lib/inc/clock_11xx.h ****  * @brief	Set USB PLL clock source
 115:../../lpc11cx4-library/lpc_chip_11cxx_lib/inc/clock_11xx.h ****  * @param	src	: Clock source for USB PLL
 116:../../lpc11cx4-library/lpc_chip_11cxx_lib/inc/clock_11xx.h ****  * @return	Nothing
 117:../../lpc11cx4-library/lpc_chip_11cxx_lib/inc/clock_11xx.h ****  * @note	This function will also toggle the clock source update register
 118:../../lpc11cx4-library/lpc_chip_11cxx_lib/inc/clock_11xx.h ****  * to update the clock source.
 119:../../lpc11cx4-library/lpc_chip_11cxx_lib/inc/clock_11xx.h ****  */
 120:../../lpc11cx4-library/lpc_chip_11cxx_lib/inc/clock_11xx.h **** void Chip_Clock_SetUSBPLLSource(CHIP_SYSCTL_PLLCLKSRC_T src);
 121:../../lpc11cx4-library/lpc_chip_11cxx_lib/inc/clock_11xx.h **** 
 122:../../lpc11cx4-library/lpc_chip_11cxx_lib/inc/clock_11xx.h **** #endif /*defined(CHIP_LPC11UXX)*/
 123:../../lpc11cx4-library/lpc_chip_11cxx_lib/inc/clock_11xx.h **** 
 124:../../lpc11cx4-library/lpc_chip_11cxx_lib/inc/clock_11xx.h **** /**
 125:../../lpc11cx4-library/lpc_chip_11cxx_lib/inc/clock_11xx.h ****  * @brief	Bypass System Oscillator and set oscillator frequency range
 126:../../lpc11cx4-library/lpc_chip_11cxx_lib/inc/clock_11xx.h ****  * @param	bypass	: Flag to bypass oscillator
 127:../../lpc11cx4-library/lpc_chip_11cxx_lib/inc/clock_11xx.h ****  * @param	highfr	: Flag to set oscillator range from 15-25 MHz
 128:../../lpc11cx4-library/lpc_chip_11cxx_lib/inc/clock_11xx.h ****  * @return	Nothing
 129:../../lpc11cx4-library/lpc_chip_11cxx_lib/inc/clock_11xx.h ****  * @note	Sets the PLL input to bypass the oscillator. This would be
 130:../../lpc11cx4-library/lpc_chip_11cxx_lib/inc/clock_11xx.h ****  * used if an external clock that is not an oscillator is attached
 131:../../lpc11cx4-library/lpc_chip_11cxx_lib/inc/clock_11xx.h ****  * to the XTALIN pin.
 132:../../lpc11cx4-library/lpc_chip_11cxx_lib/inc/clock_11xx.h ****  */
 133:../../lpc11cx4-library/lpc_chip_11cxx_lib/inc/clock_11xx.h **** void Chip_Clock_SetPLLBypass(bool bypass, bool highfr);
 134:../../lpc11cx4-library/lpc_chip_11cxx_lib/inc/clock_11xx.h **** 
 135:../../lpc11cx4-library/lpc_chip_11cxx_lib/inc/clock_11xx.h **** /**
 136:../../lpc11cx4-library/lpc_chip_11cxx_lib/inc/clock_11xx.h ****  * Watchdog and low frequency oscillator frequencies plus or minus 40%
 137:../../lpc11cx4-library/lpc_chip_11cxx_lib/inc/clock_11xx.h ****  */
 138:../../lpc11cx4-library/lpc_chip_11cxx_lib/inc/clock_11xx.h **** typedef enum CHIP_WDTLFO_OSC {
 139:../../lpc11cx4-library/lpc_chip_11cxx_lib/inc/clock_11xx.h **** 	WDTLFO_OSC_ILLEGAL,
 140:../../lpc11cx4-library/lpc_chip_11cxx_lib/inc/clock_11xx.h **** 	WDTLFO_OSC_0_60,	/*!< 0.6 MHz watchdog/LFO rate */
 141:../../lpc11cx4-library/lpc_chip_11cxx_lib/inc/clock_11xx.h **** 	WDTLFO_OSC_1_05,	/*!< 1.05 MHz watchdog/LFO rate */
 142:../../lpc11cx4-library/lpc_chip_11cxx_lib/inc/clock_11xx.h **** 	WDTLFO_OSC_1_40,	/*!< 1.4 MHz watchdog/LFO rate */
 143:../../lpc11cx4-library/lpc_chip_11cxx_lib/inc/clock_11xx.h **** 	WDTLFO_OSC_1_75,	/*!< 1.75 MHz watchdog/LFO rate */
 144:../../lpc11cx4-library/lpc_chip_11cxx_lib/inc/clock_11xx.h **** 	WDTLFO_OSC_2_10,	/*!< 2.1 MHz watchdog/LFO rate */
 145:../../lpc11cx4-library/lpc_chip_11cxx_lib/inc/clock_11xx.h **** 	WDTLFO_OSC_2_40,	/*!< 2.4 MHz watchdog/LFO rate */
 146:../../lpc11cx4-library/lpc_chip_11cxx_lib/inc/clock_11xx.h **** 	WDTLFO_OSC_2_70,	/*!< 2.7 MHz watchdog/LFO rate */
 147:../../lpc11cx4-library/lpc_chip_11cxx_lib/inc/clock_11xx.h **** 	WDTLFO_OSC_3_00,	/*!< 3.0 MHz watchdog/LFO rate */
 148:../../lpc11cx4-library/lpc_chip_11cxx_lib/inc/clock_11xx.h **** 	WDTLFO_OSC_3_25,	/*!< 3.25 MHz watchdog/LFO rate */
 149:../../lpc11cx4-library/lpc_chip_11cxx_lib/inc/clock_11xx.h **** 	WDTLFO_OSC_3_50,	/*!< 3.5 MHz watchdog/LFO rate */
 150:../../lpc11cx4-library/lpc_chip_11cxx_lib/inc/clock_11xx.h **** 	WDTLFO_OSC_3_75,	/*!< 3.75 MHz watchdog/LFO rate */
 151:../../lpc11cx4-library/lpc_chip_11cxx_lib/inc/clock_11xx.h **** 	WDTLFO_OSC_4_00,	/*!< 4.0 MHz watchdog/LFO rate */
 152:../../lpc11cx4-library/lpc_chip_11cxx_lib/inc/clock_11xx.h **** 	WDTLFO_OSC_4_20,	/*!< 4.2 MHz watchdog/LFO rate */
 153:../../lpc11cx4-library/lpc_chip_11cxx_lib/inc/clock_11xx.h **** 	WDTLFO_OSC_4_40,	/*!< 4.4 MHz watchdog/LFO rate */
 154:../../lpc11cx4-library/lpc_chip_11cxx_lib/inc/clock_11xx.h **** 	WDTLFO_OSC_4_60		/*!< 4.6 MHz watchdog/LFO rate */
 155:../../lpc11cx4-library/lpc_chip_11cxx_lib/inc/clock_11xx.h **** } CHIP_WDTLFO_OSC_T;
 156:../../lpc11cx4-library/lpc_chip_11cxx_lib/inc/clock_11xx.h **** 
 157:../../lpc11cx4-library/lpc_chip_11cxx_lib/inc/clock_11xx.h **** /**
 158:../../lpc11cx4-library/lpc_chip_11cxx_lib/inc/clock_11xx.h ****  * @brief	Setup Watchdog oscillator rate and divider
 159:../../lpc11cx4-library/lpc_chip_11cxx_lib/inc/clock_11xx.h ****  * @param	wdtclk	: Selected watchdog clock rate
 160:../../lpc11cx4-library/lpc_chip_11cxx_lib/inc/clock_11xx.h ****  * @param	div		: Watchdog divider value, even value between 2 and 64
 161:../../lpc11cx4-library/lpc_chip_11cxx_lib/inc/clock_11xx.h ****  * @return	Nothing
 162:../../lpc11cx4-library/lpc_chip_11cxx_lib/inc/clock_11xx.h ****  * @note	Watchdog rate = selected rate divided by divider rate
 163:../../lpc11cx4-library/lpc_chip_11cxx_lib/inc/clock_11xx.h ****  */
 164:../../lpc11cx4-library/lpc_chip_11cxx_lib/inc/clock_11xx.h **** STATIC INLINE void Chip_Clock_SetWDTOSC(CHIP_WDTLFO_OSC_T wdtclk, uint8_t div)
ARM GAS  /var/folders/f9/8bk2lnw15zn4cbgn6wrnb4lm0000gn/T//ccQJhxmN.s 			page 9


 165:../../lpc11cx4-library/lpc_chip_11cxx_lib/inc/clock_11xx.h **** {
 166:../../lpc11cx4-library/lpc_chip_11cxx_lib/inc/clock_11xx.h **** 	LPC_SYSCTL->WDTOSCCTRL  = (((uint32_t) wdtclk) << 5) | ((div >> 1) - 1);
 167:../../lpc11cx4-library/lpc_chip_11cxx_lib/inc/clock_11xx.h **** }
 168:../../lpc11cx4-library/lpc_chip_11cxx_lib/inc/clock_11xx.h **** 
 169:../../lpc11cx4-library/lpc_chip_11cxx_lib/inc/clock_11xx.h **** #if defined(CHIP_LPC11AXX)
 170:../../lpc11cx4-library/lpc_chip_11cxx_lib/inc/clock_11xx.h **** /**
 171:../../lpc11cx4-library/lpc_chip_11cxx_lib/inc/clock_11xx.h ****  * @brief	Setup low frequency oscillator rate and divider
 172:../../lpc11cx4-library/lpc_chip_11cxx_lib/inc/clock_11xx.h ****  * @param	lfoclk	: Selected low frequency clock rate
 173:../../lpc11cx4-library/lpc_chip_11cxx_lib/inc/clock_11xx.h ****  * @param	div		: Low frequency divider value, even value between 2 and 64
 174:../../lpc11cx4-library/lpc_chip_11cxx_lib/inc/clock_11xx.h ****  * @return	Nothing
 175:../../lpc11cx4-library/lpc_chip_11cxx_lib/inc/clock_11xx.h ****  * @note	Low frequency oscillator rate = selected rate divided by divider rate
 176:../../lpc11cx4-library/lpc_chip_11cxx_lib/inc/clock_11xx.h ****  */
 177:../../lpc11cx4-library/lpc_chip_11cxx_lib/inc/clock_11xx.h **** STATIC INLINE void Chip_Clock_SetLFOSC(CHIP_WDTLFO_OSC_T lfoclk, uint8_t div)
 178:../../lpc11cx4-library/lpc_chip_11cxx_lib/inc/clock_11xx.h **** {
 179:../../lpc11cx4-library/lpc_chip_11cxx_lib/inc/clock_11xx.h **** 	LPC_SYSCTL->LFOSCCTRL  = (((uint32_t) lfoclk) << 5) | ((div >> 1) - 1);
 180:../../lpc11cx4-library/lpc_chip_11cxx_lib/inc/clock_11xx.h **** }
 181:../../lpc11cx4-library/lpc_chip_11cxx_lib/inc/clock_11xx.h **** 
 182:../../lpc11cx4-library/lpc_chip_11cxx_lib/inc/clock_11xx.h **** #endif /*CHIP_LPC11AXX*/
 183:../../lpc11cx4-library/lpc_chip_11cxx_lib/inc/clock_11xx.h **** 
 184:../../lpc11cx4-library/lpc_chip_11cxx_lib/inc/clock_11xx.h **** /**
 185:../../lpc11cx4-library/lpc_chip_11cxx_lib/inc/clock_11xx.h ****  * Clock sources for main system clock
 186:../../lpc11cx4-library/lpc_chip_11cxx_lib/inc/clock_11xx.h ****  */
 187:../../lpc11cx4-library/lpc_chip_11cxx_lib/inc/clock_11xx.h **** typedef enum CHIP_SYSCTL_MAINCLKSRC {
 188:../../lpc11cx4-library/lpc_chip_11cxx_lib/inc/clock_11xx.h **** 	SYSCTL_MAINCLKSRC_IRC = 0,		/*!< Internal oscillator */
 189:../../lpc11cx4-library/lpc_chip_11cxx_lib/inc/clock_11xx.h **** 	SYSCTL_MAINCLKSRC_PLLIN,		/*!< System PLL input */
 190:../../lpc11cx4-library/lpc_chip_11cxx_lib/inc/clock_11xx.h **** 	SYSCTL_MAINCLKSRC_LFOSC,		/*!< LF oscillator rate (11Axx only) */
 191:../../lpc11cx4-library/lpc_chip_11cxx_lib/inc/clock_11xx.h **** 	SYSCTL_MAINCLKSRC_WDTOSC = SYSCTL_MAINCLKSRC_LFOSC,	/*!< Watchdog oscillator rate */
 192:../../lpc11cx4-library/lpc_chip_11cxx_lib/inc/clock_11xx.h **** 	SYSCTL_MAINCLKSRC_PLLOUT,		/*!< System PLL output */
 193:../../lpc11cx4-library/lpc_chip_11cxx_lib/inc/clock_11xx.h **** } CHIP_SYSCTL_MAINCLKSRC_T;
 194:../../lpc11cx4-library/lpc_chip_11cxx_lib/inc/clock_11xx.h **** 
 195:../../lpc11cx4-library/lpc_chip_11cxx_lib/inc/clock_11xx.h **** /**
 196:../../lpc11cx4-library/lpc_chip_11cxx_lib/inc/clock_11xx.h ****  * @brief	Set main system clock source
 197:../../lpc11cx4-library/lpc_chip_11cxx_lib/inc/clock_11xx.h ****  * @param	src	: Clock source for main system
 198:../../lpc11cx4-library/lpc_chip_11cxx_lib/inc/clock_11xx.h ****  * @return	Nothing
 199:../../lpc11cx4-library/lpc_chip_11cxx_lib/inc/clock_11xx.h ****  * @note	This function will also toggle the clock source update register
 200:../../lpc11cx4-library/lpc_chip_11cxx_lib/inc/clock_11xx.h ****  * to update the clock source.
 201:../../lpc11cx4-library/lpc_chip_11cxx_lib/inc/clock_11xx.h ****  */
 202:../../lpc11cx4-library/lpc_chip_11cxx_lib/inc/clock_11xx.h **** void Chip_Clock_SetMainClockSource(CHIP_SYSCTL_MAINCLKSRC_T src);
 203:../../lpc11cx4-library/lpc_chip_11cxx_lib/inc/clock_11xx.h **** 
 204:../../lpc11cx4-library/lpc_chip_11cxx_lib/inc/clock_11xx.h **** /**
 205:../../lpc11cx4-library/lpc_chip_11cxx_lib/inc/clock_11xx.h ****  * @brief   Returns the main clock source
 206:../../lpc11cx4-library/lpc_chip_11cxx_lib/inc/clock_11xx.h ****  * @return	Which clock is used for the core clock source?
 207:../../lpc11cx4-library/lpc_chip_11cxx_lib/inc/clock_11xx.h ****  */
 208:../../lpc11cx4-library/lpc_chip_11cxx_lib/inc/clock_11xx.h **** STATIC INLINE CHIP_SYSCTL_MAINCLKSRC_T Chip_Clock_GetMainClockSource(void)
 209:../../lpc11cx4-library/lpc_chip_11cxx_lib/inc/clock_11xx.h **** {
 210:../../lpc11cx4-library/lpc_chip_11cxx_lib/inc/clock_11xx.h **** 	return (CHIP_SYSCTL_MAINCLKSRC_T) (LPC_SYSCTL->MAINCLKSEL);
 211:../../lpc11cx4-library/lpc_chip_11cxx_lib/inc/clock_11xx.h **** }
 212:../../lpc11cx4-library/lpc_chip_11cxx_lib/inc/clock_11xx.h **** 
 213:../../lpc11cx4-library/lpc_chip_11cxx_lib/inc/clock_11xx.h **** /**
 214:../../lpc11cx4-library/lpc_chip_11cxx_lib/inc/clock_11xx.h ****  * @brief	Set system clock divider
 215:../../lpc11cx4-library/lpc_chip_11cxx_lib/inc/clock_11xx.h ****  * @param	div	: divider for system clock
 216:../../lpc11cx4-library/lpc_chip_11cxx_lib/inc/clock_11xx.h ****  * @return	Nothing
 217:../../lpc11cx4-library/lpc_chip_11cxx_lib/inc/clock_11xx.h ****  * @note	Use 0 to disable, or a divider value of 1 to 255. The system clock
 218:../../lpc11cx4-library/lpc_chip_11cxx_lib/inc/clock_11xx.h ****  * rate is the main system clock divided by this value.
 219:../../lpc11cx4-library/lpc_chip_11cxx_lib/inc/clock_11xx.h ****  */
 220:../../lpc11cx4-library/lpc_chip_11cxx_lib/inc/clock_11xx.h **** STATIC INLINE void Chip_Clock_SetSysClockDiv(uint32_t div)
 221:../../lpc11cx4-library/lpc_chip_11cxx_lib/inc/clock_11xx.h **** {
ARM GAS  /var/folders/f9/8bk2lnw15zn4cbgn6wrnb4lm0000gn/T//ccQJhxmN.s 			page 10


 222:../../lpc11cx4-library/lpc_chip_11cxx_lib/inc/clock_11xx.h **** 	LPC_SYSCTL->SYSAHBCLKDIV  = div;
 223:../../lpc11cx4-library/lpc_chip_11cxx_lib/inc/clock_11xx.h **** }
 224:../../lpc11cx4-library/lpc_chip_11cxx_lib/inc/clock_11xx.h **** 
 225:../../lpc11cx4-library/lpc_chip_11cxx_lib/inc/clock_11xx.h **** /**
 226:../../lpc11cx4-library/lpc_chip_11cxx_lib/inc/clock_11xx.h ****  * System and peripheral clocks
 227:../../lpc11cx4-library/lpc_chip_11cxx_lib/inc/clock_11xx.h ****  */
 228:../../lpc11cx4-library/lpc_chip_11cxx_lib/inc/clock_11xx.h **** typedef enum CHIP_SYSCTL_CLOCK {
 229:../../lpc11cx4-library/lpc_chip_11cxx_lib/inc/clock_11xx.h **** 	SYSCTL_CLOCK_SYS = 0,				/*!< 0: System clock */
 230:../../lpc11cx4-library/lpc_chip_11cxx_lib/inc/clock_11xx.h **** 	SYSCTL_CLOCK_ROM,					/*!<1:  ROM clock */
 231:../../lpc11cx4-library/lpc_chip_11cxx_lib/inc/clock_11xx.h **** 	SYSCTL_CLOCK_RAM,					/*!< 2: RAM clock */
 232:../../lpc11cx4-library/lpc_chip_11cxx_lib/inc/clock_11xx.h **** 	SYSCTL_CLOCK_FLASHREG,				/*!< 3: FLASH register interface clock */
 233:../../lpc11cx4-library/lpc_chip_11cxx_lib/inc/clock_11xx.h **** 	SYSCTL_CLOCK_FLASHARRAY,			/*!< 4: FLASH array access clock */
 234:../../lpc11cx4-library/lpc_chip_11cxx_lib/inc/clock_11xx.h **** #if defined(CHIP_LPC110X)
 235:../../lpc11cx4-library/lpc_chip_11cxx_lib/inc/clock_11xx.h **** 	SYSCTL_CLOCK_RESERVED5,				/*!< 5: Reserved */
 236:../../lpc11cx4-library/lpc_chip_11cxx_lib/inc/clock_11xx.h **** #else
 237:../../lpc11cx4-library/lpc_chip_11cxx_lib/inc/clock_11xx.h **** 	SYSCTL_CLOCK_I2C,					/*!< 5: I2C clock, not on LPC110x */
 238:../../lpc11cx4-library/lpc_chip_11cxx_lib/inc/clock_11xx.h **** #endif
 239:../../lpc11cx4-library/lpc_chip_11cxx_lib/inc/clock_11xx.h **** 	SYSCTL_CLOCK_GPIO,					/*!< 6: GPIO clock */
 240:../../lpc11cx4-library/lpc_chip_11cxx_lib/inc/clock_11xx.h **** 	SYSCTL_CLOCK_CT16B0,				/*!< 7: 16-bit Counter/timer 0 clock */
 241:../../lpc11cx4-library/lpc_chip_11cxx_lib/inc/clock_11xx.h **** 	SYSCTL_CLOCK_CT16B1,				/*!< 8: 16-bit Counter/timer 1 clock */
 242:../../lpc11cx4-library/lpc_chip_11cxx_lib/inc/clock_11xx.h **** 	SYSCTL_CLOCK_CT32B0,				/*!< 9: 32-bit Counter/timer 0 clock */
 243:../../lpc11cx4-library/lpc_chip_11cxx_lib/inc/clock_11xx.h **** 	SYSCTL_CLOCK_CT32B1,				/*!< 10: 32-bit Counter/timer 1 clock */
 244:../../lpc11cx4-library/lpc_chip_11cxx_lib/inc/clock_11xx.h **** 	SYSCTL_CLOCK_SSP0,					/*!< 11: SSP0 clock */
 245:../../lpc11cx4-library/lpc_chip_11cxx_lib/inc/clock_11xx.h **** 	SYSCTL_CLOCK_UART0,					/*!< 12: UART0 clock */
 246:../../lpc11cx4-library/lpc_chip_11cxx_lib/inc/clock_11xx.h **** 	SYSCTL_CLOCK_ADC,					/*!< 13: ADC clock */
 247:../../lpc11cx4-library/lpc_chip_11cxx_lib/inc/clock_11xx.h **** #if defined(CHIP_LPC11UXX)
 248:../../lpc11cx4-library/lpc_chip_11cxx_lib/inc/clock_11xx.h **** 	SYSCTL_CLOCK_USB,					/*!< 14: USB clock, LPC11Uxx only */
 249:../../lpc11cx4-library/lpc_chip_11cxx_lib/inc/clock_11xx.h **** #else
 250:../../lpc11cx4-library/lpc_chip_11cxx_lib/inc/clock_11xx.h **** 	SYSCTL_CLOCK_RESERVED14,			/*!< 14: Reserved */
 251:../../lpc11cx4-library/lpc_chip_11cxx_lib/inc/clock_11xx.h **** #endif
 252:../../lpc11cx4-library/lpc_chip_11cxx_lib/inc/clock_11xx.h **** 	SYSCTL_CLOCK_WDT,					/*!< 15: Watchdog timer clock */
 253:../../lpc11cx4-library/lpc_chip_11cxx_lib/inc/clock_11xx.h **** 	SYSCTL_CLOCK_IOCON,					/*!< 16: IOCON block clock */
 254:../../lpc11cx4-library/lpc_chip_11cxx_lib/inc/clock_11xx.h **** #if defined(CHIP_LPC11CXX)
 255:../../lpc11cx4-library/lpc_chip_11cxx_lib/inc/clock_11xx.h **** 	SYSCTL_CLOCK_CAN,					/*!< 17: CAN clock, LPC11Cxx only */
 256:../../lpc11cx4-library/lpc_chip_11cxx_lib/inc/clock_11xx.h **** #else
 257:../../lpc11cx4-library/lpc_chip_11cxx_lib/inc/clock_11xx.h **** 	SYSCTL_CLOCK_RESERVED17,			/*!< 17: Reserved */
 258:../../lpc11cx4-library/lpc_chip_11cxx_lib/inc/clock_11xx.h **** #endif
 259:../../lpc11cx4-library/lpc_chip_11cxx_lib/inc/clock_11xx.h **** #if !(defined(CHIP_LPC110X) || defined(CHIP_LPC11XXLV))  
 260:../../lpc11cx4-library/lpc_chip_11cxx_lib/inc/clock_11xx.h **** 	SYSCTL_CLOCK_SSP1,					/*!< 18: SSP1 clock, LPC11A/C/E/Uxx//1125 only */
 261:../../lpc11cx4-library/lpc_chip_11cxx_lib/inc/clock_11xx.h **** #if !defined(CHIP_LPC11CXX)
 262:../../lpc11cx4-library/lpc_chip_11cxx_lib/inc/clock_11xx.h **** 	SYSCTL_CLOCK_PINT,					/*!< 19: GPIO Pin int register interface clock, LPC11A/E/Uxx only */
 263:../../lpc11cx4-library/lpc_chip_11cxx_lib/inc/clock_11xx.h **** #if defined(CHIP_LPC11AXX)
 264:../../lpc11cx4-library/lpc_chip_11cxx_lib/inc/clock_11xx.h **** 	SYSCTL_CLOCK_ACOMP,					/*!< 20: Analog comparator clock, LPC11Axx only */
 265:../../lpc11cx4-library/lpc_chip_11cxx_lib/inc/clock_11xx.h **** 	SYSCTL_CLOCK_DAC,					/*!< 21: DAC clock, LPC11Axx only */
 266:../../lpc11cx4-library/lpc_chip_11cxx_lib/inc/clock_11xx.h **** #else
 267:../../lpc11cx4-library/lpc_chip_11cxx_lib/inc/clock_11xx.h **** 	SYSCTL_CLOCK_RESERVED20,			/*!< 20: Reserved */
 268:../../lpc11cx4-library/lpc_chip_11cxx_lib/inc/clock_11xx.h **** 	SYSCTL_CLOCK_RESERVED21,			/*!< 21: Reserved */
 269:../../lpc11cx4-library/lpc_chip_11cxx_lib/inc/clock_11xx.h **** #endif
 270:../../lpc11cx4-library/lpc_chip_11cxx_lib/inc/clock_11xx.h **** 	SYSCTL_CLOCK_RESERVED22,			/*!< 22: Reserved */
 271:../../lpc11cx4-library/lpc_chip_11cxx_lib/inc/clock_11xx.h **** 	SYSCTL_CLOCK_P0INT,					/*!< 23: GPIO GROUP1 interrupt register clock, LPC11Axx only */
 272:../../lpc11cx4-library/lpc_chip_11cxx_lib/inc/clock_11xx.h **** 	SYSCTL_CLOCK_GROUP0INT = SYSCTL_CLOCK_P0INT,/*!< 23: GPIO GROUP0 interrupt register interface cloc
 273:../../lpc11cx4-library/lpc_chip_11cxx_lib/inc/clock_11xx.h **** 	SYSCTL_CLOCK_P1INT,					/*!< 24: GPIO GROUP1 interrupt register clock, LPC11Axx only */
 274:../../lpc11cx4-library/lpc_chip_11cxx_lib/inc/clock_11xx.h **** 	SYSCTL_CLOCK_GROUP1INT = SYSCTL_CLOCK_P1INT,/*!< 24: GPIO GROUP1 interrupt register interface cloc
 275:../../lpc11cx4-library/lpc_chip_11cxx_lib/inc/clock_11xx.h **** 	SYSCTL_CLOCK_RESERVED25,			/*!< 25: Reserved */
 276:../../lpc11cx4-library/lpc_chip_11cxx_lib/inc/clock_11xx.h **** #if defined(CHIP_LPC11EXX)  || defined(CHIP_LPC11UXX)
 277:../../lpc11cx4-library/lpc_chip_11cxx_lib/inc/clock_11xx.h **** 	SYSCTL_CLOCK_RAM1,					/*!< 26: SRAM block (0x20000000) clock, LPC11E/Uxx only */
 278:../../lpc11cx4-library/lpc_chip_11cxx_lib/inc/clock_11xx.h **** #else
ARM GAS  /var/folders/f9/8bk2lnw15zn4cbgn6wrnb4lm0000gn/T//ccQJhxmN.s 			page 11


 279:../../lpc11cx4-library/lpc_chip_11cxx_lib/inc/clock_11xx.h **** 	SYSCTL_CLOCK_RESERVED26,			/*!< 26: Reserved */
 280:../../lpc11cx4-library/lpc_chip_11cxx_lib/inc/clock_11xx.h **** #endif
 281:../../lpc11cx4-library/lpc_chip_11cxx_lib/inc/clock_11xx.h **** #if defined(CHIP_LPC11UXX)
 282:../../lpc11cx4-library/lpc_chip_11cxx_lib/inc/clock_11xx.h **** 	SYSCTL_CLOCK_USBRAM,				/*!< 27: USB SRAM block clock, LPC11Uxx only */
 283:../../lpc11cx4-library/lpc_chip_11cxx_lib/inc/clock_11xx.h **** #else
 284:../../lpc11cx4-library/lpc_chip_11cxx_lib/inc/clock_11xx.h **** 	SYSCTL_CLOCK_RESERVED27,			/*!< 27: Reserved */
 285:../../lpc11cx4-library/lpc_chip_11cxx_lib/inc/clock_11xx.h **** #endif
 286:../../lpc11cx4-library/lpc_chip_11cxx_lib/inc/clock_11xx.h **** #endif /* !defined(CHIP_LPC11CXX) */
 287:../../lpc11cx4-library/lpc_chip_11cxx_lib/inc/clock_11xx.h **** #endif /* !(defined(CHIP_LPC110X) || defined(CHIP_LPC11XXLV)) */
 288:../../lpc11cx4-library/lpc_chip_11cxx_lib/inc/clock_11xx.h **** } CHIP_SYSCTL_CLOCK_T;
 289:../../lpc11cx4-library/lpc_chip_11cxx_lib/inc/clock_11xx.h **** 
 290:../../lpc11cx4-library/lpc_chip_11cxx_lib/inc/clock_11xx.h **** /**
 291:../../lpc11cx4-library/lpc_chip_11cxx_lib/inc/clock_11xx.h ****  * @brief	Enable a system or peripheral clock
 292:../../lpc11cx4-library/lpc_chip_11cxx_lib/inc/clock_11xx.h ****  * @param	clk	: Clock to enable
 293:../../lpc11cx4-library/lpc_chip_11cxx_lib/inc/clock_11xx.h ****  * @return	Nothing
 294:../../lpc11cx4-library/lpc_chip_11cxx_lib/inc/clock_11xx.h ****  */
 295:../../lpc11cx4-library/lpc_chip_11cxx_lib/inc/clock_11xx.h **** STATIC INLINE void Chip_Clock_EnablePeriphClock(CHIP_SYSCTL_CLOCK_T clk)
 296:../../lpc11cx4-library/lpc_chip_11cxx_lib/inc/clock_11xx.h **** {
 297:../../lpc11cx4-library/lpc_chip_11cxx_lib/inc/clock_11xx.h **** 	LPC_SYSCTL->SYSAHBCLKCTRL |= (1 << clk);
 176              		.loc 2 297 0
 177 000c 104B     		ldr	r3, .L9	@ tmp131,
 178 000e 8022     		mov	r2, #128	@ tmp158,
 179 0010 D96F     		ldr	r1, [r3, #124]	@ D.6331, MEM[(struct LPC_SYSCTL_T *)1074036736B].SYSAHBCLKCTRL
 180 0012 9201     		lsl	r2, r2, #6	@ tmp132, tmp158,
 181 0014 0A43     		orr	r2, r1	@ D.6331, D.6331
 182 0016 DA67     		str	r2, [r3, #124]	@ D.6331, MEM[(struct LPC_SYSCTL_T *)1074036736B].SYSAHBCLKCTRL
 183              	.LBE13:
 184              	.LBE12:
 115:../../lpc11cx4-library/lpc_chip_11cxx_lib/src/adc_11xx.c **** 
 116:../../lpc11cx4-library/lpc_chip_11cxx_lib/src/adc_11xx.c **** 	Chip_Clock_EnablePeriphClock(SYSCTL_CLOCK_ADC);
 117:../../lpc11cx4-library/lpc_chip_11cxx_lib/src/adc_11xx.c **** 
 118:../../lpc11cx4-library/lpc_chip_11cxx_lib/src/adc_11xx.c **** 	pADC->INTEN = 0;		/* Disable all interrupts */
 119:../../lpc11cx4-library/lpc_chip_11cxx_lib/src/adc_11xx.c **** 
 120:../../lpc11cx4-library/lpc_chip_11cxx_lib/src/adc_11xx.c **** 	cr |= ADC_CR_PDN;
 121:../../lpc11cx4-library/lpc_chip_11cxx_lib/src/adc_11xx.c **** 
 122:../../lpc11cx4-library/lpc_chip_11cxx_lib/src/adc_11xx.c **** 	ADCSetup->adcRate = ADC_MAX_SAMPLE_RATE;
 185              		.loc 1 122 0
 186 0018 0E4A     		ldr	r2, .L9+4	@ tmp136,
 118:../../lpc11cx4-library/lpc_chip_11cxx_lib/src/adc_11xx.c **** 	pADC->INTEN = 0;		/* Disable all interrupts */
 187              		.loc 1 118 0
 188 001a 0023     		mov	r3, #0	@ tmp135,
 189 001c EB60     		str	r3, [r5, #12]	@ tmp135, pADC_5(D)->INTEN
 190              	.LVL14:
 191              		.loc 1 122 0
 192 001e 2260     		str	r2, [r4]	@ tmp136, ADCSetup_7(D)->adcRate
 123:../../lpc11cx4-library/lpc_chip_11cxx_lib/src/adc_11xx.c **** 	ADCSetup->bitsAccuracy = ADC_10BITS;
 193              		.loc 1 123 0
 194 0020 2371     		strb	r3, [r4, #4]	@ tmp135, ADCSetup_7(D)->bitsAccuracy
 195              	.LVL15:
 124:../../lpc11cx4-library/lpc_chip_11cxx_lib/src/adc_11xx.c **** 	clk = 11;
 125:../../lpc11cx4-library/lpc_chip_11cxx_lib/src/adc_11xx.c **** 
 126:../../lpc11cx4-library/lpc_chip_11cxx_lib/src/adc_11xx.c **** 	ADCSetup->burstMode = false;
 196              		.loc 1 126 0
 197 0022 6371     		strb	r3, [r4, #5]	@ tmp135, ADCSetup_7(D)->burstMode
 198              	.LVL16:
 199              	.LBB14:
 200              	.LBB15:
ARM GAS  /var/folders/f9/8bk2lnw15zn4cbgn6wrnb4lm0000gn/T//ccQJhxmN.s 			page 12


  67:../../lpc11cx4-library/lpc_chip_11cxx_lib/src/adc_11xx.c **** 	adcBlockFreq = Chip_Clock_GetSystemClockRate();
 201              		.loc 1 67 0
 202 0024 FFF7FEFF 		bl	Chip_Clock_GetSystemClockRate	@
 203              	.LVL17:
 204              	.LBE15:
 205              	.LBE14:
 127:../../lpc11cx4-library/lpc_chip_11cxx_lib/src/adc_11xx.c **** 	div = getClkDiv(false, ADCSetup->adcRate, clk);
 128:../../lpc11cx4-library/lpc_chip_11cxx_lib/src/adc_11xx.c **** 	cr |= ADC_CR_CLKDIV(div);
 129:../../lpc11cx4-library/lpc_chip_11cxx_lib/src/adc_11xx.c **** 	cr |= ADC_CR_BITACC(ADCSetup->bitsAccuracy);
 206              		.loc 1 129 0
 207 0028 2479     		ldrb	r4, [r4, #4]	@ tmp142,
 208              	.LVL18:
 209 002a 0723     		mov	r3, #7	@ tmp144,
 210 002c 2340     		and	r3, r4	@ D.6330, tmp142
 128:../../lpc11cx4-library/lpc_chip_11cxx_lib/src/adc_11xx.c **** 	cr |= ADC_CR_CLKDIV(div);
 211              		.loc 1 128 0
 212 002e 8024     		mov	r4, #128	@ tmp159,
 213              		.loc 1 129 0
 214 0030 5B04     		lsl	r3, r3, #17	@ D.6330, D.6330,
 128:../../lpc11cx4-library/lpc_chip_11cxx_lib/src/adc_11xx.c **** 	cr |= ADC_CR_CLKDIV(div);
 215              		.loc 1 128 0
 216 0032 A403     		lsl	r4, r4, #14	@ tmp147, tmp159,
 217 0034 1C43     		orr	r4, r3	@ cr, D.6330
 218              	.LBB17:
 219              	.LBB16:
  77:../../lpc11cx4-library/lpc_chip_11cxx_lib/src/adc_11xx.c **** 	div = ((adcBlockFreq * 2 + fullAdcRate) / (fullAdcRate * 2)) - 1;
 220              		.loc 1 77 0
 221 0036 084B     		ldr	r3, .L9+8	@,
 222 0038 4000     		lsl	r0, r0, #1	@ D.6331, adcBlockFreq,
 223              	.LVL19:
 224 003a C018     		add	r0, r0, r3	@ D.6331, D.6331,
 225              	.LVL20:
 226 003c 0749     		ldr	r1, .L9+12	@,
 227 003e FFF7FEFF 		bl	__aeabi_uidiv	@
 228              	.LVL21:
 229 0042 431E     		sub	r3, r0, #1	@ tmp155, D.6331,
 230              	.LBE16:
 231              	.LBE17:
 128:../../lpc11cx4-library/lpc_chip_11cxx_lib/src/adc_11xx.c **** 	cr |= ADC_CR_CLKDIV(div);
 232              		.loc 1 128 0
 233 0044 DBB2     		uxtb	r3, r3	@ D.6330, tmp155
 234 0046 1B02     		lsl	r3, r3, #8	@ D.6330, D.6330,
 235              		.loc 1 129 0
 236 0048 1C43     		orr	r4, r3	@ cr, D.6330
 237              	.LVL22:
 130:../../lpc11cx4-library/lpc_chip_11cxx_lib/src/adc_11xx.c **** 	pADC->CR = cr;
 238              		.loc 1 130 0
 239 004a 2C60     		str	r4, [r5]	@ cr, pADC_5(D)->CR
 131:../../lpc11cx4-library/lpc_chip_11cxx_lib/src/adc_11xx.c **** }
 240              		.loc 1 131 0
 241              		@ sp needed	@
 242              	.LVL23:
 243              	.LVL24:
 244 004c 38BD     		pop	{r3, r4, r5, pc}
 245              	.L10:
 246 004e C046     		.align	2
 247              	.L9:
ARM GAS  /var/folders/f9/8bk2lnw15zn4cbgn6wrnb4lm0000gn/T//ccQJhxmN.s 			page 13


 248 0050 04800440 		.word	1074036740
 249 0054 801A0600 		.word	400000
 250 0058 80234300 		.word	4400000
 251 005c 00478600 		.word	8800000
 252              		.cfi_endproc
 253              	.LFE202:
 254              		.size	Chip_ADC_Init, .-Chip_ADC_Init
 255              		.section	.text.Chip_ADC_DeInit,"ax",%progbits
 256              		.align	1
 257              		.global	Chip_ADC_DeInit
 258              		.code	16
 259              		.thumb_func
 260              		.type	Chip_ADC_DeInit, %function
 261              	Chip_ADC_DeInit:
 262              	.LFB203:
 132:../../lpc11cx4-library/lpc_chip_11cxx_lib/src/adc_11xx.c **** 
 133:../../lpc11cx4-library/lpc_chip_11cxx_lib/src/adc_11xx.c **** /* Shutdown ADC */
 134:../../lpc11cx4-library/lpc_chip_11cxx_lib/src/adc_11xx.c **** void Chip_ADC_DeInit(LPC_ADC_T *pADC)
 135:../../lpc11cx4-library/lpc_chip_11cxx_lib/src/adc_11xx.c **** {
 263              		.loc 1 135 0
 264              		.cfi_startproc
 265              	.LVL25:
 266 0000 08B5     		push	{r3, lr}	@
 267              		.cfi_def_cfa_offset 8
 268              		.cfi_offset 3, -8
 269              		.cfi_offset 14, -4
 136:../../lpc11cx4-library/lpc_chip_11cxx_lib/src/adc_11xx.c **** 	pADC->INTEN = 0x00000100;
 270              		.loc 1 136 0
 271 0002 8023     		mov	r3, #128	@ tmp120,
 272 0004 5B00     		lsl	r3, r3, #1	@ tmp113, tmp120,
 273 0006 C360     		str	r3, [r0, #12]	@ tmp113, pADC_2(D)->INTEN
 137:../../lpc11cx4-library/lpc_chip_11cxx_lib/src/adc_11xx.c **** 	pADC->CR = 0;
 274              		.loc 1 137 0
 275 0008 0023     		mov	r3, #0	@ tmp114,
 276 000a 0360     		str	r3, [r0]	@ tmp114, pADC_2(D)->CR
 277              	.LVL26:
 278              	.LBB20:
 279              	.LBB21:
 298:../../lpc11cx4-library/lpc_chip_11cxx_lib/inc/clock_11xx.h **** }
 299:../../lpc11cx4-library/lpc_chip_11cxx_lib/inc/clock_11xx.h **** 
 300:../../lpc11cx4-library/lpc_chip_11cxx_lib/inc/clock_11xx.h **** /**
 301:../../lpc11cx4-library/lpc_chip_11cxx_lib/inc/clock_11xx.h ****  * @brief	Disable a system or peripheral clock
 302:../../lpc11cx4-library/lpc_chip_11cxx_lib/inc/clock_11xx.h ****  * @param	clk	: Clock to disable
 303:../../lpc11cx4-library/lpc_chip_11cxx_lib/inc/clock_11xx.h ****  * @return	Nothing
 304:../../lpc11cx4-library/lpc_chip_11cxx_lib/inc/clock_11xx.h ****  */
 305:../../lpc11cx4-library/lpc_chip_11cxx_lib/inc/clock_11xx.h **** STATIC INLINE void Chip_Clock_DisablePeriphClock(CHIP_SYSCTL_CLOCK_T clk)
 306:../../lpc11cx4-library/lpc_chip_11cxx_lib/inc/clock_11xx.h **** {
 307:../../lpc11cx4-library/lpc_chip_11cxx_lib/inc/clock_11xx.h **** 	LPC_SYSCTL->SYSAHBCLKCTRL &= ~(1 << clk);
 280              		.loc 2 307 0
 281 000c 044B     		ldr	r3, .L12	@ tmp116,
 282 000e 054A     		ldr	r2, .L12+4	@ tmp117,
 283 0010 D96F     		ldr	r1, [r3, #124]	@ D.6335, MEM[(struct LPC_SYSCTL_T *)1074036736B].SYSAHBCLKCTRL
 284              	.LBE21:
 285              	.LBE20:
 138:../../lpc11cx4-library/lpc_chip_11cxx_lib/src/adc_11xx.c **** 	Chip_Clock_DisablePeriphClock(SYSCTL_CLOCK_ADC);
 139:../../lpc11cx4-library/lpc_chip_11cxx_lib/src/adc_11xx.c **** 	Chip_SYSCTL_PowerDown(SYSCTL_POWERDOWN_ADC_PD);
 286              		.loc 1 139 0
ARM GAS  /var/folders/f9/8bk2lnw15zn4cbgn6wrnb4lm0000gn/T//ccQJhxmN.s 			page 14


 287 0012 1020     		mov	r0, #16	@,
 288              	.LVL27:
 289              	.LBB23:
 290              	.LBB22:
 291              		.loc 2 307 0
 292 0014 0A40     		and	r2, r1	@ D.6335, D.6335
 293 0016 DA67     		str	r2, [r3, #124]	@ D.6335, MEM[(struct LPC_SYSCTL_T *)1074036736B].SYSAHBCLKCTRL
 294              	.LBE22:
 295              	.LBE23:
 296              		.loc 1 139 0
 297 0018 FFF7FEFF 		bl	Chip_SYSCTL_PowerDown	@
 298              	.LVL28:
 140:../../lpc11cx4-library/lpc_chip_11cxx_lib/src/adc_11xx.c **** }
 299              		.loc 1 140 0
 300              		@ sp needed	@
 301 001c 08BD     		pop	{r3, pc}
 302              	.L13:
 303 001e C046     		.align	2
 304              	.L12:
 305 0020 04800440 		.word	1074036740
 306 0024 FFDFFFFF 		.word	-8193
 307              		.cfi_endproc
 308              	.LFE203:
 309              		.size	Chip_ADC_DeInit, .-Chip_ADC_DeInit
 310              		.section	.text.Chip_ADC_ReadValue,"ax",%progbits
 311              		.align	1
 312              		.global	Chip_ADC_ReadValue
 313              		.code	16
 314              		.thumb_func
 315              		.type	Chip_ADC_ReadValue, %function
 316              	Chip_ADC_ReadValue:
 317              	.LFB204:
 141:../../lpc11cx4-library/lpc_chip_11cxx_lib/src/adc_11xx.c **** 
 142:../../lpc11cx4-library/lpc_chip_11cxx_lib/src/adc_11xx.c **** /* Get the ADC value */
 143:../../lpc11cx4-library/lpc_chip_11cxx_lib/src/adc_11xx.c **** Status Chip_ADC_ReadValue(LPC_ADC_T *pADC, uint8_t channel, uint16_t *data)
 144:../../lpc11cx4-library/lpc_chip_11cxx_lib/src/adc_11xx.c **** {
 318              		.loc 1 144 0
 319              		.cfi_startproc
 320              	.LVL29:
 321              	.LBB24:
 322              	.LBB25:
  93:../../lpc11cx4-library/lpc_chip_11cxx_lib/src/adc_11xx.c **** 	temp = pADC->DR[channel];
 323              		.loc 1 93 0
 324 0000 0431     		add	r1, r1, #4	@ tmp121,
 325              	.LVL30:
 326 0002 8900     		lsl	r1, r1, #2	@ tmp122, tmp121,
 327              	.LVL31:
 328 0004 0B58     		ldr	r3, [r1, r0]	@ temp, pADC_2(D)->DR
 329              	.LVL32:
  95:../../lpc11cx4-library/lpc_chip_11cxx_lib/src/adc_11xx.c **** 		return ERROR;
 330              		.loc 1 95 0
 331 0006 0020     		mov	r0, #0	@ D.6341,
 332              	.LVL33:
  94:../../lpc11cx4-library/lpc_chip_11cxx_lib/src/adc_11xx.c **** 	if (!ADC_DR_DONE(temp)) {
 333              		.loc 1 94 0
 334 0008 8342     		cmp	r3, r0	@ temp,
 335 000a 03DA     		bge	.L15	@,
ARM GAS  /var/folders/f9/8bk2lnw15zn4cbgn6wrnb4lm0000gn/T//ccQJhxmN.s 			page 15


  99:../../lpc11cx4-library/lpc_chip_11cxx_lib/src/adc_11xx.c **** 	*data = (uint16_t) ADC_DR_RESULT(temp);
 336              		.loc 1 99 0
 337 000c 1B04     		lsl	r3, r3, #16	@ tmp126, temp,
 338              	.LVL34:
 339 000e 9B0D     		lsr	r3, r3, #22	@ tmp125, tmp126,
 340 0010 1380     		strh	r3, [r2]	@ tmp125, *data_4(D)
 100:../../lpc11cx4-library/lpc_chip_11cxx_lib/src/adc_11xx.c **** 	return SUCCESS;
 341              		.loc 1 100 0
 342 0012 0120     		mov	r0, #1	@ D.6341,
 343              	.L15:
 344              	.LBE25:
 345              	.LBE24:
 145:../../lpc11cx4-library/lpc_chip_11cxx_lib/src/adc_11xx.c **** 	return readAdcVal(pADC, channel, data);
 146:../../lpc11cx4-library/lpc_chip_11cxx_lib/src/adc_11xx.c **** }
 346              		.loc 1 146 0
 347              		@ sp needed	@
 348 0014 7047     		bx	lr
 349              		.cfi_endproc
 350              	.LFE204:
 351              		.size	Chip_ADC_ReadValue, .-Chip_ADC_ReadValue
 352              		.section	.text.Chip_ADC_ReadStatus,"ax",%progbits
 353              		.align	1
 354              		.global	Chip_ADC_ReadStatus
 355              		.code	16
 356              		.thumb_func
 357              		.type	Chip_ADC_ReadStatus, %function
 358              	Chip_ADC_ReadStatus:
 359              	.LFB205:
 147:../../lpc11cx4-library/lpc_chip_11cxx_lib/src/adc_11xx.c **** 
 148:../../lpc11cx4-library/lpc_chip_11cxx_lib/src/adc_11xx.c **** /* Get ADC Channel status from ADC data register */
 149:../../lpc11cx4-library/lpc_chip_11cxx_lib/src/adc_11xx.c **** FlagStatus Chip_ADC_ReadStatus(LPC_ADC_T *pADC, uint8_t channel, uint32_t StatusType)
 150:../../lpc11cx4-library/lpc_chip_11cxx_lib/src/adc_11xx.c **** {
 360              		.loc 1 150 0
 361              		.cfi_startproc
 362              	.LVL35:
 151:../../lpc11cx4-library/lpc_chip_11cxx_lib/src/adc_11xx.c **** 	switch (StatusType) {
 363              		.loc 1 151 0
 364 0000 012A     		cmp	r2, #1	@ StatusType,
 365 0002 0ED0     		beq	.L19	@,
 366 0004 002A     		cmp	r2, #0	@ StatusType,
 367 0006 07D0     		beq	.L20	@,
 368 0008 022A     		cmp	r2, #2	@ StatusType,
 369 000a 11D1     		bne	.L24	@,
 152:../../lpc11cx4-library/lpc_chip_11cxx_lib/src/adc_11xx.c **** 	case ADC_DR_DONE_STAT:
 153:../../lpc11cx4-library/lpc_chip_11cxx_lib/src/adc_11xx.c **** 		return (pADC->STAT & (1UL << channel)) ? SET : RESET;
 154:../../lpc11cx4-library/lpc_chip_11cxx_lib/src/adc_11xx.c **** 
 155:../../lpc11cx4-library/lpc_chip_11cxx_lib/src/adc_11xx.c **** 	case ADC_DR_OVERRUN_STAT:
 156:../../lpc11cx4-library/lpc_chip_11cxx_lib/src/adc_11xx.c **** 		channel += 8;
 157:../../lpc11cx4-library/lpc_chip_11cxx_lib/src/adc_11xx.c **** 		return (pADC->STAT & (1UL << channel)) ? SET : RESET;
 158:../../lpc11cx4-library/lpc_chip_11cxx_lib/src/adc_11xx.c **** 
 159:../../lpc11cx4-library/lpc_chip_11cxx_lib/src/adc_11xx.c **** 	case ADC_DR_ADINT_STAT:
 160:../../lpc11cx4-library/lpc_chip_11cxx_lib/src/adc_11xx.c **** 		return pADC->STAT >> 16 ? SET : RESET;
 370              		.loc 1 160 0
 371 000c 006B     		ldr	r0, [r0, #48]	@ D.6346, pADC_4(D)->STAT
 372              	.LVL36:
 373 000e 000C     		lsr	r0, r0, #16	@ D.6346, D.6346,
 374 0010 431E     		sub	r3, r0, #1	@ tmp138, D.6346
ARM GAS  /var/folders/f9/8bk2lnw15zn4cbgn6wrnb4lm0000gn/T//ccQJhxmN.s 			page 16


 375 0012 9841     		sbc	r0, r0, r3	@ tmp137, D.6346, tmp138
 376 0014 C0B2     		uxtb	r0, r0	@ D.6345, tmp137
 377 0016 0CE0     		b	.L18	@
 378              	.LVL37:
 379              	.L20:
 153:../../lpc11cx4-library/lpc_chip_11cxx_lib/src/adc_11xx.c **** 		return (pADC->STAT & (1UL << channel)) ? SET : RESET;
 380              		.loc 1 153 0
 381 0018 006B     		ldr	r0, [r0, #48]	@ D.6346, pADC_4(D)->STAT
 382              	.LVL38:
 383 001a 0123     		mov	r3, #1	@ tmp129,
 384 001c C840     		lsr	r0, r0, r1	@ D.6346, D.6346, channel
 385 001e 1840     		and	r0, r3	@ D.6345, tmp129
 386 0020 07E0     		b	.L18	@
 387              	.LVL39:
 388              	.L19:
 157:../../lpc11cx4-library/lpc_chip_11cxx_lib/src/adc_11xx.c **** 		return (pADC->STAT & (1UL << channel)) ? SET : RESET;
 389              		.loc 1 157 0
 390 0022 006B     		ldr	r0, [r0, #48]	@ D.6346, pADC_4(D)->STAT
 391              	.LVL40:
 156:../../lpc11cx4-library/lpc_chip_11cxx_lib/src/adc_11xx.c **** 		channel += 8;
 392              		.loc 1 156 0
 393 0024 0831     		add	r1, r1, #8	@ tmp130,
 394              	.LVL41:
 157:../../lpc11cx4-library/lpc_chip_11cxx_lib/src/adc_11xx.c **** 		return (pADC->STAT & (1UL << channel)) ? SET : RESET;
 395              		.loc 1 157 0
 396 0026 C9B2     		uxtb	r1, r1	@ D.6347, tmp130
 397              	.LVL42:
 398 0028 C840     		lsr	r0, r0, r1	@ D.6346, D.6346, D.6347
 399 002a 0240     		and	r2, r0	@ D.6346, D.6346
 400              	.LVL43:
 401 002c D0B2     		uxtb	r0, r2	@ D.6345, D.6346
 402 002e 00E0     		b	.L18	@
 403              	.LVL44:
 404              	.L24:
 161:../../lpc11cx4-library/lpc_chip_11cxx_lib/src/adc_11xx.c **** 
 162:../../lpc11cx4-library/lpc_chip_11cxx_lib/src/adc_11xx.c **** 	default:
 163:../../lpc11cx4-library/lpc_chip_11cxx_lib/src/adc_11xx.c **** 		break;
 164:../../lpc11cx4-library/lpc_chip_11cxx_lib/src/adc_11xx.c **** 	}
 165:../../lpc11cx4-library/lpc_chip_11cxx_lib/src/adc_11xx.c **** 	return RESET;
 405              		.loc 1 165 0
 406 0030 0020     		mov	r0, #0	@ D.6345,
 407              	.LVL45:
 408              	.L18:
 166:../../lpc11cx4-library/lpc_chip_11cxx_lib/src/adc_11xx.c **** }
 409              		.loc 1 166 0
 410              		@ sp needed	@
 411 0032 7047     		bx	lr
 412              		.cfi_endproc
 413              	.LFE205:
 414              		.size	Chip_ADC_ReadStatus, .-Chip_ADC_ReadStatus
 415              		.section	.text.Chip_ADC_Int_SetChannelCmd,"ax",%progbits
 416              		.align	1
 417              		.global	Chip_ADC_Int_SetChannelCmd
 418              		.code	16
 419              		.thumb_func
 420              		.type	Chip_ADC_Int_SetChannelCmd, %function
 421              	Chip_ADC_Int_SetChannelCmd:
ARM GAS  /var/folders/f9/8bk2lnw15zn4cbgn6wrnb4lm0000gn/T//ccQJhxmN.s 			page 17


 422              	.LFB206:
 167:../../lpc11cx4-library/lpc_chip_11cxx_lib/src/adc_11xx.c **** 
 168:../../lpc11cx4-library/lpc_chip_11cxx_lib/src/adc_11xx.c **** /* Enable/Disable interrupt for ADC channel */
 169:../../lpc11cx4-library/lpc_chip_11cxx_lib/src/adc_11xx.c **** void Chip_ADC_Int_SetChannelCmd(LPC_ADC_T *pADC, uint8_t channel, FunctionalState NewState)
 170:../../lpc11cx4-library/lpc_chip_11cxx_lib/src/adc_11xx.c **** {
 423              		.loc 1 170 0
 424              		.cfi_startproc
 425              	.LVL46:
 171:../../lpc11cx4-library/lpc_chip_11cxx_lib/src/adc_11xx.c **** 	if (NewState == ENABLE) {
 172:../../lpc11cx4-library/lpc_chip_11cxx_lib/src/adc_11xx.c **** 		pADC->INTEN |= (1UL << channel);
 426              		.loc 1 172 0
 427 0000 C368     		ldr	r3, [r0, #12]	@ D.6351,
 171:../../lpc11cx4-library/lpc_chip_11cxx_lib/src/adc_11xx.c **** 	if (NewState == ENABLE) {
 428              		.loc 1 171 0
 429 0002 012A     		cmp	r2, #1	@ NewState,
 430 0004 04D1     		bne	.L26	@,
 431              		.loc 1 172 0
 432 0006 8A40     		lsl	r2, r2, r1	@ NewState, NewState, channel
 433              	.LVL47:
 434 0008 111C     		mov	r1, r2	@ D.6351, NewState
 435              	.LVL48:
 436 000a 1943     		orr	r1, r3	@ D.6351, D.6351
 437 000c C160     		str	r1, [r0, #12]	@ D.6351, pADC_4(D)->INTEN
 438 000e 03E0     		b	.L25	@
 439              	.LVL49:
 440              	.L26:
 173:../../lpc11cx4-library/lpc_chip_11cxx_lib/src/adc_11xx.c **** 	}
 174:../../lpc11cx4-library/lpc_chip_11cxx_lib/src/adc_11xx.c **** 	else {
 175:../../lpc11cx4-library/lpc_chip_11cxx_lib/src/adc_11xx.c **** 		pADC->INTEN &= (~(1UL << channel));
 441              		.loc 1 175 0
 442 0010 0122     		mov	r2, #1	@ tmp125,
 443              	.LVL50:
 444 0012 8A40     		lsl	r2, r2, r1	@ tmp125, tmp125, channel
 445 0014 9343     		bic	r3, r2	@ D.6351, D.6351
 446 0016 C360     		str	r3, [r0, #12]	@ D.6351, pADC_4(D)->INTEN
 447              	.LVL51:
 448              	.L25:
 176:../../lpc11cx4-library/lpc_chip_11cxx_lib/src/adc_11xx.c **** 	}
 177:../../lpc11cx4-library/lpc_chip_11cxx_lib/src/adc_11xx.c **** }
 449              		.loc 1 177 0
 450              		@ sp needed	@
 451 0018 7047     		bx	lr
 452              		.cfi_endproc
 453              	.LFE206:
 454              		.size	Chip_ADC_Int_SetChannelCmd, .-Chip_ADC_Int_SetChannelCmd
 455              		.section	.text.Chip_ADC_SetStartMode,"ax",%progbits
 456              		.align	1
 457              		.global	Chip_ADC_SetStartMode
 458              		.code	16
 459              		.thumb_func
 460              		.type	Chip_ADC_SetStartMode, %function
 461              	Chip_ADC_SetStartMode:
 462              	.LFB207:
 178:../../lpc11cx4-library/lpc_chip_11cxx_lib/src/adc_11xx.c **** 
 179:../../lpc11cx4-library/lpc_chip_11cxx_lib/src/adc_11xx.c **** /* Select the mode starting the AD conversion */
 180:../../lpc11cx4-library/lpc_chip_11cxx_lib/src/adc_11xx.c **** void Chip_ADC_SetStartMode(LPC_ADC_T *pADC, ADC_START_MODE_T mode, ADC_EDGE_CFG_T EdgeOption)
 181:../../lpc11cx4-library/lpc_chip_11cxx_lib/src/adc_11xx.c **** {
ARM GAS  /var/folders/f9/8bk2lnw15zn4cbgn6wrnb4lm0000gn/T//ccQJhxmN.s 			page 18


 463              		.loc 1 181 0
 464              		.cfi_startproc
 465              	.LVL52:
 466 0000 08B5     		push	{r3, lr}	@
 467              		.cfi_def_cfa_offset 8
 468              		.cfi_offset 3, -8
 469              		.cfi_offset 14, -4
 182:../../lpc11cx4-library/lpc_chip_11cxx_lib/src/adc_11xx.c **** 	if ((mode != ADC_START_NOW) && (mode != ADC_NO_START)) {
 470              		.loc 1 182 0
 471 0002 0129     		cmp	r1, #1	@ mode,
 472 0004 0AD9     		bls	.L29	@,
 183:../../lpc11cx4-library/lpc_chip_11cxx_lib/src/adc_11xx.c **** 		if (EdgeOption) {
 473              		.loc 1 183 0
 474 0006 002A     		cmp	r2, #0	@ EdgeOption,
 475 0008 04D0     		beq	.L30	@,
 184:../../lpc11cx4-library/lpc_chip_11cxx_lib/src/adc_11xx.c **** 			pADC->CR |= ADC_CR_EDGE;
 476              		.loc 1 184 0
 477 000a 0268     		ldr	r2, [r0]	@ D.6355,* pADC
 478              	.LVL53:
 479 000c 8023     		mov	r3, #128	@ tmp119,
 480 000e 1B05     		lsl	r3, r3, #20	@ tmp117, tmp119,
 481 0010 1343     		orr	r3, r2	@ D.6355, D.6355
 482 0012 02E0     		b	.L31	@
 483              	.LVL54:
 484              	.L30:
 185:../../lpc11cx4-library/lpc_chip_11cxx_lib/src/adc_11xx.c **** 		}
 186:../../lpc11cx4-library/lpc_chip_11cxx_lib/src/adc_11xx.c **** 		else {
 187:../../lpc11cx4-library/lpc_chip_11cxx_lib/src/adc_11xx.c **** 			pADC->CR &= ~ADC_CR_EDGE;
 485              		.loc 1 187 0
 486 0014 0268     		ldr	r2, [r0]	@ D.6355,* pADC
 487              	.LVL55:
 488 0016 034B     		ldr	r3, .L32	@ tmp118,
 489 0018 1340     		and	r3, r2	@ D.6355, D.6355
 490              	.L31:
 491 001a 0360     		str	r3, [r0]	@ D.6355,* pADC
 492              	.L29:
 188:../../lpc11cx4-library/lpc_chip_11cxx_lib/src/adc_11xx.c **** 		}
 189:../../lpc11cx4-library/lpc_chip_11cxx_lib/src/adc_11xx.c **** 	}
 190:../../lpc11cx4-library/lpc_chip_11cxx_lib/src/adc_11xx.c **** 	setStartMode(pADC, (uint8_t) mode);
 493              		.loc 1 190 0
 494 001c FFF7FEFF 		bl	setStartMode	@
 495              	.LVL56:
 191:../../lpc11cx4-library/lpc_chip_11cxx_lib/src/adc_11xx.c **** }
 496              		.loc 1 191 0
 497              		@ sp needed	@
 498 0020 08BD     		pop	{r3, pc}
 499              	.L33:
 500 0022 C046     		.align	2
 501              	.L32:
 502 0024 FFFFFFF7 		.word	-134217729
 503              		.cfi_endproc
 504              	.LFE207:
 505              		.size	Chip_ADC_SetStartMode, .-Chip_ADC_SetStartMode
 506              		.section	.text.Chip_ADC_SetSampleRate,"ax",%progbits
 507              		.align	1
 508              		.global	Chip_ADC_SetSampleRate
 509              		.code	16
ARM GAS  /var/folders/f9/8bk2lnw15zn4cbgn6wrnb4lm0000gn/T//ccQJhxmN.s 			page 19


 510              		.thumb_func
 511              		.type	Chip_ADC_SetSampleRate, %function
 512              	Chip_ADC_SetSampleRate:
 513              	.LFB208:
 192:../../lpc11cx4-library/lpc_chip_11cxx_lib/src/adc_11xx.c **** 
 193:../../lpc11cx4-library/lpc_chip_11cxx_lib/src/adc_11xx.c **** /* Set the ADC Sample rate */
 194:../../lpc11cx4-library/lpc_chip_11cxx_lib/src/adc_11xx.c **** void Chip_ADC_SetSampleRate(LPC_ADC_T *pADC, ADC_CLOCK_SETUP_T *ADCSetup, uint32_t rate)
 195:../../lpc11cx4-library/lpc_chip_11cxx_lib/src/adc_11xx.c **** {
 514              		.loc 1 195 0
 515              		.cfi_startproc
 516              	.LVL57:
 517 0000 F7B5     		push	{r0, r1, r2, r4, r5, r6, r7, lr}	@
 518              		.cfi_def_cfa_offset 32
 519              		.cfi_offset 0, -32
 520              		.cfi_offset 1, -28
 521              		.cfi_offset 2, -24
 522              		.cfi_offset 4, -20
 523              		.cfi_offset 5, -16
 524              		.cfi_offset 6, -12
 525              		.cfi_offset 7, -8
 526              		.cfi_offset 14, -4
 196:../../lpc11cx4-library/lpc_chip_11cxx_lib/src/adc_11xx.c **** 	uint8_t div;
 197:../../lpc11cx4-library/lpc_chip_11cxx_lib/src/adc_11xx.c **** 	uint32_t cr;
 198:../../lpc11cx4-library/lpc_chip_11cxx_lib/src/adc_11xx.c **** 
 199:../../lpc11cx4-library/lpc_chip_11cxx_lib/src/adc_11xx.c **** 	cr = pADC->CR & (~ADC_SAMPLE_RATE_CONFIG_MASK);
 527              		.loc 1 199 0
 528 0002 134B     		ldr	r3, .L38	@ tmp137,
 195:../../lpc11cx4-library/lpc_chip_11cxx_lib/src/adc_11xx.c **** {
 529              		.loc 1 195 0
 530 0004 161C     		mov	r6, r2	@ rate, rate
 531              		.loc 1 199 0
 532 0006 0268     		ldr	r2, [r0]	@ D.6365, pADC_2(D)->CR
 533              	.LVL58:
 200:../../lpc11cx4-library/lpc_chip_11cxx_lib/src/adc_11xx.c **** 	ADCSetup->adcRate = rate;
 534              		.loc 1 200 0
 535 0008 0E60     		str	r6, [r1]	@ rate, ADCSetup_5(D)->adcRate
 199:../../lpc11cx4-library/lpc_chip_11cxx_lib/src/adc_11xx.c **** 	cr = pADC->CR & (~ADC_SAMPLE_RATE_CONFIG_MASK);
 536              		.loc 1 199 0
 537 000a 1A40     		and	r2, r3	@ D.6365, tmp137
 538 000c 0092     		str	r2, [sp]	@ D.6365, %sfp
 539              	.LVL59:
 201:../../lpc11cx4-library/lpc_chip_11cxx_lib/src/adc_11xx.c **** 	div = getClkDiv(ADCSetup->burstMode, rate, (11 - ADCSetup->bitsAccuracy));
 540              		.loc 1 201 0
 541 000e 0A79     		ldrb	r2, [r1, #4]	@,
 542              	.LVL60:
 543 0010 4F79     		ldrb	r7, [r1, #5]	@ D.6366,
 195:../../lpc11cx4-library/lpc_chip_11cxx_lib/src/adc_11xx.c **** {
 544              		.loc 1 195 0
 545 0012 0C1C     		mov	r4, r1	@ ADCSetup, ADCSetup
 546 0014 051C     		mov	r5, r0	@ pADC, pADC
 547              		.loc 1 201 0
 548 0016 0192     		str	r2, [sp, #4]	@, %sfp
 549              	.LVL61:
 550              	.LBB28:
 551              	.LBB29:
  67:../../lpc11cx4-library/lpc_chip_11cxx_lib/src/adc_11xx.c **** 	adcBlockFreq = Chip_Clock_GetSystemClockRate();
 552              		.loc 1 67 0
ARM GAS  /var/folders/f9/8bk2lnw15zn4cbgn6wrnb4lm0000gn/T//ccQJhxmN.s 			page 20


 553 0018 FFF7FEFF 		bl	Chip_Clock_GetSystemClockRate	@
 554              	.LVL62:
 555 001c 0B23     		mov	r3, #11	@ tmp160,
  73:../../lpc11cx4-library/lpc_chip_11cxx_lib/src/adc_11xx.c **** 		fullAdcRate = adcRate * getFullConvClk();
 556              		.loc 1 73 0
 557 001e 191C     		mov	r1, r3	@ fullAdcRate, tmp160
 558 0020 7143     		mul	r1, r6	@ fullAdcRate, rate
  69:../../lpc11cx4-library/lpc_chip_11cxx_lib/src/adc_11xx.c **** 	if (burstMode) {
 559              		.loc 1 69 0
 560 0022 002F     		cmp	r7, #0	@ D.6366,
 561 0024 03D0     		beq	.L36	@,
 562              	.LBE29:
 563              	.LBE28:
 564              		.loc 1 201 0
 565 0026 019A     		ldr	r2, [sp, #4]	@, %sfp
 566 0028 991A     		sub	r1, r3, r2	@ tmp140, tmp160,
 567              	.LBB35:
 568              	.LBB30:
  70:../../lpc11cx4-library/lpc_chip_11cxx_lib/src/adc_11xx.c **** 		fullAdcRate = adcRate * clks;
 569              		.loc 1 70 0
 570 002a C9B2     		uxtb	r1, r1	@ D.6365, tmp140
 571 002c 7143     		mul	r1, r6	@ fullAdcRate, rate
 572              	.LVL63:
 573              	.L36:
 574              	.LBE30:
 575              	.LBE35:
 202:../../lpc11cx4-library/lpc_chip_11cxx_lib/src/adc_11xx.c **** 	cr |= ADC_CR_CLKDIV(div);
 203:../../lpc11cx4-library/lpc_chip_11cxx_lib/src/adc_11xx.c **** 	cr |= ADC_CR_BITACC(ADCSetup->bitsAccuracy);
 576              		.loc 1 203 0
 577 002e 2479     		ldrb	r4, [r4, #4]	@ tmp144,
 578              	.LVL64:
 579 0030 0723     		mov	r3, #7	@ tmp146,
 580 0032 1C40     		and	r4, r3	@ D.6368, tmp146
 581              	.LBB36:
 582              	.LBB31:
  77:../../lpc11cx4-library/lpc_chip_11cxx_lib/src/adc_11xx.c **** 	div = ((adcBlockFreq * 2 + fullAdcRate) / (fullAdcRate * 2)) - 1;
 583              		.loc 1 77 0
 584 0034 4000     		lsl	r0, r0, #1	@ D.6365, adcBlockFreq,
 585              	.LVL65:
 586              	.LBE31:
 587              	.LBE36:
 202:../../lpc11cx4-library/lpc_chip_11cxx_lib/src/adc_11xx.c **** 	cr |= ADC_CR_CLKDIV(div);
 588              		.loc 1 202 0
 589 0036 009B     		ldr	r3, [sp]	@, %sfp
 590              	.LBB37:
 591              	.LBB32:
  77:../../lpc11cx4-library/lpc_chip_11cxx_lib/src/adc_11xx.c **** 	div = ((adcBlockFreq * 2 + fullAdcRate) / (fullAdcRate * 2)) - 1;
 592              		.loc 1 77 0
 593 0038 0818     		add	r0, r1, r0	@ D.6365, fullAdcRate, D.6365
 594              	.LVL66:
 595              	.LBE32:
 596              	.LBE37:
 597              		.loc 1 203 0
 598 003a 6404     		lsl	r4, r4, #17	@ D.6368, D.6368,
 599              	.LBB38:
 600              	.LBB33:
  77:../../lpc11cx4-library/lpc_chip_11cxx_lib/src/adc_11xx.c **** 	div = ((adcBlockFreq * 2 + fullAdcRate) / (fullAdcRate * 2)) - 1;
ARM GAS  /var/folders/f9/8bk2lnw15zn4cbgn6wrnb4lm0000gn/T//ccQJhxmN.s 			page 21


 601              		.loc 1 77 0
 602 003c 4900     		lsl	r1, r1, #1	@ D.6365, fullAdcRate,
 603              	.LVL67:
 604              	.LBE33:
 605              	.LBE38:
 202:../../lpc11cx4-library/lpc_chip_11cxx_lib/src/adc_11xx.c **** 	cr |= ADC_CR_CLKDIV(div);
 606              		.loc 1 202 0
 607 003e 1C43     		orr	r4, r3	@ cr,
 608              	.LBB39:
 609              	.LBB34:
  77:../../lpc11cx4-library/lpc_chip_11cxx_lib/src/adc_11xx.c **** 	div = ((adcBlockFreq * 2 + fullAdcRate) / (fullAdcRate * 2)) - 1;
 610              		.loc 1 77 0
 611 0040 FFF7FEFF 		bl	__aeabi_uidiv	@
 612              	.LVL68:
 613 0044 431E     		sub	r3, r0, #1	@ tmp157, D.6365,
 614              	.LBE34:
 615              	.LBE39:
 202:../../lpc11cx4-library/lpc_chip_11cxx_lib/src/adc_11xx.c **** 	cr |= ADC_CR_CLKDIV(div);
 616              		.loc 1 202 0
 617 0046 DBB2     		uxtb	r3, r3	@ D.6368, tmp157
 618 0048 1B02     		lsl	r3, r3, #8	@ D.6368, D.6368,
 619              		.loc 1 203 0
 620 004a 1C43     		orr	r4, r3	@ cr, D.6368
 621              	.LVL69:
 204:../../lpc11cx4-library/lpc_chip_11cxx_lib/src/adc_11xx.c **** 	pADC->CR = cr;
 622              		.loc 1 204 0
 623 004c 2C60     		str	r4, [r5]	@ cr, pADC_2(D)->CR
 205:../../lpc11cx4-library/lpc_chip_11cxx_lib/src/adc_11xx.c **** }
 624              		.loc 1 205 0
 625              		@ sp needed	@
 626              	.LVL70:
 627              	.LVL71:
 628              	.LVL72:
 629              	.LVL73:
 630 004e F7BD     		pop	{r0, r1, r2, r4, r5, r6, r7, pc}
 631              	.L39:
 632              		.align	2
 633              	.L38:
 634 0050 FF00F1FF 		.word	-982785
 635              		.cfi_endproc
 636              	.LFE208:
 637              		.size	Chip_ADC_SetSampleRate, .-Chip_ADC_SetSampleRate
 638              		.section	.text.Chip_ADC_SetResolution,"ax",%progbits
 639              		.align	1
 640              		.global	Chip_ADC_SetResolution
 641              		.code	16
 642              		.thumb_func
 643              		.type	Chip_ADC_SetResolution, %function
 644              	Chip_ADC_SetResolution:
 645              	.LFB209:
 206:../../lpc11cx4-library/lpc_chip_11cxx_lib/src/adc_11xx.c **** 
 207:../../lpc11cx4-library/lpc_chip_11cxx_lib/src/adc_11xx.c **** /* Set the ADC accuracy bits */
 208:../../lpc11cx4-library/lpc_chip_11cxx_lib/src/adc_11xx.c **** void Chip_ADC_SetResolution(LPC_ADC_T *pADC, ADC_CLOCK_SETUP_T *ADCSetup, ADC_RESOLUTION_T resoluti
 209:../../lpc11cx4-library/lpc_chip_11cxx_lib/src/adc_11xx.c **** {
 646              		.loc 1 209 0
 647              		.cfi_startproc
 648              	.LVL74:
ARM GAS  /var/folders/f9/8bk2lnw15zn4cbgn6wrnb4lm0000gn/T//ccQJhxmN.s 			page 22


 649 0000 08B5     		push	{r3, lr}	@
 650              		.cfi_def_cfa_offset 8
 651              		.cfi_offset 3, -8
 652              		.cfi_offset 14, -4
 210:../../lpc11cx4-library/lpc_chip_11cxx_lib/src/adc_11xx.c **** 	ADCSetup->bitsAccuracy = resolution;
 653              		.loc 1 210 0
 654 0002 0A71     		strb	r2, [r1, #4]	@ resolution, ADCSetup_2(D)->bitsAccuracy
 211:../../lpc11cx4-library/lpc_chip_11cxx_lib/src/adc_11xx.c **** 	Chip_ADC_SetSampleRate(pADC, ADCSetup, ADCSetup->adcRate);
 655              		.loc 1 211 0
 656 0004 0A68     		ldr	r2, [r1]	@ ADCSetup_2(D)->adcRate, ADCSetup_2(D)->adcRate
 657              	.LVL75:
 658 0006 FFF7FEFF 		bl	Chip_ADC_SetSampleRate	@
 659              	.LVL76:
 212:../../lpc11cx4-library/lpc_chip_11cxx_lib/src/adc_11xx.c **** }
 660              		.loc 1 212 0
 661              		@ sp needed	@
 662 000a 08BD     		pop	{r3, pc}
 663              		.cfi_endproc
 664              	.LFE209:
 665              		.size	Chip_ADC_SetResolution, .-Chip_ADC_SetResolution
 666              		.section	.text.Chip_ADC_EnableChannel,"ax",%progbits
 667              		.align	1
 668              		.global	Chip_ADC_EnableChannel
 669              		.code	16
 670              		.thumb_func
 671              		.type	Chip_ADC_EnableChannel, %function
 672              	Chip_ADC_EnableChannel:
 673              	.LFB210:
 213:../../lpc11cx4-library/lpc_chip_11cxx_lib/src/adc_11xx.c **** 
 214:../../lpc11cx4-library/lpc_chip_11cxx_lib/src/adc_11xx.c **** /* Enable or disable the ADC channel on ADC peripheral */
 215:../../lpc11cx4-library/lpc_chip_11cxx_lib/src/adc_11xx.c **** void Chip_ADC_EnableChannel(LPC_ADC_T *pADC, ADC_CHANNEL_T channel, FunctionalState NewState)
 216:../../lpc11cx4-library/lpc_chip_11cxx_lib/src/adc_11xx.c **** {
 674              		.loc 1 216 0
 675              		.cfi_startproc
 676              	.LVL77:
 217:../../lpc11cx4-library/lpc_chip_11cxx_lib/src/adc_11xx.c **** 	if (NewState == ENABLE) {
 677              		.loc 1 217 0
 678 0000 012A     		cmp	r2, #1	@ NewState,
 679 0002 05D1     		bne	.L42	@,
 218:../../lpc11cx4-library/lpc_chip_11cxx_lib/src/adc_11xx.c **** 		pADC->CR |= ADC_CR_CH_SEL(channel);
 680              		.loc 1 218 0
 681 0004 0368     		ldr	r3, [r0]	@ D.6375, pADC_4(D)->CR
 682 0006 8A40     		lsl	r2, r2, r1	@ NewState, NewState, channel
 683              	.LVL78:
 684 0008 111C     		mov	r1, r2	@ D.6375, NewState
 685              	.LVL79:
 686 000a 1943     		orr	r1, r3	@ D.6375, D.6375
 687 000c 0160     		str	r1, [r0]	@ D.6375, pADC_4(D)->CR
 688 000e 08E0     		b	.L41	@
 689              	.LVL80:
 690              	.L42:
 219:../../lpc11cx4-library/lpc_chip_11cxx_lib/src/adc_11xx.c **** 	}
 220:../../lpc11cx4-library/lpc_chip_11cxx_lib/src/adc_11xx.c **** 	else {
 221:../../lpc11cx4-library/lpc_chip_11cxx_lib/src/adc_11xx.c **** 		pADC->CR &= ~ADC_CR_START_MASK;
 691              		.loc 1 221 0
 692 0010 0268     		ldr	r2, [r0]	@ D.6375, pADC_4(D)->CR
 693              	.LVL81:
ARM GAS  /var/folders/f9/8bk2lnw15zn4cbgn6wrnb4lm0000gn/T//ccQJhxmN.s 			page 23


 694 0012 044B     		ldr	r3, .L44	@ tmp126,
 695 0014 1340     		and	r3, r2	@ D.6375, D.6375
 696 0016 0360     		str	r3, [r0]	@ D.6375, pADC_4(D)->CR
 222:../../lpc11cx4-library/lpc_chip_11cxx_lib/src/adc_11xx.c **** 		pADC->CR &= ~ADC_CR_CH_SEL(channel);
 697              		.loc 1 222 0
 698 0018 0368     		ldr	r3, [r0]	@ D.6375, pADC_4(D)->CR
 699 001a 0122     		mov	r2, #1	@ tmp128,
 700 001c 8A40     		lsl	r2, r2, r1	@ tmp128, tmp128, channel
 701 001e 9343     		bic	r3, r2	@ D.6375, D.6375
 702 0020 0360     		str	r3, [r0]	@ D.6375, pADC_4(D)->CR
 703              	.LVL82:
 704              	.L41:
 223:../../lpc11cx4-library/lpc_chip_11cxx_lib/src/adc_11xx.c **** 	}
 224:../../lpc11cx4-library/lpc_chip_11cxx_lib/src/adc_11xx.c **** }
 705              		.loc 1 224 0
 706              		@ sp needed	@
 707 0022 7047     		bx	lr
 708              	.L45:
 709              		.align	2
 710              	.L44:
 711 0024 FFFFFFF8 		.word	-117440513
 712              		.cfi_endproc
 713              	.LFE210:
 714              		.size	Chip_ADC_EnableChannel, .-Chip_ADC_EnableChannel
 715              		.section	.text.Chip_ADC_SetBurstCmd,"ax",%progbits
 716              		.align	1
 717              		.global	Chip_ADC_SetBurstCmd
 718              		.code	16
 719              		.thumb_func
 720              		.type	Chip_ADC_SetBurstCmd, %function
 721              	Chip_ADC_SetBurstCmd:
 722              	.LFB211:
 225:../../lpc11cx4-library/lpc_chip_11cxx_lib/src/adc_11xx.c **** 
 226:../../lpc11cx4-library/lpc_chip_11cxx_lib/src/adc_11xx.c **** /* Enable burst mode */
 227:../../lpc11cx4-library/lpc_chip_11cxx_lib/src/adc_11xx.c **** void Chip_ADC_SetBurstCmd(LPC_ADC_T *pADC, FunctionalState NewState)
 228:../../lpc11cx4-library/lpc_chip_11cxx_lib/src/adc_11xx.c **** {
 723              		.loc 1 228 0
 724              		.cfi_startproc
 725              	.LVL83:
 726              	.LBB42:
 727              	.LBB43:
  85:../../lpc11cx4-library/lpc_chip_11cxx_lib/src/adc_11xx.c **** 	temp = pADC->CR & (~ADC_CR_START_MASK);
 728              		.loc 1 85 0
 729 0000 0268     		ldr	r2, [r0]	@ D.6382, pADC_3(D)->CR
 730 0002 074B     		ldr	r3, .L50	@ tmp118,
 731 0004 1340     		and	r3, r2	@ temp, D.6382
 732              	.LVL84:
  86:../../lpc11cx4-library/lpc_chip_11cxx_lib/src/adc_11xx.c **** 	pADC->CR = temp | (ADC_CR_START_MODE_SEL((uint32_t) start_mode));
 733              		.loc 1 86 0
 734 0006 0360     		str	r3, [r0]	@ temp, pADC_3(D)->CR
 735              	.LBE43:
 736              	.LBE42:
 229:../../lpc11cx4-library/lpc_chip_11cxx_lib/src/adc_11xx.c **** 	setStartMode(pADC, ADC_NO_START);
 230:../../lpc11cx4-library/lpc_chip_11cxx_lib/src/adc_11xx.c **** 
 231:../../lpc11cx4-library/lpc_chip_11cxx_lib/src/adc_11xx.c **** 	if (NewState == DISABLE) {
 232:../../lpc11cx4-library/lpc_chip_11cxx_lib/src/adc_11xx.c **** 		pADC->CR &= ~ADC_CR_BURST;
 737              		.loc 1 232 0
ARM GAS  /var/folders/f9/8bk2lnw15zn4cbgn6wrnb4lm0000gn/T//ccQJhxmN.s 			page 24


 738 0008 0268     		ldr	r2, [r0]	@ D.6382,* pADC
 231:../../lpc11cx4-library/lpc_chip_11cxx_lib/src/adc_11xx.c **** 	if (NewState == DISABLE) {
 739              		.loc 1 231 0
 740 000a 0029     		cmp	r1, #0	@ NewState,
 741 000c 02D1     		bne	.L47	@,
 742              		.loc 1 232 0
 743 000e 054B     		ldr	r3, .L50+4	@ tmp119,
 744              	.LVL85:
 745 0010 1340     		and	r3, r2	@ D.6382, D.6382
 746 0012 02E0     		b	.L49	@
 747              	.LVL86:
 748              	.L47:
 233:../../lpc11cx4-library/lpc_chip_11cxx_lib/src/adc_11xx.c **** 	}
 234:../../lpc11cx4-library/lpc_chip_11cxx_lib/src/adc_11xx.c **** 	else {
 235:../../lpc11cx4-library/lpc_chip_11cxx_lib/src/adc_11xx.c **** 		pADC->CR |= ADC_CR_BURST;
 749              		.loc 1 235 0
 750 0014 8023     		mov	r3, #128	@ tmp121,
 751              	.LVL87:
 752 0016 5B02     		lsl	r3, r3, #9	@ tmp120, tmp121,
 753 0018 1343     		orr	r3, r2	@ D.6382, D.6382
 754              	.L49:
 755 001a 0360     		str	r3, [r0]	@ D.6382,* pADC
 756              	.LVL88:
 236:../../lpc11cx4-library/lpc_chip_11cxx_lib/src/adc_11xx.c **** 	}
 237:../../lpc11cx4-library/lpc_chip_11cxx_lib/src/adc_11xx.c **** }
 757              		.loc 1 237 0
 758              		@ sp needed	@
 759 001c 7047     		bx	lr
 760              	.L51:
 761 001e C046     		.align	2
 762              	.L50:
 763 0020 FFFFFFF8 		.word	-117440513
 764 0024 FFFFFEFF 		.word	-65537
 765              		.cfi_endproc
 766              	.LFE211:
 767              		.size	Chip_ADC_SetBurstCmd, .-Chip_ADC_SetBurstCmd
 768              		.section	.text.Chip_ADC_ReadByte,"ax",%progbits
 769              		.align	1
 770              		.global	Chip_ADC_ReadByte
 771              		.code	16
 772              		.thumb_func
 773              		.type	Chip_ADC_ReadByte, %function
 774              	Chip_ADC_ReadByte:
 775              	.LFB212:
 238:../../lpc11cx4-library/lpc_chip_11cxx_lib/src/adc_11xx.c **** 
 239:../../lpc11cx4-library/lpc_chip_11cxx_lib/src/adc_11xx.c **** /* Read the ADC value and convert it to 8bits value */
 240:../../lpc11cx4-library/lpc_chip_11cxx_lib/src/adc_11xx.c **** Status Chip_ADC_ReadByte(LPC_ADC_T *pADC, ADC_CHANNEL_T channel, uint8_t *data)
 241:../../lpc11cx4-library/lpc_chip_11cxx_lib/src/adc_11xx.c **** {
 776              		.loc 1 241 0
 777              		.cfi_startproc
 778              	.LVL89:
 779              	.LBB44:
 780              	.LBB45:
  93:../../lpc11cx4-library/lpc_chip_11cxx_lib/src/adc_11xx.c **** 	temp = pADC->DR[channel];
 781              		.loc 1 93 0
 782 0000 0431     		add	r1, r1, #4	@ tmp122,
 783              	.LVL90:
ARM GAS  /var/folders/f9/8bk2lnw15zn4cbgn6wrnb4lm0000gn/T//ccQJhxmN.s 			page 25


 784 0002 8900     		lsl	r1, r1, #2	@ tmp123, tmp122,
 785              	.LVL91:
 786 0004 0B58     		ldr	r3, [r1, r0]	@ temp, pADC_2(D)->DR
 787              	.LVL92:
  94:../../lpc11cx4-library/lpc_chip_11cxx_lib/src/adc_11xx.c **** 	if (!ADC_DR_DONE(temp)) {
 788              		.loc 1 94 0
 789 0006 002B     		cmp	r3, #0	@ temp,
 790 0008 03DA     		bge	.L54	@,
  99:../../lpc11cx4-library/lpc_chip_11cxx_lib/src/adc_11xx.c **** 	*data = (uint16_t) ADC_DR_RESULT(temp);
 791              		.loc 1 99 0
 792 000a 1B04     		lsl	r3, r3, #16	@ tmp127, temp,
 793              	.LVL93:
 794 000c 9B0D     		lsr	r3, r3, #22	@ temp, tmp127,
 795              	.LVL94:
 100:../../lpc11cx4-library/lpc_chip_11cxx_lib/src/adc_11xx.c **** 	return SUCCESS;
 796              		.loc 1 100 0
 797 000e 0120     		mov	r0, #1	@ D.6389,
 798              	.LVL95:
 799 0010 01E0     		b	.L53	@
 800              	.LVL96:
 801              	.L54:
 802              	.LBE45:
 803              	.LBE44:
 242:../../lpc11cx4-library/lpc_chip_11cxx_lib/src/adc_11xx.c **** 	uint16_t temp = 0;
 804              		.loc 1 242 0
 805 0012 0023     		mov	r3, #0	@ temp,
 806              	.LVL97:
 807              	.LBB47:
 808              	.LBB46:
  95:../../lpc11cx4-library/lpc_chip_11cxx_lib/src/adc_11xx.c **** 		return ERROR;
 809              		.loc 1 95 0
 810 0014 181C     		mov	r0, r3	@ D.6389, temp
 811              	.LVL98:
 812              	.L53:
 813              	.LBE46:
 814              	.LBE47:
 243:../../lpc11cx4-library/lpc_chip_11cxx_lib/src/adc_11xx.c **** 	Status rt;
 244:../../lpc11cx4-library/lpc_chip_11cxx_lib/src/adc_11xx.c **** 
 245:../../lpc11cx4-library/lpc_chip_11cxx_lib/src/adc_11xx.c **** 	rt = readAdcVal(pADC, channel, &temp);
 246:../../lpc11cx4-library/lpc_chip_11cxx_lib/src/adc_11xx.c **** 	*data = (uint8_t) temp;
 815              		.loc 1 246 0
 816 0016 1370     		strb	r3, [r2]	@ temp, *data_6(D)
 247:../../lpc11cx4-library/lpc_chip_11cxx_lib/src/adc_11xx.c **** 
 248:../../lpc11cx4-library/lpc_chip_11cxx_lib/src/adc_11xx.c **** 	return rt;
 249:../../lpc11cx4-library/lpc_chip_11cxx_lib/src/adc_11xx.c **** }
 817              		.loc 1 249 0
 818              		@ sp needed	@
 819 0018 7047     		bx	lr
 820              		.cfi_endproc
 821              	.LFE212:
 822              		.size	Chip_ADC_ReadByte, .-Chip_ADC_ReadByte
 823              		.text
 824              	.Letext0:
 825              		.file 3 "/usr/local/Cellar/gcc-arm-none-eabi/20140805/arm-none-eabi/include/machine/_default_types
 826              		.file 4 "/usr/local/Cellar/gcc-arm-none-eabi/20140805/arm-none-eabi/include/stdint.h"
 827              		.file 5 "../../lpc11cx4-library/lpc_chip_11cxx_lib/inc/lpc_types.h"
 828              		.file 6 "../../lpc11cx4-library/lpc_chip_11cxx_lib/inc/sysctl_11xx.h"
ARM GAS  /var/folders/f9/8bk2lnw15zn4cbgn6wrnb4lm0000gn/T//ccQJhxmN.s 			page 26


 829              		.file 7 "../../lpc11cx4-library/lpc_chip_11cxx_lib/inc/adc_11xx.h"
 830              		.file 8 "../../lpc11cx4-library/lpc_chip_11cxx_lib/inc/chip.h"