ARM GAS  /tmp/ccADJ3HX.s 			page 1


   1              		.cpu cortex-m0
   2              		.fpu softvfp
   3              		.eabi_attribute 20, 1	@ Tag_ABI_FP_denormal
   4              		.eabi_attribute 21, 1	@ Tag_ABI_FP_exceptions
   5              		.eabi_attribute 23, 3	@ Tag_ABI_FP_number_model
   6              		.eabi_attribute 24, 1	@ Tag_ABI_align8_needed
   7              		.eabi_attribute 25, 1	@ Tag_ABI_align8_preserved
   8              		.eabi_attribute 26, 1	@ Tag_ABI_enum_size
   9              		.eabi_attribute 30, 2	@ Tag_ABI_optimization_goals
  10              		.eabi_attribute 34, 0	@ Tag_CPU_unaligned_access
  11              		.eabi_attribute 18, 4	@ Tag_ABI_PCS_wchar_t
  12              		.file	"brusa.c"
  13              	@ GNU C (GNU Tools for ARM Embedded Processors) version 4.9.3 20150529 (release) [ARM/embedded-4_9-
  14              	@	compiled by GNU C version 4.8.4, GMP version 5.1.3, MPFR version 3.1.2-p3, MPC version 1.0.1
  15              	@ GGC heuristics: --param ggc-min-expand=98 --param ggc-min-heapsize=128397
  16              	@ options passed:  -I . -I inc/
  17              	@ -I ../../lpc11cx4-library/lpc_chip_11cxx_lib/inc
  18              	@ -I ../../lpc11cx4-library/evt_lib/inc/ -imultilib armv6-m
  19              	@ -iprefix /usr/bin/../lib/gcc/arm-none-eabi/4.9.3/
  20              	@ -isysroot /usr/bin/../arm-none-eabi -MD bin/brusa.d -MF bin/brusa.d -MP
  21              	@ -MQ bin/brusa.o -D__USES_INITFINI__ -D UART_BAUD=115200 -D CORE_M0
  22              	@ -D DEBUG_ENABLE ../../lpc11cx4-library/evt_lib/src/brusa.c
  23              	@ -mcpu=cortex-m0 -mthumb -auxbase-strip bin/brusa.o -g -ggdb3 -O2 -Wall
  24              	@ -Wstrict-prototypes -Wextra -std=gnu90 -ffunction-sections
  25              	@ -fdata-sections -fdiagnostics-color=always -fverbose-asm
  26              	@ options enabled:  -faggressive-loop-optimizations -fauto-inc-dec
  27              	@ -fbranch-count-reg -fcaller-saves -fcombine-stack-adjustments -fcommon
  28              	@ -fcompare-elim -fcprop-registers -fcrossjumping -fcse-follow-jumps
  29              	@ -fdata-sections -fdefer-pop -fdelete-null-pointer-checks -fdevirtualize
  30              	@ -fdevirtualize-speculatively -fdwarf2-cfi-asm -fearly-inlining
  31              	@ -feliminate-unused-debug-types -fexpensive-optimizations
  32              	@ -fforward-propagate -ffunction-cse -ffunction-sections -fgcse -fgcse-lm
  33              	@ -fgnu-runtime -fgnu-unique -fguess-branch-probability
  34              	@ -fhoist-adjacent-loads -fident -fif-conversion -fif-conversion2
  35              	@ -findirect-inlining -finline -finline-atomics
  36              	@ -finline-functions-called-once -finline-small-functions -fipa-cp
  37              	@ -fipa-profile -fipa-pure-const -fipa-reference -fipa-sra
  38              	@ -fira-hoist-pressure -fira-share-save-slots -fira-share-spill-slots
  39              	@ -fisolate-erroneous-paths-dereference -fivopts -fkeep-static-consts
  40              	@ -fleading-underscore -flifetime-dse -fmath-errno -fmerge-constants
  41              	@ -fmerge-debug-strings -fmove-loop-invariants -fomit-frame-pointer
  42              	@ -foptimize-sibling-calls -foptimize-strlen -fpartial-inlining -fpeephole
  43              	@ -fpeephole2 -fprefetch-loop-arrays -freg-struct-return -freorder-blocks
  44              	@ -freorder-functions -frerun-cse-after-loop
  45              	@ -fsched-critical-path-heuristic -fsched-dep-count-heuristic
  46              	@ -fsched-group-heuristic -fsched-interblock -fsched-last-insn-heuristic
  47              	@ -fsched-pressure -fsched-rank-heuristic -fsched-spec
  48              	@ -fsched-spec-insn-heuristic -fsched-stalled-insns-dep -fschedule-insns2
  49              	@ -fsection-anchors -fshow-column -fshrink-wrap -fsigned-zeros
  50              	@ -fsplit-ivs-in-unroller -fsplit-wide-types -fstrict-aliasing
  51              	@ -fstrict-overflow -fstrict-volatile-bitfields -fsync-libcalls
  52              	@ -fthread-jumps -ftoplevel-reorder -ftrapping-math -ftree-bit-ccp
  53              	@ -ftree-builtin-call-dce -ftree-ccp -ftree-ch -ftree-coalesce-vars
  54              	@ -ftree-copy-prop -ftree-copyrename -ftree-cselim -ftree-dce
  55              	@ -ftree-dominator-opts -ftree-dse -ftree-forwprop -ftree-fre
  56              	@ -ftree-loop-if-convert -ftree-loop-im -ftree-loop-ivcanon
  57              	@ -ftree-loop-optimize -ftree-parallelize-loops= -ftree-phiprop -ftree-pre
ARM GAS  /tmp/ccADJ3HX.s 			page 2


  58              	@ -ftree-pta -ftree-reassoc -ftree-scev-cprop -ftree-sink -ftree-slsr
  59              	@ -ftree-sra -ftree-switch-conversion -ftree-tail-merge -ftree-ter
  60              	@ -ftree-vrp -funit-at-a-time -fvar-tracking -fvar-tracking-assignments
  61              	@ -fverbose-asm -fzero-initialized-in-bss -mlittle-endian -mlra
  62              	@ -mpic-data-is-text-relative -msched-prolog -mthumb
  63              	@ -mvectorize-with-neon-quad
  64              	
  65              		.text
  66              	.Ltext0:
  67              		.cfi_sections	.debug_frame
  68              		.global	__aeabi_uidiv
  69              		.section	.text.Brusa_MakeCTL,"ax",%progbits
  70              		.align	2
  71              		.global	Brusa_MakeCTL
  72              		.code	16
  73              		.thumb_func
  74              		.type	Brusa_MakeCTL, %function
  75              	Brusa_MakeCTL:
  76              	.LFB198:
  77              		.file 1 "../../lpc11cx4-library/evt_lib/src/brusa.c"
   1:../../lpc11cx4-library/evt_lib/src/brusa.c **** #include "brusa.h"
   2:../../lpc11cx4-library/evt_lib/src/brusa.c **** 
   3:../../lpc11cx4-library/evt_lib/src/brusa.c **** void Brusa_MakeCTL(NLG5_CTL_T *contents, CCAN_MSG_OBJ_T *msg_obj) {
  78              		.loc 1 3 0
  79              		.cfi_startproc
  80              	.LVL0:
  81 0000 38B5     		push	{r3, r4, r5, lr}	@
  82              		.cfi_def_cfa_offset 16
  83              		.cfi_offset 3, -16
  84              		.cfi_offset 4, -12
  85              		.cfi_offset 5, -8
  86              		.cfi_offset 14, -4
   4:../../lpc11cx4-library/evt_lib/src/brusa.c **** 	msg_obj->mode_id = NLG5_CTL;
  87              		.loc 1 4 0
  88 0002 C323     		mov	r3, #195	@ tmp145,
  89 0004 DB00     		lsl	r3, r3, #3	@ tmp145, tmp145,
  90 0006 0B60     		str	r3, [r1]	@ tmp145, msg_obj_2(D)->mode_id
   5:../../lpc11cx4-library/evt_lib/src/brusa.c **** 	msg_obj->dlc = NLG5_CTL_DLC;
  91              		.loc 1 5 0
  92 0008 0723     		mov	r3, #7	@ tmp146,
   3:../../lpc11cx4-library/evt_lib/src/brusa.c **** 	msg_obj->mode_id = NLG5_CTL;
  93              		.loc 1 3 0
  94 000a 0C1C     		mov	r4, r1	@ msg_obj, msg_obj
  95              		.loc 1 5 0
  96 000c 0B74     		strb	r3, [r1, #16]	@ tmp146, msg_obj_2(D)->dlc
   6:../../lpc11cx4-library/evt_lib/src/brusa.c **** 	msg_obj->data[0] = ((contents->enable & 1) << 7) | 
   7:../../lpc11cx4-library/evt_lib/src/brusa.c **** 				  ((contents->clear_error & 1) << 6) | 
   8:../../lpc11cx4-library/evt_lib/src/brusa.c **** 				  ((contents->ventilation_request & 1) << 5);
  97              		.loc 1 8 0
  98 000e 8278     		ldrb	r2, [r0, #2]	@ tmp159,
   7:../../lpc11cx4-library/evt_lib/src/brusa.c **** 				  ((contents->ventilation_request & 1) << 5);
  99              		.loc 1 7 0
 100 0010 4178     		ldrb	r1, [r0, #1]	@ tmp151,
 101              	.LVL1:
 102 0012 063B     		sub	r3, r3, #6	@ tmp153,
 103 0014 1940     		and	r1, r3	@ D.6421, tmp153
 104              		.loc 1 8 0
ARM GAS  /tmp/ccADJ3HX.s 			page 3


 105 0016 1340     		and	r3, r2	@ D.6421, tmp159
   6:../../lpc11cx4-library/evt_lib/src/brusa.c **** 	msg_obj->data[0] = ((contents->enable & 1) << 7) | 
 106              		.loc 1 6 0
 107 0018 0278     		ldrb	r2, [r0]	@ D.6421, *contents_5(D)
   7:../../lpc11cx4-library/evt_lib/src/brusa.c **** 				  ((contents->ventilation_request & 1) << 5);
 108              		.loc 1 7 0
 109 001a 8901     		lsl	r1, r1, #6	@ D.6421, D.6421,
 110              		.loc 1 8 0
 111 001c 5B01     		lsl	r3, r3, #5	@ D.6421, D.6421,
   6:../../lpc11cx4-library/evt_lib/src/brusa.c **** 	msg_obj->data[0] = ((contents->enable & 1) << 7) | 
 112              		.loc 1 6 0
 113 001e D201     		lsl	r2, r2, #7	@ D.6421, D.6421,
 114 0020 0B43     		orr	r3, r1	@ tmp166, D.6421
 115 0022 1343     		orr	r3, r2	@ tmp171, D.6421
 116 0024 2372     		strb	r3, [r4, #8]	@ tmp171, msg_obj_2(D)->D.5973.data
   3:../../lpc11cx4-library/evt_lib/src/brusa.c **** 	msg_obj->mode_id = NLG5_CTL;
 117              		.loc 1 3 0
 118 0026 051C     		mov	r5, r0	@ contents, contents
   9:../../lpc11cx4-library/evt_lib/src/brusa.c **** 	uint16_t mains_dAmps = contents->max_mains_cAmps / 10;
 119              		.loc 1 9 0
 120 0028 0A21     		mov	r1, #10	@,
 121 002a 8088     		ldrh	r0, [r0, #4]	@ tmp174,
 122              	.LVL2:
 123 002c FFF7FEFF 		bl	__aeabi_uidiv	@
 124              	.LVL3:
 125 0030 80B2     		uxth	r0, r0	@ mains_dAmps, tmp177
 126              	.LVL4:
  10:../../lpc11cx4-library/evt_lib/src/brusa.c **** 	msg_obj->data[1] = mains_dAmps >> 8;
 127              		.loc 1 10 0
 128 0032 030A     		lsr	r3, r0, #8	@ tmp178, mains_dAmps,
 129 0034 6372     		strb	r3, [r4, #9]	@ tmp178, msg_obj_2(D)->D.5973.data
  11:../../lpc11cx4-library/evt_lib/src/brusa.c **** 	msg_obj->data[2] = mains_dAmps & 0xFF;
 130              		.loc 1 11 0
 131 0036 A072     		strb	r0, [r4, #10]	@ mains_dAmps, msg_obj_2(D)->D.5973.data
  12:../../lpc11cx4-library/evt_lib/src/brusa.c **** 	uint16_t out_dVolts = contents->output_mV / 100;
 132              		.loc 1 12 0
 133 0038 A868     		ldr	r0, [r5, #8]	@, contents_5(D)->output_mV
 134              	.LVL5:
 135 003a 6421     		mov	r1, #100	@,
 136 003c FFF7FEFF 		bl	__aeabi_uidiv	@
 137              	.LVL6:
  13:../../lpc11cx4-library/evt_lib/src/brusa.c **** 	msg_obj->data[3] = out_dVolts >> 8;
 138              		.loc 1 13 0
 139 0040 030A     		lsr	r3, r0, #8	@ tmp186, tmp184,
 140 0042 E372     		strb	r3, [r4, #11]	@ tmp186, msg_obj_2(D)->D.5973.data
  14:../../lpc11cx4-library/evt_lib/src/brusa.c **** 	msg_obj->data[4] = out_dVolts & 0xFF;
 141              		.loc 1 14 0
 142 0044 2073     		strb	r0, [r4, #12]	@ tmp184, msg_obj_2(D)->D.5973.data
  15:../../lpc11cx4-library/evt_lib/src/brusa.c **** 	uint16_t out_dAmps = contents->output_cA / 10;
 143              		.loc 1 15 0
 144 0046 A889     		ldrh	r0, [r5, #12]	@ tmp190,
 145              	.LVL7:
 146 0048 0A21     		mov	r1, #10	@,
 147 004a FFF7FEFF 		bl	__aeabi_uidiv	@
 148              	.LVL8:
 149 004e 80B2     		uxth	r0, r0	@ out_dAmps, tmp193
 150              	.LVL9:
ARM GAS  /tmp/ccADJ3HX.s 			page 4


  16:../../lpc11cx4-library/evt_lib/src/brusa.c **** 	msg_obj->data[5] = out_dAmps >> 8;
 151              		.loc 1 16 0
 152 0050 030A     		lsr	r3, r0, #8	@ tmp194, out_dAmps,
 153 0052 6373     		strb	r3, [r4, #13]	@ tmp194, msg_obj_2(D)->D.5973.data
  17:../../lpc11cx4-library/evt_lib/src/brusa.c **** 	msg_obj->data[6] = out_dAmps & 0xFF;
 154              		.loc 1 17 0
 155 0054 A073     		strb	r0, [r4, #14]	@ out_dAmps, msg_obj_2(D)->D.5973.data
  18:../../lpc11cx4-library/evt_lib/src/brusa.c **** }
 156              		.loc 1 18 0
 157              		@ sp needed	@
 158              	.LVL10:
 159              	.LVL11:
 160 0056 38BD     		pop	{r3, r4, r5, pc}
 161              		.cfi_endproc
 162              	.LFE198:
 163              		.size	Brusa_MakeCTL, .-Brusa_MakeCTL
 164              		.section	.text.Brusa_DecodeStatus,"ax",%progbits
 165              		.align	2
 166              		.global	Brusa_DecodeStatus
 167              		.code	16
 168              		.thumb_func
 169              		.type	Brusa_DecodeStatus, %function
 170              	Brusa_DecodeStatus:
 171              	.LFB199:
  19:../../lpc11cx4-library/evt_lib/src/brusa.c **** 
  20:../../lpc11cx4-library/evt_lib/src/brusa.c **** int Brusa_DecodeStatus(NLG5_STATUS_T *contents, CCAN_MSG_OBJ_T *msg_obj) {
 172              		.loc 1 20 0
 173              		.cfi_startproc
 174              	.LVL12:
  21:../../lpc11cx4-library/evt_lib/src/brusa.c **** 	if (msg_obj->dlc != NLG5_STATUS_DLC) {
 175              		.loc 1 21 0
 176 0000 0B7C     		ldrb	r3, [r1, #16]	@ tmp142,
 177 0002 042B     		cmp	r3, #4	@ tmp142,
 178 0004 22D1     		bne	.L4	@,
  22:../../lpc11cx4-library/evt_lib/src/brusa.c **** 		return -1;
  23:../../lpc11cx4-library/evt_lib/src/brusa.c **** 	}
  24:../../lpc11cx4-library/evt_lib/src/brusa.c **** 
  25:../../lpc11cx4-library/evt_lib/src/brusa.c **** 	contents->power_enabled = msg_obj->data[0] >> 7;
  26:../../lpc11cx4-library/evt_lib/src/brusa.c **** 	contents->general_error_latch = (msg_obj->data[0] >> 6) & 1;
 179              		.loc 1 26 0
 180 0006 0122     		mov	r2, #1	@ tmp152,
  25:../../lpc11cx4-library/evt_lib/src/brusa.c **** 	contents->general_error_latch = (msg_obj->data[0] >> 6) & 1;
 181              		.loc 1 25 0
 182 0008 0B7A     		ldrb	r3, [r1, #8]	@ tmp143,
 183 000a DB09     		lsr	r3, r3, #7	@ tmp144, tmp143,
 184 000c 0370     		strb	r3, [r0]	@ tmp144, contents_8(D)->power_enabled
 185              		.loc 1 26 0
 186 000e 0B7A     		ldrb	r3, [r1, #8]	@ tmp146,
 187 0010 9B09     		lsr	r3, r3, #6	@ tmp147, tmp146,
 188 0012 1340     		and	r3, r2	@ tmp151, tmp152
 189 0014 4370     		strb	r3, [r0, #1]	@ tmp151, contents_8(D)->general_error_latch
  27:../../lpc11cx4-library/evt_lib/src/brusa.c **** 	contents->general_limit_warning = (msg_obj->data[0] >> 5) & 1;
 190              		.loc 1 27 0
 191 0016 0B7A     		ldrb	r3, [r1, #8]	@ tmp154,
 192 0018 5B09     		lsr	r3, r3, #5	@ tmp155, tmp154,
 193 001a 1340     		and	r3, r2	@ tmp159, tmp152
 194 001c 8370     		strb	r3, [r0, #2]	@ tmp159, contents_8(D)->general_limit_warning
ARM GAS  /tmp/ccADJ3HX.s 			page 5


  28:../../lpc11cx4-library/evt_lib/src/brusa.c **** 	contents->fan_active = (msg_obj->data[0] >> 4) & 1;
 195              		.loc 1 28 0
 196 001e 0B7A     		ldrb	r3, [r1, #8]	@ tmp162,
 197 0020 1B09     		lsr	r3, r3, #4	@ tmp163, tmp162,
 198 0022 1340     		and	r3, r2	@ tmp167, tmp152
 199 0024 C370     		strb	r3, [r0, #3]	@ tmp167, contents_8(D)->fan_active
  29:../../lpc11cx4-library/evt_lib/src/brusa.c **** 	contents->mains_type = (msg_obj->data[0] >> 1) & 0x7;
 200              		.loc 1 29 0
 201 0026 0B7A     		ldrb	r3, [r1, #8]	@ tmp170,
 202 0028 1B07     		lsl	r3, r3, #28	@ tmp176, tmp170,
 203 002a 5B0F     		lsr	r3, r3, #29	@ tmp175, tmp176,
 204 002c 0371     		strb	r3, [r0, #4]	@ tmp175, contents_8(D)->mains_type
  30:../../lpc11cx4-library/evt_lib/src/brusa.c **** 	contents->control_pilot_detected = msg_obj->data[0] & 1;
 205              		.loc 1 30 0
 206 002e 0B7A     		ldrb	r3, [r1, #8]	@ tmp181,
 207 0030 1A40     		and	r2, r3	@ tmp182, tmp181
 208 0032 4271     		strb	r2, [r0, #5]	@ tmp182, contents_8(D)->control_pilot_detected
  31:../../lpc11cx4-library/evt_lib/src/brusa.c **** 
  32:../../lpc11cx4-library/evt_lib/src/brusa.c **** 	contents->bypass_detection = (msg_obj->data[1] >> 6) & 0x3;
  33:../../lpc11cx4-library/evt_lib/src/brusa.c **** 	contents->limitation = ((msg_obj->data[1] & 0x1F) << 8) | msg_obj->data[2];
 209              		.loc 1 33 0
 210 0034 1F22     		mov	r2, #31	@ tmp193,
  32:../../lpc11cx4-library/evt_lib/src/brusa.c **** 	contents->limitation = ((msg_obj->data[1] & 0x1F) << 8) | msg_obj->data[2];
 211              		.loc 1 32 0
 212 0036 4B7A     		ldrb	r3, [r1, #9]	@ tmp185,
 213 0038 9B09     		lsr	r3, r3, #6	@ tmp186, tmp185,
 214 003a 8371     		strb	r3, [r0, #6]	@ tmp186, contents_8(D)->bypass_detection
 215              		.loc 1 33 0
 216 003c 4B7A     		ldrb	r3, [r1, #9]	@ tmp191,
 217 003e 1340     		and	r3, r2	@ D.6427, tmp193
 218 0040 8A7A     		ldrb	r2, [r1, #10]	@ tmp197,
 219 0042 1B02     		lsl	r3, r3, #8	@ D.6427, D.6427,
 220 0044 1343     		orr	r3, r2	@ tmp199, tmp197
 221 0046 0381     		strh	r3, [r0, #8]	@ tmp199, contents_8(D)->limitation
  34:../../lpc11cx4-library/evt_lib/src/brusa.c **** 
  35:../../lpc11cx4-library/evt_lib/src/brusa.c **** 	return 0;
 222              		.loc 1 35 0
 223 0048 0020     		mov	r0, #0	@ D.6427,
 224              	.LVL13:
 225              	.L3:
  36:../../lpc11cx4-library/evt_lib/src/brusa.c **** }
 226              		.loc 1 36 0
 227              		@ sp needed	@
 228 004a 7047     		bx	lr
 229              	.LVL14:
 230              	.L4:
  22:../../lpc11cx4-library/evt_lib/src/brusa.c **** 	}
 231              		.loc 1 22 0
 232 004c 0120     		mov	r0, #1	@ D.6427,
 233              	.LVL15:
 234 004e 4042     		neg	r0, r0	@ D.6427, D.6427
 235 0050 FBE7     		b	.L3	@
 236              		.cfi_endproc
 237              	.LFE199:
 238              		.size	Brusa_DecodeStatus, .-Brusa_DecodeStatus
 239 0052 C046     		.section	.text.Brusa_CheckOn,"ax",%progbits
 240              		.align	2
ARM GAS  /tmp/ccADJ3HX.s 			page 6


 241              		.global	Brusa_CheckOn
 242              		.code	16
 243              		.thumb_func
 244              		.type	Brusa_CheckOn, %function
 245              	Brusa_CheckOn:
 246              	.LFB200:
  37:../../lpc11cx4-library/evt_lib/src/brusa.c **** 
  38:../../lpc11cx4-library/evt_lib/src/brusa.c **** bool Brusa_CheckOn(CCAN_MSG_OBJ_T *msg_obj) {
 247              		.loc 1 38 0
 248              		.cfi_startproc
 249              	.LVL16:
  39:../../lpc11cx4-library/evt_lib/src/brusa.c **** 	if (msg_obj->dlc != NLG5_STATUS_DLC) {
 250              		.loc 1 39 0
 251 0000 037C     		ldrb	r3, [r0, #16]	@ tmp113,
 252 0002 042B     		cmp	r3, #4	@ tmp113,
 253 0004 00D0     		beq	.L6	@,
  40:../../lpc11cx4-library/evt_lib/src/brusa.c **** 		return false;
 254              		.loc 1 40 0
 255 0006 0020     		mov	r0, #0	@ <retval>,
 256              	.LVL17:
 257              	.L6:
  41:../../lpc11cx4-library/evt_lib/src/brusa.c **** 	}
  42:../../lpc11cx4-library/evt_lib/src/brusa.c **** 
  43:../../lpc11cx4-library/evt_lib/src/brusa.c **** 	
  44:../../lpc11cx4-library/evt_lib/src/brusa.c **** }
 258              		.loc 1 44 0
 259              		@ sp needed	@
 260 0008 7047     		bx	lr
 261              		.cfi_endproc
 262              	.LFE200:
 263              		.size	Brusa_CheckOn, .-Brusa_CheckOn
 264 000a C046     		.section	.text.Brusa_DecodeActI,"ax",%progbits
 265              		.align	2
 266              		.global	Brusa_DecodeActI
 267              		.code	16
 268              		.thumb_func
 269              		.type	Brusa_DecodeActI, %function
 270              	Brusa_DecodeActI:
 271              	.LFB201:
  45:../../lpc11cx4-library/evt_lib/src/brusa.c **** 
  46:../../lpc11cx4-library/evt_lib/src/brusa.c **** int Brusa_DecodeActI(NLG5_ACT_I_T *contents, CCAN_MSG_OBJ_T *msg_obj) {
 272              		.loc 1 46 0
 273              		.cfi_startproc
 274              	.LVL18:
  47:../../lpc11cx4-library/evt_lib/src/brusa.c **** 	if (msg_obj->dlc != NLG5_ACT_I_DLC) {
 275              		.loc 1 47 0
 276 0000 0B7C     		ldrb	r3, [r1, #16]	@ tmp147,
  46:../../lpc11cx4-library/evt_lib/src/brusa.c **** 	if (msg_obj->dlc != NLG5_ACT_I_DLC) {
 277              		.loc 1 46 0
 278 0002 10B5     		push	{r4, lr}	@
 279              		.cfi_def_cfa_offset 8
 280              		.cfi_offset 4, -8
 281              		.cfi_offset 14, -4
 282              		.loc 1 47 0
 283 0004 082B     		cmp	r3, #8	@ tmp147,
 284 0006 18D1     		bne	.L10	@,
  48:../../lpc11cx4-library/evt_lib/src/brusa.c **** 		return -1;
ARM GAS  /tmp/ccADJ3HX.s 			page 7


  49:../../lpc11cx4-library/evt_lib/src/brusa.c **** 	}
  50:../../lpc11cx4-library/evt_lib/src/brusa.c **** 
  51:../../lpc11cx4-library/evt_lib/src/brusa.c **** 	contents->mains_cAmps = (msg_obj->data[0] << 8) | msg_obj->data[1];
 285              		.loc 1 51 0
 286 0008 0B7A     		ldrb	r3, [r1, #8]	@ D.6436,
 287 000a 4A7A     		ldrb	r2, [r1, #9]	@ tmp151,
 288 000c 1B02     		lsl	r3, r3, #8	@ D.6436, D.6436,
 289 000e 1343     		orr	r3, r2	@ tmp153, tmp151
 290 0010 0380     		strh	r3, [r0]	@ tmp153, contents_14(D)->mains_cAmps
  52:../../lpc11cx4-library/evt_lib/src/brusa.c **** 	// Value originally in deciVolts
  53:../../lpc11cx4-library/evt_lib/src/brusa.c **** 	contents->mains_mVolts = ((msg_obj->data[2] << 8) | msg_obj->data[3]) * 100; 
 291              		.loc 1 53 0
 292 0012 8B7A     		ldrb	r3, [r1, #10]	@ D.6436,
 293 0014 CA7A     		ldrb	r2, [r1, #11]	@ D.6436,
 294 0016 1B02     		lsl	r3, r3, #8	@ D.6436, D.6436,
 295 0018 1343     		orr	r3, r2	@ D.6436, D.6436
 296 001a 6422     		mov	r2, #100	@ tmp159,
 297 001c 5343     		mul	r3, r2	@ D.6436, tmp159
 298 001e 4360     		str	r3, [r0, #4]	@ D.6436, contents_14(D)->mains_mVolts
  54:../../lpc11cx4-library/evt_lib/src/brusa.c **** 	// Value originally in deciVolts
  55:../../lpc11cx4-library/evt_lib/src/brusa.c **** 	contents->output_mVolts = ((msg_obj->data[4] << 8) | msg_obj->data[5]) * 100; 
 299              		.loc 1 55 0
 300 0020 0B7B     		ldrb	r3, [r1, #12]	@ D.6436,
 301 0022 4C7B     		ldrb	r4, [r1, #13]	@ D.6436,
 302 0024 1B02     		lsl	r3, r3, #8	@ D.6436, D.6436,
 303 0026 2343     		orr	r3, r4	@ D.6436, D.6436
 304 0028 5A43     		mul	r2, r3	@ D.6436, D.6436
 305 002a 8260     		str	r2, [r0, #8]	@ D.6436, contents_14(D)->output_mVolts
  56:../../lpc11cx4-library/evt_lib/src/brusa.c **** 	contents->output_cAmps = (msg_obj->data[6] << 8) | msg_obj->data[7];
 306              		.loc 1 56 0
 307 002c 8B7B     		ldrb	r3, [r1, #14]	@ D.6436,
 308 002e CA7B     		ldrb	r2, [r1, #15]	@ tmp170,
 309 0030 1B02     		lsl	r3, r3, #8	@ D.6436, D.6436,
 310 0032 1343     		orr	r3, r2	@ tmp172, tmp170
 311 0034 8381     		strh	r3, [r0, #12]	@ tmp172, contents_14(D)->output_cAmps
  57:../../lpc11cx4-library/evt_lib/src/brusa.c **** 
  58:../../lpc11cx4-library/evt_lib/src/brusa.c **** 	return 0;
 312              		.loc 1 58 0
 313 0036 0020     		mov	r0, #0	@ D.6436,
 314              	.LVL19:
 315              	.L9:
  59:../../lpc11cx4-library/evt_lib/src/brusa.c **** }
 316              		.loc 1 59 0
 317              		@ sp needed	@
 318 0038 10BD     		pop	{r4, pc}
 319              	.LVL20:
 320              	.L10:
  48:../../lpc11cx4-library/evt_lib/src/brusa.c **** 	}
 321              		.loc 1 48 0
 322 003a 0120     		mov	r0, #1	@ D.6436,
 323              	.LVL21:
 324 003c 4042     		neg	r0, r0	@ D.6436, D.6436
 325 003e FBE7     		b	.L9	@
 326              		.cfi_endproc
 327              	.LFE201:
 328              		.size	Brusa_DecodeActI, .-Brusa_DecodeActI
 329              		.section	.text.Brusa_DecodeActII,"ax",%progbits
ARM GAS  /tmp/ccADJ3HX.s 			page 8


 330              		.align	2
 331              		.global	Brusa_DecodeActII
 332              		.code	16
 333              		.thumb_func
 334              		.type	Brusa_DecodeActII, %function
 335              	Brusa_DecodeActII:
 336              	.LFB202:
  60:../../lpc11cx4-library/evt_lib/src/brusa.c **** 
  61:../../lpc11cx4-library/evt_lib/src/brusa.c **** int Brusa_DecodeActII(NLG5_ACT_II_T *contents, CCAN_MSG_OBJ_T *msg_obj) {
 337              		.loc 1 61 0
 338              		.cfi_startproc
 339              	.LVL22:
  62:../../lpc11cx4-library/evt_lib/src/brusa.c **** 	if (msg_obj->dlc != NLG5_ACT_II_DLC) {
 340              		.loc 1 62 0
 341 0000 0B7C     		ldrb	r3, [r1, #16]	@ tmp141,
 342 0002 082B     		cmp	r3, #8	@ tmp141,
 343 0004 14D1     		bne	.L13	@,
  63:../../lpc11cx4-library/evt_lib/src/brusa.c **** 		return -1;
  64:../../lpc11cx4-library/evt_lib/src/brusa.c **** 	}
  65:../../lpc11cx4-library/evt_lib/src/brusa.c **** 
  66:../../lpc11cx4-library/evt_lib/src/brusa.c **** 	contents->mains_current_max_pilot = (msg_obj->data[0] << 8) | msg_obj->data[1];
 344              		.loc 1 66 0
 345 0006 0B7A     		ldrb	r3, [r1, #8]	@ D.6443,
 346 0008 4A7A     		ldrb	r2, [r1, #9]	@ tmp145,
 347 000a 1B02     		lsl	r3, r3, #8	@ D.6443, D.6443,
 348 000c 1343     		orr	r3, r2	@ tmp147, tmp145
 349 000e 0380     		strh	r3, [r0]	@ tmp147, contents_14(D)->mains_current_max_pilot
  67:../../lpc11cx4-library/evt_lib/src/brusa.c **** 	contents->mains_current_max_power_ind = msg_obj->data[2];
 350              		.loc 1 67 0
 351 0010 8B7A     		ldrb	r3, [r1, #10]	@ D.6444,
 352 0012 8370     		strb	r3, [r0, #2]	@ D.6444, contents_14(D)->mains_current_max_power_ind
  68:../../lpc11cx4-library/evt_lib/src/brusa.c **** 	contents->aux_battery_voltage = msg_obj->data[3];
 353              		.loc 1 68 0
 354 0014 CB7A     		ldrb	r3, [r1, #11]	@ D.6444,
 355 0016 C370     		strb	r3, [r0, #3]	@ D.6444, contents_14(D)->aux_battery_voltage
  69:../../lpc11cx4-library/evt_lib/src/brusa.c **** 	contents->amp_hours_ext_shunt = (msg_obj->data[4] << 8) | msg_obj->data[5];
 356              		.loc 1 69 0
 357 0018 0B7B     		ldrb	r3, [r1, #12]	@ D.6443,
 358 001a 4A7B     		ldrb	r2, [r1, #13]	@ tmp154,
 359 001c 1B02     		lsl	r3, r3, #8	@ D.6443, D.6443,
 360 001e 1343     		orr	r3, r2	@ tmp156, tmp154
 361 0020 8380     		strh	r3, [r0, #4]	@ tmp156, contents_14(D)->amp_hours_ext_shunt
  70:../../lpc11cx4-library/evt_lib/src/brusa.c **** 	contents->booster_output_current = (msg_obj->data[6] << 8) | msg_obj->data[7];
 362              		.loc 1 70 0
 363 0022 8B7B     		ldrb	r3, [r1, #14]	@ D.6443,
 364 0024 CA7B     		ldrb	r2, [r1, #15]	@ tmp161,
 365 0026 1B02     		lsl	r3, r3, #8	@ D.6443, D.6443,
 366 0028 1343     		orr	r3, r2	@ tmp163, tmp161
 367 002a C380     		strh	r3, [r0, #6]	@ tmp163, contents_14(D)->booster_output_current
  71:../../lpc11cx4-library/evt_lib/src/brusa.c **** 
  72:../../lpc11cx4-library/evt_lib/src/brusa.c **** 	return 0;
 368              		.loc 1 72 0
 369 002c 0020     		mov	r0, #0	@ D.6443,
 370              	.LVL23:
 371              	.L12:
  73:../../lpc11cx4-library/evt_lib/src/brusa.c **** }
 372              		.loc 1 73 0
ARM GAS  /tmp/ccADJ3HX.s 			page 9


 373              		@ sp needed	@
 374 002e 7047     		bx	lr
 375              	.LVL24:
 376              	.L13:
  63:../../lpc11cx4-library/evt_lib/src/brusa.c **** 	}
 377              		.loc 1 63 0
 378 0030 0120     		mov	r0, #1	@ D.6443,
 379              	.LVL25:
 380 0032 4042     		neg	r0, r0	@ D.6443, D.6443
 381 0034 FBE7     		b	.L12	@
 382              		.cfi_endproc
 383              	.LFE202:
 384              		.size	Brusa_DecodeActII, .-Brusa_DecodeActII
 385 0036 C046     		.section	.text.Brusa_DecodeTemp,"ax",%progbits
 386              		.align	2
 387              		.global	Brusa_DecodeTemp
 388              		.code	16
 389              		.thumb_func
 390              		.type	Brusa_DecodeTemp, %function
 391              	Brusa_DecodeTemp:
 392              	.LFB203:
  74:../../lpc11cx4-library/evt_lib/src/brusa.c **** 
  75:../../lpc11cx4-library/evt_lib/src/brusa.c **** int Brusa_DecodeTemp(NLG5_TEMP_T *contents, CCAN_MSG_OBJ_T *msg_obj)  {
 393              		.loc 1 75 0
 394              		.cfi_startproc
 395              	.LVL26:
  76:../../lpc11cx4-library/evt_lib/src/brusa.c **** 	if (msg_obj->dlc != NLG5_TEMP_DLC) {
 396              		.loc 1 76 0
 397 0000 0B7C     		ldrb	r3, [r1, #16]	@ tmp147,
 398 0002 082B     		cmp	r3, #8	@ tmp147,
 399 0004 15D1     		bne	.L16	@,
  77:../../lpc11cx4-library/evt_lib/src/brusa.c **** 		return -1;
  78:../../lpc11cx4-library/evt_lib/src/brusa.c **** 	}
  79:../../lpc11cx4-library/evt_lib/src/brusa.c **** 
  80:../../lpc11cx4-library/evt_lib/src/brusa.c **** 	contents->power_temp = (msg_obj->data[0] << 8) | msg_obj->data[1];
 400              		.loc 1 80 0
 401 0006 0B7A     		ldrb	r3, [r1, #8]	@ D.6449,
 402 0008 4A7A     		ldrb	r2, [r1, #9]	@ tmp151,
 403 000a 1B02     		lsl	r3, r3, #8	@ D.6449, D.6449,
 404 000c 1343     		orr	r3, r2	@ tmp153, tmp151
 405 000e 0380     		strh	r3, [r0]	@ tmp153, contents_14(D)->power_temp
  81:../../lpc11cx4-library/evt_lib/src/brusa.c **** 	contents->temp_1 = (msg_obj->data[2] << 8) | msg_obj->data[3];
 406              		.loc 1 81 0
 407 0010 8B7A     		ldrb	r3, [r1, #10]	@ D.6449,
 408 0012 CA7A     		ldrb	r2, [r1, #11]	@ tmp158,
 409 0014 1B02     		lsl	r3, r3, #8	@ D.6449, D.6449,
 410 0016 1343     		orr	r3, r2	@ tmp160, tmp158
 411 0018 4380     		strh	r3, [r0, #2]	@ tmp160, contents_14(D)->temp_1
  82:../../lpc11cx4-library/evt_lib/src/brusa.c **** 	contents->temp_2 = (msg_obj->data[4] << 8) | msg_obj->data[5];
 412              		.loc 1 82 0
 413 001a 0B7B     		ldrb	r3, [r1, #12]	@ D.6449,
 414 001c 4A7B     		ldrb	r2, [r1, #13]	@ tmp165,
 415 001e 1B02     		lsl	r3, r3, #8	@ D.6449, D.6449,
 416 0020 1343     		orr	r3, r2	@ tmp167, tmp165
 417 0022 8380     		strh	r3, [r0, #4]	@ tmp167, contents_14(D)->temp_2
  83:../../lpc11cx4-library/evt_lib/src/brusa.c **** 	contents->temp_3 = (msg_obj->data[6] << 8) | msg_obj->data[7];
 418              		.loc 1 83 0
ARM GAS  /tmp/ccADJ3HX.s 			page 10


 419 0024 8B7B     		ldrb	r3, [r1, #14]	@ D.6449,
 420 0026 CA7B     		ldrb	r2, [r1, #15]	@ tmp172,
 421 0028 1B02     		lsl	r3, r3, #8	@ D.6449, D.6449,
 422 002a 1343     		orr	r3, r2	@ tmp174, tmp172
 423 002c C380     		strh	r3, [r0, #6]	@ tmp174, contents_14(D)->temp_3
  84:../../lpc11cx4-library/evt_lib/src/brusa.c **** 
  85:../../lpc11cx4-library/evt_lib/src/brusa.c **** 	return 0;
 424              		.loc 1 85 0
 425 002e 0020     		mov	r0, #0	@ D.6449,
 426              	.LVL27:
 427              	.L15:
  86:../../lpc11cx4-library/evt_lib/src/brusa.c **** }
 428              		.loc 1 86 0
 429              		@ sp needed	@
 430 0030 7047     		bx	lr
 431              	.LVL28:
 432              	.L16:
  77:../../lpc11cx4-library/evt_lib/src/brusa.c **** 	}
 433              		.loc 1 77 0
 434 0032 0120     		mov	r0, #1	@ D.6449,
 435              	.LVL29:
 436 0034 4042     		neg	r0, r0	@ D.6449, D.6449
 437 0036 FBE7     		b	.L15	@
 438              		.cfi_endproc
 439              	.LFE203:
 440              		.size	Brusa_DecodeTemp, .-Brusa_DecodeTemp
 441              		.section	.text.Brusa_DecodeErr,"ax",%progbits
 442              		.align	2
 443              		.global	Brusa_DecodeErr
 444              		.code	16
 445              		.thumb_func
 446              		.type	Brusa_DecodeErr, %function
 447              	Brusa_DecodeErr:
 448              	.LFB204:
  87:../../lpc11cx4-library/evt_lib/src/brusa.c **** 
  88:../../lpc11cx4-library/evt_lib/src/brusa.c **** int Brusa_DecodeErr(NLG5_ERR_T *contents, CCAN_MSG_OBJ_T *msg_obj) {
 449              		.loc 1 88 0
 450              		.cfi_startproc
 451              	.LVL30:
  89:../../lpc11cx4-library/evt_lib/src/brusa.c **** 	if (msg_obj->dlc != NLG5_ERR_DLC) {
 452              		.loc 1 89 0
 453 0000 0B7C     		ldrb	r3, [r1, #16]	@ tmp163,
  88:../../lpc11cx4-library/evt_lib/src/brusa.c **** 	if (msg_obj->dlc != NLG5_ERR_DLC) {
 454              		.loc 1 88 0
 455 0002 30B5     		push	{r4, r5, lr}	@
 456              		.cfi_def_cfa_offset 12
 457              		.cfi_offset 4, -12
 458              		.cfi_offset 5, -8
 459              		.cfi_offset 14, -4
 460              		.loc 1 89 0
 461 0004 052B     		cmp	r3, #5	@ tmp163,
 462 0006 0DD1     		bne	.L20	@,
  90:../../lpc11cx4-library/evt_lib/src/brusa.c **** 		return -1;
  91:../../lpc11cx4-library/evt_lib/src/brusa.c **** 	}
  92:../../lpc11cx4-library/evt_lib/src/brusa.c **** 
  93:../../lpc11cx4-library/evt_lib/src/brusa.c **** 	// msg_obj->data[4] &= 0xF0;
  94:../../lpc11cx4-library/evt_lib/src/brusa.c **** 	*(contents) = 0;
ARM GAS  /tmp/ccADJ3HX.s 			page 11


 463              		.loc 1 94 0
 464 0008 0023     		mov	r3, #0	@ tmp164,
 465 000a 0024     		mov	r4, #0	@ D.6473,
 466 000c 0360     		str	r3, [r0]	@ tmp164, *contents_8(D)
 467              	.LVL31:
 468              	.L19:
 469 000e CA18     		add	r2, r1, r3	@ D.6475, msg_obj, ivtmp.25
 470              	.LBB8:
 471              	.LBB9:
  95:../../lpc11cx4-library/evt_lib/src/brusa.c **** 	uint8_t i;
  96:../../lpc11cx4-library/evt_lib/src/brusa.c **** 	for (i = 0; i < NLG5_ERR_DLC - 1; i++) {
  97:../../lpc11cx4-library/evt_lib/src/brusa.c **** 		*(contents) |= (msg_obj->data[i] << (8 * i));
 472              		.loc 1 97 0
 473 0010 127A     		ldrb	r2, [r2, #8]	@ D.6471, MEM[base: _25, offset: 8B]
 474 0012 DD00     		lsl	r5, r3, #3	@ D.6474, ivtmp.25,
 475 0014 AA40     		lsl	r2, r2, r5	@ D.6471, D.6471, D.6474
 476 0016 0133     		add	r3, r3, #1	@ ivtmp.25,
 477              	.LVL32:
 478 0018 1443     		orr	r4, r2	@ D.6473, D.6471
 479 001a 0460     		str	r4, [r0]	@ D.6473, *contents_8(D)
  96:../../lpc11cx4-library/evt_lib/src/brusa.c **** 		*(contents) |= (msg_obj->data[i] << (8 * i));
 480              		.loc 1 96 0
 481 001c 042B     		cmp	r3, #4	@ ivtmp.25,
 482 001e F6D1     		bne	.L19	@,
 483 0020 0020     		mov	r0, #0	@ D.6471,
 484              	.LVL33:
 485              	.L18:
 486              	.LBE9:
 487              	.LBE8:
  98:../../lpc11cx4-library/evt_lib/src/brusa.c **** 	}
  99:../../lpc11cx4-library/evt_lib/src/brusa.c **** 
 100:../../lpc11cx4-library/evt_lib/src/brusa.c **** 	return 0;
 101:../../lpc11cx4-library/evt_lib/src/brusa.c **** }
 488              		.loc 1 101 0
 489              		@ sp needed	@
 490 0022 30BD     		pop	{r4, r5, pc}
 491              	.LVL34:
 492              	.L20:
  90:../../lpc11cx4-library/evt_lib/src/brusa.c **** 	}
 493              		.loc 1 90 0
 494 0024 0120     		mov	r0, #1	@ D.6471,
 495              	.LVL35:
 496 0026 4042     		neg	r0, r0	@ D.6471, D.6471
 497 0028 FBE7     		b	.L18	@
 498              		.cfi_endproc
 499              	.LFE204:
 500              		.size	Brusa_DecodeErr, .-Brusa_DecodeErr
 501 002a C046     		.section	.text.Brusa_CheckErr,"ax",%progbits
 502              		.align	2
 503              		.global	Brusa_CheckErr
 504              		.code	16
 505              		.thumb_func
 506              		.type	Brusa_CheckErr, %function
 507              	Brusa_CheckErr:
 508              	.LFB205:
 102:../../lpc11cx4-library/evt_lib/src/brusa.c **** 
 103:../../lpc11cx4-library/evt_lib/src/brusa.c **** bool Brusa_CheckErr(CCAN_MSG_OBJ_T *msg_obj) {
ARM GAS  /tmp/ccADJ3HX.s 			page 12


 509              		.loc 1 103 0
 510              		.cfi_startproc
 511              	.LVL36:
 104:../../lpc11cx4-library/evt_lib/src/brusa.c **** 	if (msg_obj->dlc != NLG5_ERR_DLC) {
 512              		.loc 1 104 0
 513 0000 037C     		ldrb	r3, [r0, #16]	@ tmp136,
 105:../../lpc11cx4-library/evt_lib/src/brusa.c **** 		return true;
 514              		.loc 1 105 0
 515 0002 0122     		mov	r2, #1	@ D.6486,
 104:../../lpc11cx4-library/evt_lib/src/brusa.c **** 	if (msg_obj->dlc != NLG5_ERR_DLC) {
 516              		.loc 1 104 0
 517 0004 052B     		cmp	r3, #5	@ tmp136,
 518 0006 01D0     		beq	.L27	@,
 519              	.LVL37:
 520              	.L23:
 106:../../lpc11cx4-library/evt_lib/src/brusa.c **** 	}
 107:../../lpc11cx4-library/evt_lib/src/brusa.c **** 
 108:../../lpc11cx4-library/evt_lib/src/brusa.c **** 	uint8_t mask = 0;
 109:../../lpc11cx4-library/evt_lib/src/brusa.c **** 	uint8_t i;
 110:../../lpc11cx4-library/evt_lib/src/brusa.c **** 	for (i = 0; i < msg_obj->dlc; i++) {
 111:../../lpc11cx4-library/evt_lib/src/brusa.c **** 		mask |= msg_obj->data[i];
 112:../../lpc11cx4-library/evt_lib/src/brusa.c **** 	}
 113:../../lpc11cx4-library/evt_lib/src/brusa.c **** 
 114:../../lpc11cx4-library/evt_lib/src/brusa.c **** 	return (!mask);
 115:../../lpc11cx4-library/evt_lib/src/brusa.c **** }
 521              		.loc 1 115 0
 522 0008 101C     		mov	r0, r2	@, D.6486
 523              		@ sp needed	@
 524 000a 7047     		bx	lr
 525              	.LVL38:
 526              	.L27:
 527 000c 031C     		mov	r3, r0	@ ivtmp.43, msg_obj
 104:../../lpc11cx4-library/evt_lib/src/brusa.c **** 		return true;
 528              		.loc 1 104 0
 529 000e 0022     		mov	r2, #0	@ mask,
 530 0010 0833     		add	r3, r3, #8	@ ivtmp.43,
 531 0012 0D30     		add	r0, r0, #13	@ D.6491,
 532              	.LVL39:
 533              	.L24:
 111:../../lpc11cx4-library/evt_lib/src/brusa.c **** 	}
 534              		.loc 1 111 0 discriminator 3
 535 0014 1978     		ldrb	r1, [r3]	@ MEM[base: _7, offset: 0B], MEM[base: _7, offset: 0B]
 536 0016 0133     		add	r3, r3, #1	@ ivtmp.43,
 537              	.LVL40:
 538 0018 0A43     		orr	r2, r1	@ mask, MEM[base: _7, offset: 0B]
 539              	.LVL41:
 110:../../lpc11cx4-library/evt_lib/src/brusa.c **** 		mask |= msg_obj->data[i];
 540              		.loc 1 110 0 discriminator 3
 541 001a 8342     		cmp	r3, r0	@ ivtmp.43, D.6491
 542 001c FAD1     		bne	.L24	@,
 114:../../lpc11cx4-library/evt_lib/src/brusa.c **** }
 543              		.loc 1 114 0
 544 001e 5042     		neg	r0, r2	@ tmp142, mask
 545 0020 4241     		adc	r2, r2, r0	@ tmp141, mask, tmp142
 546              	.LVL42:
 547 0022 D2B2     		uxtb	r2, r2	@ D.6486, tmp141
 548 0024 F0E7     		b	.L23	@
ARM GAS  /tmp/ccADJ3HX.s 			page 13


 549              		.cfi_endproc
 550              	.LFE205:
 551              		.size	Brusa_CheckErr, .-Brusa_CheckErr
 552 0026 C046     		.section	.text.Brusa_Decode,"ax",%progbits
 553              		.align	2
 554              		.global	Brusa_Decode
 555              		.code	16
 556              		.thumb_func
 557              		.type	Brusa_Decode, %function
 558              	Brusa_Decode:
 559              	.LFB206:
 116:../../lpc11cx4-library/evt_lib/src/brusa.c **** 
 117:../../lpc11cx4-library/evt_lib/src/brusa.c **** /**
 118:../../lpc11cx4-library/evt_lib/src/brusa.c ****  * @details Takes a CAN messege object and determines if it is a valid Brusa message.
 119:../../lpc11cx4-library/evt_lib/src/brusa.c ****  * If so, it stuffs it into the appropriate static struct
 120:../../lpc11cx4-library/evt_lib/src/brusa.c ****  * 
 121:../../lpc11cx4-library/evt_lib/src/brusa.c ****  * @param msg CAN message object to decode
 122:../../lpc11cx4-library/evt_lib/src/brusa.c ****  * @return 0 if properly decodes, -1 otherwise
 123:../../lpc11cx4-library/evt_lib/src/brusa.c ****  */
 124:../../lpc11cx4-library/evt_lib/src/brusa.c **** int8_t Brusa_Decode(NLG5_MESSAGES_T *state, CCAN_MSG_OBJ_T *msg) {
 560              		.loc 1 124 0
 561              		.cfi_startproc
 562              	.LVL43:
 125:../../lpc11cx4-library/evt_lib/src/brusa.c **** 	if (msg->mode_id == NLG5_STATUS) {
 563              		.loc 1 125 0
 564 0000 C222     		mov	r2, #194	@ tmp175,
 124:../../lpc11cx4-library/evt_lib/src/brusa.c **** 	if (msg->mode_id == NLG5_STATUS) {
 565              		.loc 1 124 0
 566 0002 38B5     		push	{r3, r4, r5, lr}	@
 567              		.cfi_def_cfa_offset 16
 568              		.cfi_offset 3, -16
 569              		.cfi_offset 4, -12
 570              		.cfi_offset 5, -8
 571              		.cfi_offset 14, -4
 572              		.loc 1 125 0
 573 0004 0B68     		ldr	r3, [r1]	@ D.6508, msg_4(D)->mode_id
 574 0006 D200     		lsl	r2, r2, #3	@ tmp175, tmp175,
 575 0008 9342     		cmp	r3, r2	@ D.6508, tmp175
 576 000a 2ED0     		beq	.L41	@,
 126:../../lpc11cx4-library/evt_lib/src/brusa.c **** 		return Brusa_DecodeStatus(state->stat, msg);
 127:../../lpc11cx4-library/evt_lib/src/brusa.c **** 	} else if (msg->mode_id == NLG5_TEMP) {
 577              		.loc 1 127 0
 578 000c 254A     		ldr	r2, .L46	@ tmp177,
 579 000e 9342     		cmp	r3, r2	@ D.6508, tmp177
 580 0010 30D0     		beq	.L42	@,
 128:../../lpc11cx4-library/evt_lib/src/brusa.c **** 		return Brusa_DecodeTemp(state->temp, msg);
 129:../../lpc11cx4-library/evt_lib/src/brusa.c **** 	} else if (msg->mode_id == NLG5_ACT_I) {
 581              		.loc 1 129 0
 582 0012 254A     		ldr	r2, .L46+4	@ tmp179,
 583 0014 9342     		cmp	r3, r2	@ D.6508, tmp179
 584 0016 32D0     		beq	.L43	@,
 130:../../lpc11cx4-library/evt_lib/src/brusa.c **** 		return Brusa_DecodeActI(state->act_i, msg);
 131:../../lpc11cx4-library/evt_lib/src/brusa.c **** 	} else if (msg->mode_id == NLG5_ACT_II) {
 585              		.loc 1 131 0
 586 0018 244A     		ldr	r2, .L46+8	@ tmp181,
 587 001a 9342     		cmp	r3, r2	@ D.6508, tmp181
 588 001c 09D0     		beq	.L44	@,
ARM GAS  /tmp/ccADJ3HX.s 			page 14


 132:../../lpc11cx4-library/evt_lib/src/brusa.c **** 		return Brusa_DecodeActII(state->act_ii, msg);
 133:../../lpc11cx4-library/evt_lib/src/brusa.c **** 	} else if (msg->mode_id == NLG5_ERR) {
 589              		.loc 1 133 0
 590 001e 244A     		ldr	r2, .L46+12	@ tmp206,
 591 0020 9342     		cmp	r3, r2	@ D.6508, tmp206
 592 0022 20D1     		bne	.L38	@,
 593              	.LBB16:
 594              	.LBB17:
  89:../../lpc11cx4-library/evt_lib/src/brusa.c **** 		return -1;
 595              		.loc 1 89 0
 596 0024 0B7C     		ldrb	r3, [r1, #16]	@ tmp207,
 597              	.LBE17:
 598              	.LBE16:
 134:../../lpc11cx4-library/evt_lib/src/brusa.c **** 		return Brusa_DecodeErr(state->err, msg);
 599              		.loc 1 134 0
 600 0026 0469     		ldr	r4, [r0, #16]	@ D.6515, state_6(D)->err
 601              	.LVL44:
 602              	.LBB22:
 603              	.LBB20:
  89:../../lpc11cx4-library/evt_lib/src/brusa.c **** 		return -1;
 604              		.loc 1 89 0
 605 0028 FF20     		mov	r0, #255	@ D.6507,
 606              	.LVL45:
 607 002a 052B     		cmp	r3, #5	@ tmp207,
 608 002c 2CD0     		beq	.L45	@,
 609              	.LVL46:
 610              	.L30:
 611 002e 40B2     		sxtb	r0, r0	@ D.6507, D.6507
 612              	.LBE20:
 613              	.LBE22:
 135:../../lpc11cx4-library/evt_lib/src/brusa.c **** 	} else {
 136:../../lpc11cx4-library/evt_lib/src/brusa.c **** 		return -1;
 137:../../lpc11cx4-library/evt_lib/src/brusa.c **** 	}
 138:../../lpc11cx4-library/evt_lib/src/brusa.c **** 
 139:../../lpc11cx4-library/evt_lib/src/brusa.c **** 	return 0;
 140:../../lpc11cx4-library/evt_lib/src/brusa.c **** }
 614              		.loc 1 140 0
 615              		@ sp needed	@
 616 0030 38BD     		pop	{r3, r4, r5, pc}
 617              	.LVL47:
 618              	.L44:
 619              	.LBB23:
 620              	.LBB24:
  62:../../lpc11cx4-library/evt_lib/src/brusa.c **** 		return -1;
 621              		.loc 1 62 0
 622 0032 0A7C     		ldrb	r2, [r1, #16]	@ tmp182,
 623              	.LBE24:
 624              	.LBE23:
 132:../../lpc11cx4-library/evt_lib/src/brusa.c **** 	} else if (msg->mode_id == NLG5_ERR) {
 625              		.loc 1 132 0
 626 0034 8368     		ldr	r3, [r0, #8]	@ D.6513, state_6(D)->act_ii
 627              	.LVL48:
 628              	.LBB26:
 629              	.LBB25:
  62:../../lpc11cx4-library/evt_lib/src/brusa.c **** 		return -1;
 630              		.loc 1 62 0
 631 0036 FF20     		mov	r0, #255	@ D.6507,
ARM GAS  /tmp/ccADJ3HX.s 			page 15


 632              	.LVL49:
 633 0038 082A     		cmp	r2, #8	@ tmp182,
 634 003a F8D1     		bne	.L30	@,
  66:../../lpc11cx4-library/evt_lib/src/brusa.c **** 	contents->mains_current_max_power_ind = msg_obj->data[2];
 635              		.loc 1 66 0
 636 003c 0A7A     		ldrb	r2, [r1, #8]	@ D.6510,
 637 003e 487A     		ldrb	r0, [r1, #9]	@ tmp186,
 638 0040 1202     		lsl	r2, r2, #8	@ D.6510, D.6510,
 639 0042 0243     		orr	r2, r0	@ tmp188, tmp186
 640 0044 1A80     		strh	r2, [r3]	@ tmp188, _19->mains_current_max_pilot
  67:../../lpc11cx4-library/evt_lib/src/brusa.c **** 	contents->aux_battery_voltage = msg_obj->data[3];
 641              		.loc 1 67 0
 642 0046 8A7A     		ldrb	r2, [r1, #10]	@ D.6514,
 643 0048 9A70     		strb	r2, [r3, #2]	@ D.6514, _19->mains_current_max_power_ind
  68:../../lpc11cx4-library/evt_lib/src/brusa.c **** 	contents->amp_hours_ext_shunt = (msg_obj->data[4] << 8) | msg_obj->data[5];
 644              		.loc 1 68 0
 645 004a CA7A     		ldrb	r2, [r1, #11]	@ D.6514,
 646 004c DA70     		strb	r2, [r3, #3]	@ D.6514, _19->aux_battery_voltage
  69:../../lpc11cx4-library/evt_lib/src/brusa.c **** 	contents->booster_output_current = (msg_obj->data[6] << 8) | msg_obj->data[7];
 647              		.loc 1 69 0
 648 004e 0A7B     		ldrb	r2, [r1, #12]	@ D.6510,
 649 0050 487B     		ldrb	r0, [r1, #13]	@ tmp195,
 650 0052 1202     		lsl	r2, r2, #8	@ D.6510, D.6510,
 651 0054 0243     		orr	r2, r0	@ tmp197, tmp195
 652 0056 9A80     		strh	r2, [r3, #4]	@ tmp197, _19->amp_hours_ext_shunt
  70:../../lpc11cx4-library/evt_lib/src/brusa.c **** 
 653              		.loc 1 70 0
 654 0058 8A7B     		ldrb	r2, [r1, #14]	@ D.6510,
 655 005a C97B     		ldrb	r1, [r1, #15]	@ tmp202,
 656              	.LVL50:
 657 005c 1202     		lsl	r2, r2, #8	@ D.6510, D.6510,
 658 005e 0A43     		orr	r2, r1	@ tmp204, tmp202
 659 0060 DA80     		strh	r2, [r3, #6]	@ tmp204, _19->booster_output_current
 660 0062 0020     		mov	r0, #0	@ D.6507,
 661 0064 E3E7     		b	.L30	@
 662              	.LVL51:
 663              	.L38:
 664              	.LBE25:
 665              	.LBE26:
 136:../../lpc11cx4-library/evt_lib/src/brusa.c **** 	}
 666              		.loc 1 136 0
 667 0066 FF20     		mov	r0, #255	@ D.6507,
 668              	.LVL52:
 669 0068 E1E7     		b	.L30	@
 670              	.LVL53:
 671              	.L41:
 126:../../lpc11cx4-library/evt_lib/src/brusa.c **** 	} else if (msg->mode_id == NLG5_TEMP) {
 672              		.loc 1 126 0
 673 006a 0068     		ldr	r0, [r0]	@ state_6(D)->stat, state_6(D)->stat
 674              	.LVL54:
 675 006c FFF7FEFF 		bl	Brusa_DecodeStatus	@
 676              	.LVL55:
 677 0070 C0B2     		uxtb	r0, r0	@ D.6507, D.6510
 678 0072 DCE7     		b	.L30	@
 679              	.LVL56:
 680              	.L42:
 128:../../lpc11cx4-library/evt_lib/src/brusa.c **** 	} else if (msg->mode_id == NLG5_ACT_I) {
ARM GAS  /tmp/ccADJ3HX.s 			page 16


 681              		.loc 1 128 0
 682 0074 C068     		ldr	r0, [r0, #12]	@ state_6(D)->temp, state_6(D)->temp
 683              	.LVL57:
 684 0076 FFF7FEFF 		bl	Brusa_DecodeTemp	@
 685              	.LVL58:
 686 007a C0B2     		uxtb	r0, r0	@ D.6507, D.6510
 687 007c D7E7     		b	.L30	@
 688              	.LVL59:
 689              	.L43:
 130:../../lpc11cx4-library/evt_lib/src/brusa.c **** 	} else if (msg->mode_id == NLG5_ACT_II) {
 690              		.loc 1 130 0
 691 007e 4068     		ldr	r0, [r0, #4]	@ state_6(D)->act_i, state_6(D)->act_i
 692              	.LVL60:
 693 0080 FFF7FEFF 		bl	Brusa_DecodeActI	@
 694              	.LVL61:
 695 0084 C0B2     		uxtb	r0, r0	@ D.6507, D.6510
 696 0086 D2E7     		b	.L30	@
 697              	.LVL62:
 698              	.L45:
 699              	.LBB27:
 700              	.LBB21:
  94:../../lpc11cx4-library/evt_lib/src/brusa.c **** 	uint8_t i;
 701              		.loc 1 94 0
 702 0088 0023     		mov	r3, #0	@ tmp208,
 703 008a 0020     		mov	r0, #0	@ D.6508,
 704 008c 2360     		str	r3, [r4]	@ tmp208, *_22
 705              	.LVL63:
 706              	.L36:
 707 008e CA18     		add	r2, r1, r3	@ D.6519, msg, ivtmp.47
 708              	.LBB18:
 709              	.LBB19:
  97:../../lpc11cx4-library/evt_lib/src/brusa.c **** 	}
 710              		.loc 1 97 0
 711 0090 127A     		ldrb	r2, [r2, #8]	@ D.6510, MEM[base: _82, offset: 8B]
 712 0092 DD00     		lsl	r5, r3, #3	@ D.6518, ivtmp.47,
 713 0094 AA40     		lsl	r2, r2, r5	@ D.6510, D.6510, D.6518
 714 0096 0133     		add	r3, r3, #1	@ ivtmp.47,
 715              	.LVL64:
 716 0098 1043     		orr	r0, r2	@ D.6508, D.6510
 717 009a 2060     		str	r0, [r4]	@ D.6508, *_22
  96:../../lpc11cx4-library/evt_lib/src/brusa.c **** 		*(contents) |= (msg_obj->data[i] << (8 * i));
 718              		.loc 1 96 0
 719 009c 042B     		cmp	r3, #4	@ ivtmp.47,
 720 009e F6D1     		bne	.L36	@,
 721 00a0 0020     		mov	r0, #0	@ D.6507,
 722 00a2 C4E7     		b	.L30	@
 723              	.L47:
 724              		.align	2
 725              	.L46:
 726 00a4 13060000 		.word	1555
 727 00a8 11060000 		.word	1553
 728 00ac 12060000 		.word	1554
 729 00b0 14060000 		.word	1556
 730              	.LBE19:
 731              	.LBE18:
 732              	.LBE21:
 733              	.LBE27:
ARM GAS  /tmp/ccADJ3HX.s 			page 17


 734              		.cfi_endproc
 735              	.LFE206:
 736              		.size	Brusa_Decode, .-Brusa_Decode
 737              		.text
 738              	.Letext0:
 739              		.file 2 "/usr/arm-none-eabi/include/machine/_default_types.h"
 740              		.file 3 "/usr/arm-none-eabi/include/sys/_stdint.h"
 741              		.file 4 "../../lpc11cx4-library/lpc_chip_11cxx_lib/inc/ccand_11xx.h"
 742              		.file 5 "../../lpc11cx4-library/evt_lib/inc/brusa.h"
 743              		.file 6 "../../lpc11cx4-library/lpc_chip_11cxx_lib/inc/chip.h"