ARM GAS  /var/folders/f9/8bk2lnw15zn4cbgn6wrnb4lm0000gn/T//ccmhdJMy.s 			page 1


   1              		.cpu cortex-m0
   2              		.fpu softvfp
   3              		.eabi_attribute 20, 1	@ Tag_ABI_FP_denormal
   4              		.eabi_attribute 21, 1	@ Tag_ABI_FP_exceptions
   5              		.eabi_attribute 23, 3	@ Tag_ABI_FP_number_model
   6              		.eabi_attribute 24, 1	@ Tag_ABI_align8_needed
   7              		.eabi_attribute 25, 1	@ Tag_ABI_align8_preserved
   8              		.eabi_attribute 26, 1	@ Tag_ABI_enum_size
   9              		.eabi_attribute 30, 4	@ Tag_ABI_optimization_goals
  10              		.eabi_attribute 34, 0	@ Tag_CPU_unaligned_access
  11              		.eabi_attribute 18, 4	@ Tag_ABI_PCS_wchar_t
  12              		.file	"clock_11xx.c"
  13              	@ GNU C (GNU Tools for ARM Embedded Processors) version 4.8.4 20140725 (release) [ARM/embedded-4_8-
  14              	@	compiled by GNU C version 4.2.1 (Based on Apple Inc. build 5658) (LLVM build 2336.9.00), GMP vers
  15              	@ GGC heuristics: --param ggc-min-expand=100 --param ggc-min-heapsize=131072
  16              	@ options passed:  -I . -I ../../lpc11cx4-library/lpc_chip_11cxx_lib/inc
  17              	@ -I ../../lpc11cx4-library/evt_lib/inc -I inc -imultilib armv6-m
  18              	@ -iprefix /usr/local/Cellar/gcc-arm-none-eabi/20140805/bin/../lib/gcc/arm-none-eabi/4.8.4/
  19              	@ -isysroot /usr/local/Cellar/gcc-arm-none-eabi/20140805/bin/../arm-none-eabi
  20              	@ -MD bin/clock_11xx.d -MF bin/clock_11xx.d -MP -MQ bin/clock_11xx.o
  21              	@ -D__USES_INITFINI__ -D CORE_M0
  22              	@ ../../lpc11cx4-library/lpc_chip_11cxx_lib/src/clock_11xx.c
  23              	@ -mcpu=cortex-m0 -mthumb -auxbase-strip bin/clock_11xx.o -g -ggdb3 -Os
  24              	@ -Wall -Wstrict-prototypes -Wextra -std=gnu90 -ffunction-sections
  25              	@ -fdata-sections -fverbose-asm -fstack-usage
  26              	@ options enabled:  -faggressive-loop-optimizations -fauto-inc-dec
  27              	@ -fbranch-count-reg -fcaller-saves -fcombine-stack-adjustments -fcommon
  28              	@ -fcompare-elim -fcprop-registers -fcrossjumping -fcse-follow-jumps
  29              	@ -fdata-sections -fdefer-pop -fdelete-null-pointer-checks -fdevirtualize
  30              	@ -fdwarf2-cfi-asm -fearly-inlining -feliminate-unused-debug-types
  31              	@ -fexpensive-optimizations -fforward-propagate -ffunction-cse
  32              	@ -ffunction-sections -fgcse -fgcse-lm -fgnu-runtime -fgnu-unique
  33              	@ -fguess-branch-probability -fhoist-adjacent-loads -fident -fif-conversion
  34              	@ -fif-conversion2 -findirect-inlining -finline -finline-atomics
  35              	@ -finline-functions -finline-functions-called-once
  36              	@ -finline-small-functions -fipa-cp -fipa-profile -fipa-pure-const
  37              	@ -fipa-reference -fipa-sra -fira-hoist-pressure -fira-share-save-slots
  38              	@ -fira-share-spill-slots -fivopts -fkeep-static-consts
  39              	@ -fleading-underscore -fmath-errno -fmerge-constants -fmerge-debug-strings
  40              	@ -fomit-frame-pointer -foptimize-register-move -foptimize-sibling-calls
  41              	@ -fpartial-inlining -fpeephole -fpeephole2 -fprefetch-loop-arrays
  42              	@ -freg-struct-return -fregmove -freorder-blocks -freorder-functions
  43              	@ -frerun-cse-after-loop -fsched-critical-path-heuristic
  44              	@ -fsched-dep-count-heuristic -fsched-group-heuristic -fsched-interblock
  45              	@ -fsched-last-insn-heuristic -fsched-pressure -fsched-rank-heuristic
  46              	@ -fsched-spec -fsched-spec-insn-heuristic -fsched-stalled-insns-dep
  47              	@ -fschedule-insns2 -fsection-anchors -fshow-column -fshrink-wrap
  48              	@ -fsigned-zeros -fsplit-ivs-in-unroller -fsplit-wide-types
  49              	@ -fstrict-aliasing -fstrict-overflow -fstrict-volatile-bitfields
  50              	@ -fsync-libcalls -fthread-jumps -ftoplevel-reorder -ftrapping-math
  51              	@ -ftree-bit-ccp -ftree-builtin-call-dce -ftree-ccp -ftree-ch
  52              	@ -ftree-coalesce-vars -ftree-copy-prop -ftree-copyrename -ftree-cselim
  53              	@ -ftree-dce -ftree-dominator-opts -ftree-dse -ftree-forwprop -ftree-fre
  54              	@ -ftree-loop-if-convert -ftree-loop-im -ftree-loop-ivcanon
  55              	@ -ftree-loop-optimize -ftree-parallelize-loops= -ftree-phiprop -ftree-pre
  56              	@ -ftree-pta -ftree-reassoc -ftree-scev-cprop -ftree-sink
  57              	@ -ftree-slp-vectorize -ftree-slsr -ftree-sra -ftree-switch-conversion
ARM GAS  /var/folders/f9/8bk2lnw15zn4cbgn6wrnb4lm0000gn/T//ccmhdJMy.s 			page 2


  58              	@ -ftree-tail-merge -ftree-ter -ftree-vect-loop-version -ftree-vrp
  59              	@ -funit-at-a-time -fvar-tracking -fvar-tracking-assignments -fverbose-asm
  60              	@ -fzero-initialized-in-bss -mlittle-endian -mpic-data-is-text-relative
  61              	@ -msched-prolog -mthumb -mvectorize-with-neon-quad
  62              	
  63              		.text
  64              	.Ltext0:
  65              		.cfi_sections	.debug_frame
  66              		.section	.text.Chip_Clock_SetSystemPLLSource,"ax",%progbits
  67              		.align	1
  68              		.global	Chip_Clock_SetSystemPLLSource
  69              		.code	16
  70              		.thumb_func
  71              		.type	Chip_Clock_SetSystemPLLSource, %function
  72              	Chip_Clock_SetSystemPLLSource:
  73              	.LFB200:
  74              		.file 1 "../../lpc11cx4-library/lpc_chip_11cxx_lib/src/clock_11xx.c"
   1:../../lpc11cx4-library/lpc_chip_11cxx_lib/src/clock_11xx.c **** /*
   2:../../lpc11cx4-library/lpc_chip_11cxx_lib/src/clock_11xx.c ****  * @brief LPC11XX System clock control functions
   3:../../lpc11cx4-library/lpc_chip_11cxx_lib/src/clock_11xx.c ****  *
   4:../../lpc11cx4-library/lpc_chip_11cxx_lib/src/clock_11xx.c ****  * Copyright(C) NXP Semiconductors, 2012
   5:../../lpc11cx4-library/lpc_chip_11cxx_lib/src/clock_11xx.c ****  * All rights reserved.
   6:../../lpc11cx4-library/lpc_chip_11cxx_lib/src/clock_11xx.c ****  *
   7:../../lpc11cx4-library/lpc_chip_11cxx_lib/src/clock_11xx.c ****  * Software that is described herein is for illustrative purposes only
   8:../../lpc11cx4-library/lpc_chip_11cxx_lib/src/clock_11xx.c ****  * which provides customers with programming information regarding the
   9:../../lpc11cx4-library/lpc_chip_11cxx_lib/src/clock_11xx.c ****  * LPC products.  This software is supplied "AS IS" without any warranties of
  10:../../lpc11cx4-library/lpc_chip_11cxx_lib/src/clock_11xx.c ****  * any kind, and NXP Semiconductors and its licensor disclaim any and
  11:../../lpc11cx4-library/lpc_chip_11cxx_lib/src/clock_11xx.c ****  * all warranties, express or implied, including all implied warranties of
  12:../../lpc11cx4-library/lpc_chip_11cxx_lib/src/clock_11xx.c ****  * merchantability, fitness for a particular purpose and non-infringement of
  13:../../lpc11cx4-library/lpc_chip_11cxx_lib/src/clock_11xx.c ****  * intellectual property rights.  NXP Semiconductors assumes no responsibility
  14:../../lpc11cx4-library/lpc_chip_11cxx_lib/src/clock_11xx.c ****  * or liability for the use of the software, conveys no license or rights under any
  15:../../lpc11cx4-library/lpc_chip_11cxx_lib/src/clock_11xx.c ****  * patent, copyright, mask work right, or any other intellectual property rights in
  16:../../lpc11cx4-library/lpc_chip_11cxx_lib/src/clock_11xx.c ****  * or to any products. NXP Semiconductors reserves the right to make changes
  17:../../lpc11cx4-library/lpc_chip_11cxx_lib/src/clock_11xx.c ****  * in the software without notification. NXP Semiconductors also makes no
  18:../../lpc11cx4-library/lpc_chip_11cxx_lib/src/clock_11xx.c ****  * representation or warranty that such application will be suitable for the
  19:../../lpc11cx4-library/lpc_chip_11cxx_lib/src/clock_11xx.c ****  * specified use without further testing or modification.
  20:../../lpc11cx4-library/lpc_chip_11cxx_lib/src/clock_11xx.c ****  *
  21:../../lpc11cx4-library/lpc_chip_11cxx_lib/src/clock_11xx.c ****  * Permission to use, copy, modify, and distribute this software and its
  22:../../lpc11cx4-library/lpc_chip_11cxx_lib/src/clock_11xx.c ****  * documentation is hereby granted, under NXP Semiconductors' and its
  23:../../lpc11cx4-library/lpc_chip_11cxx_lib/src/clock_11xx.c ****  * licensor's relevant copyrights in the software, without fee, provided that it
  24:../../lpc11cx4-library/lpc_chip_11cxx_lib/src/clock_11xx.c ****  * is used in conjunction with NXP Semiconductors microcontrollers.  This
  25:../../lpc11cx4-library/lpc_chip_11cxx_lib/src/clock_11xx.c ****  * copyright, permission, and disclaimer notice must appear in all copies of
  26:../../lpc11cx4-library/lpc_chip_11cxx_lib/src/clock_11xx.c ****  * this code.
  27:../../lpc11cx4-library/lpc_chip_11cxx_lib/src/clock_11xx.c ****  */
  28:../../lpc11cx4-library/lpc_chip_11cxx_lib/src/clock_11xx.c **** 
  29:../../lpc11cx4-library/lpc_chip_11cxx_lib/src/clock_11xx.c **** #include "chip.h"
  30:../../lpc11cx4-library/lpc_chip_11cxx_lib/src/clock_11xx.c **** 
  31:../../lpc11cx4-library/lpc_chip_11cxx_lib/src/clock_11xx.c **** /*****************************************************************************
  32:../../lpc11cx4-library/lpc_chip_11cxx_lib/src/clock_11xx.c ****  * Private types/enumerations/variables
  33:../../lpc11cx4-library/lpc_chip_11cxx_lib/src/clock_11xx.c ****  ****************************************************************************/
  34:../../lpc11cx4-library/lpc_chip_11cxx_lib/src/clock_11xx.c **** 
  35:../../lpc11cx4-library/lpc_chip_11cxx_lib/src/clock_11xx.c **** /* Inprecise clock rates for the watchdog oscillator */
  36:../../lpc11cx4-library/lpc_chip_11cxx_lib/src/clock_11xx.c **** STATIC const uint32_t wdtOSCRate[WDTLFO_OSC_4_60 + 1] = {
  37:../../lpc11cx4-library/lpc_chip_11cxx_lib/src/clock_11xx.c **** 	0,					/* WDT_OSC_ILLEGAL */
  38:../../lpc11cx4-library/lpc_chip_11cxx_lib/src/clock_11xx.c **** 	600000,				/* WDT_OSC_0_60 */
  39:../../lpc11cx4-library/lpc_chip_11cxx_lib/src/clock_11xx.c **** 	1050000,			/* WDT_OSC_1_05 */
  40:../../lpc11cx4-library/lpc_chip_11cxx_lib/src/clock_11xx.c **** 	1400000,			/* WDT_OSC_1_40 */
ARM GAS  /var/folders/f9/8bk2lnw15zn4cbgn6wrnb4lm0000gn/T//ccmhdJMy.s 			page 3


  41:../../lpc11cx4-library/lpc_chip_11cxx_lib/src/clock_11xx.c **** 	1750000,			/* WDT_OSC_1_75 */
  42:../../lpc11cx4-library/lpc_chip_11cxx_lib/src/clock_11xx.c **** 	2100000,			/* WDT_OSC_2_10 */
  43:../../lpc11cx4-library/lpc_chip_11cxx_lib/src/clock_11xx.c **** 	2400000,			/* WDT_OSC_2_40 */
  44:../../lpc11cx4-library/lpc_chip_11cxx_lib/src/clock_11xx.c **** 	2700000,			/* WDT_OSC_2_70 */
  45:../../lpc11cx4-library/lpc_chip_11cxx_lib/src/clock_11xx.c **** 	3000000,			/* WDT_OSC_3_00 */
  46:../../lpc11cx4-library/lpc_chip_11cxx_lib/src/clock_11xx.c **** 	3250000,			/* WDT_OSC_3_25 */
  47:../../lpc11cx4-library/lpc_chip_11cxx_lib/src/clock_11xx.c **** 	3500000,			/* WDT_OSC_3_50 */
  48:../../lpc11cx4-library/lpc_chip_11cxx_lib/src/clock_11xx.c **** 	3750000,			/* WDT_OSC_3_75 */
  49:../../lpc11cx4-library/lpc_chip_11cxx_lib/src/clock_11xx.c **** 	4000000,			/* WDT_OSC_4_00 */
  50:../../lpc11cx4-library/lpc_chip_11cxx_lib/src/clock_11xx.c **** 	4200000,			/* WDT_OSC_4_20 */
  51:../../lpc11cx4-library/lpc_chip_11cxx_lib/src/clock_11xx.c **** 	4400000,			/* WDT_OSC_4_40 */
  52:../../lpc11cx4-library/lpc_chip_11cxx_lib/src/clock_11xx.c **** 	4600000				/* WDT_OSC_4_60 */
  53:../../lpc11cx4-library/lpc_chip_11cxx_lib/src/clock_11xx.c **** };
  54:../../lpc11cx4-library/lpc_chip_11cxx_lib/src/clock_11xx.c **** 
  55:../../lpc11cx4-library/lpc_chip_11cxx_lib/src/clock_11xx.c **** /*****************************************************************************
  56:../../lpc11cx4-library/lpc_chip_11cxx_lib/src/clock_11xx.c ****  * Public types/enumerations/variables
  57:../../lpc11cx4-library/lpc_chip_11cxx_lib/src/clock_11xx.c ****  ****************************************************************************/
  58:../../lpc11cx4-library/lpc_chip_11cxx_lib/src/clock_11xx.c **** 
  59:../../lpc11cx4-library/lpc_chip_11cxx_lib/src/clock_11xx.c **** /*****************************************************************************
  60:../../lpc11cx4-library/lpc_chip_11cxx_lib/src/clock_11xx.c ****  * Private functions
  61:../../lpc11cx4-library/lpc_chip_11cxx_lib/src/clock_11xx.c ****  ****************************************************************************/
  62:../../lpc11cx4-library/lpc_chip_11cxx_lib/src/clock_11xx.c **** 
  63:../../lpc11cx4-library/lpc_chip_11cxx_lib/src/clock_11xx.c **** /* Compute a WDT or LFO rate */
  64:../../lpc11cx4-library/lpc_chip_11cxx_lib/src/clock_11xx.c **** STATIC uint32_t Chip_Clock_GetWDTLFORate(uint32_t reg)
  65:../../lpc11cx4-library/lpc_chip_11cxx_lib/src/clock_11xx.c **** {
  66:../../lpc11cx4-library/lpc_chip_11cxx_lib/src/clock_11xx.c **** 	uint32_t div;
  67:../../lpc11cx4-library/lpc_chip_11cxx_lib/src/clock_11xx.c **** 	CHIP_WDTLFO_OSC_T clk;
  68:../../lpc11cx4-library/lpc_chip_11cxx_lib/src/clock_11xx.c **** 
  69:../../lpc11cx4-library/lpc_chip_11cxx_lib/src/clock_11xx.c **** 	/* Get WDT oscillator settings */
  70:../../lpc11cx4-library/lpc_chip_11cxx_lib/src/clock_11xx.c **** 	clk = (CHIP_WDTLFO_OSC_T) ((reg >> 5) & 0xF);
  71:../../lpc11cx4-library/lpc_chip_11cxx_lib/src/clock_11xx.c **** 	div = reg & 0x1F;
  72:../../lpc11cx4-library/lpc_chip_11cxx_lib/src/clock_11xx.c **** 
  73:../../lpc11cx4-library/lpc_chip_11cxx_lib/src/clock_11xx.c **** 	/* Compute clock rate and divided by divde value */
  74:../../lpc11cx4-library/lpc_chip_11cxx_lib/src/clock_11xx.c **** 	return wdtOSCRate[clk] / ((div + 1) << 1);
  75:../../lpc11cx4-library/lpc_chip_11cxx_lib/src/clock_11xx.c **** }
  76:../../lpc11cx4-library/lpc_chip_11cxx_lib/src/clock_11xx.c **** 
  77:../../lpc11cx4-library/lpc_chip_11cxx_lib/src/clock_11xx.c **** /* Compute a PLL frequency */
  78:../../lpc11cx4-library/lpc_chip_11cxx_lib/src/clock_11xx.c **** STATIC uint32_t Chip_Clock_GetPLLFreq(uint32_t PLLReg, uint32_t inputRate)
  79:../../lpc11cx4-library/lpc_chip_11cxx_lib/src/clock_11xx.c **** {
  80:../../lpc11cx4-library/lpc_chip_11cxx_lib/src/clock_11xx.c **** 	uint32_t msel = ((PLLReg & 0x1F) + 1);
  81:../../lpc11cx4-library/lpc_chip_11cxx_lib/src/clock_11xx.c **** 
  82:../../lpc11cx4-library/lpc_chip_11cxx_lib/src/clock_11xx.c **** 	return inputRate * msel;
  83:../../lpc11cx4-library/lpc_chip_11cxx_lib/src/clock_11xx.c **** }
  84:../../lpc11cx4-library/lpc_chip_11cxx_lib/src/clock_11xx.c **** 
  85:../../lpc11cx4-library/lpc_chip_11cxx_lib/src/clock_11xx.c **** /*****************************************************************************
  86:../../lpc11cx4-library/lpc_chip_11cxx_lib/src/clock_11xx.c ****  * Public functions
  87:../../lpc11cx4-library/lpc_chip_11cxx_lib/src/clock_11xx.c ****  ****************************************************************************/
  88:../../lpc11cx4-library/lpc_chip_11cxx_lib/src/clock_11xx.c **** 
  89:../../lpc11cx4-library/lpc_chip_11cxx_lib/src/clock_11xx.c **** /* Set System PLL clock source */
  90:../../lpc11cx4-library/lpc_chip_11cxx_lib/src/clock_11xx.c **** void Chip_Clock_SetSystemPLLSource(CHIP_SYSCTL_PLLCLKSRC_T src)
  91:../../lpc11cx4-library/lpc_chip_11cxx_lib/src/clock_11xx.c **** {
  75              		.loc 1 91 0
  76              		.cfi_startproc
  77              	.LVL0:
  92:../../lpc11cx4-library/lpc_chip_11cxx_lib/src/clock_11xx.c **** 	LPC_SYSCTL->SYSPLLCLKSEL  = (uint32_t) src;
  78              		.loc 1 92 0
  79 0000 034B     		ldr	r3, .L2	@ tmp112,
ARM GAS  /var/folders/f9/8bk2lnw15zn4cbgn6wrnb4lm0000gn/T//ccmhdJMy.s 			page 4


  93:../../lpc11cx4-library/lpc_chip_11cxx_lib/src/clock_11xx.c **** 	LPC_SYSCTL->SYSPLLCLKUEN  = 0;
  80              		.loc 1 93 0
  81 0002 0022     		mov	r2, #0	@ tmp114,
  92:../../lpc11cx4-library/lpc_chip_11cxx_lib/src/clock_11xx.c **** 	LPC_SYSCTL->SYSPLLCLKSEL  = (uint32_t) src;
  82              		.loc 1 92 0
  83 0004 1864     		str	r0, [r3, #64]	@ src, MEM[(struct LPC_SYSCTL_T *)1074036736B].SYSPLLCLKSEL
  84              		.loc 1 93 0
  85 0006 5A64     		str	r2, [r3, #68]	@ tmp114, MEM[(struct LPC_SYSCTL_T *)1074036736B].SYSPLLCLKUEN
  94:../../lpc11cx4-library/lpc_chip_11cxx_lib/src/clock_11xx.c **** 	LPC_SYSCTL->SYSPLLCLKUEN  = 1;
  86              		.loc 1 94 0
  87 0008 0122     		mov	r2, #1	@ tmp116,
  88 000a 5A64     		str	r2, [r3, #68]	@ tmp116, MEM[(struct LPC_SYSCTL_T *)1074036736B].SYSPLLCLKUEN
  95:../../lpc11cx4-library/lpc_chip_11cxx_lib/src/clock_11xx.c **** }
  89              		.loc 1 95 0
  90              		@ sp needed	@
  91 000c 7047     		bx	lr
  92              	.L3:
  93 000e C046     		.align	2
  94              	.L2:
  95 0010 00800440 		.word	1074036736
  96              		.cfi_endproc
  97              	.LFE200:
  98              		.size	Chip_Clock_SetSystemPLLSource, .-Chip_Clock_SetSystemPLLSource
  99              		.section	.text.Chip_Clock_SetPLLBypass,"ax",%progbits
 100              		.align	1
 101              		.global	Chip_Clock_SetPLLBypass
 102              		.code	16
 103              		.thumb_func
 104              		.type	Chip_Clock_SetPLLBypass, %function
 105              	Chip_Clock_SetPLLBypass:
 106              	.LFB201:
  96:../../lpc11cx4-library/lpc_chip_11cxx_lib/src/clock_11xx.c **** 
  97:../../lpc11cx4-library/lpc_chip_11cxx_lib/src/clock_11xx.c **** /* Bypass System Oscillator and set oscillator frequency range */
  98:../../lpc11cx4-library/lpc_chip_11cxx_lib/src/clock_11xx.c **** void Chip_Clock_SetPLLBypass(bool bypass, bool highfr)
  99:../../lpc11cx4-library/lpc_chip_11cxx_lib/src/clock_11xx.c **** {
 107              		.loc 1 99 0
 108              		.cfi_startproc
 109              	.LVL1:
 100:../../lpc11cx4-library/lpc_chip_11cxx_lib/src/clock_11xx.c **** 	uint32_t ctrl = 0;
 101:../../lpc11cx4-library/lpc_chip_11cxx_lib/src/clock_11xx.c **** 
 102:../../lpc11cx4-library/lpc_chip_11cxx_lib/src/clock_11xx.c **** 	if (bypass) {
 103:../../lpc11cx4-library/lpc_chip_11cxx_lib/src/clock_11xx.c **** 		ctrl |= (1 << 0);
 104:../../lpc11cx4-library/lpc_chip_11cxx_lib/src/clock_11xx.c **** 	}
 105:../../lpc11cx4-library/lpc_chip_11cxx_lib/src/clock_11xx.c **** 	if (highfr) {
 110              		.loc 1 105 0
 111 0000 0029     		cmp	r1, #0	@ highfr,
 112 0002 01D0     		beq	.L5	@,
 106:../../lpc11cx4-library/lpc_chip_11cxx_lib/src/clock_11xx.c **** 		ctrl |= (1 << 1);
 113              		.loc 1 106 0
 114 0004 0223     		mov	r3, #2	@ tmp115,
 115 0006 1843     		orr	r0, r3	@ ctrl, tmp115
 116              	.LVL2:
 117              	.L5:
 107:../../lpc11cx4-library/lpc_chip_11cxx_lib/src/clock_11xx.c **** 	}
 108:../../lpc11cx4-library/lpc_chip_11cxx_lib/src/clock_11xx.c **** 
 109:../../lpc11cx4-library/lpc_chip_11cxx_lib/src/clock_11xx.c **** 	LPC_SYSCTL->SYSOSCCTRL = ctrl;
 118              		.loc 1 109 0
ARM GAS  /var/folders/f9/8bk2lnw15zn4cbgn6wrnb4lm0000gn/T//ccmhdJMy.s 			page 5


 119 0008 014B     		ldr	r3, .L10	@ tmp116,
 110:../../lpc11cx4-library/lpc_chip_11cxx_lib/src/clock_11xx.c **** }
 120              		.loc 1 110 0
 121              		@ sp needed	@
 109:../../lpc11cx4-library/lpc_chip_11cxx_lib/src/clock_11xx.c **** 	LPC_SYSCTL->SYSOSCCTRL = ctrl;
 122              		.loc 1 109 0
 123 000a 1862     		str	r0, [r3, #32]	@ ctrl, MEM[(struct LPC_SYSCTL_T *)1074036736B].SYSOSCCTRL
 124              		.loc 1 110 0
 125 000c 7047     		bx	lr
 126              	.L11:
 127 000e C046     		.align	2
 128              	.L10:
 129 0010 00800440 		.word	1074036736
 130              		.cfi_endproc
 131              	.LFE201:
 132              		.size	Chip_Clock_SetPLLBypass, .-Chip_Clock_SetPLLBypass
 133              		.section	.text.Chip_Clock_SetMainClockSource,"ax",%progbits
 134              		.align	1
 135              		.global	Chip_Clock_SetMainClockSource
 136              		.code	16
 137              		.thumb_func
 138              		.type	Chip_Clock_SetMainClockSource, %function
 139              	Chip_Clock_SetMainClockSource:
 140              	.LFB202:
 111:../../lpc11cx4-library/lpc_chip_11cxx_lib/src/clock_11xx.c **** 
 112:../../lpc11cx4-library/lpc_chip_11cxx_lib/src/clock_11xx.c **** #if defined(CHIP_LPC11UXX)
 113:../../lpc11cx4-library/lpc_chip_11cxx_lib/src/clock_11xx.c **** /* Set USB PLL clock source */
 114:../../lpc11cx4-library/lpc_chip_11cxx_lib/src/clock_11xx.c **** void Chip_Clock_SetUSBPLLSource(CHIP_SYSCTL_PLLCLKSRC_T src)
 115:../../lpc11cx4-library/lpc_chip_11cxx_lib/src/clock_11xx.c **** {
 116:../../lpc11cx4-library/lpc_chip_11cxx_lib/src/clock_11xx.c **** 	LPC_SYSCTL->USBPLLCLKSEL  = (uint32_t) src;
 117:../../lpc11cx4-library/lpc_chip_11cxx_lib/src/clock_11xx.c **** 	LPC_SYSCTL->USBPLLCLKUEN  = 0;
 118:../../lpc11cx4-library/lpc_chip_11cxx_lib/src/clock_11xx.c **** 	LPC_SYSCTL->USBPLLCLKUEN  = 1;
 119:../../lpc11cx4-library/lpc_chip_11cxx_lib/src/clock_11xx.c **** }
 120:../../lpc11cx4-library/lpc_chip_11cxx_lib/src/clock_11xx.c **** 
 121:../../lpc11cx4-library/lpc_chip_11cxx_lib/src/clock_11xx.c **** #endif
 122:../../lpc11cx4-library/lpc_chip_11cxx_lib/src/clock_11xx.c **** 
 123:../../lpc11cx4-library/lpc_chip_11cxx_lib/src/clock_11xx.c **** /* Set main system clock source */
 124:../../lpc11cx4-library/lpc_chip_11cxx_lib/src/clock_11xx.c **** void Chip_Clock_SetMainClockSource(CHIP_SYSCTL_MAINCLKSRC_T src)
 125:../../lpc11cx4-library/lpc_chip_11cxx_lib/src/clock_11xx.c **** {
 141              		.loc 1 125 0
 142              		.cfi_startproc
 143              	.LVL3:
 126:../../lpc11cx4-library/lpc_chip_11cxx_lib/src/clock_11xx.c **** 	LPC_SYSCTL->MAINCLKSEL  = (uint32_t) src;
 144              		.loc 1 126 0
 145 0000 034B     		ldr	r3, .L13	@ tmp112,
 127:../../lpc11cx4-library/lpc_chip_11cxx_lib/src/clock_11xx.c **** 	LPC_SYSCTL->MAINCLKUEN  = 0;
 146              		.loc 1 127 0
 147 0002 0022     		mov	r2, #0	@ tmp114,
 126:../../lpc11cx4-library/lpc_chip_11cxx_lib/src/clock_11xx.c **** 	LPC_SYSCTL->MAINCLKSEL  = (uint32_t) src;
 148              		.loc 1 126 0
 149 0004 1867     		str	r0, [r3, #112]	@ src, MEM[(struct LPC_SYSCTL_T *)1074036736B].MAINCLKSEL
 150              		.loc 1 127 0
 151 0006 5A67     		str	r2, [r3, #116]	@ tmp114, MEM[(struct LPC_SYSCTL_T *)1074036736B].MAINCLKUEN
 128:../../lpc11cx4-library/lpc_chip_11cxx_lib/src/clock_11xx.c **** 	LPC_SYSCTL->MAINCLKUEN  = 1;
 152              		.loc 1 128 0
 153 0008 0122     		mov	r2, #1	@ tmp116,
 154 000a 5A67     		str	r2, [r3, #116]	@ tmp116, MEM[(struct LPC_SYSCTL_T *)1074036736B].MAINCLKUEN
ARM GAS  /var/folders/f9/8bk2lnw15zn4cbgn6wrnb4lm0000gn/T//ccmhdJMy.s 			page 6


 129:../../lpc11cx4-library/lpc_chip_11cxx_lib/src/clock_11xx.c **** }
 155              		.loc 1 129 0
 156              		@ sp needed	@
 157 000c 7047     		bx	lr
 158              	.L14:
 159 000e C046     		.align	2
 160              	.L13:
 161 0010 00800440 		.word	1074036736
 162              		.cfi_endproc
 163              	.LFE202:
 164              		.size	Chip_Clock_SetMainClockSource, .-Chip_Clock_SetMainClockSource
 165              		.section	.text.Chip_Clock_SetWDTClockSource,"ax",%progbits
 166              		.align	1
 167              		.global	Chip_Clock_SetWDTClockSource
 168              		.code	16
 169              		.thumb_func
 170              		.type	Chip_Clock_SetWDTClockSource, %function
 171              	Chip_Clock_SetWDTClockSource:
 172              	.LFB203:
 130:../../lpc11cx4-library/lpc_chip_11cxx_lib/src/clock_11xx.c **** 
 131:../../lpc11cx4-library/lpc_chip_11cxx_lib/src/clock_11xx.c **** #if defined(CHIP_LPC11UXX)
 132:../../lpc11cx4-library/lpc_chip_11cxx_lib/src/clock_11xx.c **** /* Set USB clock source and divider */
 133:../../lpc11cx4-library/lpc_chip_11cxx_lib/src/clock_11xx.c **** void Chip_Clock_SetUSBClockSource(CHIP_SYSCTL_USBCLKSRC_T src, uint32_t div)
 134:../../lpc11cx4-library/lpc_chip_11cxx_lib/src/clock_11xx.c **** {
 135:../../lpc11cx4-library/lpc_chip_11cxx_lib/src/clock_11xx.c **** 	LPC_SYSCTL->USBCLKSEL = (uint32_t) src;
 136:../../lpc11cx4-library/lpc_chip_11cxx_lib/src/clock_11xx.c **** 	LPC_SYSCTL->USBCLKUEN = 0;
 137:../../lpc11cx4-library/lpc_chip_11cxx_lib/src/clock_11xx.c **** 	LPC_SYSCTL->USBCLKUEN = 1;
 138:../../lpc11cx4-library/lpc_chip_11cxx_lib/src/clock_11xx.c **** 	LPC_SYSCTL->USBCLKDIV = div;
 139:../../lpc11cx4-library/lpc_chip_11cxx_lib/src/clock_11xx.c **** }
 140:../../lpc11cx4-library/lpc_chip_11cxx_lib/src/clock_11xx.c **** 
 141:../../lpc11cx4-library/lpc_chip_11cxx_lib/src/clock_11xx.c **** #endif /*CHIP_LPC11UXX*/
 142:../../lpc11cx4-library/lpc_chip_11cxx_lib/src/clock_11xx.c **** 
 143:../../lpc11cx4-library/lpc_chip_11cxx_lib/src/clock_11xx.c **** #if defined(CHIP_LPC110X) || defined(CHIP_LPC11XXLV) || defined(CHIP_LPC11CXX) || defined(CHIP_LPC1
 144:../../lpc11cx4-library/lpc_chip_11cxx_lib/src/clock_11xx.c **** /* Set WDT clock source and divider */
 145:../../lpc11cx4-library/lpc_chip_11cxx_lib/src/clock_11xx.c **** void Chip_Clock_SetWDTClockSource(CHIP_SYSCTL_WDTCLKSRC_T src, uint32_t div)
 146:../../lpc11cx4-library/lpc_chip_11cxx_lib/src/clock_11xx.c **** {
 173              		.loc 1 146 0
 174              		.cfi_startproc
 175              	.LVL4:
 147:../../lpc11cx4-library/lpc_chip_11cxx_lib/src/clock_11xx.c **** 	LPC_SYSCTL->WDTCLKSEL = (uint32_t) src;
 176              		.loc 1 147 0
 177 0000 054B     		ldr	r3, .L16	@ tmp113,
 148:../../lpc11cx4-library/lpc_chip_11cxx_lib/src/clock_11xx.c **** 	LPC_SYSCTL->WDTCLKUEN = 0;
 149:../../lpc11cx4-library/lpc_chip_11cxx_lib/src/clock_11xx.c **** 	LPC_SYSCTL->WDTCLKUEN = 1;
 150:../../lpc11cx4-library/lpc_chip_11cxx_lib/src/clock_11xx.c **** 	LPC_SYSCTL->WDTCLKDIV = div;
 151:../../lpc11cx4-library/lpc_chip_11cxx_lib/src/clock_11xx.c **** }
 178              		.loc 1 151 0
 179              		@ sp needed	@
 147:../../lpc11cx4-library/lpc_chip_11cxx_lib/src/clock_11xx.c **** 	LPC_SYSCTL->WDTCLKSEL = (uint32_t) src;
 180              		.loc 1 147 0
 181 0002 1A1C     		mov	r2, r3	@ tmp116, tmp113
 182 0004 D032     		add	r2, r2, #208	@ tmp116,
 183 0006 1060     		str	r0, [r2]	@ src, MEM[(struct LPC_SYSCTL_T *)1074036736B].WDTCLKSEL
 148:../../lpc11cx4-library/lpc_chip_11cxx_lib/src/clock_11xx.c **** 	LPC_SYSCTL->WDTCLKUEN = 0;
 184              		.loc 1 148 0
 185 0008 0020     		mov	r0, #0	@ tmp121,
 186              	.LVL5:
ARM GAS  /var/folders/f9/8bk2lnw15zn4cbgn6wrnb4lm0000gn/T//ccmhdJMy.s 			page 7


 187 000a 5060     		str	r0, [r2, #4]	@ tmp121, MEM[(struct LPC_SYSCTL_T *)1074036736B].WDTCLKUEN
 150:../../lpc11cx4-library/lpc_chip_11cxx_lib/src/clock_11xx.c **** 	LPC_SYSCTL->WDTCLKDIV = div;
 188              		.loc 1 150 0
 189 000c D833     		add	r3, r3, #216	@ tmp130,
 149:../../lpc11cx4-library/lpc_chip_11cxx_lib/src/clock_11xx.c **** 	LPC_SYSCTL->WDTCLKUEN = 1;
 190              		.loc 1 149 0
 191 000e 0120     		mov	r0, #1	@ tmp126,
 192 0010 5060     		str	r0, [r2, #4]	@ tmp126, MEM[(struct LPC_SYSCTL_T *)1074036736B].WDTCLKUEN
 150:../../lpc11cx4-library/lpc_chip_11cxx_lib/src/clock_11xx.c **** 	LPC_SYSCTL->WDTCLKDIV = div;
 193              		.loc 1 150 0
 194 0012 1960     		str	r1, [r3]	@ div, MEM[(struct LPC_SYSCTL_T *)1074036736B].WDTCLKDIV
 195              		.loc 1 151 0
 196 0014 7047     		bx	lr
 197              	.L17:
 198 0016 C046     		.align	2
 199              	.L16:
 200 0018 00800440 		.word	1074036736
 201              		.cfi_endproc
 202              	.LFE203:
 203              		.size	Chip_Clock_SetWDTClockSource, .-Chip_Clock_SetWDTClockSource
 204              		.section	.text.Chip_Clock_SetCLKOUTSource,"ax",%progbits
 205              		.align	1
 206              		.global	Chip_Clock_SetCLKOUTSource
 207              		.code	16
 208              		.thumb_func
 209              		.type	Chip_Clock_SetCLKOUTSource, %function
 210              	Chip_Clock_SetCLKOUTSource:
 211              	.LFB204:
 152:../../lpc11cx4-library/lpc_chip_11cxx_lib/src/clock_11xx.c **** 
 153:../../lpc11cx4-library/lpc_chip_11cxx_lib/src/clock_11xx.c **** #endif
 154:../../lpc11cx4-library/lpc_chip_11cxx_lib/src/clock_11xx.c **** 
 155:../../lpc11cx4-library/lpc_chip_11cxx_lib/src/clock_11xx.c **** #if !defined(CHIP_LPC110X)
 156:../../lpc11cx4-library/lpc_chip_11cxx_lib/src/clock_11xx.c **** /* Set CLKOUT clock source and divider */
 157:../../lpc11cx4-library/lpc_chip_11cxx_lib/src/clock_11xx.c **** void Chip_Clock_SetCLKOUTSource(CHIP_SYSCTL_CLKOUTSRC_T src, uint32_t div)
 158:../../lpc11cx4-library/lpc_chip_11cxx_lib/src/clock_11xx.c **** {
 212              		.loc 1 158 0
 213              		.cfi_startproc
 214              	.LVL6:
 159:../../lpc11cx4-library/lpc_chip_11cxx_lib/src/clock_11xx.c **** 	LPC_SYSCTL->CLKOUTSEL = (uint32_t) src;
 215              		.loc 1 159 0
 216 0000 054B     		ldr	r3, .L19	@ tmp113,
 160:../../lpc11cx4-library/lpc_chip_11cxx_lib/src/clock_11xx.c **** 	LPC_SYSCTL->CLKOUTUEN = 0;
 161:../../lpc11cx4-library/lpc_chip_11cxx_lib/src/clock_11xx.c **** 	LPC_SYSCTL->CLKOUTUEN = 1;
 162:../../lpc11cx4-library/lpc_chip_11cxx_lib/src/clock_11xx.c **** 	LPC_SYSCTL->CLKOUTDIV = div;
 163:../../lpc11cx4-library/lpc_chip_11cxx_lib/src/clock_11xx.c **** }
 217              		.loc 1 163 0
 218              		@ sp needed	@
 159:../../lpc11cx4-library/lpc_chip_11cxx_lib/src/clock_11xx.c **** 	LPC_SYSCTL->CLKOUTSEL = (uint32_t) src;
 219              		.loc 1 159 0
 220 0002 1A1C     		mov	r2, r3	@ tmp116, tmp113
 221 0004 E032     		add	r2, r2, #224	@ tmp116,
 222 0006 1060     		str	r0, [r2]	@ src, MEM[(struct LPC_SYSCTL_T *)1074036736B].CLKOUTSEL
 160:../../lpc11cx4-library/lpc_chip_11cxx_lib/src/clock_11xx.c **** 	LPC_SYSCTL->CLKOUTUEN = 0;
 223              		.loc 1 160 0
 224 0008 0020     		mov	r0, #0	@ tmp121,
 225              	.LVL7:
 226 000a 5060     		str	r0, [r2, #4]	@ tmp121, MEM[(struct LPC_SYSCTL_T *)1074036736B].CLKOUTUEN
ARM GAS  /var/folders/f9/8bk2lnw15zn4cbgn6wrnb4lm0000gn/T//ccmhdJMy.s 			page 8


 162:../../lpc11cx4-library/lpc_chip_11cxx_lib/src/clock_11xx.c **** 	LPC_SYSCTL->CLKOUTDIV = div;
 227              		.loc 1 162 0
 228 000c E833     		add	r3, r3, #232	@ tmp130,
 161:../../lpc11cx4-library/lpc_chip_11cxx_lib/src/clock_11xx.c **** 	LPC_SYSCTL->CLKOUTUEN = 1;
 229              		.loc 1 161 0
 230 000e 0120     		mov	r0, #1	@ tmp126,
 231 0010 5060     		str	r0, [r2, #4]	@ tmp126, MEM[(struct LPC_SYSCTL_T *)1074036736B].CLKOUTUEN
 162:../../lpc11cx4-library/lpc_chip_11cxx_lib/src/clock_11xx.c **** 	LPC_SYSCTL->CLKOUTDIV = div;
 232              		.loc 1 162 0
 233 0012 1960     		str	r1, [r3]	@ div, MEM[(struct LPC_SYSCTL_T *)1074036736B].CLKOUTDIV
 234              		.loc 1 163 0
 235 0014 7047     		bx	lr
 236              	.L20:
 237 0016 C046     		.align	2
 238              	.L19:
 239 0018 00800440 		.word	1074036736
 240              		.cfi_endproc
 241              	.LFE204:
 242              		.size	Chip_Clock_SetCLKOUTSource, .-Chip_Clock_SetCLKOUTSource
 243              		.global	__aeabi_uidiv
 244              		.section	.text.Chip_Clock_GetWDTOSCRate,"ax",%progbits
 245              		.align	1
 246              		.global	Chip_Clock_GetWDTOSCRate
 247              		.code	16
 248              		.thumb_func
 249              		.type	Chip_Clock_GetWDTOSCRate, %function
 250              	Chip_Clock_GetWDTOSCRate:
 251              	.LFB205:
 164:../../lpc11cx4-library/lpc_chip_11cxx_lib/src/clock_11xx.c **** 
 165:../../lpc11cx4-library/lpc_chip_11cxx_lib/src/clock_11xx.c **** #endif
 166:../../lpc11cx4-library/lpc_chip_11cxx_lib/src/clock_11xx.c **** 
 167:../../lpc11cx4-library/lpc_chip_11cxx_lib/src/clock_11xx.c **** /* Return estimated watchdog oscillator rate */
 168:../../lpc11cx4-library/lpc_chip_11cxx_lib/src/clock_11xx.c **** uint32_t Chip_Clock_GetWDTOSCRate(void)
 169:../../lpc11cx4-library/lpc_chip_11cxx_lib/src/clock_11xx.c **** {
 252              		.loc 1 169 0
 253              		.cfi_startproc
 254 0000 08B5     		push	{r3, lr}	@
 255              		.cfi_def_cfa_offset 8
 256              		.cfi_offset 3, -8
 257              		.cfi_offset 14, -4
 170:../../lpc11cx4-library/lpc_chip_11cxx_lib/src/clock_11xx.c **** 	return Chip_Clock_GetWDTLFORate(LPC_SYSCTL->WDTOSCCTRL);
 258              		.loc 1 170 0
 259 0002 074B     		ldr	r3, .L22	@ tmp121,
 260              	.LBB12:
 261              	.LBB13:
  71:../../lpc11cx4-library/lpc_chip_11cxx_lib/src/clock_11xx.c **** 	div = reg & 0x1F;
 262              		.loc 1 71 0
 263 0004 1F21     		mov	r1, #31	@ tmp131,
 264              	.LBE13:
 265              	.LBE12:
 266              		.loc 1 170 0
 267 0006 5B6A     		ldr	r3, [r3, #36]	@ D.6212, MEM[(struct LPC_SYSCTL_T *)1074036736B].WDTOSCCTRL
 268              	.LVL8:
 171:../../lpc11cx4-library/lpc_chip_11cxx_lib/src/clock_11xx.c **** }
 269              		.loc 1 171 0
 270              		@ sp needed	@
 271              	.LBB15:
ARM GAS  /var/folders/f9/8bk2lnw15zn4cbgn6wrnb4lm0000gn/T//ccmhdJMy.s 			page 9


 272              	.LBB14:
  70:../../lpc11cx4-library/lpc_chip_11cxx_lib/src/clock_11xx.c **** 	clk = (CHIP_WDTLFO_OSC_T) ((reg >> 5) & 0xF);
 273              		.loc 1 70 0
 274 0008 DA05     		lsl	r2, r3, #23	@ tmp127, D.6212,
  71:../../lpc11cx4-library/lpc_chip_11cxx_lib/src/clock_11xx.c **** 	div = reg & 0x1F;
 275              		.loc 1 71 0
 276 000a 0B40     		and	r3, r1	@ div, tmp131
 277              	.LVL9:
  74:../../lpc11cx4-library/lpc_chip_11cxx_lib/src/clock_11xx.c **** 	return wdtOSCRate[clk] / ((div + 1) << 1);
 278              		.loc 1 74 0
 279 000c 591C     		add	r1, r3, #1	@ D.6212, div,
 280 000e 120F     		lsr	r2, r2, #28	@ D.6214, tmp127,
 281 0010 044B     		ldr	r3, .L22+4	@ tmp123,
 282              	.LVL10:
 283 0012 9200     		lsl	r2, r2, #2	@ tmp129, D.6214,
 284 0014 4900     		lsl	r1, r1, #1	@ D.6212, D.6212,
 285              	.LVL11:
 286 0016 D058     		ldr	r0, [r2, r3]	@, wdtOSCRate
 287 0018 FFF7FEFF 		bl	__aeabi_uidiv	@
 288              	.LVL12:
 289              	.LBE14:
 290              	.LBE15:
 291              		.loc 1 171 0
 292 001c 08BD     		pop	{r3, pc}
 293              	.L23:
 294 001e C046     		.align	2
 295              	.L22:
 296 0020 00800440 		.word	1074036736
 297 0024 00000000 		.word	.LANCHOR0
 298              		.cfi_endproc
 299              	.LFE205:
 300              		.size	Chip_Clock_GetWDTOSCRate, .-Chip_Clock_GetWDTOSCRate
 301              		.section	.text.Chip_Clock_GetSystemPLLInClockRate,"ax",%progbits
 302              		.align	1
 303              		.global	Chip_Clock_GetSystemPLLInClockRate
 304              		.code	16
 305              		.thumb_func
 306              		.type	Chip_Clock_GetSystemPLLInClockRate, %function
 307              	Chip_Clock_GetSystemPLLInClockRate:
 308              	.LFB206:
 172:../../lpc11cx4-library/lpc_chip_11cxx_lib/src/clock_11xx.c **** 
 173:../../lpc11cx4-library/lpc_chip_11cxx_lib/src/clock_11xx.c **** #if defined(CHIP_LPC11AXX)
 174:../../lpc11cx4-library/lpc_chip_11cxx_lib/src/clock_11xx.c **** /* Return estimated low frequency oscillator rate */
 175:../../lpc11cx4-library/lpc_chip_11cxx_lib/src/clock_11xx.c **** uint32_t Chip_Clock_GetLFOOSCRate(void)
 176:../../lpc11cx4-library/lpc_chip_11cxx_lib/src/clock_11xx.c **** {
 177:../../lpc11cx4-library/lpc_chip_11cxx_lib/src/clock_11xx.c **** 	return Chip_Clock_GetWDTLFORate(LPC_SYSCTL->LFOSCCTRL);
 178:../../lpc11cx4-library/lpc_chip_11cxx_lib/src/clock_11xx.c **** }
 179:../../lpc11cx4-library/lpc_chip_11cxx_lib/src/clock_11xx.c **** 
 180:../../lpc11cx4-library/lpc_chip_11cxx_lib/src/clock_11xx.c **** #endif
 181:../../lpc11cx4-library/lpc_chip_11cxx_lib/src/clock_11xx.c **** 
 182:../../lpc11cx4-library/lpc_chip_11cxx_lib/src/clock_11xx.c **** /* Return System PLL input clock rate */
 183:../../lpc11cx4-library/lpc_chip_11cxx_lib/src/clock_11xx.c **** uint32_t Chip_Clock_GetSystemPLLInClockRate(void)
 184:../../lpc11cx4-library/lpc_chip_11cxx_lib/src/clock_11xx.c **** {
 309              		.loc 1 184 0
 310              		.cfi_startproc
 185:../../lpc11cx4-library/lpc_chip_11cxx_lib/src/clock_11xx.c **** 	uint32_t clkRate;
 186:../../lpc11cx4-library/lpc_chip_11cxx_lib/src/clock_11xx.c **** 
ARM GAS  /var/folders/f9/8bk2lnw15zn4cbgn6wrnb4lm0000gn/T//ccmhdJMy.s 			page 10


 187:../../lpc11cx4-library/lpc_chip_11cxx_lib/src/clock_11xx.c **** 	switch ((CHIP_SYSCTL_PLLCLKSRC_T) (LPC_SYSCTL->SYSPLLCLKSEL & 0x3)) {
 311              		.loc 1 187 0
 312 0000 064B     		ldr	r3, .L31	@ tmp116,
 313 0002 1A6C     		ldr	r2, [r3, #64]	@ D.6220, MEM[(struct LPC_SYSCTL_T *)1074036736B].SYSPLLCLKSEL
 314 0004 0323     		mov	r3, #3	@ tmp120,
 315 0006 1340     		and	r3, r2	@ D.6221, D.6220
 316 0008 04D0     		beq	.L26	@,
 317 000a 012B     		cmp	r3, #1	@ D.6221,
 318 000c 04D1     		bne	.L30	@,
 319              	.LBB16:
 320              	.LBB17:
 321              		.file 2 "../../lpc11cx4-library/lpc_chip_11cxx_lib/inc/clock_11xx.h"
   1:../../lpc11cx4-library/lpc_chip_11cxx_lib/inc/clock_11xx.h **** /*
   2:../../lpc11cx4-library/lpc_chip_11cxx_lib/inc/clock_11xx.h ****  * @brief LPC11XX Clock control functions
   3:../../lpc11cx4-library/lpc_chip_11cxx_lib/inc/clock_11xx.h ****  *
   4:../../lpc11cx4-library/lpc_chip_11cxx_lib/inc/clock_11xx.h ****  * @note
   5:../../lpc11cx4-library/lpc_chip_11cxx_lib/inc/clock_11xx.h ****  * Copyright(C) NXP Semiconductors, 2012
   6:../../lpc11cx4-library/lpc_chip_11cxx_lib/inc/clock_11xx.h ****  * All rights reserved.
   7:../../lpc11cx4-library/lpc_chip_11cxx_lib/inc/clock_11xx.h ****  *
   8:../../lpc11cx4-library/lpc_chip_11cxx_lib/inc/clock_11xx.h ****  * @par
   9:../../lpc11cx4-library/lpc_chip_11cxx_lib/inc/clock_11xx.h ****  * Software that is described herein is for illustrative purposes only
  10:../../lpc11cx4-library/lpc_chip_11cxx_lib/inc/clock_11xx.h ****  * which provides customers with programming information regarding the
  11:../../lpc11cx4-library/lpc_chip_11cxx_lib/inc/clock_11xx.h ****  * LPC products.  This software is supplied "AS IS" without any warranties of
  12:../../lpc11cx4-library/lpc_chip_11cxx_lib/inc/clock_11xx.h ****  * any kind, and NXP Semiconductors and its licensor disclaim any and
  13:../../lpc11cx4-library/lpc_chip_11cxx_lib/inc/clock_11xx.h ****  * all warranties, express or implied, including all implied warranties of
  14:../../lpc11cx4-library/lpc_chip_11cxx_lib/inc/clock_11xx.h ****  * merchantability, fitness for a particular purpose and non-infringement of
  15:../../lpc11cx4-library/lpc_chip_11cxx_lib/inc/clock_11xx.h ****  * intellectual property rights.  NXP Semiconductors assumes no responsibility
  16:../../lpc11cx4-library/lpc_chip_11cxx_lib/inc/clock_11xx.h ****  * or liability for the use of the software, conveys no license or rights under any
  17:../../lpc11cx4-library/lpc_chip_11cxx_lib/inc/clock_11xx.h ****  * patent, copyright, mask work right, or any other intellectual property rights in
  18:../../lpc11cx4-library/lpc_chip_11cxx_lib/inc/clock_11xx.h ****  * or to any products. NXP Semiconductors reserves the right to make changes
  19:../../lpc11cx4-library/lpc_chip_11cxx_lib/inc/clock_11xx.h ****  * in the software without notification. NXP Semiconductors also makes no
  20:../../lpc11cx4-library/lpc_chip_11cxx_lib/inc/clock_11xx.h ****  * representation or warranty that such application will be suitable for the
  21:../../lpc11cx4-library/lpc_chip_11cxx_lib/inc/clock_11xx.h ****  * specified use without further testing or modification.
  22:../../lpc11cx4-library/lpc_chip_11cxx_lib/inc/clock_11xx.h ****  *
  23:../../lpc11cx4-library/lpc_chip_11cxx_lib/inc/clock_11xx.h ****  * @par
  24:../../lpc11cx4-library/lpc_chip_11cxx_lib/inc/clock_11xx.h ****  * Permission to use, copy, modify, and distribute this software and its
  25:../../lpc11cx4-library/lpc_chip_11cxx_lib/inc/clock_11xx.h ****  * documentation is hereby granted, under NXP Semiconductors' and its
  26:../../lpc11cx4-library/lpc_chip_11cxx_lib/inc/clock_11xx.h ****  * licensor's relevant copyrights in the software, without fee, provided that it
  27:../../lpc11cx4-library/lpc_chip_11cxx_lib/inc/clock_11xx.h ****  * is used in conjunction with NXP Semiconductors microcontrollers.  This
  28:../../lpc11cx4-library/lpc_chip_11cxx_lib/inc/clock_11xx.h ****  * copyright, permission, and disclaimer notice must appear in all copies of
  29:../../lpc11cx4-library/lpc_chip_11cxx_lib/inc/clock_11xx.h ****  * this code.
  30:../../lpc11cx4-library/lpc_chip_11cxx_lib/inc/clock_11xx.h ****  */
  31:../../lpc11cx4-library/lpc_chip_11cxx_lib/inc/clock_11xx.h **** 
  32:../../lpc11cx4-library/lpc_chip_11cxx_lib/inc/clock_11xx.h **** #ifndef __CLOCK_11XX_H_
  33:../../lpc11cx4-library/lpc_chip_11cxx_lib/inc/clock_11xx.h **** #define __CLOCK_11XX_H_
  34:../../lpc11cx4-library/lpc_chip_11cxx_lib/inc/clock_11xx.h **** 
  35:../../lpc11cx4-library/lpc_chip_11cxx_lib/inc/clock_11xx.h **** #ifdef __cplusplus
  36:../../lpc11cx4-library/lpc_chip_11cxx_lib/inc/clock_11xx.h **** extern "C" {
  37:../../lpc11cx4-library/lpc_chip_11cxx_lib/inc/clock_11xx.h **** #endif
  38:../../lpc11cx4-library/lpc_chip_11cxx_lib/inc/clock_11xx.h **** 
  39:../../lpc11cx4-library/lpc_chip_11cxx_lib/inc/clock_11xx.h **** /** @defgroup CLOCK_11XX CHIP: LPC11xx Clock Control block driver
  40:../../lpc11cx4-library/lpc_chip_11cxx_lib/inc/clock_11xx.h ****  * @ingroup CHIP_11XX_Drivers
  41:../../lpc11cx4-library/lpc_chip_11cxx_lib/inc/clock_11xx.h ****  * @{
  42:../../lpc11cx4-library/lpc_chip_11cxx_lib/inc/clock_11xx.h ****  */
  43:../../lpc11cx4-library/lpc_chip_11cxx_lib/inc/clock_11xx.h **** 
  44:../../lpc11cx4-library/lpc_chip_11cxx_lib/inc/clock_11xx.h **** /** Internal oscillator frequency */
  45:../../lpc11cx4-library/lpc_chip_11cxx_lib/inc/clock_11xx.h **** #define SYSCTL_IRC_FREQ (12000000)
ARM GAS  /var/folders/f9/8bk2lnw15zn4cbgn6wrnb4lm0000gn/T//ccmhdJMy.s 			page 11


  46:../../lpc11cx4-library/lpc_chip_11cxx_lib/inc/clock_11xx.h **** 
  47:../../lpc11cx4-library/lpc_chip_11cxx_lib/inc/clock_11xx.h **** /**
  48:../../lpc11cx4-library/lpc_chip_11cxx_lib/inc/clock_11xx.h ****  * @brief	Set System PLL divider values
  49:../../lpc11cx4-library/lpc_chip_11cxx_lib/inc/clock_11xx.h ****  * @param	msel    : PLL feedback divider value. M = msel + 1.
  50:../../lpc11cx4-library/lpc_chip_11cxx_lib/inc/clock_11xx.h ****  * @param	psel    : PLL post divider value. P =  (1<<psel).
  51:../../lpc11cx4-library/lpc_chip_11cxx_lib/inc/clock_11xx.h ****  * @return	Nothing
  52:../../lpc11cx4-library/lpc_chip_11cxx_lib/inc/clock_11xx.h ****  * @note	See the user manual for how to setup the PLL.
  53:../../lpc11cx4-library/lpc_chip_11cxx_lib/inc/clock_11xx.h ****  */
  54:../../lpc11cx4-library/lpc_chip_11cxx_lib/inc/clock_11xx.h **** STATIC INLINE void Chip_Clock_SetupSystemPLL(uint8_t msel, uint8_t psel)
  55:../../lpc11cx4-library/lpc_chip_11cxx_lib/inc/clock_11xx.h **** {
  56:../../lpc11cx4-library/lpc_chip_11cxx_lib/inc/clock_11xx.h **** 	LPC_SYSCTL->SYSPLLCTRL = (msel & 0x1F) | ((psel & 0x3) << 5);
  57:../../lpc11cx4-library/lpc_chip_11cxx_lib/inc/clock_11xx.h **** }
  58:../../lpc11cx4-library/lpc_chip_11cxx_lib/inc/clock_11xx.h **** 
  59:../../lpc11cx4-library/lpc_chip_11cxx_lib/inc/clock_11xx.h **** /**
  60:../../lpc11cx4-library/lpc_chip_11cxx_lib/inc/clock_11xx.h ****  * @brief	Read System PLL lock status
  61:../../lpc11cx4-library/lpc_chip_11cxx_lib/inc/clock_11xx.h ****  * @return	true of the PLL is locked. false if not locked
  62:../../lpc11cx4-library/lpc_chip_11cxx_lib/inc/clock_11xx.h ****  */
  63:../../lpc11cx4-library/lpc_chip_11cxx_lib/inc/clock_11xx.h **** STATIC INLINE bool Chip_Clock_IsSystemPLLLocked(void)
  64:../../lpc11cx4-library/lpc_chip_11cxx_lib/inc/clock_11xx.h **** {
  65:../../lpc11cx4-library/lpc_chip_11cxx_lib/inc/clock_11xx.h **** 	return (bool) ((LPC_SYSCTL->SYSPLLSTAT & 1) != 0);
  66:../../lpc11cx4-library/lpc_chip_11cxx_lib/inc/clock_11xx.h **** }
  67:../../lpc11cx4-library/lpc_chip_11cxx_lib/inc/clock_11xx.h **** 
  68:../../lpc11cx4-library/lpc_chip_11cxx_lib/inc/clock_11xx.h **** /**
  69:../../lpc11cx4-library/lpc_chip_11cxx_lib/inc/clock_11xx.h ****  * Clock sources for system and USB PLLs
  70:../../lpc11cx4-library/lpc_chip_11cxx_lib/inc/clock_11xx.h ****  */
  71:../../lpc11cx4-library/lpc_chip_11cxx_lib/inc/clock_11xx.h **** typedef enum CHIP_SYSCTL_PLLCLKSRC {
  72:../../lpc11cx4-library/lpc_chip_11cxx_lib/inc/clock_11xx.h **** 	SYSCTL_PLLCLKSRC_IRC = 0,		/*!< Internal oscillator in */
  73:../../lpc11cx4-library/lpc_chip_11cxx_lib/inc/clock_11xx.h **** 	SYSCTL_PLLCLKSRC_MAINOSC,		/*!< Crystal (main) oscillator in */
  74:../../lpc11cx4-library/lpc_chip_11cxx_lib/inc/clock_11xx.h **** #if defined(CHIP_LPC11AXX)
  75:../../lpc11cx4-library/lpc_chip_11cxx_lib/inc/clock_11xx.h **** 	SYSCTL_PLLCLKSRC_EXT_CLKIN,	/*!< External clock in (11Axx only) */
  76:../../lpc11cx4-library/lpc_chip_11cxx_lib/inc/clock_11xx.h **** #else
  77:../../lpc11cx4-library/lpc_chip_11cxx_lib/inc/clock_11xx.h **** 	SYSCTL_PLLCLKSRC_RESERVED1,	/*!< Reserved */
  78:../../lpc11cx4-library/lpc_chip_11cxx_lib/inc/clock_11xx.h **** #endif
  79:../../lpc11cx4-library/lpc_chip_11cxx_lib/inc/clock_11xx.h **** 	SYSCTL_PLLCLKSRC_RESERVED2,	/*!< Reserved */
  80:../../lpc11cx4-library/lpc_chip_11cxx_lib/inc/clock_11xx.h **** } CHIP_SYSCTL_PLLCLKSRC_T;
  81:../../lpc11cx4-library/lpc_chip_11cxx_lib/inc/clock_11xx.h **** 
  82:../../lpc11cx4-library/lpc_chip_11cxx_lib/inc/clock_11xx.h **** /**
  83:../../lpc11cx4-library/lpc_chip_11cxx_lib/inc/clock_11xx.h ****  * @brief	Set System PLL clock source
  84:../../lpc11cx4-library/lpc_chip_11cxx_lib/inc/clock_11xx.h ****  * @param	src	: Clock source for system PLL
  85:../../lpc11cx4-library/lpc_chip_11cxx_lib/inc/clock_11xx.h ****  * @return	Nothing
  86:../../lpc11cx4-library/lpc_chip_11cxx_lib/inc/clock_11xx.h ****  * @note	This function will also toggle the clock source update register
  87:../../lpc11cx4-library/lpc_chip_11cxx_lib/inc/clock_11xx.h ****  * to update the clock source.
  88:../../lpc11cx4-library/lpc_chip_11cxx_lib/inc/clock_11xx.h ****  */
  89:../../lpc11cx4-library/lpc_chip_11cxx_lib/inc/clock_11xx.h **** void Chip_Clock_SetSystemPLLSource(CHIP_SYSCTL_PLLCLKSRC_T src);
  90:../../lpc11cx4-library/lpc_chip_11cxx_lib/inc/clock_11xx.h **** 
  91:../../lpc11cx4-library/lpc_chip_11cxx_lib/inc/clock_11xx.h **** #if defined(CHIP_LPC11UXX)
  92:../../lpc11cx4-library/lpc_chip_11cxx_lib/inc/clock_11xx.h **** /**
  93:../../lpc11cx4-library/lpc_chip_11cxx_lib/inc/clock_11xx.h ****  * @brief	Set USB PLL divider values
  94:../../lpc11cx4-library/lpc_chip_11cxx_lib/inc/clock_11xx.h ****  * @param	msel    : PLL feedback divider value. M = msel + 1.
  95:../../lpc11cx4-library/lpc_chip_11cxx_lib/inc/clock_11xx.h ****  * @param	psel    : PLL post divider value. P = (1<<psel).
  96:../../lpc11cx4-library/lpc_chip_11cxx_lib/inc/clock_11xx.h ****  * @return	Nothing
  97:../../lpc11cx4-library/lpc_chip_11cxx_lib/inc/clock_11xx.h ****  * @note	See the user manual for how to setup the PLL.
  98:../../lpc11cx4-library/lpc_chip_11cxx_lib/inc/clock_11xx.h ****  */
  99:../../lpc11cx4-library/lpc_chip_11cxx_lib/inc/clock_11xx.h **** STATIC INLINE void Chip_Clock_SetupUSBPLL(uint8_t msel, uint8_t psel)
 100:../../lpc11cx4-library/lpc_chip_11cxx_lib/inc/clock_11xx.h **** {
 101:../../lpc11cx4-library/lpc_chip_11cxx_lib/inc/clock_11xx.h **** 	LPC_SYSCTL->USBPLLCTRL = (msel & 0x1F) | ((psel & 0x3) << 5);
 102:../../lpc11cx4-library/lpc_chip_11cxx_lib/inc/clock_11xx.h **** }
ARM GAS  /var/folders/f9/8bk2lnw15zn4cbgn6wrnb4lm0000gn/T//ccmhdJMy.s 			page 12


 103:../../lpc11cx4-library/lpc_chip_11cxx_lib/inc/clock_11xx.h **** 
 104:../../lpc11cx4-library/lpc_chip_11cxx_lib/inc/clock_11xx.h **** /**
 105:../../lpc11cx4-library/lpc_chip_11cxx_lib/inc/clock_11xx.h ****  * @brief	Read USB PLL lock status
 106:../../lpc11cx4-library/lpc_chip_11cxx_lib/inc/clock_11xx.h ****  * @return	true of the PLL is locked. false if not locked
 107:../../lpc11cx4-library/lpc_chip_11cxx_lib/inc/clock_11xx.h ****  */
 108:../../lpc11cx4-library/lpc_chip_11cxx_lib/inc/clock_11xx.h **** STATIC INLINE bool Chip_Clock_IsUSBPLLLocked(void)
 109:../../lpc11cx4-library/lpc_chip_11cxx_lib/inc/clock_11xx.h **** {
 110:../../lpc11cx4-library/lpc_chip_11cxx_lib/inc/clock_11xx.h **** 	return (bool) ((LPC_SYSCTL->USBPLLSTAT & 1) != 0);
 111:../../lpc11cx4-library/lpc_chip_11cxx_lib/inc/clock_11xx.h **** }
 112:../../lpc11cx4-library/lpc_chip_11cxx_lib/inc/clock_11xx.h **** 
 113:../../lpc11cx4-library/lpc_chip_11cxx_lib/inc/clock_11xx.h **** /**
 114:../../lpc11cx4-library/lpc_chip_11cxx_lib/inc/clock_11xx.h ****  * @brief	Set USB PLL clock source
 115:../../lpc11cx4-library/lpc_chip_11cxx_lib/inc/clock_11xx.h ****  * @param	src	: Clock source for USB PLL
 116:../../lpc11cx4-library/lpc_chip_11cxx_lib/inc/clock_11xx.h ****  * @return	Nothing
 117:../../lpc11cx4-library/lpc_chip_11cxx_lib/inc/clock_11xx.h ****  * @note	This function will also toggle the clock source update register
 118:../../lpc11cx4-library/lpc_chip_11cxx_lib/inc/clock_11xx.h ****  * to update the clock source.
 119:../../lpc11cx4-library/lpc_chip_11cxx_lib/inc/clock_11xx.h ****  */
 120:../../lpc11cx4-library/lpc_chip_11cxx_lib/inc/clock_11xx.h **** void Chip_Clock_SetUSBPLLSource(CHIP_SYSCTL_PLLCLKSRC_T src);
 121:../../lpc11cx4-library/lpc_chip_11cxx_lib/inc/clock_11xx.h **** 
 122:../../lpc11cx4-library/lpc_chip_11cxx_lib/inc/clock_11xx.h **** #endif /*defined(CHIP_LPC11UXX)*/
 123:../../lpc11cx4-library/lpc_chip_11cxx_lib/inc/clock_11xx.h **** 
 124:../../lpc11cx4-library/lpc_chip_11cxx_lib/inc/clock_11xx.h **** /**
 125:../../lpc11cx4-library/lpc_chip_11cxx_lib/inc/clock_11xx.h ****  * @brief	Bypass System Oscillator and set oscillator frequency range
 126:../../lpc11cx4-library/lpc_chip_11cxx_lib/inc/clock_11xx.h ****  * @param	bypass	: Flag to bypass oscillator
 127:../../lpc11cx4-library/lpc_chip_11cxx_lib/inc/clock_11xx.h ****  * @param	highfr	: Flag to set oscillator range from 15-25 MHz
 128:../../lpc11cx4-library/lpc_chip_11cxx_lib/inc/clock_11xx.h ****  * @return	Nothing
 129:../../lpc11cx4-library/lpc_chip_11cxx_lib/inc/clock_11xx.h ****  * @note	Sets the PLL input to bypass the oscillator. This would be
 130:../../lpc11cx4-library/lpc_chip_11cxx_lib/inc/clock_11xx.h ****  * used if an external clock that is not an oscillator is attached
 131:../../lpc11cx4-library/lpc_chip_11cxx_lib/inc/clock_11xx.h ****  * to the XTALIN pin.
 132:../../lpc11cx4-library/lpc_chip_11cxx_lib/inc/clock_11xx.h ****  */
 133:../../lpc11cx4-library/lpc_chip_11cxx_lib/inc/clock_11xx.h **** void Chip_Clock_SetPLLBypass(bool bypass, bool highfr);
 134:../../lpc11cx4-library/lpc_chip_11cxx_lib/inc/clock_11xx.h **** 
 135:../../lpc11cx4-library/lpc_chip_11cxx_lib/inc/clock_11xx.h **** /**
 136:../../lpc11cx4-library/lpc_chip_11cxx_lib/inc/clock_11xx.h ****  * Watchdog and low frequency oscillator frequencies plus or minus 40%
 137:../../lpc11cx4-library/lpc_chip_11cxx_lib/inc/clock_11xx.h ****  */
 138:../../lpc11cx4-library/lpc_chip_11cxx_lib/inc/clock_11xx.h **** typedef enum CHIP_WDTLFO_OSC {
 139:../../lpc11cx4-library/lpc_chip_11cxx_lib/inc/clock_11xx.h **** 	WDTLFO_OSC_ILLEGAL,
 140:../../lpc11cx4-library/lpc_chip_11cxx_lib/inc/clock_11xx.h **** 	WDTLFO_OSC_0_60,	/*!< 0.6 MHz watchdog/LFO rate */
 141:../../lpc11cx4-library/lpc_chip_11cxx_lib/inc/clock_11xx.h **** 	WDTLFO_OSC_1_05,	/*!< 1.05 MHz watchdog/LFO rate */
 142:../../lpc11cx4-library/lpc_chip_11cxx_lib/inc/clock_11xx.h **** 	WDTLFO_OSC_1_40,	/*!< 1.4 MHz watchdog/LFO rate */
 143:../../lpc11cx4-library/lpc_chip_11cxx_lib/inc/clock_11xx.h **** 	WDTLFO_OSC_1_75,	/*!< 1.75 MHz watchdog/LFO rate */
 144:../../lpc11cx4-library/lpc_chip_11cxx_lib/inc/clock_11xx.h **** 	WDTLFO_OSC_2_10,	/*!< 2.1 MHz watchdog/LFO rate */
 145:../../lpc11cx4-library/lpc_chip_11cxx_lib/inc/clock_11xx.h **** 	WDTLFO_OSC_2_40,	/*!< 2.4 MHz watchdog/LFO rate */
 146:../../lpc11cx4-library/lpc_chip_11cxx_lib/inc/clock_11xx.h **** 	WDTLFO_OSC_2_70,	/*!< 2.7 MHz watchdog/LFO rate */
 147:../../lpc11cx4-library/lpc_chip_11cxx_lib/inc/clock_11xx.h **** 	WDTLFO_OSC_3_00,	/*!< 3.0 MHz watchdog/LFO rate */
 148:../../lpc11cx4-library/lpc_chip_11cxx_lib/inc/clock_11xx.h **** 	WDTLFO_OSC_3_25,	/*!< 3.25 MHz watchdog/LFO rate */
 149:../../lpc11cx4-library/lpc_chip_11cxx_lib/inc/clock_11xx.h **** 	WDTLFO_OSC_3_50,	/*!< 3.5 MHz watchdog/LFO rate */
 150:../../lpc11cx4-library/lpc_chip_11cxx_lib/inc/clock_11xx.h **** 	WDTLFO_OSC_3_75,	/*!< 3.75 MHz watchdog/LFO rate */
 151:../../lpc11cx4-library/lpc_chip_11cxx_lib/inc/clock_11xx.h **** 	WDTLFO_OSC_4_00,	/*!< 4.0 MHz watchdog/LFO rate */
 152:../../lpc11cx4-library/lpc_chip_11cxx_lib/inc/clock_11xx.h **** 	WDTLFO_OSC_4_20,	/*!< 4.2 MHz watchdog/LFO rate */
 153:../../lpc11cx4-library/lpc_chip_11cxx_lib/inc/clock_11xx.h **** 	WDTLFO_OSC_4_40,	/*!< 4.4 MHz watchdog/LFO rate */
 154:../../lpc11cx4-library/lpc_chip_11cxx_lib/inc/clock_11xx.h **** 	WDTLFO_OSC_4_60		/*!< 4.6 MHz watchdog/LFO rate */
 155:../../lpc11cx4-library/lpc_chip_11cxx_lib/inc/clock_11xx.h **** } CHIP_WDTLFO_OSC_T;
 156:../../lpc11cx4-library/lpc_chip_11cxx_lib/inc/clock_11xx.h **** 
 157:../../lpc11cx4-library/lpc_chip_11cxx_lib/inc/clock_11xx.h **** /**
 158:../../lpc11cx4-library/lpc_chip_11cxx_lib/inc/clock_11xx.h ****  * @brief	Setup Watchdog oscillator rate and divider
 159:../../lpc11cx4-library/lpc_chip_11cxx_lib/inc/clock_11xx.h ****  * @param	wdtclk	: Selected watchdog clock rate
ARM GAS  /var/folders/f9/8bk2lnw15zn4cbgn6wrnb4lm0000gn/T//ccmhdJMy.s 			page 13


 160:../../lpc11cx4-library/lpc_chip_11cxx_lib/inc/clock_11xx.h ****  * @param	div		: Watchdog divider value, even value between 2 and 64
 161:../../lpc11cx4-library/lpc_chip_11cxx_lib/inc/clock_11xx.h ****  * @return	Nothing
 162:../../lpc11cx4-library/lpc_chip_11cxx_lib/inc/clock_11xx.h ****  * @note	Watchdog rate = selected rate divided by divider rate
 163:../../lpc11cx4-library/lpc_chip_11cxx_lib/inc/clock_11xx.h ****  */
 164:../../lpc11cx4-library/lpc_chip_11cxx_lib/inc/clock_11xx.h **** STATIC INLINE void Chip_Clock_SetWDTOSC(CHIP_WDTLFO_OSC_T wdtclk, uint8_t div)
 165:../../lpc11cx4-library/lpc_chip_11cxx_lib/inc/clock_11xx.h **** {
 166:../../lpc11cx4-library/lpc_chip_11cxx_lib/inc/clock_11xx.h **** 	LPC_SYSCTL->WDTOSCCTRL  = (((uint32_t) wdtclk) << 5) | ((div >> 1) - 1);
 167:../../lpc11cx4-library/lpc_chip_11cxx_lib/inc/clock_11xx.h **** }
 168:../../lpc11cx4-library/lpc_chip_11cxx_lib/inc/clock_11xx.h **** 
 169:../../lpc11cx4-library/lpc_chip_11cxx_lib/inc/clock_11xx.h **** #if defined(CHIP_LPC11AXX)
 170:../../lpc11cx4-library/lpc_chip_11cxx_lib/inc/clock_11xx.h **** /**
 171:../../lpc11cx4-library/lpc_chip_11cxx_lib/inc/clock_11xx.h ****  * @brief	Setup low frequency oscillator rate and divider
 172:../../lpc11cx4-library/lpc_chip_11cxx_lib/inc/clock_11xx.h ****  * @param	lfoclk	: Selected low frequency clock rate
 173:../../lpc11cx4-library/lpc_chip_11cxx_lib/inc/clock_11xx.h ****  * @param	div		: Low frequency divider value, even value between 2 and 64
 174:../../lpc11cx4-library/lpc_chip_11cxx_lib/inc/clock_11xx.h ****  * @return	Nothing
 175:../../lpc11cx4-library/lpc_chip_11cxx_lib/inc/clock_11xx.h ****  * @note	Low frequency oscillator rate = selected rate divided by divider rate
 176:../../lpc11cx4-library/lpc_chip_11cxx_lib/inc/clock_11xx.h ****  */
 177:../../lpc11cx4-library/lpc_chip_11cxx_lib/inc/clock_11xx.h **** STATIC INLINE void Chip_Clock_SetLFOSC(CHIP_WDTLFO_OSC_T lfoclk, uint8_t div)
 178:../../lpc11cx4-library/lpc_chip_11cxx_lib/inc/clock_11xx.h **** {
 179:../../lpc11cx4-library/lpc_chip_11cxx_lib/inc/clock_11xx.h **** 	LPC_SYSCTL->LFOSCCTRL  = (((uint32_t) lfoclk) << 5) | ((div >> 1) - 1);
 180:../../lpc11cx4-library/lpc_chip_11cxx_lib/inc/clock_11xx.h **** }
 181:../../lpc11cx4-library/lpc_chip_11cxx_lib/inc/clock_11xx.h **** 
 182:../../lpc11cx4-library/lpc_chip_11cxx_lib/inc/clock_11xx.h **** #endif /*CHIP_LPC11AXX*/
 183:../../lpc11cx4-library/lpc_chip_11cxx_lib/inc/clock_11xx.h **** 
 184:../../lpc11cx4-library/lpc_chip_11cxx_lib/inc/clock_11xx.h **** /**
 185:../../lpc11cx4-library/lpc_chip_11cxx_lib/inc/clock_11xx.h ****  * Clock sources for main system clock
 186:../../lpc11cx4-library/lpc_chip_11cxx_lib/inc/clock_11xx.h ****  */
 187:../../lpc11cx4-library/lpc_chip_11cxx_lib/inc/clock_11xx.h **** typedef enum CHIP_SYSCTL_MAINCLKSRC {
 188:../../lpc11cx4-library/lpc_chip_11cxx_lib/inc/clock_11xx.h **** 	SYSCTL_MAINCLKSRC_IRC = 0,		/*!< Internal oscillator */
 189:../../lpc11cx4-library/lpc_chip_11cxx_lib/inc/clock_11xx.h **** 	SYSCTL_MAINCLKSRC_PLLIN,		/*!< System PLL input */
 190:../../lpc11cx4-library/lpc_chip_11cxx_lib/inc/clock_11xx.h **** 	SYSCTL_MAINCLKSRC_LFOSC,		/*!< LF oscillator rate (11Axx only) */
 191:../../lpc11cx4-library/lpc_chip_11cxx_lib/inc/clock_11xx.h **** 	SYSCTL_MAINCLKSRC_WDTOSC = SYSCTL_MAINCLKSRC_LFOSC,	/*!< Watchdog oscillator rate */
 192:../../lpc11cx4-library/lpc_chip_11cxx_lib/inc/clock_11xx.h **** 	SYSCTL_MAINCLKSRC_PLLOUT,		/*!< System PLL output */
 193:../../lpc11cx4-library/lpc_chip_11cxx_lib/inc/clock_11xx.h **** } CHIP_SYSCTL_MAINCLKSRC_T;
 194:../../lpc11cx4-library/lpc_chip_11cxx_lib/inc/clock_11xx.h **** 
 195:../../lpc11cx4-library/lpc_chip_11cxx_lib/inc/clock_11xx.h **** /**
 196:../../lpc11cx4-library/lpc_chip_11cxx_lib/inc/clock_11xx.h ****  * @brief	Set main system clock source
 197:../../lpc11cx4-library/lpc_chip_11cxx_lib/inc/clock_11xx.h ****  * @param	src	: Clock source for main system
 198:../../lpc11cx4-library/lpc_chip_11cxx_lib/inc/clock_11xx.h ****  * @return	Nothing
 199:../../lpc11cx4-library/lpc_chip_11cxx_lib/inc/clock_11xx.h ****  * @note	This function will also toggle the clock source update register
 200:../../lpc11cx4-library/lpc_chip_11cxx_lib/inc/clock_11xx.h ****  * to update the clock source.
 201:../../lpc11cx4-library/lpc_chip_11cxx_lib/inc/clock_11xx.h ****  */
 202:../../lpc11cx4-library/lpc_chip_11cxx_lib/inc/clock_11xx.h **** void Chip_Clock_SetMainClockSource(CHIP_SYSCTL_MAINCLKSRC_T src);
 203:../../lpc11cx4-library/lpc_chip_11cxx_lib/inc/clock_11xx.h **** 
 204:../../lpc11cx4-library/lpc_chip_11cxx_lib/inc/clock_11xx.h **** /**
 205:../../lpc11cx4-library/lpc_chip_11cxx_lib/inc/clock_11xx.h ****  * @brief   Returns the main clock source
 206:../../lpc11cx4-library/lpc_chip_11cxx_lib/inc/clock_11xx.h ****  * @return	Which clock is used for the core clock source?
 207:../../lpc11cx4-library/lpc_chip_11cxx_lib/inc/clock_11xx.h ****  */
 208:../../lpc11cx4-library/lpc_chip_11cxx_lib/inc/clock_11xx.h **** STATIC INLINE CHIP_SYSCTL_MAINCLKSRC_T Chip_Clock_GetMainClockSource(void)
 209:../../lpc11cx4-library/lpc_chip_11cxx_lib/inc/clock_11xx.h **** {
 210:../../lpc11cx4-library/lpc_chip_11cxx_lib/inc/clock_11xx.h **** 	return (CHIP_SYSCTL_MAINCLKSRC_T) (LPC_SYSCTL->MAINCLKSEL);
 211:../../lpc11cx4-library/lpc_chip_11cxx_lib/inc/clock_11xx.h **** }
 212:../../lpc11cx4-library/lpc_chip_11cxx_lib/inc/clock_11xx.h **** 
 213:../../lpc11cx4-library/lpc_chip_11cxx_lib/inc/clock_11xx.h **** /**
 214:../../lpc11cx4-library/lpc_chip_11cxx_lib/inc/clock_11xx.h ****  * @brief	Set system clock divider
 215:../../lpc11cx4-library/lpc_chip_11cxx_lib/inc/clock_11xx.h ****  * @param	div	: divider for system clock
 216:../../lpc11cx4-library/lpc_chip_11cxx_lib/inc/clock_11xx.h ****  * @return	Nothing
ARM GAS  /var/folders/f9/8bk2lnw15zn4cbgn6wrnb4lm0000gn/T//ccmhdJMy.s 			page 14


 217:../../lpc11cx4-library/lpc_chip_11cxx_lib/inc/clock_11xx.h ****  * @note	Use 0 to disable, or a divider value of 1 to 255. The system clock
 218:../../lpc11cx4-library/lpc_chip_11cxx_lib/inc/clock_11xx.h ****  * rate is the main system clock divided by this value.
 219:../../lpc11cx4-library/lpc_chip_11cxx_lib/inc/clock_11xx.h ****  */
 220:../../lpc11cx4-library/lpc_chip_11cxx_lib/inc/clock_11xx.h **** STATIC INLINE void Chip_Clock_SetSysClockDiv(uint32_t div)
 221:../../lpc11cx4-library/lpc_chip_11cxx_lib/inc/clock_11xx.h **** {
 222:../../lpc11cx4-library/lpc_chip_11cxx_lib/inc/clock_11xx.h **** 	LPC_SYSCTL->SYSAHBCLKDIV  = div;
 223:../../lpc11cx4-library/lpc_chip_11cxx_lib/inc/clock_11xx.h **** }
 224:../../lpc11cx4-library/lpc_chip_11cxx_lib/inc/clock_11xx.h **** 
 225:../../lpc11cx4-library/lpc_chip_11cxx_lib/inc/clock_11xx.h **** /**
 226:../../lpc11cx4-library/lpc_chip_11cxx_lib/inc/clock_11xx.h ****  * System and peripheral clocks
 227:../../lpc11cx4-library/lpc_chip_11cxx_lib/inc/clock_11xx.h ****  */
 228:../../lpc11cx4-library/lpc_chip_11cxx_lib/inc/clock_11xx.h **** typedef enum CHIP_SYSCTL_CLOCK {
 229:../../lpc11cx4-library/lpc_chip_11cxx_lib/inc/clock_11xx.h **** 	SYSCTL_CLOCK_SYS = 0,				/*!< 0: System clock */
 230:../../lpc11cx4-library/lpc_chip_11cxx_lib/inc/clock_11xx.h **** 	SYSCTL_CLOCK_ROM,					/*!<1:  ROM clock */
 231:../../lpc11cx4-library/lpc_chip_11cxx_lib/inc/clock_11xx.h **** 	SYSCTL_CLOCK_RAM,					/*!< 2: RAM clock */
 232:../../lpc11cx4-library/lpc_chip_11cxx_lib/inc/clock_11xx.h **** 	SYSCTL_CLOCK_FLASHREG,				/*!< 3: FLASH register interface clock */
 233:../../lpc11cx4-library/lpc_chip_11cxx_lib/inc/clock_11xx.h **** 	SYSCTL_CLOCK_FLASHARRAY,			/*!< 4: FLASH array access clock */
 234:../../lpc11cx4-library/lpc_chip_11cxx_lib/inc/clock_11xx.h **** #if defined(CHIP_LPC110X)
 235:../../lpc11cx4-library/lpc_chip_11cxx_lib/inc/clock_11xx.h **** 	SYSCTL_CLOCK_RESERVED5,				/*!< 5: Reserved */
 236:../../lpc11cx4-library/lpc_chip_11cxx_lib/inc/clock_11xx.h **** #else
 237:../../lpc11cx4-library/lpc_chip_11cxx_lib/inc/clock_11xx.h **** 	SYSCTL_CLOCK_I2C,					/*!< 5: I2C clock, not on LPC110x */
 238:../../lpc11cx4-library/lpc_chip_11cxx_lib/inc/clock_11xx.h **** #endif
 239:../../lpc11cx4-library/lpc_chip_11cxx_lib/inc/clock_11xx.h **** 	SYSCTL_CLOCK_GPIO,					/*!< 6: GPIO clock */
 240:../../lpc11cx4-library/lpc_chip_11cxx_lib/inc/clock_11xx.h **** 	SYSCTL_CLOCK_CT16B0,				/*!< 7: 16-bit Counter/timer 0 clock */
 241:../../lpc11cx4-library/lpc_chip_11cxx_lib/inc/clock_11xx.h **** 	SYSCTL_CLOCK_CT16B1,				/*!< 8: 16-bit Counter/timer 1 clock */
 242:../../lpc11cx4-library/lpc_chip_11cxx_lib/inc/clock_11xx.h **** 	SYSCTL_CLOCK_CT32B0,				/*!< 9: 32-bit Counter/timer 0 clock */
 243:../../lpc11cx4-library/lpc_chip_11cxx_lib/inc/clock_11xx.h **** 	SYSCTL_CLOCK_CT32B1,				/*!< 10: 32-bit Counter/timer 1 clock */
 244:../../lpc11cx4-library/lpc_chip_11cxx_lib/inc/clock_11xx.h **** 	SYSCTL_CLOCK_SSP0,					/*!< 11: SSP0 clock */
 245:../../lpc11cx4-library/lpc_chip_11cxx_lib/inc/clock_11xx.h **** 	SYSCTL_CLOCK_UART0,					/*!< 12: UART0 clock */
 246:../../lpc11cx4-library/lpc_chip_11cxx_lib/inc/clock_11xx.h **** 	SYSCTL_CLOCK_ADC,					/*!< 13: ADC clock */
 247:../../lpc11cx4-library/lpc_chip_11cxx_lib/inc/clock_11xx.h **** #if defined(CHIP_LPC11UXX)
 248:../../lpc11cx4-library/lpc_chip_11cxx_lib/inc/clock_11xx.h **** 	SYSCTL_CLOCK_USB,					/*!< 14: USB clock, LPC11Uxx only */
 249:../../lpc11cx4-library/lpc_chip_11cxx_lib/inc/clock_11xx.h **** #else
 250:../../lpc11cx4-library/lpc_chip_11cxx_lib/inc/clock_11xx.h **** 	SYSCTL_CLOCK_RESERVED14,			/*!< 14: Reserved */
 251:../../lpc11cx4-library/lpc_chip_11cxx_lib/inc/clock_11xx.h **** #endif
 252:../../lpc11cx4-library/lpc_chip_11cxx_lib/inc/clock_11xx.h **** 	SYSCTL_CLOCK_WDT,					/*!< 15: Watchdog timer clock */
 253:../../lpc11cx4-library/lpc_chip_11cxx_lib/inc/clock_11xx.h **** 	SYSCTL_CLOCK_IOCON,					/*!< 16: IOCON block clock */
 254:../../lpc11cx4-library/lpc_chip_11cxx_lib/inc/clock_11xx.h **** #if defined(CHIP_LPC11CXX)
 255:../../lpc11cx4-library/lpc_chip_11cxx_lib/inc/clock_11xx.h **** 	SYSCTL_CLOCK_CAN,					/*!< 17: CAN clock, LPC11Cxx only */
 256:../../lpc11cx4-library/lpc_chip_11cxx_lib/inc/clock_11xx.h **** #else
 257:../../lpc11cx4-library/lpc_chip_11cxx_lib/inc/clock_11xx.h **** 	SYSCTL_CLOCK_RESERVED17,			/*!< 17: Reserved */
 258:../../lpc11cx4-library/lpc_chip_11cxx_lib/inc/clock_11xx.h **** #endif
 259:../../lpc11cx4-library/lpc_chip_11cxx_lib/inc/clock_11xx.h **** #if !(defined(CHIP_LPC110X) || defined(CHIP_LPC11XXLV))  
 260:../../lpc11cx4-library/lpc_chip_11cxx_lib/inc/clock_11xx.h **** 	SYSCTL_CLOCK_SSP1,					/*!< 18: SSP1 clock, LPC11A/C/E/Uxx//1125 only */
 261:../../lpc11cx4-library/lpc_chip_11cxx_lib/inc/clock_11xx.h **** #if !defined(CHIP_LPC11CXX)
 262:../../lpc11cx4-library/lpc_chip_11cxx_lib/inc/clock_11xx.h **** 	SYSCTL_CLOCK_PINT,					/*!< 19: GPIO Pin int register interface clock, LPC11A/E/Uxx only */
 263:../../lpc11cx4-library/lpc_chip_11cxx_lib/inc/clock_11xx.h **** #if defined(CHIP_LPC11AXX)
 264:../../lpc11cx4-library/lpc_chip_11cxx_lib/inc/clock_11xx.h **** 	SYSCTL_CLOCK_ACOMP,					/*!< 20: Analog comparator clock, LPC11Axx only */
 265:../../lpc11cx4-library/lpc_chip_11cxx_lib/inc/clock_11xx.h **** 	SYSCTL_CLOCK_DAC,					/*!< 21: DAC clock, LPC11Axx only */
 266:../../lpc11cx4-library/lpc_chip_11cxx_lib/inc/clock_11xx.h **** #else
 267:../../lpc11cx4-library/lpc_chip_11cxx_lib/inc/clock_11xx.h **** 	SYSCTL_CLOCK_RESERVED20,			/*!< 20: Reserved */
 268:../../lpc11cx4-library/lpc_chip_11cxx_lib/inc/clock_11xx.h **** 	SYSCTL_CLOCK_RESERVED21,			/*!< 21: Reserved */
 269:../../lpc11cx4-library/lpc_chip_11cxx_lib/inc/clock_11xx.h **** #endif
 270:../../lpc11cx4-library/lpc_chip_11cxx_lib/inc/clock_11xx.h **** 	SYSCTL_CLOCK_RESERVED22,			/*!< 22: Reserved */
 271:../../lpc11cx4-library/lpc_chip_11cxx_lib/inc/clock_11xx.h **** 	SYSCTL_CLOCK_P0INT,					/*!< 23: GPIO GROUP1 interrupt register clock, LPC11Axx only */
 272:../../lpc11cx4-library/lpc_chip_11cxx_lib/inc/clock_11xx.h **** 	SYSCTL_CLOCK_GROUP0INT = SYSCTL_CLOCK_P0INT,/*!< 23: GPIO GROUP0 interrupt register interface cloc
 273:../../lpc11cx4-library/lpc_chip_11cxx_lib/inc/clock_11xx.h **** 	SYSCTL_CLOCK_P1INT,					/*!< 24: GPIO GROUP1 interrupt register clock, LPC11Axx only */
ARM GAS  /var/folders/f9/8bk2lnw15zn4cbgn6wrnb4lm0000gn/T//ccmhdJMy.s 			page 15


 274:../../lpc11cx4-library/lpc_chip_11cxx_lib/inc/clock_11xx.h **** 	SYSCTL_CLOCK_GROUP1INT = SYSCTL_CLOCK_P1INT,/*!< 24: GPIO GROUP1 interrupt register interface cloc
 275:../../lpc11cx4-library/lpc_chip_11cxx_lib/inc/clock_11xx.h **** 	SYSCTL_CLOCK_RESERVED25,			/*!< 25: Reserved */
 276:../../lpc11cx4-library/lpc_chip_11cxx_lib/inc/clock_11xx.h **** #if defined(CHIP_LPC11EXX)  || defined(CHIP_LPC11UXX)
 277:../../lpc11cx4-library/lpc_chip_11cxx_lib/inc/clock_11xx.h **** 	SYSCTL_CLOCK_RAM1,					/*!< 26: SRAM block (0x20000000) clock, LPC11E/Uxx only */
 278:../../lpc11cx4-library/lpc_chip_11cxx_lib/inc/clock_11xx.h **** #else
 279:../../lpc11cx4-library/lpc_chip_11cxx_lib/inc/clock_11xx.h **** 	SYSCTL_CLOCK_RESERVED26,			/*!< 26: Reserved */
 280:../../lpc11cx4-library/lpc_chip_11cxx_lib/inc/clock_11xx.h **** #endif
 281:../../lpc11cx4-library/lpc_chip_11cxx_lib/inc/clock_11xx.h **** #if defined(CHIP_LPC11UXX)
 282:../../lpc11cx4-library/lpc_chip_11cxx_lib/inc/clock_11xx.h **** 	SYSCTL_CLOCK_USBRAM,				/*!< 27: USB SRAM block clock, LPC11Uxx only */
 283:../../lpc11cx4-library/lpc_chip_11cxx_lib/inc/clock_11xx.h **** #else
 284:../../lpc11cx4-library/lpc_chip_11cxx_lib/inc/clock_11xx.h **** 	SYSCTL_CLOCK_RESERVED27,			/*!< 27: Reserved */
 285:../../lpc11cx4-library/lpc_chip_11cxx_lib/inc/clock_11xx.h **** #endif
 286:../../lpc11cx4-library/lpc_chip_11cxx_lib/inc/clock_11xx.h **** #endif /* !defined(CHIP_LPC11CXX) */
 287:../../lpc11cx4-library/lpc_chip_11cxx_lib/inc/clock_11xx.h **** #endif /* !(defined(CHIP_LPC110X) || defined(CHIP_LPC11XXLV)) */
 288:../../lpc11cx4-library/lpc_chip_11cxx_lib/inc/clock_11xx.h **** } CHIP_SYSCTL_CLOCK_T;
 289:../../lpc11cx4-library/lpc_chip_11cxx_lib/inc/clock_11xx.h **** 
 290:../../lpc11cx4-library/lpc_chip_11cxx_lib/inc/clock_11xx.h **** /**
 291:../../lpc11cx4-library/lpc_chip_11cxx_lib/inc/clock_11xx.h ****  * @brief	Enable a system or peripheral clock
 292:../../lpc11cx4-library/lpc_chip_11cxx_lib/inc/clock_11xx.h ****  * @param	clk	: Clock to enable
 293:../../lpc11cx4-library/lpc_chip_11cxx_lib/inc/clock_11xx.h ****  * @return	Nothing
 294:../../lpc11cx4-library/lpc_chip_11cxx_lib/inc/clock_11xx.h ****  */
 295:../../lpc11cx4-library/lpc_chip_11cxx_lib/inc/clock_11xx.h **** STATIC INLINE void Chip_Clock_EnablePeriphClock(CHIP_SYSCTL_CLOCK_T clk)
 296:../../lpc11cx4-library/lpc_chip_11cxx_lib/inc/clock_11xx.h **** {
 297:../../lpc11cx4-library/lpc_chip_11cxx_lib/inc/clock_11xx.h **** 	LPC_SYSCTL->SYSAHBCLKCTRL |= (1 << clk);
 298:../../lpc11cx4-library/lpc_chip_11cxx_lib/inc/clock_11xx.h **** }
 299:../../lpc11cx4-library/lpc_chip_11cxx_lib/inc/clock_11xx.h **** 
 300:../../lpc11cx4-library/lpc_chip_11cxx_lib/inc/clock_11xx.h **** /**
 301:../../lpc11cx4-library/lpc_chip_11cxx_lib/inc/clock_11xx.h ****  * @brief	Disable a system or peripheral clock
 302:../../lpc11cx4-library/lpc_chip_11cxx_lib/inc/clock_11xx.h ****  * @param	clk	: Clock to disable
 303:../../lpc11cx4-library/lpc_chip_11cxx_lib/inc/clock_11xx.h ****  * @return	Nothing
 304:../../lpc11cx4-library/lpc_chip_11cxx_lib/inc/clock_11xx.h ****  */
 305:../../lpc11cx4-library/lpc_chip_11cxx_lib/inc/clock_11xx.h **** STATIC INLINE void Chip_Clock_DisablePeriphClock(CHIP_SYSCTL_CLOCK_T clk)
 306:../../lpc11cx4-library/lpc_chip_11cxx_lib/inc/clock_11xx.h **** {
 307:../../lpc11cx4-library/lpc_chip_11cxx_lib/inc/clock_11xx.h **** 	LPC_SYSCTL->SYSAHBCLKCTRL &= ~(1 << clk);
 308:../../lpc11cx4-library/lpc_chip_11cxx_lib/inc/clock_11xx.h **** }
 309:../../lpc11cx4-library/lpc_chip_11cxx_lib/inc/clock_11xx.h **** 
 310:../../lpc11cx4-library/lpc_chip_11cxx_lib/inc/clock_11xx.h **** /**
 311:../../lpc11cx4-library/lpc_chip_11cxx_lib/inc/clock_11xx.h ****  * @brief	Set SSP0 divider
 312:../../lpc11cx4-library/lpc_chip_11cxx_lib/inc/clock_11xx.h ****  * @param	div	: divider for SSP0 clock
 313:../../lpc11cx4-library/lpc_chip_11cxx_lib/inc/clock_11xx.h ****  * @return	Nothing
 314:../../lpc11cx4-library/lpc_chip_11cxx_lib/inc/clock_11xx.h ****  * @note	Use 0 to disable, or a divider value of 1 to 255. The SSP0 clock
 315:../../lpc11cx4-library/lpc_chip_11cxx_lib/inc/clock_11xx.h ****  * rate is the main system clock divided by this value.
 316:../../lpc11cx4-library/lpc_chip_11cxx_lib/inc/clock_11xx.h ****  */
 317:../../lpc11cx4-library/lpc_chip_11cxx_lib/inc/clock_11xx.h **** STATIC INLINE void Chip_Clock_SetSSP0ClockDiv(uint32_t div)
 318:../../lpc11cx4-library/lpc_chip_11cxx_lib/inc/clock_11xx.h **** {
 319:../../lpc11cx4-library/lpc_chip_11cxx_lib/inc/clock_11xx.h **** 	LPC_SYSCTL->SSP0CLKDIV  = div;
 320:../../lpc11cx4-library/lpc_chip_11cxx_lib/inc/clock_11xx.h **** }
 321:../../lpc11cx4-library/lpc_chip_11cxx_lib/inc/clock_11xx.h **** 
 322:../../lpc11cx4-library/lpc_chip_11cxx_lib/inc/clock_11xx.h **** /**
 323:../../lpc11cx4-library/lpc_chip_11cxx_lib/inc/clock_11xx.h ****  * @brief	Return SSP0 divider
 324:../../lpc11cx4-library/lpc_chip_11cxx_lib/inc/clock_11xx.h ****  * @return	divider for SSP0 clock
 325:../../lpc11cx4-library/lpc_chip_11cxx_lib/inc/clock_11xx.h ****  * @note	A value of 0 means the clock is disabled.
 326:../../lpc11cx4-library/lpc_chip_11cxx_lib/inc/clock_11xx.h ****  */
 327:../../lpc11cx4-library/lpc_chip_11cxx_lib/inc/clock_11xx.h **** STATIC INLINE uint32_t Chip_Clock_GetSSP0ClockDiv(void)
 328:../../lpc11cx4-library/lpc_chip_11cxx_lib/inc/clock_11xx.h **** {
 329:../../lpc11cx4-library/lpc_chip_11cxx_lib/inc/clock_11xx.h **** 	return LPC_SYSCTL->SSP0CLKDIV;
 330:../../lpc11cx4-library/lpc_chip_11cxx_lib/inc/clock_11xx.h **** }
ARM GAS  /var/folders/f9/8bk2lnw15zn4cbgn6wrnb4lm0000gn/T//ccmhdJMy.s 			page 16


 331:../../lpc11cx4-library/lpc_chip_11cxx_lib/inc/clock_11xx.h **** 
 332:../../lpc11cx4-library/lpc_chip_11cxx_lib/inc/clock_11xx.h **** /**
 333:../../lpc11cx4-library/lpc_chip_11cxx_lib/inc/clock_11xx.h ****  * @brief	Set UART divider clock
 334:../../lpc11cx4-library/lpc_chip_11cxx_lib/inc/clock_11xx.h ****  * @param	div	: divider for UART clock
 335:../../lpc11cx4-library/lpc_chip_11cxx_lib/inc/clock_11xx.h ****  * @return	Nothing
 336:../../lpc11cx4-library/lpc_chip_11cxx_lib/inc/clock_11xx.h ****  * @note	Use 0 to disable, or a divider value of 1 to 255. The UART clock
 337:../../lpc11cx4-library/lpc_chip_11cxx_lib/inc/clock_11xx.h ****  * rate is the main system clock divided by this value.
 338:../../lpc11cx4-library/lpc_chip_11cxx_lib/inc/clock_11xx.h ****  */
 339:../../lpc11cx4-library/lpc_chip_11cxx_lib/inc/clock_11xx.h **** STATIC INLINE void Chip_Clock_SetUARTClockDiv(uint32_t div)
 340:../../lpc11cx4-library/lpc_chip_11cxx_lib/inc/clock_11xx.h **** {
 341:../../lpc11cx4-library/lpc_chip_11cxx_lib/inc/clock_11xx.h **** 	LPC_SYSCTL->USARTCLKDIV  = div;
 342:../../lpc11cx4-library/lpc_chip_11cxx_lib/inc/clock_11xx.h **** }
 343:../../lpc11cx4-library/lpc_chip_11cxx_lib/inc/clock_11xx.h **** 
 344:../../lpc11cx4-library/lpc_chip_11cxx_lib/inc/clock_11xx.h **** /**
 345:../../lpc11cx4-library/lpc_chip_11cxx_lib/inc/clock_11xx.h ****  * @brief	Return UART divider
 346:../../lpc11cx4-library/lpc_chip_11cxx_lib/inc/clock_11xx.h ****  * @return	divider for UART clock
 347:../../lpc11cx4-library/lpc_chip_11cxx_lib/inc/clock_11xx.h ****  * @note	A value of 0 means the clock is disabled.
 348:../../lpc11cx4-library/lpc_chip_11cxx_lib/inc/clock_11xx.h ****  */
 349:../../lpc11cx4-library/lpc_chip_11cxx_lib/inc/clock_11xx.h **** STATIC INLINE uint32_t Chip_Clock_GetUARTClockDiv(void)
 350:../../lpc11cx4-library/lpc_chip_11cxx_lib/inc/clock_11xx.h **** {
 351:../../lpc11cx4-library/lpc_chip_11cxx_lib/inc/clock_11xx.h **** 	return LPC_SYSCTL->USARTCLKDIV;
 352:../../lpc11cx4-library/lpc_chip_11cxx_lib/inc/clock_11xx.h **** }
 353:../../lpc11cx4-library/lpc_chip_11cxx_lib/inc/clock_11xx.h **** 
 354:../../lpc11cx4-library/lpc_chip_11cxx_lib/inc/clock_11xx.h **** #if defined(CHIP_LPC11CXX) || defined(CHIP_LPC11EXX) || defined(CHIP_LPC11AXX) || defined(CHIP_LPC1
 355:../../lpc11cx4-library/lpc_chip_11cxx_lib/inc/clock_11xx.h **** /**
 356:../../lpc11cx4-library/lpc_chip_11cxx_lib/inc/clock_11xx.h ****  * @brief	Set SSP1 divider clock
 357:../../lpc11cx4-library/lpc_chip_11cxx_lib/inc/clock_11xx.h ****  * @param	div	: divider for SSP1 clock
 358:../../lpc11cx4-library/lpc_chip_11cxx_lib/inc/clock_11xx.h ****  * @return	Nothing
 359:../../lpc11cx4-library/lpc_chip_11cxx_lib/inc/clock_11xx.h ****  * @note	Use 0 to disable, or a divider value of 1 to 255. The SSP1 clock
 360:../../lpc11cx4-library/lpc_chip_11cxx_lib/inc/clock_11xx.h ****  * rate is the main system clock divided by this value.
 361:../../lpc11cx4-library/lpc_chip_11cxx_lib/inc/clock_11xx.h ****  */
 362:../../lpc11cx4-library/lpc_chip_11cxx_lib/inc/clock_11xx.h **** STATIC INLINE void Chip_Clock_SetSSP1ClockDiv(uint32_t div)
 363:../../lpc11cx4-library/lpc_chip_11cxx_lib/inc/clock_11xx.h **** {
 364:../../lpc11cx4-library/lpc_chip_11cxx_lib/inc/clock_11xx.h **** 	LPC_SYSCTL->SSP1CLKDIV  = div;
 365:../../lpc11cx4-library/lpc_chip_11cxx_lib/inc/clock_11xx.h **** }
 366:../../lpc11cx4-library/lpc_chip_11cxx_lib/inc/clock_11xx.h **** 
 367:../../lpc11cx4-library/lpc_chip_11cxx_lib/inc/clock_11xx.h **** /**
 368:../../lpc11cx4-library/lpc_chip_11cxx_lib/inc/clock_11xx.h ****  * @brief	Return SSP1 divider
 369:../../lpc11cx4-library/lpc_chip_11cxx_lib/inc/clock_11xx.h ****  * @return	divider for SSP1 clock
 370:../../lpc11cx4-library/lpc_chip_11cxx_lib/inc/clock_11xx.h ****  * @note	A value of 0 means the clock is disabled.
 371:../../lpc11cx4-library/lpc_chip_11cxx_lib/inc/clock_11xx.h ****  */
 372:../../lpc11cx4-library/lpc_chip_11cxx_lib/inc/clock_11xx.h **** STATIC INLINE uint32_t Chip_Clock_GetSSP1ClockDiv(void)
 373:../../lpc11cx4-library/lpc_chip_11cxx_lib/inc/clock_11xx.h **** {
 374:../../lpc11cx4-library/lpc_chip_11cxx_lib/inc/clock_11xx.h **** 	return LPC_SYSCTL->SSP1CLKDIV;
 375:../../lpc11cx4-library/lpc_chip_11cxx_lib/inc/clock_11xx.h **** }
 376:../../lpc11cx4-library/lpc_chip_11cxx_lib/inc/clock_11xx.h **** 
 377:../../lpc11cx4-library/lpc_chip_11cxx_lib/inc/clock_11xx.h **** #endif /*defined(CHIP_LPC11CXX) || defined(CHIP_LPC11EXX) || defined(CHIP_LPC11AXX) || defined(CHIP
 378:../../lpc11cx4-library/lpc_chip_11cxx_lib/inc/clock_11xx.h **** 
 379:../../lpc11cx4-library/lpc_chip_11cxx_lib/inc/clock_11xx.h **** #if defined(CHIP_LPC11UXX)
 380:../../lpc11cx4-library/lpc_chip_11cxx_lib/inc/clock_11xx.h **** /**
 381:../../lpc11cx4-library/lpc_chip_11cxx_lib/inc/clock_11xx.h ****  * Clock sources for USB
 382:../../lpc11cx4-library/lpc_chip_11cxx_lib/inc/clock_11xx.h ****  */
 383:../../lpc11cx4-library/lpc_chip_11cxx_lib/inc/clock_11xx.h **** typedef enum CHIP_SYSCTL_USBCLKSRC {
 384:../../lpc11cx4-library/lpc_chip_11cxx_lib/inc/clock_11xx.h **** 	SYSCTL_USBCLKSRC_PLLOUT = 0,	/*!< USB PLL out */
 385:../../lpc11cx4-library/lpc_chip_11cxx_lib/inc/clock_11xx.h **** 	SYSCTL_USBCLKSRC_MAINSYSCLK,	/*!< Main system clock */
 386:../../lpc11cx4-library/lpc_chip_11cxx_lib/inc/clock_11xx.h **** } CHIP_SYSCTL_USBCLKSRC_T;
 387:../../lpc11cx4-library/lpc_chip_11cxx_lib/inc/clock_11xx.h **** 
ARM GAS  /var/folders/f9/8bk2lnw15zn4cbgn6wrnb4lm0000gn/T//ccmhdJMy.s 			page 17


 388:../../lpc11cx4-library/lpc_chip_11cxx_lib/inc/clock_11xx.h **** /**
 389:../../lpc11cx4-library/lpc_chip_11cxx_lib/inc/clock_11xx.h ****  * @brief	Set USB clock source and divider
 390:../../lpc11cx4-library/lpc_chip_11cxx_lib/inc/clock_11xx.h ****  * @param	src	: Clock source for USB
 391:../../lpc11cx4-library/lpc_chip_11cxx_lib/inc/clock_11xx.h ****  * @param	div	: divider for USB clock
 392:../../lpc11cx4-library/lpc_chip_11cxx_lib/inc/clock_11xx.h ****  * @return	Nothing
 393:../../lpc11cx4-library/lpc_chip_11cxx_lib/inc/clock_11xx.h ****  * @note	Use 0 to disable, or a divider value of 1 to 255. The USB clock
 394:../../lpc11cx4-library/lpc_chip_11cxx_lib/inc/clock_11xx.h ****  * rate is either the main system clock or USB PLL output clock divided
 395:../../lpc11cx4-library/lpc_chip_11cxx_lib/inc/clock_11xx.h ****  * by this value. This function will also toggle the clock source
 396:../../lpc11cx4-library/lpc_chip_11cxx_lib/inc/clock_11xx.h ****  * update register to update the clock source.
 397:../../lpc11cx4-library/lpc_chip_11cxx_lib/inc/clock_11xx.h ****  */
 398:../../lpc11cx4-library/lpc_chip_11cxx_lib/inc/clock_11xx.h **** void Chip_Clock_SetUSBClockSource(CHIP_SYSCTL_USBCLKSRC_T src, uint32_t div);
 399:../../lpc11cx4-library/lpc_chip_11cxx_lib/inc/clock_11xx.h **** 
 400:../../lpc11cx4-library/lpc_chip_11cxx_lib/inc/clock_11xx.h **** #endif /*CHIP_LPC11UXX*/
 401:../../lpc11cx4-library/lpc_chip_11cxx_lib/inc/clock_11xx.h **** 
 402:../../lpc11cx4-library/lpc_chip_11cxx_lib/inc/clock_11xx.h **** #if defined(CHIP_LPC110X) || defined(CHIP_LPC11XXLV) || defined(CHIP_LPC11CXX) || defined(CHIP_LPC1
 403:../../lpc11cx4-library/lpc_chip_11cxx_lib/inc/clock_11xx.h **** /**
 404:../../lpc11cx4-library/lpc_chip_11cxx_lib/inc/clock_11xx.h ****  * Clock sources for WDT
 405:../../lpc11cx4-library/lpc_chip_11cxx_lib/inc/clock_11xx.h ****  */
 406:../../lpc11cx4-library/lpc_chip_11cxx_lib/inc/clock_11xx.h **** typedef enum CHIP_SYSCTL_WDTCLKSRC {
 407:../../lpc11cx4-library/lpc_chip_11cxx_lib/inc/clock_11xx.h **** 	SYSCTL_WDTCLKSRC_IRC = 0,		/*!< Internal oscillator for watchdog clock */
 408:../../lpc11cx4-library/lpc_chip_11cxx_lib/inc/clock_11xx.h **** 	SYSCTL_WDTCLKSRC_MAINSYSCLK,	/*!< Main system clock for watchdog clock */
 409:../../lpc11cx4-library/lpc_chip_11cxx_lib/inc/clock_11xx.h **** 	SYSCTL_WDTCLKSRC_WDTOSC,		/*!< Watchdog oscillator for watchdog clock */
 410:../../lpc11cx4-library/lpc_chip_11cxx_lib/inc/clock_11xx.h **** } CHIP_SYSCTL_WDTCLKSRC_T;
 411:../../lpc11cx4-library/lpc_chip_11cxx_lib/inc/clock_11xx.h **** 
 412:../../lpc11cx4-library/lpc_chip_11cxx_lib/inc/clock_11xx.h **** /**
 413:../../lpc11cx4-library/lpc_chip_11cxx_lib/inc/clock_11xx.h ****  * @brief	Set WDT clock source and divider
 414:../../lpc11cx4-library/lpc_chip_11cxx_lib/inc/clock_11xx.h ****  * @param	src	: Clock source for WDT
 415:../../lpc11cx4-library/lpc_chip_11cxx_lib/inc/clock_11xx.h ****  * @param	div	: divider for WDT clock
 416:../../lpc11cx4-library/lpc_chip_11cxx_lib/inc/clock_11xx.h ****  * @return	Nothing
 417:../../lpc11cx4-library/lpc_chip_11cxx_lib/inc/clock_11xx.h ****  * @note	Use 0 to disable, or a divider value of 1 to 255. The WDT clock
 418:../../lpc11cx4-library/lpc_chip_11cxx_lib/inc/clock_11xx.h ****  * rate is the clock source divided by the divider. This function will
 419:../../lpc11cx4-library/lpc_chip_11cxx_lib/inc/clock_11xx.h ****  * also toggle the clock source update register to update the clock
 420:../../lpc11cx4-library/lpc_chip_11cxx_lib/inc/clock_11xx.h ****  * source.
 421:../../lpc11cx4-library/lpc_chip_11cxx_lib/inc/clock_11xx.h ****  */
 422:../../lpc11cx4-library/lpc_chip_11cxx_lib/inc/clock_11xx.h **** void Chip_Clock_SetWDTClockSource(CHIP_SYSCTL_WDTCLKSRC_T src, uint32_t div);
 423:../../lpc11cx4-library/lpc_chip_11cxx_lib/inc/clock_11xx.h **** 
 424:../../lpc11cx4-library/lpc_chip_11cxx_lib/inc/clock_11xx.h **** #endif
 425:../../lpc11cx4-library/lpc_chip_11cxx_lib/inc/clock_11xx.h **** 
 426:../../lpc11cx4-library/lpc_chip_11cxx_lib/inc/clock_11xx.h **** #if !defined(CHIP_LPC110X)
 427:../../lpc11cx4-library/lpc_chip_11cxx_lib/inc/clock_11xx.h **** /**
 428:../../lpc11cx4-library/lpc_chip_11cxx_lib/inc/clock_11xx.h ****  * Clock sources for CLKOUT
 429:../../lpc11cx4-library/lpc_chip_11cxx_lib/inc/clock_11xx.h ****  */
 430:../../lpc11cx4-library/lpc_chip_11cxx_lib/inc/clock_11xx.h **** typedef enum CHIP_SYSCTL_CLKOUTSRC {
 431:../../lpc11cx4-library/lpc_chip_11cxx_lib/inc/clock_11xx.h **** 	SYSCTL_CLKOUTSRC_IRC = 0,		/*!< Internal oscillator for CLKOUT */
 432:../../lpc11cx4-library/lpc_chip_11cxx_lib/inc/clock_11xx.h **** 	SYSCTL_CLKOUTSRC_MAINOSC,		/*!< Main oscillator for CLKOUT */
 433:../../lpc11cx4-library/lpc_chip_11cxx_lib/inc/clock_11xx.h **** 	SYSCTL_CLKOUTSRC_WDTOSC,		/*!< Watchdog oscillator for CLKOUT */
 434:../../lpc11cx4-library/lpc_chip_11cxx_lib/inc/clock_11xx.h **** 	SYSCTL_CLKOUTSRC_LFOSC = SYSCTL_CLKOUTSRC_WDTOSC,	/*!< LF oscillator rate (LPC11A/Exx only) for CL
 435:../../lpc11cx4-library/lpc_chip_11cxx_lib/inc/clock_11xx.h **** 	SYSCTL_CLKOUTSRC_MAINSYSCLK,	/*!< Main system clock for CLKOUT */
 436:../../lpc11cx4-library/lpc_chip_11cxx_lib/inc/clock_11xx.h **** } CHIP_SYSCTL_CLKOUTSRC_T;
 437:../../lpc11cx4-library/lpc_chip_11cxx_lib/inc/clock_11xx.h **** 
 438:../../lpc11cx4-library/lpc_chip_11cxx_lib/inc/clock_11xx.h **** /**
 439:../../lpc11cx4-library/lpc_chip_11cxx_lib/inc/clock_11xx.h ****  * @brief	Set CLKOUT clock source and divider
 440:../../lpc11cx4-library/lpc_chip_11cxx_lib/inc/clock_11xx.h ****  * @param	src	: Clock source for CLKOUT
 441:../../lpc11cx4-library/lpc_chip_11cxx_lib/inc/clock_11xx.h ****  * @param	div	: divider for CLKOUT clock
 442:../../lpc11cx4-library/lpc_chip_11cxx_lib/inc/clock_11xx.h ****  * @return	Nothing
 443:../../lpc11cx4-library/lpc_chip_11cxx_lib/inc/clock_11xx.h ****  * @note	Use 0 to disable, or a divider value of 1 to 255. The CLKOUT clock
 444:../../lpc11cx4-library/lpc_chip_11cxx_lib/inc/clock_11xx.h ****  * rate is the clock source divided by the divider. This function will
ARM GAS  /var/folders/f9/8bk2lnw15zn4cbgn6wrnb4lm0000gn/T//ccmhdJMy.s 			page 18


 445:../../lpc11cx4-library/lpc_chip_11cxx_lib/inc/clock_11xx.h ****  * also toggle the clock source update register to update the clock
 446:../../lpc11cx4-library/lpc_chip_11cxx_lib/inc/clock_11xx.h ****  * source.
 447:../../lpc11cx4-library/lpc_chip_11cxx_lib/inc/clock_11xx.h ****  */
 448:../../lpc11cx4-library/lpc_chip_11cxx_lib/inc/clock_11xx.h **** void Chip_Clock_SetCLKOUTSource(CHIP_SYSCTL_CLKOUTSRC_T src, uint32_t div);
 449:../../lpc11cx4-library/lpc_chip_11cxx_lib/inc/clock_11xx.h **** 
 450:../../lpc11cx4-library/lpc_chip_11cxx_lib/inc/clock_11xx.h **** #endif
 451:../../lpc11cx4-library/lpc_chip_11cxx_lib/inc/clock_11xx.h **** 
 452:../../lpc11cx4-library/lpc_chip_11cxx_lib/inc/clock_11xx.h **** /**
 453:../../lpc11cx4-library/lpc_chip_11cxx_lib/inc/clock_11xx.h ****  * @brief	Returns the main oscillator clock rate
 454:../../lpc11cx4-library/lpc_chip_11cxx_lib/inc/clock_11xx.h ****  * @return	main oscillator clock rate
 455:../../lpc11cx4-library/lpc_chip_11cxx_lib/inc/clock_11xx.h ****  */
 456:../../lpc11cx4-library/lpc_chip_11cxx_lib/inc/clock_11xx.h **** STATIC INLINE uint32_t Chip_Clock_GetMainOscRate(void)
 457:../../lpc11cx4-library/lpc_chip_11cxx_lib/inc/clock_11xx.h **** {
 458:../../lpc11cx4-library/lpc_chip_11cxx_lib/inc/clock_11xx.h **** 	return OscRateIn;
 322              		.loc 2 458 0
 323 000e 044B     		ldr	r3, .L31+4	@ tmp121,
 324 0010 1868     		ldr	r0, [r3]	@ clkRate, OscRateIn
 325              	.LBE17:
 326              	.LBE16:
 188:../../lpc11cx4-library/lpc_chip_11cxx_lib/src/clock_11xx.c **** 	case SYSCTL_PLLCLKSRC_IRC:
 189:../../lpc11cx4-library/lpc_chip_11cxx_lib/src/clock_11xx.c **** 		clkRate = Chip_Clock_GetIntOscRate();
 190:../../lpc11cx4-library/lpc_chip_11cxx_lib/src/clock_11xx.c **** 		break;
 191:../../lpc11cx4-library/lpc_chip_11cxx_lib/src/clock_11xx.c **** 
 192:../../lpc11cx4-library/lpc_chip_11cxx_lib/src/clock_11xx.c **** 	case SYSCTL_PLLCLKSRC_MAINOSC:
 193:../../lpc11cx4-library/lpc_chip_11cxx_lib/src/clock_11xx.c **** 		clkRate = Chip_Clock_GetMainOscRate();
 194:../../lpc11cx4-library/lpc_chip_11cxx_lib/src/clock_11xx.c **** 		break;
 327              		.loc 1 194 0
 328 0012 02E0     		b	.L25	@
 329              	.L26:
 189:../../lpc11cx4-library/lpc_chip_11cxx_lib/src/clock_11xx.c **** 		clkRate = Chip_Clock_GetIntOscRate();
 330              		.loc 1 189 0
 331 0014 0348     		ldr	r0, .L31+8	@ clkRate,
 332 0016 00E0     		b	.L25	@
 333              	.L30:
 195:../../lpc11cx4-library/lpc_chip_11cxx_lib/src/clock_11xx.c **** 
 196:../../lpc11cx4-library/lpc_chip_11cxx_lib/src/clock_11xx.c **** #if defined(CHIP_LPC11AXX)
 197:../../lpc11cx4-library/lpc_chip_11cxx_lib/src/clock_11xx.c **** 	case SYSCTL_PLLCLKSRC_EXT_CLKIN:
 198:../../lpc11cx4-library/lpc_chip_11cxx_lib/src/clock_11xx.c **** 		clkRate = Chip_Clock_GetExtClockInRate();
 199:../../lpc11cx4-library/lpc_chip_11cxx_lib/src/clock_11xx.c **** 		break;
 200:../../lpc11cx4-library/lpc_chip_11cxx_lib/src/clock_11xx.c **** #endif
 201:../../lpc11cx4-library/lpc_chip_11cxx_lib/src/clock_11xx.c **** 
 202:../../lpc11cx4-library/lpc_chip_11cxx_lib/src/clock_11xx.c **** 	default:
 203:../../lpc11cx4-library/lpc_chip_11cxx_lib/src/clock_11xx.c **** 		clkRate = 0;
 334              		.loc 1 203 0
 335 0018 0020     		mov	r0, #0	@ clkRate,
 336              	.L25:
 337              	.LVL13:
 204:../../lpc11cx4-library/lpc_chip_11cxx_lib/src/clock_11xx.c **** 	}
 205:../../lpc11cx4-library/lpc_chip_11cxx_lib/src/clock_11xx.c **** 
 206:../../lpc11cx4-library/lpc_chip_11cxx_lib/src/clock_11xx.c **** 	return clkRate;
 207:../../lpc11cx4-library/lpc_chip_11cxx_lib/src/clock_11xx.c **** }
 338              		.loc 1 207 0
 339              		@ sp needed	@
 340 001a 7047     		bx	lr
 341              	.L32:
 342              		.align	2
 343              	.L31:
ARM GAS  /var/folders/f9/8bk2lnw15zn4cbgn6wrnb4lm0000gn/T//ccmhdJMy.s 			page 19


 344 001c 00800440 		.word	1074036736
 345 0020 00000000 		.word	OscRateIn
 346 0024 001BB700 		.word	12000000
 347              		.cfi_endproc
 348              	.LFE206:
 349              		.size	Chip_Clock_GetSystemPLLInClockRate, .-Chip_Clock_GetSystemPLLInClockRate
 350              		.section	.text.Chip_Clock_GetSystemPLLOutClockRate,"ax",%progbits
 351              		.align	1
 352              		.global	Chip_Clock_GetSystemPLLOutClockRate
 353              		.code	16
 354              		.thumb_func
 355              		.type	Chip_Clock_GetSystemPLLOutClockRate, %function
 356              	Chip_Clock_GetSystemPLLOutClockRate:
 357              	.LFB207:
 208:../../lpc11cx4-library/lpc_chip_11cxx_lib/src/clock_11xx.c **** 
 209:../../lpc11cx4-library/lpc_chip_11cxx_lib/src/clock_11xx.c **** /* Return System PLL output clock rate */
 210:../../lpc11cx4-library/lpc_chip_11cxx_lib/src/clock_11xx.c **** uint32_t Chip_Clock_GetSystemPLLOutClockRate(void)
 211:../../lpc11cx4-library/lpc_chip_11cxx_lib/src/clock_11xx.c **** {
 358              		.loc 1 211 0
 359              		.cfi_startproc
 212:../../lpc11cx4-library/lpc_chip_11cxx_lib/src/clock_11xx.c **** 	return Chip_Clock_GetPLLFreq(LPC_SYSCTL->SYSPLLCTRL,
 360              		.loc 1 212 0
 361 0000 044B     		ldr	r3, .L34	@ tmp116,
 211:../../lpc11cx4-library/lpc_chip_11cxx_lib/src/clock_11xx.c **** {
 362              		.loc 1 211 0
 363 0002 10B5     		push	{r4, lr}	@
 364              		.cfi_def_cfa_offset 8
 365              		.cfi_offset 4, -8
 366              		.cfi_offset 14, -4
 367              		.loc 1 212 0
 368 0004 9C68     		ldr	r4, [r3, #8]	@ D.6224, MEM[(struct LPC_SYSCTL_T *)1074036736B].SYSPLLCTRL
 369 0006 FFF7FEFF 		bl	Chip_Clock_GetSystemPLLInClockRate	@
 370              	.LVL14:
 371              	.LBB18:
 372              	.LBB19:
  80:../../lpc11cx4-library/lpc_chip_11cxx_lib/src/clock_11xx.c **** 	uint32_t msel = ((PLLReg & 0x1F) + 1);
 373              		.loc 1 80 0
 374 000a 1F23     		mov	r3, #31	@ tmp119,
 375 000c 1C40     		and	r4, r3	@ D.6224, tmp119
 376              	.LVL15:
 377 000e 0134     		add	r4, r4, #1	@ msel,
 378              	.LVL16:
  82:../../lpc11cx4-library/lpc_chip_11cxx_lib/src/clock_11xx.c **** 	return inputRate * msel;
 379              		.loc 1 82 0
 380 0010 6043     		mul	r0, r4	@ D.6225, msel
 381              	.LVL17:
 382              	.LBE19:
 383              	.LBE18:
 213:../../lpc11cx4-library/lpc_chip_11cxx_lib/src/clock_11xx.c **** 								 Chip_Clock_GetSystemPLLInClockRate());
 214:../../lpc11cx4-library/lpc_chip_11cxx_lib/src/clock_11xx.c **** }
 384              		.loc 1 214 0
 385              		@ sp needed	@
 386              	.LVL18:
 387 0012 10BD     		pop	{r4, pc}
 388              	.L35:
 389              		.align	2
 390              	.L34:
ARM GAS  /var/folders/f9/8bk2lnw15zn4cbgn6wrnb4lm0000gn/T//ccmhdJMy.s 			page 20


 391 0014 00800440 		.word	1074036736
 392              		.cfi_endproc
 393              	.LFE207:
 394              		.size	Chip_Clock_GetSystemPLLOutClockRate, .-Chip_Clock_GetSystemPLLOutClockRate
 395              		.section	.text.Chip_Clock_GetMainClockRate,"ax",%progbits
 396              		.align	1
 397              		.global	Chip_Clock_GetMainClockRate
 398              		.code	16
 399              		.thumb_func
 400              		.type	Chip_Clock_GetMainClockRate, %function
 401              	Chip_Clock_GetMainClockRate:
 402              	.LFB208:
 215:../../lpc11cx4-library/lpc_chip_11cxx_lib/src/clock_11xx.c **** 
 216:../../lpc11cx4-library/lpc_chip_11cxx_lib/src/clock_11xx.c **** #if defined(CHIP_LPC11UXX)
 217:../../lpc11cx4-library/lpc_chip_11cxx_lib/src/clock_11xx.c **** /* Return USB PLL input clock rate */
 218:../../lpc11cx4-library/lpc_chip_11cxx_lib/src/clock_11xx.c **** uint32_t Chip_Clock_GetUSBPLLInClockRate(void)
 219:../../lpc11cx4-library/lpc_chip_11cxx_lib/src/clock_11xx.c **** {
 220:../../lpc11cx4-library/lpc_chip_11cxx_lib/src/clock_11xx.c **** 	uint32_t clkRate;
 221:../../lpc11cx4-library/lpc_chip_11cxx_lib/src/clock_11xx.c **** 
 222:../../lpc11cx4-library/lpc_chip_11cxx_lib/src/clock_11xx.c **** 	switch ((CHIP_SYSCTL_PLLCLKSRC_T) (LPC_SYSCTL->USBPLLCLKSEL & 0x3)) {
 223:../../lpc11cx4-library/lpc_chip_11cxx_lib/src/clock_11xx.c **** 	case SYSCTL_PLLCLKSRC_IRC:
 224:../../lpc11cx4-library/lpc_chip_11cxx_lib/src/clock_11xx.c **** 		clkRate = Chip_Clock_GetIntOscRate();
 225:../../lpc11cx4-library/lpc_chip_11cxx_lib/src/clock_11xx.c **** 		break;
 226:../../lpc11cx4-library/lpc_chip_11cxx_lib/src/clock_11xx.c **** 
 227:../../lpc11cx4-library/lpc_chip_11cxx_lib/src/clock_11xx.c **** 	case SYSCTL_PLLCLKSRC_MAINOSC:
 228:../../lpc11cx4-library/lpc_chip_11cxx_lib/src/clock_11xx.c **** 		clkRate = Chip_Clock_GetMainOscRate();
 229:../../lpc11cx4-library/lpc_chip_11cxx_lib/src/clock_11xx.c **** 		break;
 230:../../lpc11cx4-library/lpc_chip_11cxx_lib/src/clock_11xx.c **** 
 231:../../lpc11cx4-library/lpc_chip_11cxx_lib/src/clock_11xx.c **** 	default:
 232:../../lpc11cx4-library/lpc_chip_11cxx_lib/src/clock_11xx.c **** 		clkRate = 0;
 233:../../lpc11cx4-library/lpc_chip_11cxx_lib/src/clock_11xx.c **** 	}
 234:../../lpc11cx4-library/lpc_chip_11cxx_lib/src/clock_11xx.c **** 
 235:../../lpc11cx4-library/lpc_chip_11cxx_lib/src/clock_11xx.c **** 	return clkRate;
 236:../../lpc11cx4-library/lpc_chip_11cxx_lib/src/clock_11xx.c **** }
 237:../../lpc11cx4-library/lpc_chip_11cxx_lib/src/clock_11xx.c **** 
 238:../../lpc11cx4-library/lpc_chip_11cxx_lib/src/clock_11xx.c **** /* Return USB PLL output clock rate */
 239:../../lpc11cx4-library/lpc_chip_11cxx_lib/src/clock_11xx.c **** uint32_t Chip_Clock_GetUSBPLLOutClockRate(void)
 240:../../lpc11cx4-library/lpc_chip_11cxx_lib/src/clock_11xx.c **** {
 241:../../lpc11cx4-library/lpc_chip_11cxx_lib/src/clock_11xx.c **** 	return Chip_Clock_GetPLLFreq(LPC_SYSCTL->USBPLLCTRL,
 242:../../lpc11cx4-library/lpc_chip_11cxx_lib/src/clock_11xx.c **** 								 Chip_Clock_GetUSBPLLInClockRate());
 243:../../lpc11cx4-library/lpc_chip_11cxx_lib/src/clock_11xx.c **** }
 244:../../lpc11cx4-library/lpc_chip_11cxx_lib/src/clock_11xx.c **** 
 245:../../lpc11cx4-library/lpc_chip_11cxx_lib/src/clock_11xx.c **** #endif
 246:../../lpc11cx4-library/lpc_chip_11cxx_lib/src/clock_11xx.c **** 
 247:../../lpc11cx4-library/lpc_chip_11cxx_lib/src/clock_11xx.c **** /* Return main clock rate */
 248:../../lpc11cx4-library/lpc_chip_11cxx_lib/src/clock_11xx.c **** uint32_t Chip_Clock_GetMainClockRate(void)
 249:../../lpc11cx4-library/lpc_chip_11cxx_lib/src/clock_11xx.c **** {
 403              		.loc 1 249 0
 404              		.cfi_startproc
 405              	.LVL19:
 406 0000 08B5     		push	{r3, lr}	@
 407              		.cfi_def_cfa_offset 8
 408              		.cfi_offset 3, -8
 409              		.cfi_offset 14, -4
 250:../../lpc11cx4-library/lpc_chip_11cxx_lib/src/clock_11xx.c **** 	uint32_t clkRate = 0;
 251:../../lpc11cx4-library/lpc_chip_11cxx_lib/src/clock_11xx.c **** 
 252:../../lpc11cx4-library/lpc_chip_11cxx_lib/src/clock_11xx.c **** 	switch ((CHIP_SYSCTL_MAINCLKSRC_T) (LPC_SYSCTL->MAINCLKSEL & 0x3)) {
ARM GAS  /var/folders/f9/8bk2lnw15zn4cbgn6wrnb4lm0000gn/T//ccmhdJMy.s 			page 21


 410              		.loc 1 252 0
 411 0002 0A4B     		ldr	r3, .L43	@ tmp116,
 412 0004 1A6F     		ldr	r2, [r3, #112]	@ D.6229, MEM[(struct LPC_SYSCTL_T *)1074036736B].MAINCLKSEL
 413 0006 0323     		mov	r3, #3	@ tmp120,
 414 0008 1340     		and	r3, r2	@ D.6230, D.6229
 415 000a 022B     		cmp	r3, #2	@ D.6230,
 416 000c 06D0     		beq	.L38	@,
 417 000e 032B     		cmp	r3, #3	@ D.6230,
 418 0010 07D0     		beq	.L39	@,
 419 0012 012B     		cmp	r3, #1	@ D.6230,
 420 0014 08D1     		bne	.L42	@,
 253:../../lpc11cx4-library/lpc_chip_11cxx_lib/src/clock_11xx.c **** 	case SYSCTL_MAINCLKSRC_IRC:
 254:../../lpc11cx4-library/lpc_chip_11cxx_lib/src/clock_11xx.c **** 		clkRate = Chip_Clock_GetIntOscRate();
 255:../../lpc11cx4-library/lpc_chip_11cxx_lib/src/clock_11xx.c **** 		break;
 256:../../lpc11cx4-library/lpc_chip_11cxx_lib/src/clock_11xx.c **** 
 257:../../lpc11cx4-library/lpc_chip_11cxx_lib/src/clock_11xx.c **** 	case SYSCTL_MAINCLKSRC_PLLIN:
 258:../../lpc11cx4-library/lpc_chip_11cxx_lib/src/clock_11xx.c **** 		clkRate = Chip_Clock_GetSystemPLLInClockRate();
 421              		.loc 1 258 0
 422 0016 FFF7FEFF 		bl	Chip_Clock_GetSystemPLLInClockRate	@
 423              	.LVL20:
 259:../../lpc11cx4-library/lpc_chip_11cxx_lib/src/clock_11xx.c **** 		break;
 424              		.loc 1 259 0
 425 001a 06E0     		b	.L37	@
 426              	.LVL21:
 427              	.L38:
 260:../../lpc11cx4-library/lpc_chip_11cxx_lib/src/clock_11xx.c **** 
 261:../../lpc11cx4-library/lpc_chip_11cxx_lib/src/clock_11xx.c **** #if defined(CHIP_LPC11AXX)
 262:../../lpc11cx4-library/lpc_chip_11cxx_lib/src/clock_11xx.c **** 	case SYSCTL_MAINCLKSRC_LFOSC:
 263:../../lpc11cx4-library/lpc_chip_11cxx_lib/src/clock_11xx.c **** 		clkRate = Chip_Clock_GetLFOOSCRate();
 264:../../lpc11cx4-library/lpc_chip_11cxx_lib/src/clock_11xx.c **** 		break;
 265:../../lpc11cx4-library/lpc_chip_11cxx_lib/src/clock_11xx.c **** 
 266:../../lpc11cx4-library/lpc_chip_11cxx_lib/src/clock_11xx.c **** #else
 267:../../lpc11cx4-library/lpc_chip_11cxx_lib/src/clock_11xx.c **** 	case SYSCTL_MAINCLKSRC_WDTOSC:
 268:../../lpc11cx4-library/lpc_chip_11cxx_lib/src/clock_11xx.c **** 		clkRate = Chip_Clock_GetWDTOSCRate();
 428              		.loc 1 268 0
 429 001c FFF7FEFF 		bl	Chip_Clock_GetWDTOSCRate	@
 430              	.LVL22:
 269:../../lpc11cx4-library/lpc_chip_11cxx_lib/src/clock_11xx.c **** 		break;
 431              		.loc 1 269 0
 432 0020 03E0     		b	.L37	@
 433              	.LVL23:
 434              	.L39:
 270:../../lpc11cx4-library/lpc_chip_11cxx_lib/src/clock_11xx.c **** #endif
 271:../../lpc11cx4-library/lpc_chip_11cxx_lib/src/clock_11xx.c **** 
 272:../../lpc11cx4-library/lpc_chip_11cxx_lib/src/clock_11xx.c **** 	case SYSCTL_MAINCLKSRC_PLLOUT:
 273:../../lpc11cx4-library/lpc_chip_11cxx_lib/src/clock_11xx.c **** 		clkRate = Chip_Clock_GetSystemPLLOutClockRate();
 435              		.loc 1 273 0
 436 0022 FFF7FEFF 		bl	Chip_Clock_GetSystemPLLOutClockRate	@
 437              	.LVL24:
 274:../../lpc11cx4-library/lpc_chip_11cxx_lib/src/clock_11xx.c **** 		break;
 438              		.loc 1 274 0
 439 0026 00E0     		b	.L37	@
 440              	.LVL25:
 441              	.L42:
 254:../../lpc11cx4-library/lpc_chip_11cxx_lib/src/clock_11xx.c **** 		clkRate = Chip_Clock_GetIntOscRate();
 442              		.loc 1 254 0
 443 0028 0148     		ldr	r0, .L43+4	@ clkRate,
ARM GAS  /var/folders/f9/8bk2lnw15zn4cbgn6wrnb4lm0000gn/T//ccmhdJMy.s 			page 22


 444              	.LVL26:
 445              	.L37:
 275:../../lpc11cx4-library/lpc_chip_11cxx_lib/src/clock_11xx.c **** 	}
 276:../../lpc11cx4-library/lpc_chip_11cxx_lib/src/clock_11xx.c **** 
 277:../../lpc11cx4-library/lpc_chip_11cxx_lib/src/clock_11xx.c **** 	return clkRate;
 278:../../lpc11cx4-library/lpc_chip_11cxx_lib/src/clock_11xx.c **** }
 446              		.loc 1 278 0
 447              		@ sp needed	@
 448 002a 08BD     		pop	{r3, pc}
 449              	.L44:
 450              		.align	2
 451              	.L43:
 452 002c 00800440 		.word	1074036736
 453 0030 001BB700 		.word	12000000
 454              		.cfi_endproc
 455              	.LFE208:
 456              		.size	Chip_Clock_GetMainClockRate, .-Chip_Clock_GetMainClockRate
 457              		.section	.text.Chip_Clock_GetSystemClockRate,"ax",%progbits
 458              		.align	1
 459              		.global	Chip_Clock_GetSystemClockRate
 460              		.code	16
 461              		.thumb_func
 462              		.type	Chip_Clock_GetSystemClockRate, %function
 463              	Chip_Clock_GetSystemClockRate:
 464              	.LFB209:
 279:../../lpc11cx4-library/lpc_chip_11cxx_lib/src/clock_11xx.c **** 
 280:../../lpc11cx4-library/lpc_chip_11cxx_lib/src/clock_11xx.c **** /* Return system clock rate */
 281:../../lpc11cx4-library/lpc_chip_11cxx_lib/src/clock_11xx.c **** uint32_t Chip_Clock_GetSystemClockRate(void)
 282:../../lpc11cx4-library/lpc_chip_11cxx_lib/src/clock_11xx.c **** {
 465              		.loc 1 282 0
 466              		.cfi_startproc
 467 0000 08B5     		push	{r3, lr}	@
 468              		.cfi_def_cfa_offset 8
 469              		.cfi_offset 3, -8
 470              		.cfi_offset 14, -4
 283:../../lpc11cx4-library/lpc_chip_11cxx_lib/src/clock_11xx.c **** 	/* No point in checking for divide by 0 */
 284:../../lpc11cx4-library/lpc_chip_11cxx_lib/src/clock_11xx.c **** 	return Chip_Clock_GetMainClockRate() / LPC_SYSCTL->SYSAHBCLKDIV;
 471              		.loc 1 284 0
 472 0002 FFF7FEFF 		bl	Chip_Clock_GetMainClockRate	@
 473              	.LVL27:
 474 0006 024B     		ldr	r3, .L46	@ tmp114,
 285:../../lpc11cx4-library/lpc_chip_11cxx_lib/src/clock_11xx.c **** }
 475              		.loc 1 285 0
 476              		@ sp needed	@
 284:../../lpc11cx4-library/lpc_chip_11cxx_lib/src/clock_11xx.c **** 	return Chip_Clock_GetMainClockRate() / LPC_SYSCTL->SYSAHBCLKDIV;
 477              		.loc 1 284 0
 478 0008 996F     		ldr	r1, [r3, #120]	@ D.6233, MEM[(struct LPC_SYSCTL_T *)1074036736B].SYSAHBCLKDIV
 479 000a FFF7FEFF 		bl	__aeabi_uidiv	@
 480              	.LVL28:
 481              		.loc 1 285 0
 482 000e 08BD     		pop	{r3, pc}
 483              	.L47:
 484              		.align	2
 485              	.L46:
 486 0010 00800440 		.word	1074036736
 487              		.cfi_endproc
 488              	.LFE209:
ARM GAS  /var/folders/f9/8bk2lnw15zn4cbgn6wrnb4lm0000gn/T//ccmhdJMy.s 			page 23


 489              		.size	Chip_Clock_GetSystemClockRate, .-Chip_Clock_GetSystemClockRate
 490              		.section	.rodata.wdtOSCRate,"a",%progbits
 491              		.align	2
 492              		.set	.LANCHOR0,. + 0
 493              		.type	wdtOSCRate, %object
 494              		.size	wdtOSCRate, 64
 495              	wdtOSCRate:
 496 0000 00000000 		.word	0
 497 0004 C0270900 		.word	600000
 498 0008 90051000 		.word	1050000
 499 000c C05C1500 		.word	1400000
 500 0010 F0B31A00 		.word	1750000
 501 0014 200B2000 		.word	2100000
 502 0018 009F2400 		.word	2400000
 503 001c E0322900 		.word	2700000
 504 0020 C0C62D00 		.word	3000000
 505 0024 50973100 		.word	3250000
 506 0028 E0673500 		.word	3500000
 507 002c 70383900 		.word	3750000
 508 0030 00093D00 		.word	4000000
 509 0034 40164000 		.word	4200000
 510 0038 80234300 		.word	4400000
 511 003c C0304600 		.word	4600000
 512              		.text
 513              	.Letext0:
 514              		.file 3 "/usr/local/Cellar/gcc-arm-none-eabi/20140805/arm-none-eabi/include/machine/_default_types
 515              		.file 4 "/usr/local/Cellar/gcc-arm-none-eabi/20140805/arm-none-eabi/include/stdint.h"
 516              		.file 5 "../../lpc11cx4-library/lpc_chip_11cxx_lib/inc/sysctl_11xx.h"
 517              		.file 6 "../../lpc11cx4-library/lpc_chip_11cxx_lib/inc/chip.h"