ARM GAS  /tmp/ccnl65aq.s 			page 1


   1              		.cpu cortex-m0
   2              		.fpu softvfp
   3              		.eabi_attribute 20, 1	@ Tag_ABI_FP_denormal
   4              		.eabi_attribute 21, 1	@ Tag_ABI_FP_exceptions
   5              		.eabi_attribute 23, 3	@ Tag_ABI_FP_number_model
   6              		.eabi_attribute 24, 1	@ Tag_ABI_align8_needed
   7              		.eabi_attribute 25, 1	@ Tag_ABI_align8_preserved
   8              		.eabi_attribute 26, 1	@ Tag_ABI_enum_size
   9              		.eabi_attribute 30, 4	@ Tag_ABI_optimization_goals
  10              		.eabi_attribute 34, 0	@ Tag_CPU_unaligned_access
  11              		.eabi_attribute 18, 4	@ Tag_ABI_PCS_wchar_t
  12              		.file	"i2c_11xx.c"
  13              	@ GNU C (GNU Tools for ARM Embedded Processors) version 4.9.3 20150529 (release) [ARM/embedded-4_9-
  14              	@	compiled by GNU C version 4.8.4, GMP version 5.1.3, MPFR version 3.1.2-p3, MPC version 1.0.1
  15              	@ GGC heuristics: --param ggc-min-expand=98 --param ggc-min-heapsize=128397
  16              	@ options passed:  -I . -I ../../lpc11cx4-library/lpc_chip_11cxx_lib/inc
  17              	@ -I ../../lpc11cx4-library/evt_lib/inc -I inc -imultilib armv6-m
  18              	@ -iprefix /usr/bin/../lib/gcc/arm-none-eabi/4.9.3/
  19              	@ -isysroot /usr/bin/../arm-none-eabi -MD bin/i2c_11xx.d -MF bin/i2c_11xx.d
  20              	@ -MP -MQ bin/i2c_11xx.o -D__USES_INITFINI__ -D CORE_M0
  21              	@ ../../lpc11cx4-library/lpc_chip_11cxx_lib/src/i2c_11xx.c -mcpu=cortex-m0
  22              	@ -mthumb -auxbase-strip bin/i2c_11xx.o -g -ggdb3 -Os -Wall
  23              	@ -Wstrict-prototypes -Wextra -std=gnu90 -ffunction-sections
  24              	@ -fdata-sections -fverbose-asm -fstack-usage
  25              	@ options enabled:  -faggressive-loop-optimizations -fauto-inc-dec
  26              	@ -fbranch-count-reg -fcaller-saves -fcombine-stack-adjustments -fcommon
  27              	@ -fcompare-elim -fcprop-registers -fcrossjumping -fcse-follow-jumps
  28              	@ -fdata-sections -fdefer-pop -fdelete-null-pointer-checks -fdevirtualize
  29              	@ -fdevirtualize-speculatively -fdwarf2-cfi-asm -fearly-inlining
  30              	@ -feliminate-unused-debug-types -fexpensive-optimizations
  31              	@ -fforward-propagate -ffunction-cse -ffunction-sections -fgcse -fgcse-lm
  32              	@ -fgnu-runtime -fgnu-unique -fguess-branch-probability
  33              	@ -fhoist-adjacent-loads -fident -fif-conversion -fif-conversion2
  34              	@ -findirect-inlining -finline -finline-atomics -finline-functions
  35              	@ -finline-functions-called-once -finline-small-functions -fipa-cp
  36              	@ -fipa-profile -fipa-pure-const -fipa-reference -fipa-sra
  37              	@ -fira-hoist-pressure -fira-share-save-slots -fira-share-spill-slots
  38              	@ -fisolate-erroneous-paths-dereference -fivopts -fkeep-static-consts
  39              	@ -fleading-underscore -flifetime-dse -fmath-errno -fmerge-constants
  40              	@ -fmerge-debug-strings -fomit-frame-pointer -foptimize-sibling-calls
  41              	@ -fpartial-inlining -fpeephole -fpeephole2 -fprefetch-loop-arrays
  42              	@ -freg-struct-return -freorder-blocks -freorder-functions
  43              	@ -frerun-cse-after-loop -fsched-critical-path-heuristic
  44              	@ -fsched-dep-count-heuristic -fsched-group-heuristic -fsched-interblock
  45              	@ -fsched-last-insn-heuristic -fsched-pressure -fsched-rank-heuristic
  46              	@ -fsched-spec -fsched-spec-insn-heuristic -fsched-stalled-insns-dep
  47              	@ -fschedule-insns2 -fsection-anchors -fshow-column -fshrink-wrap
  48              	@ -fsigned-zeros -fsplit-ivs-in-unroller -fsplit-wide-types
  49              	@ -fstrict-aliasing -fstrict-overflow -fstrict-volatile-bitfields
  50              	@ -fsync-libcalls -fthread-jumps -ftoplevel-reorder -ftrapping-math
  51              	@ -ftree-bit-ccp -ftree-builtin-call-dce -ftree-ccp -ftree-ch
  52              	@ -ftree-coalesce-vars -ftree-copy-prop -ftree-copyrename -ftree-cselim
  53              	@ -ftree-dce -ftree-dominator-opts -ftree-dse -ftree-forwprop -ftree-fre
  54              	@ -ftree-loop-if-convert -ftree-loop-im -ftree-loop-ivcanon
  55              	@ -ftree-loop-optimize -ftree-parallelize-loops= -ftree-phiprop -ftree-pre
  56              	@ -ftree-pta -ftree-reassoc -ftree-scev-cprop -ftree-sink -ftree-slsr
  57              	@ -ftree-sra -ftree-switch-conversion -ftree-tail-merge -ftree-ter
ARM GAS  /tmp/ccnl65aq.s 			page 2


  58              	@ -ftree-vrp -funit-at-a-time -fvar-tracking -fvar-tracking-assignments
  59              	@ -fverbose-asm -fzero-initialized-in-bss -mlittle-endian -mlra
  60              	@ -mpic-data-is-text-relative -msched-prolog -mthumb
  61              	@ -mvectorize-with-neon-quad
  62              	
  63              		.text
  64              	.Ltext0:
  65              		.cfi_sections	.debug_frame
  66              		.section	.text.Chip_I2C_EventHandler,"ax",%progbits
  67              		.align	1
  68              		.global	Chip_I2C_EventHandler
  69              		.code	16
  70              		.thumb_func
  71              		.type	Chip_I2C_EventHandler, %function
  72              	Chip_I2C_EventHandler:
  73              	.LFB212:
  74              		.file 1 "../../lpc11cx4-library/lpc_chip_11cxx_lib/src/i2c_11xx.c"
   1:../../lpc11cx4-library/lpc_chip_11cxx_lib/src/i2c_11xx.c **** /*
   2:../../lpc11cx4-library/lpc_chip_11cxx_lib/src/i2c_11xx.c ****  * @brief LPC11xx I2C driver
   3:../../lpc11cx4-library/lpc_chip_11cxx_lib/src/i2c_11xx.c ****  *
   4:../../lpc11cx4-library/lpc_chip_11cxx_lib/src/i2c_11xx.c ****  * @note
   5:../../lpc11cx4-library/lpc_chip_11cxx_lib/src/i2c_11xx.c ****  * Copyright(C) NXP Semiconductors, 2012
   6:../../lpc11cx4-library/lpc_chip_11cxx_lib/src/i2c_11xx.c ****  * All rights reserved.
   7:../../lpc11cx4-library/lpc_chip_11cxx_lib/src/i2c_11xx.c ****  *
   8:../../lpc11cx4-library/lpc_chip_11cxx_lib/src/i2c_11xx.c ****  * @par
   9:../../lpc11cx4-library/lpc_chip_11cxx_lib/src/i2c_11xx.c ****  * Software that is described herein is for illustrative purposes only
  10:../../lpc11cx4-library/lpc_chip_11cxx_lib/src/i2c_11xx.c ****  * which provides customers with programming information regarding the
  11:../../lpc11cx4-library/lpc_chip_11cxx_lib/src/i2c_11xx.c ****  * LPC products.  This software is supplied "AS IS" without any warranties of
  12:../../lpc11cx4-library/lpc_chip_11cxx_lib/src/i2c_11xx.c ****  * any kind, and NXP Semiconductors and its licensor disclaim any and
  13:../../lpc11cx4-library/lpc_chip_11cxx_lib/src/i2c_11xx.c ****  * all warranties, express or implied, including all implied warranties of
  14:../../lpc11cx4-library/lpc_chip_11cxx_lib/src/i2c_11xx.c ****  * merchantability, fitness for a particular purpose and non-infringement of
  15:../../lpc11cx4-library/lpc_chip_11cxx_lib/src/i2c_11xx.c ****  * intellectual property rights.  NXP Semiconductors assumes no responsibility
  16:../../lpc11cx4-library/lpc_chip_11cxx_lib/src/i2c_11xx.c ****  * or liability for the use of the software, conveys no license or rights under any
  17:../../lpc11cx4-library/lpc_chip_11cxx_lib/src/i2c_11xx.c ****  * patent, copyright, mask work right, or any other intellectual property rights in
  18:../../lpc11cx4-library/lpc_chip_11cxx_lib/src/i2c_11xx.c ****  * or to any products. NXP Semiconductors reserves the right to make changes
  19:../../lpc11cx4-library/lpc_chip_11cxx_lib/src/i2c_11xx.c ****  * in the software without notification. NXP Semiconductors also makes no
  20:../../lpc11cx4-library/lpc_chip_11cxx_lib/src/i2c_11xx.c ****  * representation or warranty that such application will be suitable for the
  21:../../lpc11cx4-library/lpc_chip_11cxx_lib/src/i2c_11xx.c ****  * specified use without further testing or modification.
  22:../../lpc11cx4-library/lpc_chip_11cxx_lib/src/i2c_11xx.c ****  *
  23:../../lpc11cx4-library/lpc_chip_11cxx_lib/src/i2c_11xx.c ****  * @par
  24:../../lpc11cx4-library/lpc_chip_11cxx_lib/src/i2c_11xx.c ****  * Permission to use, copy, modify, and distribute this software and its
  25:../../lpc11cx4-library/lpc_chip_11cxx_lib/src/i2c_11xx.c ****  * documentation is hereby granted, under NXP Semiconductors' and its
  26:../../lpc11cx4-library/lpc_chip_11cxx_lib/src/i2c_11xx.c ****  * licensor's relevant copyrights in the software, without fee, provided that it
  27:../../lpc11cx4-library/lpc_chip_11cxx_lib/src/i2c_11xx.c ****  * is used in conjunction with NXP Semiconductors microcontrollers.  This
  28:../../lpc11cx4-library/lpc_chip_11cxx_lib/src/i2c_11xx.c ****  * copyright, permission, and disclaimer notice must appear in all copies of
  29:../../lpc11cx4-library/lpc_chip_11cxx_lib/src/i2c_11xx.c ****  * this code.
  30:../../lpc11cx4-library/lpc_chip_11cxx_lib/src/i2c_11xx.c ****  */
  31:../../lpc11cx4-library/lpc_chip_11cxx_lib/src/i2c_11xx.c **** 
  32:../../lpc11cx4-library/lpc_chip_11cxx_lib/src/i2c_11xx.c **** #include "chip.h"
  33:../../lpc11cx4-library/lpc_chip_11cxx_lib/src/i2c_11xx.c **** 
  34:../../lpc11cx4-library/lpc_chip_11cxx_lib/src/i2c_11xx.c **** #if !defined(CHIP_LPC110X)
  35:../../lpc11cx4-library/lpc_chip_11cxx_lib/src/i2c_11xx.c **** 
  36:../../lpc11cx4-library/lpc_chip_11cxx_lib/src/i2c_11xx.c **** /*****************************************************************************
  37:../../lpc11cx4-library/lpc_chip_11cxx_lib/src/i2c_11xx.c ****  * Private types/enumerations/variables
  38:../../lpc11cx4-library/lpc_chip_11cxx_lib/src/i2c_11xx.c ****  ****************************************************************************/
  39:../../lpc11cx4-library/lpc_chip_11cxx_lib/src/i2c_11xx.c **** 
  40:../../lpc11cx4-library/lpc_chip_11cxx_lib/src/i2c_11xx.c **** /* Control flags */
ARM GAS  /tmp/ccnl65aq.s 			page 3


  41:../../lpc11cx4-library/lpc_chip_11cxx_lib/src/i2c_11xx.c **** #define I2C_CON_FLAGS (I2C_CON_AA | I2C_CON_SI | I2C_CON_STO | I2C_CON_STA)
  42:../../lpc11cx4-library/lpc_chip_11cxx_lib/src/i2c_11xx.c **** #define LPC_I2Cx(id)      ((i2c.ip))
  43:../../lpc11cx4-library/lpc_chip_11cxx_lib/src/i2c_11xx.c **** #define SLAVE_ACTIVE(iic) (((iic)->flags & 0xFF00) != 0)
  44:../../lpc11cx4-library/lpc_chip_11cxx_lib/src/i2c_11xx.c **** 
  45:../../lpc11cx4-library/lpc_chip_11cxx_lib/src/i2c_11xx.c **** /* I2C common interface structure */
  46:../../lpc11cx4-library/lpc_chip_11cxx_lib/src/i2c_11xx.c **** struct i2c_interface {
  47:../../lpc11cx4-library/lpc_chip_11cxx_lib/src/i2c_11xx.c **** 	LPC_I2C_T *ip;		/* IP base address of the I2C device */
  48:../../lpc11cx4-library/lpc_chip_11cxx_lib/src/i2c_11xx.c **** 	CHIP_SYSCTL_CLOCK_T clk;	/* Clock used by I2C */
  49:../../lpc11cx4-library/lpc_chip_11cxx_lib/src/i2c_11xx.c **** 	I2C_EVENTHANDLER_T mEvent;	/* Current active Master event handler */
  50:../../lpc11cx4-library/lpc_chip_11cxx_lib/src/i2c_11xx.c **** 	I2C_EVENTHANDLER_T sEvent;	/* Slave transfer events */
  51:../../lpc11cx4-library/lpc_chip_11cxx_lib/src/i2c_11xx.c **** 	I2C_XFER_T *mXfer;	/* Current active xfer pointer */
  52:../../lpc11cx4-library/lpc_chip_11cxx_lib/src/i2c_11xx.c **** 	I2C_XFER_T *sXfer;	/* Pointer to store xfer when bus is busy */
  53:../../lpc11cx4-library/lpc_chip_11cxx_lib/src/i2c_11xx.c **** 	uint32_t flags;		/* Flags used by I2C master and slave */
  54:../../lpc11cx4-library/lpc_chip_11cxx_lib/src/i2c_11xx.c **** };
  55:../../lpc11cx4-library/lpc_chip_11cxx_lib/src/i2c_11xx.c **** 
  56:../../lpc11cx4-library/lpc_chip_11cxx_lib/src/i2c_11xx.c **** /* Slave interface structure */
  57:../../lpc11cx4-library/lpc_chip_11cxx_lib/src/i2c_11xx.c **** struct i2c_slave_interface {
  58:../../lpc11cx4-library/lpc_chip_11cxx_lib/src/i2c_11xx.c **** 	I2C_XFER_T *xfer;
  59:../../lpc11cx4-library/lpc_chip_11cxx_lib/src/i2c_11xx.c **** 	I2C_EVENTHANDLER_T event;
  60:../../lpc11cx4-library/lpc_chip_11cxx_lib/src/i2c_11xx.c **** };
  61:../../lpc11cx4-library/lpc_chip_11cxx_lib/src/i2c_11xx.c **** 
  62:../../lpc11cx4-library/lpc_chip_11cxx_lib/src/i2c_11xx.c **** /* I2C interfaces */
  63:../../lpc11cx4-library/lpc_chip_11cxx_lib/src/i2c_11xx.c **** static struct i2c_interface i2c = 
  64:../../lpc11cx4-library/lpc_chip_11cxx_lib/src/i2c_11xx.c **** 	{LPC_I2C, SYSCTL_CLOCK_I2C, Chip_I2C_EventHandler, NULL, NULL, NULL, 0};
  65:../../lpc11cx4-library/lpc_chip_11cxx_lib/src/i2c_11xx.c **** 
  66:../../lpc11cx4-library/lpc_chip_11cxx_lib/src/i2c_11xx.c **** static struct i2c_slave_interface i2c_slave[I2C_NUM_INTERFACE][I2C_SLAVE_NUM_INTERFACE];
  67:../../lpc11cx4-library/lpc_chip_11cxx_lib/src/i2c_11xx.c **** 
  68:../../lpc11cx4-library/lpc_chip_11cxx_lib/src/i2c_11xx.c **** /*****************************************************************************
  69:../../lpc11cx4-library/lpc_chip_11cxx_lib/src/i2c_11xx.c ****  * Public types/enumerations/variables
  70:../../lpc11cx4-library/lpc_chip_11cxx_lib/src/i2c_11xx.c ****  ****************************************************************************/
  71:../../lpc11cx4-library/lpc_chip_11cxx_lib/src/i2c_11xx.c **** 
  72:../../lpc11cx4-library/lpc_chip_11cxx_lib/src/i2c_11xx.c **** /*****************************************************************************
  73:../../lpc11cx4-library/lpc_chip_11cxx_lib/src/i2c_11xx.c ****  * Private functions
  74:../../lpc11cx4-library/lpc_chip_11cxx_lib/src/i2c_11xx.c ****  ****************************************************************************/
  75:../../lpc11cx4-library/lpc_chip_11cxx_lib/src/i2c_11xx.c ****  
  76:../../lpc11cx4-library/lpc_chip_11cxx_lib/src/i2c_11xx.c **** STATIC INLINE void enableClk(I2C_ID_T id)
  77:../../lpc11cx4-library/lpc_chip_11cxx_lib/src/i2c_11xx.c **** {
  78:../../lpc11cx4-library/lpc_chip_11cxx_lib/src/i2c_11xx.c **** 	UNUSED(id);
  79:../../lpc11cx4-library/lpc_chip_11cxx_lib/src/i2c_11xx.c **** 	Chip_Clock_EnablePeriphClock(i2c.clk);
  80:../../lpc11cx4-library/lpc_chip_11cxx_lib/src/i2c_11xx.c **** }
  81:../../lpc11cx4-library/lpc_chip_11cxx_lib/src/i2c_11xx.c **** 
  82:../../lpc11cx4-library/lpc_chip_11cxx_lib/src/i2c_11xx.c **** STATIC INLINE void disableClk(I2C_ID_T id)
  83:../../lpc11cx4-library/lpc_chip_11cxx_lib/src/i2c_11xx.c **** {
  84:../../lpc11cx4-library/lpc_chip_11cxx_lib/src/i2c_11xx.c **** 	UNUSED(id);
  85:../../lpc11cx4-library/lpc_chip_11cxx_lib/src/i2c_11xx.c **** 	Chip_Clock_DisablePeriphClock(i2c.clk);
  86:../../lpc11cx4-library/lpc_chip_11cxx_lib/src/i2c_11xx.c **** }
  87:../../lpc11cx4-library/lpc_chip_11cxx_lib/src/i2c_11xx.c **** 
  88:../../lpc11cx4-library/lpc_chip_11cxx_lib/src/i2c_11xx.c **** /* Get the ADC Clock Rate */
  89:../../lpc11cx4-library/lpc_chip_11cxx_lib/src/i2c_11xx.c **** STATIC INLINE uint32_t getClkRate(void)
  90:../../lpc11cx4-library/lpc_chip_11cxx_lib/src/i2c_11xx.c **** {
  91:../../lpc11cx4-library/lpc_chip_11cxx_lib/src/i2c_11xx.c **** 	// return Chip_Clock_GetMainClockRate();
  92:../../lpc11cx4-library/lpc_chip_11cxx_lib/src/i2c_11xx.c **** 	return SystemCoreClock;
  93:../../lpc11cx4-library/lpc_chip_11cxx_lib/src/i2c_11xx.c **** }
  94:../../lpc11cx4-library/lpc_chip_11cxx_lib/src/i2c_11xx.c **** 
  95:../../lpc11cx4-library/lpc_chip_11cxx_lib/src/i2c_11xx.c **** /* Enable I2C and start master transfer */
  96:../../lpc11cx4-library/lpc_chip_11cxx_lib/src/i2c_11xx.c **** STATIC INLINE void startMasterXfer(LPC_I2C_T *pI2C)
  97:../../lpc11cx4-library/lpc_chip_11cxx_lib/src/i2c_11xx.c **** {
ARM GAS  /tmp/ccnl65aq.s 			page 4


  98:../../lpc11cx4-library/lpc_chip_11cxx_lib/src/i2c_11xx.c **** 	/* Reset STA, STO, SI */
  99:../../lpc11cx4-library/lpc_chip_11cxx_lib/src/i2c_11xx.c **** 	pI2C->CONCLR = I2C_CON_SI | I2C_CON_STO | I2C_CON_STA | I2C_CON_AA;
 100:../../lpc11cx4-library/lpc_chip_11cxx_lib/src/i2c_11xx.c **** 
 101:../../lpc11cx4-library/lpc_chip_11cxx_lib/src/i2c_11xx.c **** 	/* Enter to Master Transmitter mode */
 102:../../lpc11cx4-library/lpc_chip_11cxx_lib/src/i2c_11xx.c **** 	pI2C->CONSET = I2C_CON_I2EN | I2C_CON_STA;
 103:../../lpc11cx4-library/lpc_chip_11cxx_lib/src/i2c_11xx.c **** }
 104:../../lpc11cx4-library/lpc_chip_11cxx_lib/src/i2c_11xx.c **** 
 105:../../lpc11cx4-library/lpc_chip_11cxx_lib/src/i2c_11xx.c **** /* Enable I2C and enable slave transfers */
 106:../../lpc11cx4-library/lpc_chip_11cxx_lib/src/i2c_11xx.c **** STATIC INLINE void startSlaverXfer(LPC_I2C_T *pI2C)
 107:../../lpc11cx4-library/lpc_chip_11cxx_lib/src/i2c_11xx.c **** {
 108:../../lpc11cx4-library/lpc_chip_11cxx_lib/src/i2c_11xx.c **** 	/* Reset STA, STO, SI */
 109:../../lpc11cx4-library/lpc_chip_11cxx_lib/src/i2c_11xx.c **** 	pI2C->CONCLR = I2C_CON_SI | I2C_CON_STO | I2C_CON_STA;
 110:../../lpc11cx4-library/lpc_chip_11cxx_lib/src/i2c_11xx.c **** 
 111:../../lpc11cx4-library/lpc_chip_11cxx_lib/src/i2c_11xx.c **** 	/* Enter to Master Transmitter mode */
 112:../../lpc11cx4-library/lpc_chip_11cxx_lib/src/i2c_11xx.c **** 	pI2C->CONSET = I2C_CON_I2EN | I2C_CON_AA;
 113:../../lpc11cx4-library/lpc_chip_11cxx_lib/src/i2c_11xx.c **** }
 114:../../lpc11cx4-library/lpc_chip_11cxx_lib/src/i2c_11xx.c **** 
 115:../../lpc11cx4-library/lpc_chip_11cxx_lib/src/i2c_11xx.c **** /* Check if I2C bus is free */
 116:../../lpc11cx4-library/lpc_chip_11cxx_lib/src/i2c_11xx.c **** STATIC INLINE int isI2CBusFree(LPC_I2C_T *pI2C)
 117:../../lpc11cx4-library/lpc_chip_11cxx_lib/src/i2c_11xx.c **** {
 118:../../lpc11cx4-library/lpc_chip_11cxx_lib/src/i2c_11xx.c **** 	return !(pI2C->CONSET & I2C_CON_STO);
 119:../../lpc11cx4-library/lpc_chip_11cxx_lib/src/i2c_11xx.c **** }
 120:../../lpc11cx4-library/lpc_chip_11cxx_lib/src/i2c_11xx.c **** 
 121:../../lpc11cx4-library/lpc_chip_11cxx_lib/src/i2c_11xx.c **** /* Get current state of the I2C peripheral */
 122:../../lpc11cx4-library/lpc_chip_11cxx_lib/src/i2c_11xx.c **** STATIC INLINE int getCurState(LPC_I2C_T *pI2C)
 123:../../lpc11cx4-library/lpc_chip_11cxx_lib/src/i2c_11xx.c **** {
 124:../../lpc11cx4-library/lpc_chip_11cxx_lib/src/i2c_11xx.c **** 	return (int) (pI2C->STAT & I2C_STAT_CODE_BITMASK);
 125:../../lpc11cx4-library/lpc_chip_11cxx_lib/src/i2c_11xx.c **** }
 126:../../lpc11cx4-library/lpc_chip_11cxx_lib/src/i2c_11xx.c **** 
 127:../../lpc11cx4-library/lpc_chip_11cxx_lib/src/i2c_11xx.c **** /* Check if the active state belongs to master mode*/
 128:../../lpc11cx4-library/lpc_chip_11cxx_lib/src/i2c_11xx.c **** STATIC INLINE int isMasterState(LPC_I2C_T *pI2C)
 129:../../lpc11cx4-library/lpc_chip_11cxx_lib/src/i2c_11xx.c **** {
 130:../../lpc11cx4-library/lpc_chip_11cxx_lib/src/i2c_11xx.c **** 	return getCurState(pI2C) < 0x60;
 131:../../lpc11cx4-library/lpc_chip_11cxx_lib/src/i2c_11xx.c **** }
 132:../../lpc11cx4-library/lpc_chip_11cxx_lib/src/i2c_11xx.c **** 
 133:../../lpc11cx4-library/lpc_chip_11cxx_lib/src/i2c_11xx.c **** /* Set OWN slave address for specific slave ID */
 134:../../lpc11cx4-library/lpc_chip_11cxx_lib/src/i2c_11xx.c **** STATIC void setSlaveAddr(LPC_I2C_T *pI2C, I2C_SLAVE_ID sid, uint8_t addr, uint8_t mask)
 135:../../lpc11cx4-library/lpc_chip_11cxx_lib/src/i2c_11xx.c **** {
 136:../../lpc11cx4-library/lpc_chip_11cxx_lib/src/i2c_11xx.c **** 	uint32_t index = (uint32_t) sid - 1;
 137:../../lpc11cx4-library/lpc_chip_11cxx_lib/src/i2c_11xx.c **** 	pI2C->MASK[index] = mask;
 138:../../lpc11cx4-library/lpc_chip_11cxx_lib/src/i2c_11xx.c **** 	if (sid == I2C_SLAVE_0) {
 139:../../lpc11cx4-library/lpc_chip_11cxx_lib/src/i2c_11xx.c **** 		pI2C->ADR0 = addr;
 140:../../lpc11cx4-library/lpc_chip_11cxx_lib/src/i2c_11xx.c **** 	}
 141:../../lpc11cx4-library/lpc_chip_11cxx_lib/src/i2c_11xx.c **** 	else {
 142:../../lpc11cx4-library/lpc_chip_11cxx_lib/src/i2c_11xx.c **** 		volatile uint32_t *abase = &pI2C->ADR1;
 143:../../lpc11cx4-library/lpc_chip_11cxx_lib/src/i2c_11xx.c **** 		abase[index - 1] = addr;
 144:../../lpc11cx4-library/lpc_chip_11cxx_lib/src/i2c_11xx.c **** 	}
 145:../../lpc11cx4-library/lpc_chip_11cxx_lib/src/i2c_11xx.c **** }
 146:../../lpc11cx4-library/lpc_chip_11cxx_lib/src/i2c_11xx.c **** 
 147:../../lpc11cx4-library/lpc_chip_11cxx_lib/src/i2c_11xx.c **** /* Match the slave address */
 148:../../lpc11cx4-library/lpc_chip_11cxx_lib/src/i2c_11xx.c **** STATIC int isSlaveAddrMatching(uint8_t addr1, uint8_t addr2, uint8_t mask)
 149:../../lpc11cx4-library/lpc_chip_11cxx_lib/src/i2c_11xx.c **** {
 150:../../lpc11cx4-library/lpc_chip_11cxx_lib/src/i2c_11xx.c **** 	mask |= 1;
 151:../../lpc11cx4-library/lpc_chip_11cxx_lib/src/i2c_11xx.c **** 	return (addr1 & ~mask) == (addr2 & ~mask);
 152:../../lpc11cx4-library/lpc_chip_11cxx_lib/src/i2c_11xx.c **** }
 153:../../lpc11cx4-library/lpc_chip_11cxx_lib/src/i2c_11xx.c **** 
 154:../../lpc11cx4-library/lpc_chip_11cxx_lib/src/i2c_11xx.c **** /* Get the index of the active slave */
ARM GAS  /tmp/ccnl65aq.s 			page 5


 155:../../lpc11cx4-library/lpc_chip_11cxx_lib/src/i2c_11xx.c **** STATIC I2C_SLAVE_ID lookupSlaveIndex(LPC_I2C_T *pI2C, uint8_t slaveAddr)
 156:../../lpc11cx4-library/lpc_chip_11cxx_lib/src/i2c_11xx.c **** {
 157:../../lpc11cx4-library/lpc_chip_11cxx_lib/src/i2c_11xx.c **** 	if (!(slaveAddr >> 1)) {
 158:../../lpc11cx4-library/lpc_chip_11cxx_lib/src/i2c_11xx.c **** 		return I2C_SLAVE_GENERAL;					/* General call address */
 159:../../lpc11cx4-library/lpc_chip_11cxx_lib/src/i2c_11xx.c **** 	}
 160:../../lpc11cx4-library/lpc_chip_11cxx_lib/src/i2c_11xx.c **** 	if (isSlaveAddrMatching(pI2C->ADR0, slaveAddr, pI2C->MASK[0])) {
 161:../../lpc11cx4-library/lpc_chip_11cxx_lib/src/i2c_11xx.c **** 		return I2C_SLAVE_0;
 162:../../lpc11cx4-library/lpc_chip_11cxx_lib/src/i2c_11xx.c **** 	}
 163:../../lpc11cx4-library/lpc_chip_11cxx_lib/src/i2c_11xx.c **** 	if (isSlaveAddrMatching(pI2C->ADR1, slaveAddr, pI2C->MASK[1])) {
 164:../../lpc11cx4-library/lpc_chip_11cxx_lib/src/i2c_11xx.c **** 		return I2C_SLAVE_1;
 165:../../lpc11cx4-library/lpc_chip_11cxx_lib/src/i2c_11xx.c **** 	}
 166:../../lpc11cx4-library/lpc_chip_11cxx_lib/src/i2c_11xx.c **** 	if (isSlaveAddrMatching(pI2C->ADR2, slaveAddr, pI2C->MASK[2])) {
 167:../../lpc11cx4-library/lpc_chip_11cxx_lib/src/i2c_11xx.c **** 		return I2C_SLAVE_2;
 168:../../lpc11cx4-library/lpc_chip_11cxx_lib/src/i2c_11xx.c **** 	}
 169:../../lpc11cx4-library/lpc_chip_11cxx_lib/src/i2c_11xx.c **** 	if (isSlaveAddrMatching(pI2C->ADR3, slaveAddr, pI2C->MASK[3])) {
 170:../../lpc11cx4-library/lpc_chip_11cxx_lib/src/i2c_11xx.c **** 		return I2C_SLAVE_3;
 171:../../lpc11cx4-library/lpc_chip_11cxx_lib/src/i2c_11xx.c **** 	}
 172:../../lpc11cx4-library/lpc_chip_11cxx_lib/src/i2c_11xx.c **** 
 173:../../lpc11cx4-library/lpc_chip_11cxx_lib/src/i2c_11xx.c **** 	/* If everything is fine the code should never come here */
 174:../../lpc11cx4-library/lpc_chip_11cxx_lib/src/i2c_11xx.c **** 	return I2C_SLAVE_GENERAL;
 175:../../lpc11cx4-library/lpc_chip_11cxx_lib/src/i2c_11xx.c **** }
 176:../../lpc11cx4-library/lpc_chip_11cxx_lib/src/i2c_11xx.c **** 
 177:../../lpc11cx4-library/lpc_chip_11cxx_lib/src/i2c_11xx.c **** /* Master transfer state change handler handler */
 178:../../lpc11cx4-library/lpc_chip_11cxx_lib/src/i2c_11xx.c **** int handleMasterXferState(LPC_I2C_T *pI2C, I2C_XFER_T  *xfer)
 179:../../lpc11cx4-library/lpc_chip_11cxx_lib/src/i2c_11xx.c **** {
 180:../../lpc11cx4-library/lpc_chip_11cxx_lib/src/i2c_11xx.c **** 	uint32_t cclr = I2C_CON_FLAGS;
 181:../../lpc11cx4-library/lpc_chip_11cxx_lib/src/i2c_11xx.c **** 	switch (getCurState(pI2C)) {
 182:../../lpc11cx4-library/lpc_chip_11cxx_lib/src/i2c_11xx.c **** 	case 0x08:		/* Start condition on bus */
 183:../../lpc11cx4-library/lpc_chip_11cxx_lib/src/i2c_11xx.c **** 	case 0x10:		/* Repeated start condition */
 184:../../lpc11cx4-library/lpc_chip_11cxx_lib/src/i2c_11xx.c **** 		pI2C->DAT = (xfer->slaveAddr << 1) | (xfer->txSz == 0);
 185:../../lpc11cx4-library/lpc_chip_11cxx_lib/src/i2c_11xx.c **** 		break;
 186:../../lpc11cx4-library/lpc_chip_11cxx_lib/src/i2c_11xx.c **** 
 187:../../lpc11cx4-library/lpc_chip_11cxx_lib/src/i2c_11xx.c **** 	/* Tx handling */
 188:../../lpc11cx4-library/lpc_chip_11cxx_lib/src/i2c_11xx.c **** 	case 0x18:		/* SLA+W sent and ACK received */
 189:../../lpc11cx4-library/lpc_chip_11cxx_lib/src/i2c_11xx.c **** 	case 0x28:		/* DATA sent and ACK received */
 190:../../lpc11cx4-library/lpc_chip_11cxx_lib/src/i2c_11xx.c **** 		if (!xfer->txSz) {
 191:../../lpc11cx4-library/lpc_chip_11cxx_lib/src/i2c_11xx.c **** 			cclr &= ~(xfer->rxSz ? I2C_CON_STA : I2C_CON_STO);
 192:../../lpc11cx4-library/lpc_chip_11cxx_lib/src/i2c_11xx.c **** 		}
 193:../../lpc11cx4-library/lpc_chip_11cxx_lib/src/i2c_11xx.c **** 		else {
 194:../../lpc11cx4-library/lpc_chip_11cxx_lib/src/i2c_11xx.c **** 			pI2C->DAT = *xfer->txBuff++;
 195:../../lpc11cx4-library/lpc_chip_11cxx_lib/src/i2c_11xx.c **** 			xfer->txSz--;
 196:../../lpc11cx4-library/lpc_chip_11cxx_lib/src/i2c_11xx.c **** 		}
 197:../../lpc11cx4-library/lpc_chip_11cxx_lib/src/i2c_11xx.c **** 		break;
 198:../../lpc11cx4-library/lpc_chip_11cxx_lib/src/i2c_11xx.c **** 
 199:../../lpc11cx4-library/lpc_chip_11cxx_lib/src/i2c_11xx.c **** 	/* Rx handling */
 200:../../lpc11cx4-library/lpc_chip_11cxx_lib/src/i2c_11xx.c **** 	case 0x58:		/* Data Received and NACK sent */
 201:../../lpc11cx4-library/lpc_chip_11cxx_lib/src/i2c_11xx.c **** 		cclr &= ~I2C_CON_STO;
 202:../../lpc11cx4-library/lpc_chip_11cxx_lib/src/i2c_11xx.c **** 
 203:../../lpc11cx4-library/lpc_chip_11cxx_lib/src/i2c_11xx.c **** 	case 0x50:		/* Data Received and ACK sent */
 204:../../lpc11cx4-library/lpc_chip_11cxx_lib/src/i2c_11xx.c **** 		*xfer->rxBuff++ = pI2C->DAT;
 205:../../lpc11cx4-library/lpc_chip_11cxx_lib/src/i2c_11xx.c **** 		xfer->rxSz--;
 206:../../lpc11cx4-library/lpc_chip_11cxx_lib/src/i2c_11xx.c **** 
 207:../../lpc11cx4-library/lpc_chip_11cxx_lib/src/i2c_11xx.c **** 	case 0x40:		/* SLA+R sent and ACK received */
 208:../../lpc11cx4-library/lpc_chip_11cxx_lib/src/i2c_11xx.c **** 		if (xfer->rxSz > 1) {
 209:../../lpc11cx4-library/lpc_chip_11cxx_lib/src/i2c_11xx.c **** 			cclr &= ~I2C_CON_AA;
 210:../../lpc11cx4-library/lpc_chip_11cxx_lib/src/i2c_11xx.c **** 		}
 211:../../lpc11cx4-library/lpc_chip_11cxx_lib/src/i2c_11xx.c **** 		break;
ARM GAS  /tmp/ccnl65aq.s 			page 6


 212:../../lpc11cx4-library/lpc_chip_11cxx_lib/src/i2c_11xx.c **** 
 213:../../lpc11cx4-library/lpc_chip_11cxx_lib/src/i2c_11xx.c **** 	/* NAK Handling */
 214:../../lpc11cx4-library/lpc_chip_11cxx_lib/src/i2c_11xx.c **** 	case 0x20:		/* SLA+W sent NAK received */
 215:../../lpc11cx4-library/lpc_chip_11cxx_lib/src/i2c_11xx.c **** 	case 0x30:		/* DATA sent NAK received */
 216:../../lpc11cx4-library/lpc_chip_11cxx_lib/src/i2c_11xx.c **** 	case 0x48:		/* SLA+R sent NAK received */
 217:../../lpc11cx4-library/lpc_chip_11cxx_lib/src/i2c_11xx.c **** 		xfer->status = I2C_STATUS_NAK;
 218:../../lpc11cx4-library/lpc_chip_11cxx_lib/src/i2c_11xx.c **** 		cclr &= ~I2C_CON_STO;
 219:../../lpc11cx4-library/lpc_chip_11cxx_lib/src/i2c_11xx.c **** 		break;
 220:../../lpc11cx4-library/lpc_chip_11cxx_lib/src/i2c_11xx.c **** 
 221:../../lpc11cx4-library/lpc_chip_11cxx_lib/src/i2c_11xx.c **** 	case 0x38:		/* Arbitration lost */
 222:../../lpc11cx4-library/lpc_chip_11cxx_lib/src/i2c_11xx.c **** 		xfer->status = I2C_STATUS_ARBLOST;
 223:../../lpc11cx4-library/lpc_chip_11cxx_lib/src/i2c_11xx.c **** 		break;
 224:../../lpc11cx4-library/lpc_chip_11cxx_lib/src/i2c_11xx.c **** 
 225:../../lpc11cx4-library/lpc_chip_11cxx_lib/src/i2c_11xx.c **** 	/* Bus Error */
 226:../../lpc11cx4-library/lpc_chip_11cxx_lib/src/i2c_11xx.c **** 	case 0x00:
 227:../../lpc11cx4-library/lpc_chip_11cxx_lib/src/i2c_11xx.c **** 		xfer->status = I2C_STATUS_BUSERR;
 228:../../lpc11cx4-library/lpc_chip_11cxx_lib/src/i2c_11xx.c **** 		cclr &= ~I2C_CON_STO;
 229:../../lpc11cx4-library/lpc_chip_11cxx_lib/src/i2c_11xx.c **** 	}
 230:../../lpc11cx4-library/lpc_chip_11cxx_lib/src/i2c_11xx.c **** 
 231:../../lpc11cx4-library/lpc_chip_11cxx_lib/src/i2c_11xx.c **** 
 232:../../lpc11cx4-library/lpc_chip_11cxx_lib/src/i2c_11xx.c **** 	/* Set clear control flags */
 233:../../lpc11cx4-library/lpc_chip_11cxx_lib/src/i2c_11xx.c **** 	pI2C->CONSET = cclr ^ I2C_CON_FLAGS;
 234:../../lpc11cx4-library/lpc_chip_11cxx_lib/src/i2c_11xx.c **** 	pI2C->CONCLR = cclr;
 235:../../lpc11cx4-library/lpc_chip_11cxx_lib/src/i2c_11xx.c **** 
 236:../../lpc11cx4-library/lpc_chip_11cxx_lib/src/i2c_11xx.c **** 	/* If stopped return 0 */
 237:../../lpc11cx4-library/lpc_chip_11cxx_lib/src/i2c_11xx.c **** 	if (!(cclr & I2C_CON_STO) || (xfer->status == I2C_STATUS_ARBLOST)) {
 238:../../lpc11cx4-library/lpc_chip_11cxx_lib/src/i2c_11xx.c **** 		if (xfer->status == I2C_STATUS_BUSY) {
 239:../../lpc11cx4-library/lpc_chip_11cxx_lib/src/i2c_11xx.c **** 			xfer->status = I2C_STATUS_DONE;
 240:../../lpc11cx4-library/lpc_chip_11cxx_lib/src/i2c_11xx.c **** 		}
 241:../../lpc11cx4-library/lpc_chip_11cxx_lib/src/i2c_11xx.c **** 		return 0;
 242:../../lpc11cx4-library/lpc_chip_11cxx_lib/src/i2c_11xx.c **** 	}
 243:../../lpc11cx4-library/lpc_chip_11cxx_lib/src/i2c_11xx.c **** 	return 1;
 244:../../lpc11cx4-library/lpc_chip_11cxx_lib/src/i2c_11xx.c **** }
 245:../../lpc11cx4-library/lpc_chip_11cxx_lib/src/i2c_11xx.c **** 
 246:../../lpc11cx4-library/lpc_chip_11cxx_lib/src/i2c_11xx.c **** /* Find the slave address of SLA+W or SLA+R */
 247:../../lpc11cx4-library/lpc_chip_11cxx_lib/src/i2c_11xx.c **** I2C_SLAVE_ID getSlaveIndex(LPC_I2C_T *pI2C)
 248:../../lpc11cx4-library/lpc_chip_11cxx_lib/src/i2c_11xx.c **** {
 249:../../lpc11cx4-library/lpc_chip_11cxx_lib/src/i2c_11xx.c **** 	switch (getCurState(pI2C)) {
 250:../../lpc11cx4-library/lpc_chip_11cxx_lib/src/i2c_11xx.c **** 	case 0x60:
 251:../../lpc11cx4-library/lpc_chip_11cxx_lib/src/i2c_11xx.c **** 	case 0x68:
 252:../../lpc11cx4-library/lpc_chip_11cxx_lib/src/i2c_11xx.c **** 	case 0x70:
 253:../../lpc11cx4-library/lpc_chip_11cxx_lib/src/i2c_11xx.c **** 	case 0x78:
 254:../../lpc11cx4-library/lpc_chip_11cxx_lib/src/i2c_11xx.c **** 	case 0xA8:
 255:../../lpc11cx4-library/lpc_chip_11cxx_lib/src/i2c_11xx.c **** 	case 0xB0:
 256:../../lpc11cx4-library/lpc_chip_11cxx_lib/src/i2c_11xx.c **** 		return lookupSlaveIndex(pI2C, pI2C->DAT);
 257:../../lpc11cx4-library/lpc_chip_11cxx_lib/src/i2c_11xx.c **** 	}
 258:../../lpc11cx4-library/lpc_chip_11cxx_lib/src/i2c_11xx.c **** 
 259:../../lpc11cx4-library/lpc_chip_11cxx_lib/src/i2c_11xx.c **** 	/* If everything is fine code should never come here */
 260:../../lpc11cx4-library/lpc_chip_11cxx_lib/src/i2c_11xx.c **** 	return I2C_SLAVE_GENERAL;
 261:../../lpc11cx4-library/lpc_chip_11cxx_lib/src/i2c_11xx.c **** }
 262:../../lpc11cx4-library/lpc_chip_11cxx_lib/src/i2c_11xx.c **** 
 263:../../lpc11cx4-library/lpc_chip_11cxx_lib/src/i2c_11xx.c **** /* Slave state machine handler */
 264:../../lpc11cx4-library/lpc_chip_11cxx_lib/src/i2c_11xx.c **** int handleSlaveXferState(LPC_I2C_T *pI2C, I2C_XFER_T *xfer)
 265:../../lpc11cx4-library/lpc_chip_11cxx_lib/src/i2c_11xx.c **** {
 266:../../lpc11cx4-library/lpc_chip_11cxx_lib/src/i2c_11xx.c **** 	uint32_t cclr = I2C_CON_FLAGS;
 267:../../lpc11cx4-library/lpc_chip_11cxx_lib/src/i2c_11xx.c **** 	int ret = RET_SLAVE_BUSY;
 268:../../lpc11cx4-library/lpc_chip_11cxx_lib/src/i2c_11xx.c **** 
ARM GAS  /tmp/ccnl65aq.s 			page 7


 269:../../lpc11cx4-library/lpc_chip_11cxx_lib/src/i2c_11xx.c **** 	xfer->status = I2C_STATUS_BUSY;
 270:../../lpc11cx4-library/lpc_chip_11cxx_lib/src/i2c_11xx.c **** 	switch (getCurState(pI2C)) {
 271:../../lpc11cx4-library/lpc_chip_11cxx_lib/src/i2c_11xx.c **** 	case 0x80:		/* SLA: Data received + ACK sent */
 272:../../lpc11cx4-library/lpc_chip_11cxx_lib/src/i2c_11xx.c **** 	case 0x90:		/* GC: Data received + ACK sent */
 273:../../lpc11cx4-library/lpc_chip_11cxx_lib/src/i2c_11xx.c **** 		*xfer->rxBuff++ = pI2C->DAT;
 274:../../lpc11cx4-library/lpc_chip_11cxx_lib/src/i2c_11xx.c **** 		xfer->rxSz--;
 275:../../lpc11cx4-library/lpc_chip_11cxx_lib/src/i2c_11xx.c **** 		ret = RET_SLAVE_RX;
 276:../../lpc11cx4-library/lpc_chip_11cxx_lib/src/i2c_11xx.c **** 		if (xfer->rxSz > 1) {
 277:../../lpc11cx4-library/lpc_chip_11cxx_lib/src/i2c_11xx.c **** 			cclr &= ~I2C_CON_AA;
 278:../../lpc11cx4-library/lpc_chip_11cxx_lib/src/i2c_11xx.c **** 		}
 279:../../lpc11cx4-library/lpc_chip_11cxx_lib/src/i2c_11xx.c **** 		break;
 280:../../lpc11cx4-library/lpc_chip_11cxx_lib/src/i2c_11xx.c **** 
 281:../../lpc11cx4-library/lpc_chip_11cxx_lib/src/i2c_11xx.c **** 	case 0x60:		/* Own SLA+W received */
 282:../../lpc11cx4-library/lpc_chip_11cxx_lib/src/i2c_11xx.c **** 	case 0x68:		/* Own SLA+W received after losing arbitration */
 283:../../lpc11cx4-library/lpc_chip_11cxx_lib/src/i2c_11xx.c **** 	case 0x70:		/* GC+W received */
 284:../../lpc11cx4-library/lpc_chip_11cxx_lib/src/i2c_11xx.c **** 	case 0x78:		/* GC+W received after losing arbitration */
 285:../../lpc11cx4-library/lpc_chip_11cxx_lib/src/i2c_11xx.c **** 		xfer->slaveAddr = pI2C->DAT & ~1;
 286:../../lpc11cx4-library/lpc_chip_11cxx_lib/src/i2c_11xx.c **** 		if (xfer->rxSz > 1) {
 287:../../lpc11cx4-library/lpc_chip_11cxx_lib/src/i2c_11xx.c **** 			cclr &= ~I2C_CON_AA;
 288:../../lpc11cx4-library/lpc_chip_11cxx_lib/src/i2c_11xx.c **** 		}
 289:../../lpc11cx4-library/lpc_chip_11cxx_lib/src/i2c_11xx.c **** 		break;
 290:../../lpc11cx4-library/lpc_chip_11cxx_lib/src/i2c_11xx.c **** 
 291:../../lpc11cx4-library/lpc_chip_11cxx_lib/src/i2c_11xx.c **** 	case 0xA8:		/* SLA+R received */
 292:../../lpc11cx4-library/lpc_chip_11cxx_lib/src/i2c_11xx.c **** 	case 0xB0:		/* SLA+R received after losing arbitration */
 293:../../lpc11cx4-library/lpc_chip_11cxx_lib/src/i2c_11xx.c **** 		xfer->slaveAddr = pI2C->DAT & ~1;
 294:../../lpc11cx4-library/lpc_chip_11cxx_lib/src/i2c_11xx.c **** 
 295:../../lpc11cx4-library/lpc_chip_11cxx_lib/src/i2c_11xx.c **** 	case 0xB8:		/* DATA sent and ACK received */
 296:../../lpc11cx4-library/lpc_chip_11cxx_lib/src/i2c_11xx.c **** 		pI2C->DAT = *xfer->txBuff++;
 297:../../lpc11cx4-library/lpc_chip_11cxx_lib/src/i2c_11xx.c **** 		xfer->txSz--;
 298:../../lpc11cx4-library/lpc_chip_11cxx_lib/src/i2c_11xx.c **** 		if (xfer->txSz > 0) {
 299:../../lpc11cx4-library/lpc_chip_11cxx_lib/src/i2c_11xx.c **** 			cclr &= ~I2C_CON_AA;
 300:../../lpc11cx4-library/lpc_chip_11cxx_lib/src/i2c_11xx.c **** 		}
 301:../../lpc11cx4-library/lpc_chip_11cxx_lib/src/i2c_11xx.c **** 		ret = RET_SLAVE_TX;
 302:../../lpc11cx4-library/lpc_chip_11cxx_lib/src/i2c_11xx.c **** 		break;
 303:../../lpc11cx4-library/lpc_chip_11cxx_lib/src/i2c_11xx.c **** 
 304:../../lpc11cx4-library/lpc_chip_11cxx_lib/src/i2c_11xx.c **** 	case 0xC0:		/* Data transmitted and NAK received */
 305:../../lpc11cx4-library/lpc_chip_11cxx_lib/src/i2c_11xx.c **** 	case 0xC8:		/* Last data transmitted and ACK received */
 306:../../lpc11cx4-library/lpc_chip_11cxx_lib/src/i2c_11xx.c **** 	case 0x88:		/* SLA: Data received + NAK sent */
 307:../../lpc11cx4-library/lpc_chip_11cxx_lib/src/i2c_11xx.c **** 	case 0x98:		/* GC: Data received + NAK sent */
 308:../../lpc11cx4-library/lpc_chip_11cxx_lib/src/i2c_11xx.c **** 	case 0xA0:		/* STOP/Repeated START condition received */
 309:../../lpc11cx4-library/lpc_chip_11cxx_lib/src/i2c_11xx.c **** 		ret = RET_SLAVE_IDLE;
 310:../../lpc11cx4-library/lpc_chip_11cxx_lib/src/i2c_11xx.c **** 		cclr &= ~I2C_CON_AA;
 311:../../lpc11cx4-library/lpc_chip_11cxx_lib/src/i2c_11xx.c **** 		xfer->status = I2C_STATUS_DONE;
 312:../../lpc11cx4-library/lpc_chip_11cxx_lib/src/i2c_11xx.c **** 		if (xfer->slaveAddr & 1) {
 313:../../lpc11cx4-library/lpc_chip_11cxx_lib/src/i2c_11xx.c **** 			cclr &= ~I2C_CON_STA;
 314:../../lpc11cx4-library/lpc_chip_11cxx_lib/src/i2c_11xx.c **** 		}
 315:../../lpc11cx4-library/lpc_chip_11cxx_lib/src/i2c_11xx.c **** 		break;
 316:../../lpc11cx4-library/lpc_chip_11cxx_lib/src/i2c_11xx.c **** 	}
 317:../../lpc11cx4-library/lpc_chip_11cxx_lib/src/i2c_11xx.c **** 
 318:../../lpc11cx4-library/lpc_chip_11cxx_lib/src/i2c_11xx.c **** 	/* Set clear control flags */
 319:../../lpc11cx4-library/lpc_chip_11cxx_lib/src/i2c_11xx.c **** 	pI2C->CONSET = cclr ^ I2C_CON_FLAGS;
 320:../../lpc11cx4-library/lpc_chip_11cxx_lib/src/i2c_11xx.c **** 	pI2C->CONCLR = cclr;
 321:../../lpc11cx4-library/lpc_chip_11cxx_lib/src/i2c_11xx.c **** 
 322:../../lpc11cx4-library/lpc_chip_11cxx_lib/src/i2c_11xx.c **** 	return ret;
 323:../../lpc11cx4-library/lpc_chip_11cxx_lib/src/i2c_11xx.c **** }
 324:../../lpc11cx4-library/lpc_chip_11cxx_lib/src/i2c_11xx.c **** 
 325:../../lpc11cx4-library/lpc_chip_11cxx_lib/src/i2c_11xx.c **** /*****************************************************************************
ARM GAS  /tmp/ccnl65aq.s 			page 8


 326:../../lpc11cx4-library/lpc_chip_11cxx_lib/src/i2c_11xx.c ****  * Public functions
 327:../../lpc11cx4-library/lpc_chip_11cxx_lib/src/i2c_11xx.c ****  ****************************************************************************/
 328:../../lpc11cx4-library/lpc_chip_11cxx_lib/src/i2c_11xx.c **** 
 329:../../lpc11cx4-library/lpc_chip_11cxx_lib/src/i2c_11xx.c **** /* Chip event handler interrupt based */
 330:../../lpc11cx4-library/lpc_chip_11cxx_lib/src/i2c_11xx.c **** void Chip_I2C_EventHandler(I2C_ID_T id, I2C_EVENT_T event)
 331:../../lpc11cx4-library/lpc_chip_11cxx_lib/src/i2c_11xx.c **** {
  75              		.loc 1 331 0
  76              		.cfi_startproc
  77              	.LVL0:
 332:../../lpc11cx4-library/lpc_chip_11cxx_lib/src/i2c_11xx.c **** 	UNUSED(id);
 333:../../lpc11cx4-library/lpc_chip_11cxx_lib/src/i2c_11xx.c **** 	struct i2c_interface *iic = &i2c;
 334:../../lpc11cx4-library/lpc_chip_11cxx_lib/src/i2c_11xx.c **** 	volatile I2C_STATUS_T *stat;
 335:../../lpc11cx4-library/lpc_chip_11cxx_lib/src/i2c_11xx.c **** 
 336:../../lpc11cx4-library/lpc_chip_11cxx_lib/src/i2c_11xx.c **** 	/* Only WAIT event needs to be handled */
 337:../../lpc11cx4-library/lpc_chip_11cxx_lib/src/i2c_11xx.c **** 	if (event != I2C_EVENT_WAIT) {
  78              		.loc 1 337 0
  79 0000 0129     		cmp	r1, #1	@ event,
  80 0002 04D1     		bne	.L1	@,
  81              	.LVL1:
  82              	.LBB38:
  83              	.LBB39:
 338:../../lpc11cx4-library/lpc_chip_11cxx_lib/src/i2c_11xx.c **** 		return;
 339:../../lpc11cx4-library/lpc_chip_11cxx_lib/src/i2c_11xx.c **** 	}
 340:../../lpc11cx4-library/lpc_chip_11cxx_lib/src/i2c_11xx.c **** 
 341:../../lpc11cx4-library/lpc_chip_11cxx_lib/src/i2c_11xx.c **** 	stat = &iic->mXfer->status;
  84              		.loc 1 341 0
  85 0004 024B     		ldr	r3, .L6	@ tmp114,
  86 0006 1A69     		ldr	r2, [r3, #16]	@ D.6692, i2c.mXfer
  87              	.LVL2:
  88              	.L3:
 342:../../lpc11cx4-library/lpc_chip_11cxx_lib/src/i2c_11xx.c **** 	/* Wait for the status to change */
 343:../../lpc11cx4-library/lpc_chip_11cxx_lib/src/i2c_11xx.c **** 	while (*stat == I2C_STATUS_BUSY) {
  89              		.loc 1 343 0
  90 0008 137D     		ldrb	r3, [r2, #20]	@ MEM[(volatile I2C_STATUS_T *)_6 + 20B], MEM[(volatile I2C_STATUS_T *)_6 + 20B
  91 000a 042B     		cmp	r3, #4	@ MEM[(volatile I2C_STATUS_T *)_6 + 20B],
  92 000c FCD0     		beq	.L3	@,
  93              	.LVL3:
  94              	.L1:
  95              	.LBE39:
  96              	.LBE38:
 344:../../lpc11cx4-library/lpc_chip_11cxx_lib/src/i2c_11xx.c **** 	}
 345:../../lpc11cx4-library/lpc_chip_11cxx_lib/src/i2c_11xx.c **** }
  97              		.loc 1 345 0
  98              		@ sp needed	@
  99 000e 7047     		bx	lr
 100              	.L7:
 101              		.align	2
 102              	.L6:
 103 0010 00000000 		.word	.LANCHOR0
 104              		.cfi_endproc
 105              	.LFE212:
 106              		.size	Chip_I2C_EventHandler, .-Chip_I2C_EventHandler
 107              		.section	.text.handleMasterXferState,"ax",%progbits
 108              		.align	1
 109              		.global	handleMasterXferState
 110              		.code	16
 111              		.thumb_func
ARM GAS  /tmp/ccnl65aq.s 			page 9


 112              		.type	handleMasterXferState, %function
 113              	handleMasterXferState:
 114              	.LFB209:
 179:../../lpc11cx4-library/lpc_chip_11cxx_lib/src/i2c_11xx.c **** 	uint32_t cclr = I2C_CON_FLAGS;
 115              		.loc 1 179 0
 116              		.cfi_startproc
 117              	.LVL4:
 118              	.LBB40:
 119              	.LBB41:
 124:../../lpc11cx4-library/lpc_chip_11cxx_lib/src/i2c_11xx.c **** }
 120              		.loc 1 124 0
 121 0000 F823     		mov	r3, #248	@ tmp146,
 122 0002 4268     		ldr	r2, [r0, #4]	@ D.6703, pI2C_10(D)->STAT
 123              	.LBE41:
 124              	.LBE40:
 179:../../lpc11cx4-library/lpc_chip_11cxx_lib/src/i2c_11xx.c **** 	uint32_t cclr = I2C_CON_FLAGS;
 125              		.loc 1 179 0
 126 0004 10B5     		push	{r4, lr}	@
 127              		.cfi_def_cfa_offset 8
 128              		.cfi_offset 4, -8
 129              		.cfi_offset 14, -4
 130              	.LBB43:
 131              	.LBB42:
 124:../../lpc11cx4-library/lpc_chip_11cxx_lib/src/i2c_11xx.c **** }
 132              		.loc 1 124 0
 133 0006 1340     		and	r3, r2	@ D.6704, D.6703
 134              	.LBE42:
 135              	.LBE43:
 181:../../lpc11cx4-library/lpc_chip_11cxx_lib/src/i2c_11xx.c **** 	case 0x08:		/* Start condition on bus */
 136              		.loc 1 181 0
 137 0008 282B     		cmp	r3, #40	@ D.6704,
 138 000a 27D0     		beq	.L10	@,
 139 000c 0CDC     		bgt	.L11	@,
 140 000e 102B     		cmp	r3, #16	@ D.6704,
 141 0010 1CD0     		beq	.L12	@,
 142 0012 04DC     		bgt	.L13	@,
 143 0014 002B     		cmp	r3, #0	@ D.6704,
 144 0016 49D0     		beq	.L14	@,
 145 0018 082B     		cmp	r3, #8	@ D.6704,
 146 001a 17D0     		beq	.L12	@,
 147 001c 4AE0     		b	.L25	@
 148              	.L13:
 149 001e 182B     		cmp	r3, #24	@ D.6704,
 150 0020 1CD0     		beq	.L10	@,
 151 0022 202B     		cmp	r3, #32	@ D.6704,
 152 0024 40D0     		beq	.L15	@,
 153 0026 45E0     		b	.L25	@
 154              	.L11:
 155 0028 402B     		cmp	r3, #64	@ D.6704,
 156 002a 36D0     		beq	.L26	@,
 157 002c 06DC     		bgt	.L17	@,
 158 002e 302B     		cmp	r3, #48	@ D.6704,
 159 0030 3AD0     		beq	.L15	@,
 160 0032 382B     		cmp	r3, #56	@ D.6704,
 161 0034 3ED1     		bne	.L25	@,
 222:../../lpc11cx4-library/lpc_chip_11cxx_lib/src/i2c_11xx.c **** 		break;
 162              		.loc 1 222 0
ARM GAS  /tmp/ccnl65aq.s 			page 10


 163 0036 0223     		mov	r3, #2	@ tmp167,
 164 0038 0B75     		strb	r3, [r1, #20]	@ tmp167, xfer_11(D)->status
 165 003a 3BE0     		b	.L25	@
 166              	.L17:
 181:../../lpc11cx4-library/lpc_chip_11cxx_lib/src/i2c_11xx.c **** 	case 0x08:		/* Start condition on bus */
 167              		.loc 1 181 0
 168 003c 502B     		cmp	r3, #80	@ D.6704,
 169 003e 22D0     		beq	.L27	@,
 201:../../lpc11cx4-library/lpc_chip_11cxx_lib/src/i2c_11xx.c **** 
 170              		.loc 1 201 0
 171 0040 2C22     		mov	r2, #44	@ cclr,
 181:../../lpc11cx4-library/lpc_chip_11cxx_lib/src/i2c_11xx.c **** 	case 0x08:		/* Start condition on bus */
 172              		.loc 1 181 0
 173 0042 582B     		cmp	r3, #88	@ D.6704,
 174 0044 20D0     		beq	.L19	@,
 175 0046 482B     		cmp	r3, #72	@ D.6704,
 176 0048 34D1     		bne	.L25	@,
 177 004a 2DE0     		b	.L15	@
 178              	.L12:
 184:../../lpc11cx4-library/lpc_chip_11cxx_lib/src/i2c_11xx.c **** 		break;
 179              		.loc 1 184 0
 180 004c 8A68     		ldr	r2, [r1, #8]	@ D.6706, xfer_11(D)->txSz
 181 004e 5342     		neg	r3, r2	@ tmp150, D.6706
 182 0050 5A41     		adc	r2, r2, r3	@ D.6706, D.6706, tmp150
 183 0052 0B78     		ldrb	r3, [r1]	@ D.6704, *xfer_11(D)
 184 0054 5B00     		lsl	r3, r3, #1	@ D.6704, D.6704,
 185 0056 1343     		orr	r3, r2	@ D.6703, D.6706
 186 0058 8360     		str	r3, [r0, #8]	@ D.6703, pI2C_10(D)->DAT
 187 005a 2BE0     		b	.L25	@
 188              	.L10:
 190:../../lpc11cx4-library/lpc_chip_11cxx_lib/src/i2c_11xx.c **** 			cclr &= ~(xfer->rxSz ? I2C_CON_STA : I2C_CON_STO);
 189              		.loc 1 190 0
 190 005c 8B68     		ldr	r3, [r1, #8]	@ D.6704, xfer_11(D)->txSz
 191 005e 002B     		cmp	r3, #0	@ D.6704,
 192 0060 09D1     		bne	.L21	@,
 191:../../lpc11cx4-library/lpc_chip_11cxx_lib/src/i2c_11xx.c **** 		}
 193              		.loc 1 191 0
 194 0062 0B69     		ldr	r3, [r1, #16]	@ tmp187, xfer_11(D)->rxSz
 195 0064 002B     		cmp	r3, #0	@ tmp187,
 196 0066 01D1     		bne	.L28	@,
 197 0068 113B     		sub	r3, r3, #17	@ D.6703,
 198 006a 01E0     		b	.L22	@
 199              	.L28:
 200 006c 2123     		mov	r3, #33	@ D.6703,
 201 006e 5B42     		neg	r3, r3	@ D.6703, D.6703
 202              	.L22:
 191:../../lpc11cx4-library/lpc_chip_11cxx_lib/src/i2c_11xx.c **** 		}
 203              		.loc 1 191 0 is_stmt 0 discriminator 4
 204 0070 3C22     		mov	r2, #60	@ tmp154,
 205 0072 1A40     		and	r2, r3	@ cclr, D.6703
 206              	.LVL5:
 207 0074 1FE0     		b	.L9	@
 208              	.LVL6:
 209              	.L21:
 194:../../lpc11cx4-library/lpc_chip_11cxx_lib/src/i2c_11xx.c **** 			xfer->txSz--;
 210              		.loc 1 194 0 is_stmt 1
 211 0076 4A68     		ldr	r2, [r1, #4]	@ D.6707, xfer_11(D)->txBuff
ARM GAS  /tmp/ccnl65aq.s 			page 11


 195:../../lpc11cx4-library/lpc_chip_11cxx_lib/src/i2c_11xx.c **** 		}
 212              		.loc 1 195 0
 213 0078 013B     		sub	r3, r3, #1	@ D.6704,
 194:../../lpc11cx4-library/lpc_chip_11cxx_lib/src/i2c_11xx.c **** 			xfer->txSz--;
 214              		.loc 1 194 0
 215 007a 541C     		add	r4, r2, #1	@ D.6707, D.6707,
 216 007c 4C60     		str	r4, [r1, #4]	@ D.6707, xfer_11(D)->txBuff
 217 007e 1278     		ldrb	r2, [r2]	@ D.6703, *_22
 218 0080 8260     		str	r2, [r0, #8]	@ D.6703, pI2C_10(D)->DAT
 195:../../lpc11cx4-library/lpc_chip_11cxx_lib/src/i2c_11xx.c **** 		}
 219              		.loc 1 195 0
 220 0082 8B60     		str	r3, [r1, #8]	@ D.6704, xfer_11(D)->txSz
 221 0084 16E0     		b	.L25	@
 222              	.L27:
 180:../../lpc11cx4-library/lpc_chip_11cxx_lib/src/i2c_11xx.c **** 	switch (getCurState(pI2C)) {
 223              		.loc 1 180 0
 224 0086 3C22     		mov	r2, #60	@ cclr,
 225              	.L19:
 226              	.LVL7:
 204:../../lpc11cx4-library/lpc_chip_11cxx_lib/src/i2c_11xx.c **** 		xfer->rxSz--;
 227              		.loc 1 204 0
 228 0088 CB68     		ldr	r3, [r1, #12]	@ D.6708, xfer_11(D)->rxBuff
 229 008a 5C1C     		add	r4, r3, #1	@ D.6708, D.6708,
 230 008c CC60     		str	r4, [r1, #12]	@ D.6708, xfer_11(D)->rxBuff
 231 008e 8468     		ldr	r4, [r0, #8]	@ D.6703, pI2C_10(D)->DAT
 232 0090 1C70     		strb	r4, [r3]	@ D.6703, *_32
 205:../../lpc11cx4-library/lpc_chip_11cxx_lib/src/i2c_11xx.c **** 
 233              		.loc 1 205 0
 234 0092 0B69     		ldr	r3, [r1, #16]	@ tmp188, xfer_11(D)->rxSz
 235 0094 013B     		sub	r3, r3, #1	@ D.6704,
 236 0096 0B61     		str	r3, [r1, #16]	@ D.6704, xfer_11(D)->rxSz
 237 0098 00E0     		b	.L16	@
 238              	.LVL8:
 239              	.L26:
 180:../../lpc11cx4-library/lpc_chip_11cxx_lib/src/i2c_11xx.c **** 	switch (getCurState(pI2C)) {
 240              		.loc 1 180 0
 241 009a 3C22     		mov	r2, #60	@ cclr,
 242              	.LVL9:
 243              	.L16:
 208:../../lpc11cx4-library/lpc_chip_11cxx_lib/src/i2c_11xx.c **** 			cclr &= ~I2C_CON_AA;
 244              		.loc 1 208 0
 245 009c 0B69     		ldr	r3, [r1, #16]	@ tmp189, xfer_11(D)->rxSz
 246 009e 012B     		cmp	r3, #1	@ tmp189,
 247 00a0 09DD     		ble	.L9	@,
 209:../../lpc11cx4-library/lpc_chip_11cxx_lib/src/i2c_11xx.c **** 		}
 248              		.loc 1 209 0
 249 00a2 0423     		mov	r3, #4	@ tmp164,
 250 00a4 9A43     		bic	r2, r3	@ cclr, tmp164
 251 00a6 06E0     		b	.L9	@
 252              	.LVL10:
 253              	.L15:
 217:../../lpc11cx4-library/lpc_chip_11cxx_lib/src/i2c_11xx.c **** 		cclr &= ~I2C_CON_STO;
 254              		.loc 1 217 0
 255 00a8 0123     		mov	r3, #1	@ tmp165,
 256 00aa 00E0     		b	.L56	@
 257              	.L14:
 227:../../lpc11cx4-library/lpc_chip_11cxx_lib/src/i2c_11xx.c **** 		cclr &= ~I2C_CON_STO;
ARM GAS  /tmp/ccnl65aq.s 			page 12


 258              		.loc 1 227 0
 259 00ac 0323     		mov	r3, #3	@ tmp169,
 260              	.L56:
 261 00ae 0B75     		strb	r3, [r1, #20]	@ tmp169, xfer_11(D)->status
 262              	.LVL11:
 228:../../lpc11cx4-library/lpc_chip_11cxx_lib/src/i2c_11xx.c **** 	}
 263              		.loc 1 228 0
 264 00b0 2C22     		mov	r2, #44	@ cclr,
 265 00b2 00E0     		b	.L9	@
 266              	.LVL12:
 267              	.L25:
 180:../../lpc11cx4-library/lpc_chip_11cxx_lib/src/i2c_11xx.c **** 	switch (getCurState(pI2C)) {
 268              		.loc 1 180 0
 269 00b4 3C22     		mov	r2, #60	@ cclr,
 270              	.LVL13:
 271              	.L9:
 233:../../lpc11cx4-library/lpc_chip_11cxx_lib/src/i2c_11xx.c **** 	pI2C->CONCLR = cclr;
 272              		.loc 1 233 0
 273 00b6 3C23     		mov	r3, #60	@ tmp171,
 274 00b8 5340     		eor	r3, r2	@ D.6703, cclr
 275 00ba 0360     		str	r3, [r0]	@ D.6703, pI2C_10(D)->CONSET
 234:../../lpc11cx4-library/lpc_chip_11cxx_lib/src/i2c_11xx.c **** 
 276              		.loc 1 234 0
 277 00bc 8261     		str	r2, [r0, #24]	@ cclr, pI2C_10(D)->CONCLR
 278 00be 0B7D     		ldrb	r3, [r1, #20]	@ tmp179,
 237:../../lpc11cx4-library/lpc_chip_11cxx_lib/src/i2c_11xx.c **** 		if (xfer->status == I2C_STATUS_BUSY) {
 279              		.loc 1 237 0
 280 00c0 D206     		lsl	r2, r2, #27	@ tmp185, cclr,
 281 00c2 02D5     		bpl	.L23	@,
 243:../../lpc11cx4-library/lpc_chip_11cxx_lib/src/i2c_11xx.c **** }
 282              		.loc 1 243 0 discriminator 1
 283 00c4 0120     		mov	r0, #1	@ D.6704,
 284              	.LVL14:
 237:../../lpc11cx4-library/lpc_chip_11cxx_lib/src/i2c_11xx.c **** 		if (xfer->status == I2C_STATUS_BUSY) {
 285              		.loc 1 237 0 discriminator 1
 286 00c6 022B     		cmp	r3, #2	@ tmp179,
 287 00c8 03D1     		bne	.L24	@,
 288              	.L23:
 289 00ca 0020     		mov	r0, #0	@ D.6704,
 238:../../lpc11cx4-library/lpc_chip_11cxx_lib/src/i2c_11xx.c **** 			xfer->status = I2C_STATUS_DONE;
 290              		.loc 1 238 0
 291 00cc 042B     		cmp	r3, #4	@ tmp179,
 292 00ce 00D1     		bne	.L24	@,
 239:../../lpc11cx4-library/lpc_chip_11cxx_lib/src/i2c_11xx.c **** 		}
 293              		.loc 1 239 0
 294 00d0 0875     		strb	r0, [r1, #20]	@ D.6704, xfer_11(D)->status
 295              	.L24:
 244:../../lpc11cx4-library/lpc_chip_11cxx_lib/src/i2c_11xx.c **** 
 296              		.loc 1 244 0
 297              		@ sp needed	@
 298 00d2 10BD     		pop	{r4, pc}
 299              		.cfi_endproc
 300              	.LFE209:
 301              		.size	handleMasterXferState, .-handleMasterXferState
 302              		.section	.text.getSlaveIndex,"ax",%progbits
 303              		.align	1
 304              		.global	getSlaveIndex
ARM GAS  /tmp/ccnl65aq.s 			page 13


 305              		.code	16
 306              		.thumb_func
 307              		.type	getSlaveIndex, %function
 308              	getSlaveIndex:
 309              	.LFB210:
 248:../../lpc11cx4-library/lpc_chip_11cxx_lib/src/i2c_11xx.c **** 	switch (getCurState(pI2C)) {
 310              		.loc 1 248 0
 311              		.cfi_startproc
 312              	.LVL15:
 313              	.LBB60:
 314              	.LBB61:
 124:../../lpc11cx4-library/lpc_chip_11cxx_lib/src/i2c_11xx.c **** }
 315              		.loc 1 124 0
 316 0000 F823     		mov	r3, #248	@ tmp160,
 317 0002 4268     		ldr	r2, [r0, #4]	@ D.6741, pI2C_4(D)->STAT
 318              	.LBE61:
 319              	.LBE60:
 248:../../lpc11cx4-library/lpc_chip_11cxx_lib/src/i2c_11xx.c **** 	switch (getCurState(pI2C)) {
 320              		.loc 1 248 0
 321 0004 30B5     		push	{r4, r5, lr}	@
 322              		.cfi_def_cfa_offset 12
 323              		.cfi_offset 4, -12
 324              		.cfi_offset 5, -8
 325              		.cfi_offset 14, -4
 326              	.LBB63:
 327              	.LBB62:
 124:../../lpc11cx4-library/lpc_chip_11cxx_lib/src/i2c_11xx.c **** }
 328              		.loc 1 124 0
 329 0006 1340     		and	r3, r2	@ D.6742, D.6741
 330              	.LBE62:
 331              	.LBE63:
 249:../../lpc11cx4-library/lpc_chip_11cxx_lib/src/i2c_11xx.c **** 	case 0x60:
 332              		.loc 1 249 0
 333 0008 702B     		cmp	r3, #112	@ D.6742,
 334 000a 0BD0     		beq	.L59	@,
 335 000c 04DC     		bgt	.L60	@,
 336 000e 602B     		cmp	r3, #96	@ D.6742,
 337 0010 08D0     		beq	.L59	@,
 338 0012 682B     		cmp	r3, #104	@ D.6742,
 339 0014 37D1     		bne	.L61	@,
 340 0016 05E0     		b	.L59	@
 341              	.L60:
 342 0018 A82B     		cmp	r3, #168	@ D.6742,
 343 001a 03D0     		beq	.L59	@,
 344 001c B02B     		cmp	r3, #176	@ D.6742,
 345 001e 01D0     		beq	.L59	@,
 346 0020 782B     		cmp	r3, #120	@ D.6742,
 347 0022 30D1     		bne	.L61	@,
 348              	.L59:
 349              	.LVL16:
 350              	.LBB64:
 351              	.LBB65:
 256:../../lpc11cx4-library/lpc_chip_11cxx_lib/src/i2c_11xx.c **** 	}
 352              		.loc 1 256 0
 353 0024 8368     		ldr	r3, [r0, #8]	@ D.6741, pI2C_4(D)->DAT
 354 0026 D9B2     		uxtb	r1, r3	@ D.6740, D.6741
 355              	.LVL17:
ARM GAS  /tmp/ccnl65aq.s 			page 14


 356              	.LBB66:
 357              	.LBB67:
 158:../../lpc11cx4-library/lpc_chip_11cxx_lib/src/i2c_11xx.c **** 	}
 358              		.loc 1 158 0
 359 0028 0023     		mov	r3, #0	@ D.6739,
 157:../../lpc11cx4-library/lpc_chip_11cxx_lib/src/i2c_11xx.c **** 		return I2C_SLAVE_GENERAL;					/* General call address */
 360              		.loc 1 157 0
 361 002a 4A08     		lsr	r2, r1, #1	@ tmp163, D.6740,
 362 002c 9A42     		cmp	r2, r3	@ tmp163,
 363 002e 2BD0     		beq	.L58	@,
 364              	.LBB68:
 365              	.LBB69:
 150:../../lpc11cx4-library/lpc_chip_11cxx_lib/src/i2c_11xx.c **** 	return (addr1 & ~mask) == (addr2 & ~mask);
 366              		.loc 1 150 0
 367 0030 0124     		mov	r4, #1	@ tmp166,
 368              	.LBE69:
 369              	.LBE68:
 160:../../lpc11cx4-library/lpc_chip_11cxx_lib/src/i2c_11xx.c **** 		return I2C_SLAVE_0;
 370              		.loc 1 160 0
 371 0032 C268     		ldr	r2, [r0, #12]	@ D.6741, pI2C_4(D)->ADR0
 372 0034 036B     		ldr	r3, [r0, #48]	@ D.6741, pI2C_4(D)->MASK
 373              	.LVL18:
 374              	.LBB71:
 375              	.LBB70:
 151:../../lpc11cx4-library/lpc_chip_11cxx_lib/src/i2c_11xx.c **** }
 376              		.loc 1 151 0
 377 0036 4A40     		eor	r2, r1	@ tmp170, D.6740
 378              	.LVL19:
 150:../../lpc11cx4-library/lpc_chip_11cxx_lib/src/i2c_11xx.c **** 	return (addr1 & ~mask) == (addr2 & ~mask);
 379              		.loc 1 150 0
 380 0038 2343     		orr	r3, r4	@ tmp165, tmp166
 381              	.LVL20:
 151:../../lpc11cx4-library/lpc_chip_11cxx_lib/src/i2c_11xx.c **** }
 382              		.loc 1 151 0
 383 003a DBB2     		uxtb	r3, r3	@ D.6742, tmp165
 384 003c D2B2     		uxtb	r2, r2	@ D.6742, tmp170
 385 003e 9A43     		bic	r2, r3	@ D.6742, D.6742
 386              	.LBE70:
 387              	.LBE71:
 161:../../lpc11cx4-library/lpc_chip_11cxx_lib/src/i2c_11xx.c **** 	}
 388              		.loc 1 161 0
 389 0040 231C     		mov	r3, r4	@ D.6739, tmp166
 160:../../lpc11cx4-library/lpc_chip_11cxx_lib/src/i2c_11xx.c **** 		return I2C_SLAVE_0;
 390              		.loc 1 160 0
 391 0042 002A     		cmp	r2, #0	@ D.6742,
 392 0044 20D0     		beq	.L58	@,
 163:../../lpc11cx4-library/lpc_chip_11cxx_lib/src/i2c_11xx.c **** 		return I2C_SLAVE_1;
 393              		.loc 1 163 0
 394 0046 026A     		ldr	r2, [r0, #32]	@ D.6741, pI2C_4(D)->ADR1
 395 0048 456B     		ldr	r5, [r0, #52]	@ D.6741, pI2C_4(D)->MASK
 396              	.LVL21:
 397              	.LBB72:
 398              	.LBB73:
 151:../../lpc11cx4-library/lpc_chip_11cxx_lib/src/i2c_11xx.c **** }
 399              		.loc 1 151 0
 400 004a 4A40     		eor	r2, r1	@ tmp179, D.6740
 401              	.LVL22:
ARM GAS  /tmp/ccnl65aq.s 			page 15


 150:../../lpc11cx4-library/lpc_chip_11cxx_lib/src/i2c_11xx.c **** 	return (addr1 & ~mask) == (addr2 & ~mask);
 402              		.loc 1 150 0
 403 004c 2B43     		orr	r3, r5	@ tmp174, D.6741
 151:../../lpc11cx4-library/lpc_chip_11cxx_lib/src/i2c_11xx.c **** }
 404              		.loc 1 151 0
 405 004e DBB2     		uxtb	r3, r3	@ D.6742, tmp174
 406 0050 D2B2     		uxtb	r2, r2	@ D.6742, tmp179
 407 0052 9A43     		bic	r2, r3	@ D.6742, D.6742
 408              	.LBE73:
 409              	.LBE72:
 164:../../lpc11cx4-library/lpc_chip_11cxx_lib/src/i2c_11xx.c **** 	}
 410              		.loc 1 164 0
 411 0054 0223     		mov	r3, #2	@ D.6739,
 163:../../lpc11cx4-library/lpc_chip_11cxx_lib/src/i2c_11xx.c **** 		return I2C_SLAVE_1;
 412              		.loc 1 163 0
 413 0056 002A     		cmp	r2, #0	@ D.6742,
 414 0058 16D0     		beq	.L58	@,
 166:../../lpc11cx4-library/lpc_chip_11cxx_lib/src/i2c_11xx.c **** 		return I2C_SLAVE_2;
 415              		.loc 1 166 0
 416 005a 426A     		ldr	r2, [r0, #36]	@ D.6741, pI2C_4(D)->ADR2
 417 005c 836B     		ldr	r3, [r0, #56]	@ D.6741, pI2C_4(D)->MASK
 418              	.LVL23:
 419              	.LBB74:
 420              	.LBB75:
 151:../../lpc11cx4-library/lpc_chip_11cxx_lib/src/i2c_11xx.c **** }
 421              		.loc 1 151 0
 422 005e 4A40     		eor	r2, r1	@ tmp188, D.6740
 423              	.LVL24:
 150:../../lpc11cx4-library/lpc_chip_11cxx_lib/src/i2c_11xx.c **** 	return (addr1 & ~mask) == (addr2 & ~mask);
 424              		.loc 1 150 0
 425 0060 2343     		orr	r3, r4	@ tmp183, tmp166
 426              	.LVL25:
 151:../../lpc11cx4-library/lpc_chip_11cxx_lib/src/i2c_11xx.c **** }
 427              		.loc 1 151 0
 428 0062 DBB2     		uxtb	r3, r3	@ D.6742, tmp183
 429 0064 D2B2     		uxtb	r2, r2	@ D.6742, tmp188
 430 0066 9A43     		bic	r2, r3	@ D.6742, D.6742
 431              	.LBE75:
 432              	.LBE74:
 167:../../lpc11cx4-library/lpc_chip_11cxx_lib/src/i2c_11xx.c **** 	}
 433              		.loc 1 167 0
 434 0068 0323     		mov	r3, #3	@ D.6739,
 166:../../lpc11cx4-library/lpc_chip_11cxx_lib/src/i2c_11xx.c **** 		return I2C_SLAVE_2;
 435              		.loc 1 166 0
 436 006a 002A     		cmp	r2, #0	@ D.6742,
 437 006c 0CD0     		beq	.L58	@,
 169:../../lpc11cx4-library/lpc_chip_11cxx_lib/src/i2c_11xx.c **** 		return I2C_SLAVE_3;
 438              		.loc 1 169 0
 439 006e 826A     		ldr	r2, [r0, #40]	@ D.6741, pI2C_4(D)->ADR3
 440 0070 C36B     		ldr	r3, [r0, #60]	@ D.6741, pI2C_4(D)->MASK
 441              	.LVL26:
 442              	.LBB76:
 443              	.LBB77:
 150:../../lpc11cx4-library/lpc_chip_11cxx_lib/src/i2c_11xx.c **** 	return (addr1 & ~mask) == (addr2 & ~mask);
 444              		.loc 1 150 0
 445 0072 1C43     		orr	r4, r3	@ tmp192, D.6741
 151:../../lpc11cx4-library/lpc_chip_11cxx_lib/src/i2c_11xx.c **** }
ARM GAS  /tmp/ccnl65aq.s 			page 16


 446              		.loc 1 151 0
 447 0074 0B1C     		mov	r3, r1	@ tmp197, D.6740
 448              	.LVL27:
 449 0076 5340     		eor	r3, r2	@ tmp197, D.6741
 450 0078 E4B2     		uxtb	r4, r4	@ D.6742, tmp192
 451 007a DBB2     		uxtb	r3, r3	@ D.6742, tmp197
 452 007c A343     		bic	r3, r4	@ D.6742, D.6742
 453              	.LBE77:
 454              	.LBE76:
 174:../../lpc11cx4-library/lpc_chip_11cxx_lib/src/i2c_11xx.c **** }
 455              		.loc 1 174 0
 456 007e 5842     		neg	r0, r3	@ tmp203, D.6742
 457 0080 4341     		adc	r3, r3, r0	@ tmp202, D.6742, tmp203
 458              	.LVL28:
 459 0082 9B00     		lsl	r3, r3, #2	@ D.6739, tmp202,
 460 0084 00E0     		b	.L58	@
 461              	.LVL29:
 462              	.L61:
 463              	.LBE67:
 464              	.LBE66:
 465              	.LBE65:
 466              	.LBE64:
 260:../../lpc11cx4-library/lpc_chip_11cxx_lib/src/i2c_11xx.c **** }
 467              		.loc 1 260 0
 468 0086 0023     		mov	r3, #0	@ D.6739,
 469              	.LVL30:
 470              	.L58:
 261:../../lpc11cx4-library/lpc_chip_11cxx_lib/src/i2c_11xx.c **** 
 471              		.loc 1 261 0
 472 0088 181C     		mov	r0, r3	@, D.6739
 473              		@ sp needed	@
 474 008a 30BD     		pop	{r4, r5, pc}
 475              		.cfi_endproc
 476              	.LFE210:
 477              		.size	getSlaveIndex, .-getSlaveIndex
 478              		.section	.text.handleSlaveXferState,"ax",%progbits
 479              		.align	1
 480              		.global	handleSlaveXferState
 481              		.code	16
 482              		.thumb_func
 483              		.type	handleSlaveXferState, %function
 484              	handleSlaveXferState:
 485              	.LFB211:
 265:../../lpc11cx4-library/lpc_chip_11cxx_lib/src/i2c_11xx.c **** 	uint32_t cclr = I2C_CON_FLAGS;
 486              		.loc 1 265 0
 487              		.cfi_startproc
 488              	.LVL31:
 269:../../lpc11cx4-library/lpc_chip_11cxx_lib/src/i2c_11xx.c **** 	switch (getCurState(pI2C)) {
 489              		.loc 1 269 0
 490 0000 0423     		mov	r3, #4	@ tmp140,
 491              	.LBB78:
 492              	.LBB79:
 124:../../lpc11cx4-library/lpc_chip_11cxx_lib/src/i2c_11xx.c **** }
 493              		.loc 1 124 0
 494 0002 4268     		ldr	r2, [r0, #4]	@ D.6752, pI2C_8(D)->STAT
 495              	.LBE79:
 496              	.LBE78:
ARM GAS  /tmp/ccnl65aq.s 			page 17


 269:../../lpc11cx4-library/lpc_chip_11cxx_lib/src/i2c_11xx.c **** 	switch (getCurState(pI2C)) {
 497              		.loc 1 269 0
 498 0004 0B75     		strb	r3, [r1, #20]	@ tmp140, xfer_6(D)->status
 499              	.LVL32:
 500              	.LBB81:
 501              	.LBB80:
 124:../../lpc11cx4-library/lpc_chip_11cxx_lib/src/i2c_11xx.c **** }
 502              		.loc 1 124 0
 503 0006 F433     		add	r3, r3, #244	@ tmp143,
 504 0008 1340     		and	r3, r2	@ D.6754, D.6752
 505              	.LBE80:
 506              	.LBE81:
 270:../../lpc11cx4-library/lpc_chip_11cxx_lib/src/i2c_11xx.c **** 	case 0x80:		/* SLA: Data received + ACK sent */
 507              		.loc 1 270 0
 508 000a 902B     		cmp	r3, #144	@ D.6754,
 509 000c 20D0     		beq	.L91	@,
 510 000e 0EDC     		bgt	.L92	@,
 511 0010 702B     		cmp	r3, #112	@ D.6754,
 512 0012 29D0     		beq	.L93	@,
 513 0014 04DC     		bgt	.L94	@,
 514 0016 602B     		cmp	r3, #96	@ D.6754,
 515 0018 26D0     		beq	.L93	@,
 516 001a 682B     		cmp	r3, #104	@ D.6754,
 517 001c 24D0     		beq	.L93	@,
 518 001e 44E0     		b	.L101	@
 519              	.L94:
 520 0020 802B     		cmp	r3, #128	@ D.6754,
 521 0022 15D0     		beq	.L91	@,
 522 0024 882B     		cmp	r3, #136	@ D.6754,
 523 0026 38D0     		beq	.L95	@,
 524 0028 782B     		cmp	r3, #120	@ D.6754,
 525 002a 3ED1     		bne	.L101	@,
 526 002c 1CE0     		b	.L93	@
 527              	.L92:
 528 002e B02B     		cmp	r3, #176	@ D.6754,
 529 0030 23D0     		beq	.L96	@,
 530 0032 06DC     		bgt	.L97	@,
 531 0034 A02B     		cmp	r3, #160	@ D.6754,
 532 0036 30D0     		beq	.L95	@,
 533 0038 A82B     		cmp	r3, #168	@ D.6754,
 534 003a 1ED0     		beq	.L96	@,
 535 003c 982B     		cmp	r3, #152	@ D.6754,
 536 003e 34D1     		bne	.L101	@,
 537 0040 2BE0     		b	.L95	@
 538              	.L97:
 539 0042 C02B     		cmp	r3, #192	@ D.6754,
 540 0044 29D0     		beq	.L95	@,
 541 0046 C82B     		cmp	r3, #200	@ D.6754,
 542 0048 27D0     		beq	.L95	@,
 543 004a B82B     		cmp	r3, #184	@ D.6754,
 544 004c 19D0     		beq	.L98	@,
 545 004e 2CE0     		b	.L101	@
 546              	.L91:
 273:../../lpc11cx4-library/lpc_chip_11cxx_lib/src/i2c_11xx.c **** 		xfer->rxSz--;
 547              		.loc 1 273 0
 548 0050 CB68     		ldr	r3, [r1, #12]	@ D.6751, xfer_6(D)->rxBuff
 549 0052 5A1C     		add	r2, r3, #1	@ D.6751, D.6751,
ARM GAS  /tmp/ccnl65aq.s 			page 18


 550 0054 CA60     		str	r2, [r1, #12]	@ D.6751, xfer_6(D)->rxBuff
 551 0056 8268     		ldr	r2, [r0, #8]	@ D.6752, pI2C_8(D)->DAT
 552 0058 1A70     		strb	r2, [r3]	@ D.6752, *_9
 274:../../lpc11cx4-library/lpc_chip_11cxx_lib/src/i2c_11xx.c **** 		ret = RET_SLAVE_RX;
 553              		.loc 1 274 0
 554 005a 0B69     		ldr	r3, [r1, #16]	@ tmp173, xfer_6(D)->rxSz
 275:../../lpc11cx4-library/lpc_chip_11cxx_lib/src/i2c_11xx.c **** 		if (xfer->rxSz > 1) {
 555              		.loc 1 275 0
 556 005c 0522     		mov	r2, #5	@ ret,
 274:../../lpc11cx4-library/lpc_chip_11cxx_lib/src/i2c_11xx.c **** 		ret = RET_SLAVE_RX;
 557              		.loc 1 274 0
 558 005e 013B     		sub	r3, r3, #1	@ D.6754,
 559 0060 0B61     		str	r3, [r1, #16]	@ D.6754, xfer_6(D)->rxSz
 560              	.LVL33:
 276:../../lpc11cx4-library/lpc_chip_11cxx_lib/src/i2c_11xx.c **** 			cclr &= ~I2C_CON_AA;
 561              		.loc 1 276 0
 562 0062 012B     		cmp	r3, #1	@ D.6754,
 563 0064 24DC     		bgt	.L103	@,
 564 0066 21E0     		b	.L102	@
 565              	.LVL34:
 566              	.L93:
 285:../../lpc11cx4-library/lpc_chip_11cxx_lib/src/i2c_11xx.c **** 		if (xfer->rxSz > 1) {
 567              		.loc 1 285 0
 568 0068 0122     		mov	r2, #1	@ tmp149,
 569 006a 8368     		ldr	r3, [r0, #8]	@ D.6752, pI2C_8(D)->DAT
 570 006c 9343     		bic	r3, r2	@ tmp148, tmp149
 571 006e 0B70     		strb	r3, [r1]	@ tmp148, xfer_6(D)->slaveAddr
 286:../../lpc11cx4-library/lpc_chip_11cxx_lib/src/i2c_11xx.c **** 			cclr &= ~I2C_CON_AA;
 572              		.loc 1 286 0
 573 0070 0B69     		ldr	r3, [r1, #16]	@ xfer_6(D)->rxSz, xfer_6(D)->rxSz
 574 0072 9342     		cmp	r3, r2	@ xfer_6(D)->rxSz,
 575 0074 19DD     		ble	.L101	@,
 267:../../lpc11cx4-library/lpc_chip_11cxx_lib/src/i2c_11xx.c **** 
 576              		.loc 1 267 0
 577 0076 0022     		mov	r2, #0	@ ret,
 578 0078 1AE0     		b	.L103	@
 579              	.L96:
 293:../../lpc11cx4-library/lpc_chip_11cxx_lib/src/i2c_11xx.c **** 
 580              		.loc 1 293 0
 581 007a 0122     		mov	r2, #1	@ tmp154,
 582 007c 8368     		ldr	r3, [r0, #8]	@ D.6752, pI2C_8(D)->DAT
 583 007e 9343     		bic	r3, r2	@ tmp153, tmp154
 584 0080 0B70     		strb	r3, [r1]	@ tmp153, xfer_6(D)->slaveAddr
 585              	.L98:
 296:../../lpc11cx4-library/lpc_chip_11cxx_lib/src/i2c_11xx.c **** 		xfer->txSz--;
 586              		.loc 1 296 0
 587 0082 4B68     		ldr	r3, [r1, #4]	@ D.6755, xfer_6(D)->txBuff
 588 0084 5A1C     		add	r2, r3, #1	@ D.6755, D.6755,
 589 0086 4A60     		str	r2, [r1, #4]	@ D.6755, xfer_6(D)->txBuff
 590 0088 1B78     		ldrb	r3, [r3]	@ D.6752, *_27
 301:../../lpc11cx4-library/lpc_chip_11cxx_lib/src/i2c_11xx.c **** 		break;
 591              		.loc 1 301 0
 592 008a 0622     		mov	r2, #6	@ ret,
 296:../../lpc11cx4-library/lpc_chip_11cxx_lib/src/i2c_11xx.c **** 		xfer->txSz--;
 593              		.loc 1 296 0
 594 008c 8360     		str	r3, [r0, #8]	@ D.6752, pI2C_8(D)->DAT
 297:../../lpc11cx4-library/lpc_chip_11cxx_lib/src/i2c_11xx.c **** 		if (xfer->txSz > 0) {
ARM GAS  /tmp/ccnl65aq.s 			page 19


 595              		.loc 1 297 0
 596 008e 8B68     		ldr	r3, [r1, #8]	@ tmp174, xfer_6(D)->txSz
 597 0090 013B     		sub	r3, r3, #1	@ D.6754,
 598 0092 8B60     		str	r3, [r1, #8]	@ D.6754, xfer_6(D)->txSz
 298:../../lpc11cx4-library/lpc_chip_11cxx_lib/src/i2c_11xx.c **** 			cclr &= ~I2C_CON_AA;
 599              		.loc 1 298 0
 600 0094 002B     		cmp	r3, #0	@ D.6754,
 601 0096 0BDC     		bgt	.L103	@,
 602 0098 08E0     		b	.L102	@
 603              	.L95:
 604              	.LVL35:
 311:../../lpc11cx4-library/lpc_chip_11cxx_lib/src/i2c_11xx.c **** 		if (xfer->slaveAddr & 1) {
 605              		.loc 1 311 0
 606 009a 0023     		mov	r3, #0	@ tmp158,
 607 009c 0B75     		strb	r3, [r1, #20]	@ tmp158, xfer_6(D)->status
 312:../../lpc11cx4-library/lpc_chip_11cxx_lib/src/i2c_11xx.c **** 			cclr &= ~I2C_CON_STA;
 608              		.loc 1 312 0
 609 009e 0B78     		ldrb	r3, [r1]	@ *xfer_6(D), *xfer_6(D)
 309:../../lpc11cx4-library/lpc_chip_11cxx_lib/src/i2c_11xx.c **** 		cclr &= ~I2C_CON_AA;
 610              		.loc 1 309 0
 611 00a0 0222     		mov	r2, #2	@ ret,
 312:../../lpc11cx4-library/lpc_chip_11cxx_lib/src/i2c_11xx.c **** 			cclr &= ~I2C_CON_STA;
 612              		.loc 1 312 0
 613 00a2 DB07     		lsl	r3, r3, #31	@ tmp172, *xfer_6(D),
 614 00a4 04D5     		bpl	.L103	@,
 313:../../lpc11cx4-library/lpc_chip_11cxx_lib/src/i2c_11xx.c **** 		}
 615              		.loc 1 313 0
 616 00a6 1823     		mov	r3, #24	@ cclr,
 617 00a8 03E0     		b	.L90	@
 618              	.LVL36:
 619              	.L101:
 267:../../lpc11cx4-library/lpc_chip_11cxx_lib/src/i2c_11xx.c **** 
 620              		.loc 1 267 0
 621 00aa 0022     		mov	r2, #0	@ ret,
 622              	.LVL37:
 623              	.L102:
 266:../../lpc11cx4-library/lpc_chip_11cxx_lib/src/i2c_11xx.c **** 	int ret = RET_SLAVE_BUSY;
 624              		.loc 1 266 0
 625 00ac 3C23     		mov	r3, #60	@ cclr,
 626 00ae 00E0     		b	.L90	@
 627              	.LVL38:
 628              	.L103:
 310:../../lpc11cx4-library/lpc_chip_11cxx_lib/src/i2c_11xx.c **** 		xfer->status = I2C_STATUS_DONE;
 629              		.loc 1 310 0
 630 00b0 3823     		mov	r3, #56	@ cclr,
 631              	.L90:
 632              	.LVL39:
 319:../../lpc11cx4-library/lpc_chip_11cxx_lib/src/i2c_11xx.c **** 	pI2C->CONCLR = cclr;
 633              		.loc 1 319 0
 634 00b2 3C21     		mov	r1, #60	@ tmp166,
 635              	.LVL40:
 636 00b4 5940     		eor	r1, r3	@ D.6752, cclr
 637 00b6 0160     		str	r1, [r0]	@ D.6752, pI2C_8(D)->CONSET
 323:../../lpc11cx4-library/lpc_chip_11cxx_lib/src/i2c_11xx.c **** 
 638              		.loc 1 323 0
 639              		@ sp needed	@
 320:../../lpc11cx4-library/lpc_chip_11cxx_lib/src/i2c_11xx.c **** 
ARM GAS  /tmp/ccnl65aq.s 			page 20


 640              		.loc 1 320 0
 641 00b8 8361     		str	r3, [r0, #24]	@ cclr, pI2C_8(D)->CONCLR
 323:../../lpc11cx4-library/lpc_chip_11cxx_lib/src/i2c_11xx.c **** 
 642              		.loc 1 323 0
 643 00ba 101C     		mov	r0, r2	@, ret
 644              	.LVL41:
 645 00bc 7047     		bx	lr
 646              		.cfi_endproc
 647              	.LFE211:
 648              		.size	handleSlaveXferState, .-handleSlaveXferState
 649              		.section	.text.Chip_I2C_Init,"ax",%progbits
 650              		.align	1
 651              		.global	Chip_I2C_Init
 652              		.code	16
 653              		.thumb_func
 654              		.type	Chip_I2C_Init, %function
 655              	Chip_I2C_Init:
 656              	.LFB214:
 346:../../lpc11cx4-library/lpc_chip_11cxx_lib/src/i2c_11xx.c **** 
 347:../../lpc11cx4-library/lpc_chip_11cxx_lib/src/i2c_11xx.c **** /* Chip polling event handler */
 348:../../lpc11cx4-library/lpc_chip_11cxx_lib/src/i2c_11xx.c **** void Chip_I2C_EventHandlerPolling(I2C_ID_T id, I2C_EVENT_T event)
 349:../../lpc11cx4-library/lpc_chip_11cxx_lib/src/i2c_11xx.c **** {
 350:../../lpc11cx4-library/lpc_chip_11cxx_lib/src/i2c_11xx.c **** 	struct i2c_interface *iic = &i2c;
 351:../../lpc11cx4-library/lpc_chip_11cxx_lib/src/i2c_11xx.c **** 	volatile I2C_STATUS_T *stat;
 352:../../lpc11cx4-library/lpc_chip_11cxx_lib/src/i2c_11xx.c **** 
 353:../../lpc11cx4-library/lpc_chip_11cxx_lib/src/i2c_11xx.c **** 	/* Only WAIT event needs to be handled */
 354:../../lpc11cx4-library/lpc_chip_11cxx_lib/src/i2c_11xx.c **** 	if (event != I2C_EVENT_WAIT) {
 355:../../lpc11cx4-library/lpc_chip_11cxx_lib/src/i2c_11xx.c **** 		return;
 356:../../lpc11cx4-library/lpc_chip_11cxx_lib/src/i2c_11xx.c **** 	}
 357:../../lpc11cx4-library/lpc_chip_11cxx_lib/src/i2c_11xx.c **** 
 358:../../lpc11cx4-library/lpc_chip_11cxx_lib/src/i2c_11xx.c **** 	stat = &iic->mXfer->status;
 359:../../lpc11cx4-library/lpc_chip_11cxx_lib/src/i2c_11xx.c **** 	/* Call the state change handler till xfer is done */
 360:../../lpc11cx4-library/lpc_chip_11cxx_lib/src/i2c_11xx.c **** 	while (*stat == I2C_STATUS_BUSY) {
 361:../../lpc11cx4-library/lpc_chip_11cxx_lib/src/i2c_11xx.c **** 		if (Chip_I2C_IsStateChanged(id)) {
 362:../../lpc11cx4-library/lpc_chip_11cxx_lib/src/i2c_11xx.c **** 			Chip_I2C_MasterStateHandler(id);
 363:../../lpc11cx4-library/lpc_chip_11cxx_lib/src/i2c_11xx.c **** 		}
 364:../../lpc11cx4-library/lpc_chip_11cxx_lib/src/i2c_11xx.c **** 	}
 365:../../lpc11cx4-library/lpc_chip_11cxx_lib/src/i2c_11xx.c **** }
 366:../../lpc11cx4-library/lpc_chip_11cxx_lib/src/i2c_11xx.c **** 
 367:../../lpc11cx4-library/lpc_chip_11cxx_lib/src/i2c_11xx.c **** /* Initializes the LPC_I2C peripheral with specified parameter */
 368:../../lpc11cx4-library/lpc_chip_11cxx_lib/src/i2c_11xx.c **** void Chip_I2C_Init(I2C_ID_T id)
 369:../../lpc11cx4-library/lpc_chip_11cxx_lib/src/i2c_11xx.c **** {
 657              		.loc 1 369 0
 658              		.cfi_startproc
 659              	.LVL42:
 370:../../lpc11cx4-library/lpc_chip_11cxx_lib/src/i2c_11xx.c **** 
 371:../../lpc11cx4-library/lpc_chip_11cxx_lib/src/i2c_11xx.c **** 	i2c.ip = LPC_I2C;
 372:../../lpc11cx4-library/lpc_chip_11cxx_lib/src/i2c_11xx.c **** 	i2c.clk = SYSCTL_CLOCK_I2C;
 660              		.loc 1 372 0
 661 0000 0522     		mov	r2, #5	@ tmp116,
 371:../../lpc11cx4-library/lpc_chip_11cxx_lib/src/i2c_11xx.c **** 	i2c.clk = SYSCTL_CLOCK_I2C;
 662              		.loc 1 371 0
 663 0002 0A4B     		ldr	r3, .L147	@ tmp113,
 664 0004 8021     		mov	r1, #128	@ tmp114,
 665              		.loc 1 372 0
 666 0006 1A71     		strb	r2, [r3, #4]	@ tmp116, i2c.clk
 373:../../lpc11cx4-library/lpc_chip_11cxx_lib/src/i2c_11xx.c **** 	i2c.mEvent = Chip_I2C_EventHandler;
ARM GAS  /tmp/ccnl65aq.s 			page 21


 667              		.loc 1 373 0
 668 0008 094A     		ldr	r2, .L147+4	@ tmp119,
 669              	.LBB86:
 670              	.LBB87:
 671              	.LBB88:
 672              		.file 2 "../../lpc11cx4-library/lpc_chip_11cxx_lib/inc/clock_11xx.h"
   1:../../lpc11cx4-library/lpc_chip_11cxx_lib/inc/clock_11xx.h **** /*
   2:../../lpc11cx4-library/lpc_chip_11cxx_lib/inc/clock_11xx.h ****  * @brief LPC11XX Clock control functions
   3:../../lpc11cx4-library/lpc_chip_11cxx_lib/inc/clock_11xx.h ****  *
   4:../../lpc11cx4-library/lpc_chip_11cxx_lib/inc/clock_11xx.h ****  * @note
   5:../../lpc11cx4-library/lpc_chip_11cxx_lib/inc/clock_11xx.h ****  * Copyright(C) NXP Semiconductors, 2012
   6:../../lpc11cx4-library/lpc_chip_11cxx_lib/inc/clock_11xx.h ****  * All rights reserved.
   7:../../lpc11cx4-library/lpc_chip_11cxx_lib/inc/clock_11xx.h ****  *
   8:../../lpc11cx4-library/lpc_chip_11cxx_lib/inc/clock_11xx.h ****  * @par
   9:../../lpc11cx4-library/lpc_chip_11cxx_lib/inc/clock_11xx.h ****  * Software that is described herein is for illustrative purposes only
  10:../../lpc11cx4-library/lpc_chip_11cxx_lib/inc/clock_11xx.h ****  * which provides customers with programming information regarding the
  11:../../lpc11cx4-library/lpc_chip_11cxx_lib/inc/clock_11xx.h ****  * LPC products.  This software is supplied "AS IS" without any warranties of
  12:../../lpc11cx4-library/lpc_chip_11cxx_lib/inc/clock_11xx.h ****  * any kind, and NXP Semiconductors and its licensor disclaim any and
  13:../../lpc11cx4-library/lpc_chip_11cxx_lib/inc/clock_11xx.h ****  * all warranties, express or implied, including all implied warranties of
  14:../../lpc11cx4-library/lpc_chip_11cxx_lib/inc/clock_11xx.h ****  * merchantability, fitness for a particular purpose and non-infringement of
  15:../../lpc11cx4-library/lpc_chip_11cxx_lib/inc/clock_11xx.h ****  * intellectual property rights.  NXP Semiconductors assumes no responsibility
  16:../../lpc11cx4-library/lpc_chip_11cxx_lib/inc/clock_11xx.h ****  * or liability for the use of the software, conveys no license or rights under any
  17:../../lpc11cx4-library/lpc_chip_11cxx_lib/inc/clock_11xx.h ****  * patent, copyright, mask work right, or any other intellectual property rights in
  18:../../lpc11cx4-library/lpc_chip_11cxx_lib/inc/clock_11xx.h ****  * or to any products. NXP Semiconductors reserves the right to make changes
  19:../../lpc11cx4-library/lpc_chip_11cxx_lib/inc/clock_11xx.h ****  * in the software without notification. NXP Semiconductors also makes no
  20:../../lpc11cx4-library/lpc_chip_11cxx_lib/inc/clock_11xx.h ****  * representation or warranty that such application will be suitable for the
  21:../../lpc11cx4-library/lpc_chip_11cxx_lib/inc/clock_11xx.h ****  * specified use without further testing or modification.
  22:../../lpc11cx4-library/lpc_chip_11cxx_lib/inc/clock_11xx.h ****  *
  23:../../lpc11cx4-library/lpc_chip_11cxx_lib/inc/clock_11xx.h ****  * @par
  24:../../lpc11cx4-library/lpc_chip_11cxx_lib/inc/clock_11xx.h ****  * Permission to use, copy, modify, and distribute this software and its
  25:../../lpc11cx4-library/lpc_chip_11cxx_lib/inc/clock_11xx.h ****  * documentation is hereby granted, under NXP Semiconductors' and its
  26:../../lpc11cx4-library/lpc_chip_11cxx_lib/inc/clock_11xx.h ****  * licensor's relevant copyrights in the software, without fee, provided that it
  27:../../lpc11cx4-library/lpc_chip_11cxx_lib/inc/clock_11xx.h ****  * is used in conjunction with NXP Semiconductors microcontrollers.  This
  28:../../lpc11cx4-library/lpc_chip_11cxx_lib/inc/clock_11xx.h ****  * copyright, permission, and disclaimer notice must appear in all copies of
  29:../../lpc11cx4-library/lpc_chip_11cxx_lib/inc/clock_11xx.h ****  * this code.
  30:../../lpc11cx4-library/lpc_chip_11cxx_lib/inc/clock_11xx.h ****  */
  31:../../lpc11cx4-library/lpc_chip_11cxx_lib/inc/clock_11xx.h **** 
  32:../../lpc11cx4-library/lpc_chip_11cxx_lib/inc/clock_11xx.h **** #ifndef __CLOCK_11XX_H_
  33:../../lpc11cx4-library/lpc_chip_11cxx_lib/inc/clock_11xx.h **** #define __CLOCK_11XX_H_
  34:../../lpc11cx4-library/lpc_chip_11cxx_lib/inc/clock_11xx.h **** 
  35:../../lpc11cx4-library/lpc_chip_11cxx_lib/inc/clock_11xx.h **** #ifdef __cplusplus
  36:../../lpc11cx4-library/lpc_chip_11cxx_lib/inc/clock_11xx.h **** extern "C" {
  37:../../lpc11cx4-library/lpc_chip_11cxx_lib/inc/clock_11xx.h **** #endif
  38:../../lpc11cx4-library/lpc_chip_11cxx_lib/inc/clock_11xx.h **** 
  39:../../lpc11cx4-library/lpc_chip_11cxx_lib/inc/clock_11xx.h **** /** @defgroup CLOCK_11XX CHIP: LPC11xx Clock Control block driver
  40:../../lpc11cx4-library/lpc_chip_11cxx_lib/inc/clock_11xx.h ****  * @ingroup CHIP_11XX_Drivers
  41:../../lpc11cx4-library/lpc_chip_11cxx_lib/inc/clock_11xx.h ****  * @{
  42:../../lpc11cx4-library/lpc_chip_11cxx_lib/inc/clock_11xx.h ****  */
  43:../../lpc11cx4-library/lpc_chip_11cxx_lib/inc/clock_11xx.h **** 
  44:../../lpc11cx4-library/lpc_chip_11cxx_lib/inc/clock_11xx.h **** /** Internal oscillator frequency */
  45:../../lpc11cx4-library/lpc_chip_11cxx_lib/inc/clock_11xx.h **** #define SYSCTL_IRC_FREQ (12000000)
  46:../../lpc11cx4-library/lpc_chip_11cxx_lib/inc/clock_11xx.h **** 
  47:../../lpc11cx4-library/lpc_chip_11cxx_lib/inc/clock_11xx.h **** /**
  48:../../lpc11cx4-library/lpc_chip_11cxx_lib/inc/clock_11xx.h ****  * @brief	Set System PLL divider values
  49:../../lpc11cx4-library/lpc_chip_11cxx_lib/inc/clock_11xx.h ****  * @param	msel    : PLL feedback divider value. M = msel + 1.
  50:../../lpc11cx4-library/lpc_chip_11cxx_lib/inc/clock_11xx.h ****  * @param	psel    : PLL post divider value. P =  (1<<psel).
  51:../../lpc11cx4-library/lpc_chip_11cxx_lib/inc/clock_11xx.h ****  * @return	Nothing
ARM GAS  /tmp/ccnl65aq.s 			page 22


  52:../../lpc11cx4-library/lpc_chip_11cxx_lib/inc/clock_11xx.h ****  * @note	See the user manual for how to setup the PLL.
  53:../../lpc11cx4-library/lpc_chip_11cxx_lib/inc/clock_11xx.h ****  */
  54:../../lpc11cx4-library/lpc_chip_11cxx_lib/inc/clock_11xx.h **** STATIC INLINE void Chip_Clock_SetupSystemPLL(uint8_t msel, uint8_t psel)
  55:../../lpc11cx4-library/lpc_chip_11cxx_lib/inc/clock_11xx.h **** {
  56:../../lpc11cx4-library/lpc_chip_11cxx_lib/inc/clock_11xx.h **** 	LPC_SYSCTL->SYSPLLCTRL = (msel & 0x1F) | ((psel & 0x3) << 5);
  57:../../lpc11cx4-library/lpc_chip_11cxx_lib/inc/clock_11xx.h **** }
  58:../../lpc11cx4-library/lpc_chip_11cxx_lib/inc/clock_11xx.h **** 
  59:../../lpc11cx4-library/lpc_chip_11cxx_lib/inc/clock_11xx.h **** /**
  60:../../lpc11cx4-library/lpc_chip_11cxx_lib/inc/clock_11xx.h ****  * @brief	Read System PLL lock status
  61:../../lpc11cx4-library/lpc_chip_11cxx_lib/inc/clock_11xx.h ****  * @return	true of the PLL is locked. false if not locked
  62:../../lpc11cx4-library/lpc_chip_11cxx_lib/inc/clock_11xx.h ****  */
  63:../../lpc11cx4-library/lpc_chip_11cxx_lib/inc/clock_11xx.h **** STATIC INLINE bool Chip_Clock_IsSystemPLLLocked(void)
  64:../../lpc11cx4-library/lpc_chip_11cxx_lib/inc/clock_11xx.h **** {
  65:../../lpc11cx4-library/lpc_chip_11cxx_lib/inc/clock_11xx.h **** 	return (bool) ((LPC_SYSCTL->SYSPLLSTAT & 1) != 0);
  66:../../lpc11cx4-library/lpc_chip_11cxx_lib/inc/clock_11xx.h **** }
  67:../../lpc11cx4-library/lpc_chip_11cxx_lib/inc/clock_11xx.h **** 
  68:../../lpc11cx4-library/lpc_chip_11cxx_lib/inc/clock_11xx.h **** /**
  69:../../lpc11cx4-library/lpc_chip_11cxx_lib/inc/clock_11xx.h ****  * Clock sources for system and USB PLLs
  70:../../lpc11cx4-library/lpc_chip_11cxx_lib/inc/clock_11xx.h ****  */
  71:../../lpc11cx4-library/lpc_chip_11cxx_lib/inc/clock_11xx.h **** typedef enum CHIP_SYSCTL_PLLCLKSRC {
  72:../../lpc11cx4-library/lpc_chip_11cxx_lib/inc/clock_11xx.h **** 	SYSCTL_PLLCLKSRC_IRC = 0,		/*!< Internal oscillator in */
  73:../../lpc11cx4-library/lpc_chip_11cxx_lib/inc/clock_11xx.h **** 	SYSCTL_PLLCLKSRC_MAINOSC,		/*!< Crystal (main) oscillator in */
  74:../../lpc11cx4-library/lpc_chip_11cxx_lib/inc/clock_11xx.h **** #if defined(CHIP_LPC11AXX)
  75:../../lpc11cx4-library/lpc_chip_11cxx_lib/inc/clock_11xx.h **** 	SYSCTL_PLLCLKSRC_EXT_CLKIN,	/*!< External clock in (11Axx only) */
  76:../../lpc11cx4-library/lpc_chip_11cxx_lib/inc/clock_11xx.h **** #else
  77:../../lpc11cx4-library/lpc_chip_11cxx_lib/inc/clock_11xx.h **** 	SYSCTL_PLLCLKSRC_RESERVED1,	/*!< Reserved */
  78:../../lpc11cx4-library/lpc_chip_11cxx_lib/inc/clock_11xx.h **** #endif
  79:../../lpc11cx4-library/lpc_chip_11cxx_lib/inc/clock_11xx.h **** 	SYSCTL_PLLCLKSRC_RESERVED2,	/*!< Reserved */
  80:../../lpc11cx4-library/lpc_chip_11cxx_lib/inc/clock_11xx.h **** } CHIP_SYSCTL_PLLCLKSRC_T;
  81:../../lpc11cx4-library/lpc_chip_11cxx_lib/inc/clock_11xx.h **** 
  82:../../lpc11cx4-library/lpc_chip_11cxx_lib/inc/clock_11xx.h **** /**
  83:../../lpc11cx4-library/lpc_chip_11cxx_lib/inc/clock_11xx.h ****  * @brief	Set System PLL clock source
  84:../../lpc11cx4-library/lpc_chip_11cxx_lib/inc/clock_11xx.h ****  * @param	src	: Clock source for system PLL
  85:../../lpc11cx4-library/lpc_chip_11cxx_lib/inc/clock_11xx.h ****  * @return	Nothing
  86:../../lpc11cx4-library/lpc_chip_11cxx_lib/inc/clock_11xx.h ****  * @note	This function will also toggle the clock source update register
  87:../../lpc11cx4-library/lpc_chip_11cxx_lib/inc/clock_11xx.h ****  * to update the clock source.
  88:../../lpc11cx4-library/lpc_chip_11cxx_lib/inc/clock_11xx.h ****  */
  89:../../lpc11cx4-library/lpc_chip_11cxx_lib/inc/clock_11xx.h **** void Chip_Clock_SetSystemPLLSource(CHIP_SYSCTL_PLLCLKSRC_T src);
  90:../../lpc11cx4-library/lpc_chip_11cxx_lib/inc/clock_11xx.h **** 
  91:../../lpc11cx4-library/lpc_chip_11cxx_lib/inc/clock_11xx.h **** #if defined(CHIP_LPC11UXX)
  92:../../lpc11cx4-library/lpc_chip_11cxx_lib/inc/clock_11xx.h **** /**
  93:../../lpc11cx4-library/lpc_chip_11cxx_lib/inc/clock_11xx.h ****  * @brief	Set USB PLL divider values
  94:../../lpc11cx4-library/lpc_chip_11cxx_lib/inc/clock_11xx.h ****  * @param	msel    : PLL feedback divider value. M = msel + 1.
  95:../../lpc11cx4-library/lpc_chip_11cxx_lib/inc/clock_11xx.h ****  * @param	psel    : PLL post divider value. P = (1<<psel).
  96:../../lpc11cx4-library/lpc_chip_11cxx_lib/inc/clock_11xx.h ****  * @return	Nothing
  97:../../lpc11cx4-library/lpc_chip_11cxx_lib/inc/clock_11xx.h ****  * @note	See the user manual for how to setup the PLL.
  98:../../lpc11cx4-library/lpc_chip_11cxx_lib/inc/clock_11xx.h ****  */
  99:../../lpc11cx4-library/lpc_chip_11cxx_lib/inc/clock_11xx.h **** STATIC INLINE void Chip_Clock_SetupUSBPLL(uint8_t msel, uint8_t psel)
 100:../../lpc11cx4-library/lpc_chip_11cxx_lib/inc/clock_11xx.h **** {
 101:../../lpc11cx4-library/lpc_chip_11cxx_lib/inc/clock_11xx.h **** 	LPC_SYSCTL->USBPLLCTRL = (msel & 0x1F) | ((psel & 0x3) << 5);
 102:../../lpc11cx4-library/lpc_chip_11cxx_lib/inc/clock_11xx.h **** }
 103:../../lpc11cx4-library/lpc_chip_11cxx_lib/inc/clock_11xx.h **** 
 104:../../lpc11cx4-library/lpc_chip_11cxx_lib/inc/clock_11xx.h **** /**
 105:../../lpc11cx4-library/lpc_chip_11cxx_lib/inc/clock_11xx.h ****  * @brief	Read USB PLL lock status
 106:../../lpc11cx4-library/lpc_chip_11cxx_lib/inc/clock_11xx.h ****  * @return	true of the PLL is locked. false if not locked
 107:../../lpc11cx4-library/lpc_chip_11cxx_lib/inc/clock_11xx.h ****  */
 108:../../lpc11cx4-library/lpc_chip_11cxx_lib/inc/clock_11xx.h **** STATIC INLINE bool Chip_Clock_IsUSBPLLLocked(void)
ARM GAS  /tmp/ccnl65aq.s 			page 23


 109:../../lpc11cx4-library/lpc_chip_11cxx_lib/inc/clock_11xx.h **** {
 110:../../lpc11cx4-library/lpc_chip_11cxx_lib/inc/clock_11xx.h **** 	return (bool) ((LPC_SYSCTL->USBPLLSTAT & 1) != 0);
 111:../../lpc11cx4-library/lpc_chip_11cxx_lib/inc/clock_11xx.h **** }
 112:../../lpc11cx4-library/lpc_chip_11cxx_lib/inc/clock_11xx.h **** 
 113:../../lpc11cx4-library/lpc_chip_11cxx_lib/inc/clock_11xx.h **** /**
 114:../../lpc11cx4-library/lpc_chip_11cxx_lib/inc/clock_11xx.h ****  * @brief	Set USB PLL clock source
 115:../../lpc11cx4-library/lpc_chip_11cxx_lib/inc/clock_11xx.h ****  * @param	src	: Clock source for USB PLL
 116:../../lpc11cx4-library/lpc_chip_11cxx_lib/inc/clock_11xx.h ****  * @return	Nothing
 117:../../lpc11cx4-library/lpc_chip_11cxx_lib/inc/clock_11xx.h ****  * @note	This function will also toggle the clock source update register
 118:../../lpc11cx4-library/lpc_chip_11cxx_lib/inc/clock_11xx.h ****  * to update the clock source.
 119:../../lpc11cx4-library/lpc_chip_11cxx_lib/inc/clock_11xx.h ****  */
 120:../../lpc11cx4-library/lpc_chip_11cxx_lib/inc/clock_11xx.h **** void Chip_Clock_SetUSBPLLSource(CHIP_SYSCTL_PLLCLKSRC_T src);
 121:../../lpc11cx4-library/lpc_chip_11cxx_lib/inc/clock_11xx.h **** 
 122:../../lpc11cx4-library/lpc_chip_11cxx_lib/inc/clock_11xx.h **** #endif /*defined(CHIP_LPC11UXX)*/
 123:../../lpc11cx4-library/lpc_chip_11cxx_lib/inc/clock_11xx.h **** 
 124:../../lpc11cx4-library/lpc_chip_11cxx_lib/inc/clock_11xx.h **** /**
 125:../../lpc11cx4-library/lpc_chip_11cxx_lib/inc/clock_11xx.h ****  * @brief	Bypass System Oscillator and set oscillator frequency range
 126:../../lpc11cx4-library/lpc_chip_11cxx_lib/inc/clock_11xx.h ****  * @param	bypass	: Flag to bypass oscillator
 127:../../lpc11cx4-library/lpc_chip_11cxx_lib/inc/clock_11xx.h ****  * @param	highfr	: Flag to set oscillator range from 15-25 MHz
 128:../../lpc11cx4-library/lpc_chip_11cxx_lib/inc/clock_11xx.h ****  * @return	Nothing
 129:../../lpc11cx4-library/lpc_chip_11cxx_lib/inc/clock_11xx.h ****  * @note	Sets the PLL input to bypass the oscillator. This would be
 130:../../lpc11cx4-library/lpc_chip_11cxx_lib/inc/clock_11xx.h ****  * used if an external clock that is not an oscillator is attached
 131:../../lpc11cx4-library/lpc_chip_11cxx_lib/inc/clock_11xx.h ****  * to the XTALIN pin.
 132:../../lpc11cx4-library/lpc_chip_11cxx_lib/inc/clock_11xx.h ****  */
 133:../../lpc11cx4-library/lpc_chip_11cxx_lib/inc/clock_11xx.h **** void Chip_Clock_SetPLLBypass(bool bypass, bool highfr);
 134:../../lpc11cx4-library/lpc_chip_11cxx_lib/inc/clock_11xx.h **** 
 135:../../lpc11cx4-library/lpc_chip_11cxx_lib/inc/clock_11xx.h **** /**
 136:../../lpc11cx4-library/lpc_chip_11cxx_lib/inc/clock_11xx.h ****  * Watchdog and low frequency oscillator frequencies plus or minus 40%
 137:../../lpc11cx4-library/lpc_chip_11cxx_lib/inc/clock_11xx.h ****  */
 138:../../lpc11cx4-library/lpc_chip_11cxx_lib/inc/clock_11xx.h **** typedef enum CHIP_WDTLFO_OSC {
 139:../../lpc11cx4-library/lpc_chip_11cxx_lib/inc/clock_11xx.h **** 	WDTLFO_OSC_ILLEGAL,
 140:../../lpc11cx4-library/lpc_chip_11cxx_lib/inc/clock_11xx.h **** 	WDTLFO_OSC_0_60,	/*!< 0.6 MHz watchdog/LFO rate */
 141:../../lpc11cx4-library/lpc_chip_11cxx_lib/inc/clock_11xx.h **** 	WDTLFO_OSC_1_05,	/*!< 1.05 MHz watchdog/LFO rate */
 142:../../lpc11cx4-library/lpc_chip_11cxx_lib/inc/clock_11xx.h **** 	WDTLFO_OSC_1_40,	/*!< 1.4 MHz watchdog/LFO rate */
 143:../../lpc11cx4-library/lpc_chip_11cxx_lib/inc/clock_11xx.h **** 	WDTLFO_OSC_1_75,	/*!< 1.75 MHz watchdog/LFO rate */
 144:../../lpc11cx4-library/lpc_chip_11cxx_lib/inc/clock_11xx.h **** 	WDTLFO_OSC_2_10,	/*!< 2.1 MHz watchdog/LFO rate */
 145:../../lpc11cx4-library/lpc_chip_11cxx_lib/inc/clock_11xx.h **** 	WDTLFO_OSC_2_40,	/*!< 2.4 MHz watchdog/LFO rate */
 146:../../lpc11cx4-library/lpc_chip_11cxx_lib/inc/clock_11xx.h **** 	WDTLFO_OSC_2_70,	/*!< 2.7 MHz watchdog/LFO rate */
 147:../../lpc11cx4-library/lpc_chip_11cxx_lib/inc/clock_11xx.h **** 	WDTLFO_OSC_3_00,	/*!< 3.0 MHz watchdog/LFO rate */
 148:../../lpc11cx4-library/lpc_chip_11cxx_lib/inc/clock_11xx.h **** 	WDTLFO_OSC_3_25,	/*!< 3.25 MHz watchdog/LFO rate */
 149:../../lpc11cx4-library/lpc_chip_11cxx_lib/inc/clock_11xx.h **** 	WDTLFO_OSC_3_50,	/*!< 3.5 MHz watchdog/LFO rate */
 150:../../lpc11cx4-library/lpc_chip_11cxx_lib/inc/clock_11xx.h **** 	WDTLFO_OSC_3_75,	/*!< 3.75 MHz watchdog/LFO rate */
 151:../../lpc11cx4-library/lpc_chip_11cxx_lib/inc/clock_11xx.h **** 	WDTLFO_OSC_4_00,	/*!< 4.0 MHz watchdog/LFO rate */
 152:../../lpc11cx4-library/lpc_chip_11cxx_lib/inc/clock_11xx.h **** 	WDTLFO_OSC_4_20,	/*!< 4.2 MHz watchdog/LFO rate */
 153:../../lpc11cx4-library/lpc_chip_11cxx_lib/inc/clock_11xx.h **** 	WDTLFO_OSC_4_40,	/*!< 4.4 MHz watchdog/LFO rate */
 154:../../lpc11cx4-library/lpc_chip_11cxx_lib/inc/clock_11xx.h **** 	WDTLFO_OSC_4_60		/*!< 4.6 MHz watchdog/LFO rate */
 155:../../lpc11cx4-library/lpc_chip_11cxx_lib/inc/clock_11xx.h **** } CHIP_WDTLFO_OSC_T;
 156:../../lpc11cx4-library/lpc_chip_11cxx_lib/inc/clock_11xx.h **** 
 157:../../lpc11cx4-library/lpc_chip_11cxx_lib/inc/clock_11xx.h **** /**
 158:../../lpc11cx4-library/lpc_chip_11cxx_lib/inc/clock_11xx.h ****  * @brief	Setup Watchdog oscillator rate and divider
 159:../../lpc11cx4-library/lpc_chip_11cxx_lib/inc/clock_11xx.h ****  * @param	wdtclk	: Selected watchdog clock rate
 160:../../lpc11cx4-library/lpc_chip_11cxx_lib/inc/clock_11xx.h ****  * @param	div		: Watchdog divider value, even value between 2 and 64
 161:../../lpc11cx4-library/lpc_chip_11cxx_lib/inc/clock_11xx.h ****  * @return	Nothing
 162:../../lpc11cx4-library/lpc_chip_11cxx_lib/inc/clock_11xx.h ****  * @note	Watchdog rate = selected rate divided by divider rate
 163:../../lpc11cx4-library/lpc_chip_11cxx_lib/inc/clock_11xx.h ****  */
 164:../../lpc11cx4-library/lpc_chip_11cxx_lib/inc/clock_11xx.h **** STATIC INLINE void Chip_Clock_SetWDTOSC(CHIP_WDTLFO_OSC_T wdtclk, uint8_t div)
 165:../../lpc11cx4-library/lpc_chip_11cxx_lib/inc/clock_11xx.h **** {
ARM GAS  /tmp/ccnl65aq.s 			page 24


 166:../../lpc11cx4-library/lpc_chip_11cxx_lib/inc/clock_11xx.h **** 	LPC_SYSCTL->WDTOSCCTRL  = (((uint32_t) wdtclk) << 5) | ((div >> 1) - 1);
 167:../../lpc11cx4-library/lpc_chip_11cxx_lib/inc/clock_11xx.h **** }
 168:../../lpc11cx4-library/lpc_chip_11cxx_lib/inc/clock_11xx.h **** 
 169:../../lpc11cx4-library/lpc_chip_11cxx_lib/inc/clock_11xx.h **** #if defined(CHIP_LPC11AXX)
 170:../../lpc11cx4-library/lpc_chip_11cxx_lib/inc/clock_11xx.h **** /**
 171:../../lpc11cx4-library/lpc_chip_11cxx_lib/inc/clock_11xx.h ****  * @brief	Setup low frequency oscillator rate and divider
 172:../../lpc11cx4-library/lpc_chip_11cxx_lib/inc/clock_11xx.h ****  * @param	lfoclk	: Selected low frequency clock rate
 173:../../lpc11cx4-library/lpc_chip_11cxx_lib/inc/clock_11xx.h ****  * @param	div		: Low frequency divider value, even value between 2 and 64
 174:../../lpc11cx4-library/lpc_chip_11cxx_lib/inc/clock_11xx.h ****  * @return	Nothing
 175:../../lpc11cx4-library/lpc_chip_11cxx_lib/inc/clock_11xx.h ****  * @note	Low frequency oscillator rate = selected rate divided by divider rate
 176:../../lpc11cx4-library/lpc_chip_11cxx_lib/inc/clock_11xx.h ****  */
 177:../../lpc11cx4-library/lpc_chip_11cxx_lib/inc/clock_11xx.h **** STATIC INLINE void Chip_Clock_SetLFOSC(CHIP_WDTLFO_OSC_T lfoclk, uint8_t div)
 178:../../lpc11cx4-library/lpc_chip_11cxx_lib/inc/clock_11xx.h **** {
 179:../../lpc11cx4-library/lpc_chip_11cxx_lib/inc/clock_11xx.h **** 	LPC_SYSCTL->LFOSCCTRL  = (((uint32_t) lfoclk) << 5) | ((div >> 1) - 1);
 180:../../lpc11cx4-library/lpc_chip_11cxx_lib/inc/clock_11xx.h **** }
 181:../../lpc11cx4-library/lpc_chip_11cxx_lib/inc/clock_11xx.h **** 
 182:../../lpc11cx4-library/lpc_chip_11cxx_lib/inc/clock_11xx.h **** #endif /*CHIP_LPC11AXX*/
 183:../../lpc11cx4-library/lpc_chip_11cxx_lib/inc/clock_11xx.h **** 
 184:../../lpc11cx4-library/lpc_chip_11cxx_lib/inc/clock_11xx.h **** /**
 185:../../lpc11cx4-library/lpc_chip_11cxx_lib/inc/clock_11xx.h ****  * Clock sources for main system clock
 186:../../lpc11cx4-library/lpc_chip_11cxx_lib/inc/clock_11xx.h ****  */
 187:../../lpc11cx4-library/lpc_chip_11cxx_lib/inc/clock_11xx.h **** typedef enum CHIP_SYSCTL_MAINCLKSRC {
 188:../../lpc11cx4-library/lpc_chip_11cxx_lib/inc/clock_11xx.h **** 	SYSCTL_MAINCLKSRC_IRC = 0,		/*!< Internal oscillator */
 189:../../lpc11cx4-library/lpc_chip_11cxx_lib/inc/clock_11xx.h **** 	SYSCTL_MAINCLKSRC_PLLIN,		/*!< System PLL input */
 190:../../lpc11cx4-library/lpc_chip_11cxx_lib/inc/clock_11xx.h **** 	SYSCTL_MAINCLKSRC_LFOSC,		/*!< LF oscillator rate (11Axx only) */
 191:../../lpc11cx4-library/lpc_chip_11cxx_lib/inc/clock_11xx.h **** 	SYSCTL_MAINCLKSRC_WDTOSC = SYSCTL_MAINCLKSRC_LFOSC,	/*!< Watchdog oscillator rate */
 192:../../lpc11cx4-library/lpc_chip_11cxx_lib/inc/clock_11xx.h **** 	SYSCTL_MAINCLKSRC_PLLOUT,		/*!< System PLL output */
 193:../../lpc11cx4-library/lpc_chip_11cxx_lib/inc/clock_11xx.h **** } CHIP_SYSCTL_MAINCLKSRC_T;
 194:../../lpc11cx4-library/lpc_chip_11cxx_lib/inc/clock_11xx.h **** 
 195:../../lpc11cx4-library/lpc_chip_11cxx_lib/inc/clock_11xx.h **** /**
 196:../../lpc11cx4-library/lpc_chip_11cxx_lib/inc/clock_11xx.h ****  * @brief	Set main system clock source
 197:../../lpc11cx4-library/lpc_chip_11cxx_lib/inc/clock_11xx.h ****  * @param	src	: Clock source for main system
 198:../../lpc11cx4-library/lpc_chip_11cxx_lib/inc/clock_11xx.h ****  * @return	Nothing
 199:../../lpc11cx4-library/lpc_chip_11cxx_lib/inc/clock_11xx.h ****  * @note	This function will also toggle the clock source update register
 200:../../lpc11cx4-library/lpc_chip_11cxx_lib/inc/clock_11xx.h ****  * to update the clock source.
 201:../../lpc11cx4-library/lpc_chip_11cxx_lib/inc/clock_11xx.h ****  */
 202:../../lpc11cx4-library/lpc_chip_11cxx_lib/inc/clock_11xx.h **** void Chip_Clock_SetMainClockSource(CHIP_SYSCTL_MAINCLKSRC_T src);
 203:../../lpc11cx4-library/lpc_chip_11cxx_lib/inc/clock_11xx.h **** 
 204:../../lpc11cx4-library/lpc_chip_11cxx_lib/inc/clock_11xx.h **** /**
 205:../../lpc11cx4-library/lpc_chip_11cxx_lib/inc/clock_11xx.h ****  * @brief   Returns the main clock source
 206:../../lpc11cx4-library/lpc_chip_11cxx_lib/inc/clock_11xx.h ****  * @return	Which clock is used for the core clock source?
 207:../../lpc11cx4-library/lpc_chip_11cxx_lib/inc/clock_11xx.h ****  */
 208:../../lpc11cx4-library/lpc_chip_11cxx_lib/inc/clock_11xx.h **** STATIC INLINE CHIP_SYSCTL_MAINCLKSRC_T Chip_Clock_GetMainClockSource(void)
 209:../../lpc11cx4-library/lpc_chip_11cxx_lib/inc/clock_11xx.h **** {
 210:../../lpc11cx4-library/lpc_chip_11cxx_lib/inc/clock_11xx.h **** 	return (CHIP_SYSCTL_MAINCLKSRC_T) (LPC_SYSCTL->MAINCLKSEL);
 211:../../lpc11cx4-library/lpc_chip_11cxx_lib/inc/clock_11xx.h **** }
 212:../../lpc11cx4-library/lpc_chip_11cxx_lib/inc/clock_11xx.h **** 
 213:../../lpc11cx4-library/lpc_chip_11cxx_lib/inc/clock_11xx.h **** /**
 214:../../lpc11cx4-library/lpc_chip_11cxx_lib/inc/clock_11xx.h ****  * @brief	Set system clock divider
 215:../../lpc11cx4-library/lpc_chip_11cxx_lib/inc/clock_11xx.h ****  * @param	div	: divider for system clock
 216:../../lpc11cx4-library/lpc_chip_11cxx_lib/inc/clock_11xx.h ****  * @return	Nothing
 217:../../lpc11cx4-library/lpc_chip_11cxx_lib/inc/clock_11xx.h ****  * @note	Use 0 to disable, or a divider value of 1 to 255. The system clock
 218:../../lpc11cx4-library/lpc_chip_11cxx_lib/inc/clock_11xx.h ****  * rate is the main system clock divided by this value.
 219:../../lpc11cx4-library/lpc_chip_11cxx_lib/inc/clock_11xx.h ****  */
 220:../../lpc11cx4-library/lpc_chip_11cxx_lib/inc/clock_11xx.h **** STATIC INLINE void Chip_Clock_SetSysClockDiv(uint32_t div)
 221:../../lpc11cx4-library/lpc_chip_11cxx_lib/inc/clock_11xx.h **** {
 222:../../lpc11cx4-library/lpc_chip_11cxx_lib/inc/clock_11xx.h **** 	LPC_SYSCTL->SYSAHBCLKDIV  = div;
ARM GAS  /tmp/ccnl65aq.s 			page 25


 223:../../lpc11cx4-library/lpc_chip_11cxx_lib/inc/clock_11xx.h **** }
 224:../../lpc11cx4-library/lpc_chip_11cxx_lib/inc/clock_11xx.h **** 
 225:../../lpc11cx4-library/lpc_chip_11cxx_lib/inc/clock_11xx.h **** /**
 226:../../lpc11cx4-library/lpc_chip_11cxx_lib/inc/clock_11xx.h ****  * System and peripheral clocks
 227:../../lpc11cx4-library/lpc_chip_11cxx_lib/inc/clock_11xx.h ****  */
 228:../../lpc11cx4-library/lpc_chip_11cxx_lib/inc/clock_11xx.h **** typedef enum CHIP_SYSCTL_CLOCK {
 229:../../lpc11cx4-library/lpc_chip_11cxx_lib/inc/clock_11xx.h **** 	SYSCTL_CLOCK_SYS = 0,				/*!< 0: System clock */
 230:../../lpc11cx4-library/lpc_chip_11cxx_lib/inc/clock_11xx.h **** 	SYSCTL_CLOCK_ROM,					/*!<1:  ROM clock */
 231:../../lpc11cx4-library/lpc_chip_11cxx_lib/inc/clock_11xx.h **** 	SYSCTL_CLOCK_RAM,					/*!< 2: RAM clock */
 232:../../lpc11cx4-library/lpc_chip_11cxx_lib/inc/clock_11xx.h **** 	SYSCTL_CLOCK_FLASHREG,				/*!< 3: FLASH register interface clock */
 233:../../lpc11cx4-library/lpc_chip_11cxx_lib/inc/clock_11xx.h **** 	SYSCTL_CLOCK_FLASHARRAY,			/*!< 4: FLASH array access clock */
 234:../../lpc11cx4-library/lpc_chip_11cxx_lib/inc/clock_11xx.h **** #if defined(CHIP_LPC110X)
 235:../../lpc11cx4-library/lpc_chip_11cxx_lib/inc/clock_11xx.h **** 	SYSCTL_CLOCK_RESERVED5,				/*!< 5: Reserved */
 236:../../lpc11cx4-library/lpc_chip_11cxx_lib/inc/clock_11xx.h **** #else
 237:../../lpc11cx4-library/lpc_chip_11cxx_lib/inc/clock_11xx.h **** 	SYSCTL_CLOCK_I2C,					/*!< 5: I2C clock, not on LPC110x */
 238:../../lpc11cx4-library/lpc_chip_11cxx_lib/inc/clock_11xx.h **** #endif
 239:../../lpc11cx4-library/lpc_chip_11cxx_lib/inc/clock_11xx.h **** 	SYSCTL_CLOCK_GPIO,					/*!< 6: GPIO clock */
 240:../../lpc11cx4-library/lpc_chip_11cxx_lib/inc/clock_11xx.h **** 	SYSCTL_CLOCK_CT16B0,				/*!< 7: 16-bit Counter/timer 0 clock */
 241:../../lpc11cx4-library/lpc_chip_11cxx_lib/inc/clock_11xx.h **** 	SYSCTL_CLOCK_CT16B1,				/*!< 8: 16-bit Counter/timer 1 clock */
 242:../../lpc11cx4-library/lpc_chip_11cxx_lib/inc/clock_11xx.h **** 	SYSCTL_CLOCK_CT32B0,				/*!< 9: 32-bit Counter/timer 0 clock */
 243:../../lpc11cx4-library/lpc_chip_11cxx_lib/inc/clock_11xx.h **** 	SYSCTL_CLOCK_CT32B1,				/*!< 10: 32-bit Counter/timer 1 clock */
 244:../../lpc11cx4-library/lpc_chip_11cxx_lib/inc/clock_11xx.h **** 	SYSCTL_CLOCK_SSP0,					/*!< 11: SSP0 clock */
 245:../../lpc11cx4-library/lpc_chip_11cxx_lib/inc/clock_11xx.h **** 	SYSCTL_CLOCK_UART0,					/*!< 12: UART0 clock */
 246:../../lpc11cx4-library/lpc_chip_11cxx_lib/inc/clock_11xx.h **** 	SYSCTL_CLOCK_ADC,					/*!< 13: ADC clock */
 247:../../lpc11cx4-library/lpc_chip_11cxx_lib/inc/clock_11xx.h **** #if defined(CHIP_LPC11UXX)
 248:../../lpc11cx4-library/lpc_chip_11cxx_lib/inc/clock_11xx.h **** 	SYSCTL_CLOCK_USB,					/*!< 14: USB clock, LPC11Uxx only */
 249:../../lpc11cx4-library/lpc_chip_11cxx_lib/inc/clock_11xx.h **** #else
 250:../../lpc11cx4-library/lpc_chip_11cxx_lib/inc/clock_11xx.h **** 	SYSCTL_CLOCK_RESERVED14,			/*!< 14: Reserved */
 251:../../lpc11cx4-library/lpc_chip_11cxx_lib/inc/clock_11xx.h **** #endif
 252:../../lpc11cx4-library/lpc_chip_11cxx_lib/inc/clock_11xx.h **** 	SYSCTL_CLOCK_WDT,					/*!< 15: Watchdog timer clock */
 253:../../lpc11cx4-library/lpc_chip_11cxx_lib/inc/clock_11xx.h **** 	SYSCTL_CLOCK_IOCON,					/*!< 16: IOCON block clock */
 254:../../lpc11cx4-library/lpc_chip_11cxx_lib/inc/clock_11xx.h **** #if defined(CHIP_LPC11CXX)
 255:../../lpc11cx4-library/lpc_chip_11cxx_lib/inc/clock_11xx.h **** 	SYSCTL_CLOCK_CAN,					/*!< 17: CAN clock, LPC11Cxx only */
 256:../../lpc11cx4-library/lpc_chip_11cxx_lib/inc/clock_11xx.h **** #else
 257:../../lpc11cx4-library/lpc_chip_11cxx_lib/inc/clock_11xx.h **** 	SYSCTL_CLOCK_RESERVED17,			/*!< 17: Reserved */
 258:../../lpc11cx4-library/lpc_chip_11cxx_lib/inc/clock_11xx.h **** #endif
 259:../../lpc11cx4-library/lpc_chip_11cxx_lib/inc/clock_11xx.h **** #if !(defined(CHIP_LPC110X) || defined(CHIP_LPC11XXLV))  
 260:../../lpc11cx4-library/lpc_chip_11cxx_lib/inc/clock_11xx.h **** 	SYSCTL_CLOCK_SSP1,					/*!< 18: SSP1 clock, LPC11A/C/E/Uxx//1125 only */
 261:../../lpc11cx4-library/lpc_chip_11cxx_lib/inc/clock_11xx.h **** #if !defined(CHIP_LPC11CXX)
 262:../../lpc11cx4-library/lpc_chip_11cxx_lib/inc/clock_11xx.h **** 	SYSCTL_CLOCK_PINT,					/*!< 19: GPIO Pin int register interface clock, LPC11A/E/Uxx only */
 263:../../lpc11cx4-library/lpc_chip_11cxx_lib/inc/clock_11xx.h **** #if defined(CHIP_LPC11AXX)
 264:../../lpc11cx4-library/lpc_chip_11cxx_lib/inc/clock_11xx.h **** 	SYSCTL_CLOCK_ACOMP,					/*!< 20: Analog comparator clock, LPC11Axx only */
 265:../../lpc11cx4-library/lpc_chip_11cxx_lib/inc/clock_11xx.h **** 	SYSCTL_CLOCK_DAC,					/*!< 21: DAC clock, LPC11Axx only */
 266:../../lpc11cx4-library/lpc_chip_11cxx_lib/inc/clock_11xx.h **** #else
 267:../../lpc11cx4-library/lpc_chip_11cxx_lib/inc/clock_11xx.h **** 	SYSCTL_CLOCK_RESERVED20,			/*!< 20: Reserved */
 268:../../lpc11cx4-library/lpc_chip_11cxx_lib/inc/clock_11xx.h **** 	SYSCTL_CLOCK_RESERVED21,			/*!< 21: Reserved */
 269:../../lpc11cx4-library/lpc_chip_11cxx_lib/inc/clock_11xx.h **** #endif
 270:../../lpc11cx4-library/lpc_chip_11cxx_lib/inc/clock_11xx.h **** 	SYSCTL_CLOCK_RESERVED22,			/*!< 22: Reserved */
 271:../../lpc11cx4-library/lpc_chip_11cxx_lib/inc/clock_11xx.h **** 	SYSCTL_CLOCK_P0INT,					/*!< 23: GPIO GROUP1 interrupt register clock, LPC11Axx only */
 272:../../lpc11cx4-library/lpc_chip_11cxx_lib/inc/clock_11xx.h **** 	SYSCTL_CLOCK_GROUP0INT = SYSCTL_CLOCK_P0INT,/*!< 23: GPIO GROUP0 interrupt register interface cloc
 273:../../lpc11cx4-library/lpc_chip_11cxx_lib/inc/clock_11xx.h **** 	SYSCTL_CLOCK_P1INT,					/*!< 24: GPIO GROUP1 interrupt register clock, LPC11Axx only */
 274:../../lpc11cx4-library/lpc_chip_11cxx_lib/inc/clock_11xx.h **** 	SYSCTL_CLOCK_GROUP1INT = SYSCTL_CLOCK_P1INT,/*!< 24: GPIO GROUP1 interrupt register interface cloc
 275:../../lpc11cx4-library/lpc_chip_11cxx_lib/inc/clock_11xx.h **** 	SYSCTL_CLOCK_RESERVED25,			/*!< 25: Reserved */
 276:../../lpc11cx4-library/lpc_chip_11cxx_lib/inc/clock_11xx.h **** #if defined(CHIP_LPC11EXX)  || defined(CHIP_LPC11UXX)
 277:../../lpc11cx4-library/lpc_chip_11cxx_lib/inc/clock_11xx.h **** 	SYSCTL_CLOCK_RAM1,					/*!< 26: SRAM block (0x20000000) clock, LPC11E/Uxx only */
 278:../../lpc11cx4-library/lpc_chip_11cxx_lib/inc/clock_11xx.h **** #else
 279:../../lpc11cx4-library/lpc_chip_11cxx_lib/inc/clock_11xx.h **** 	SYSCTL_CLOCK_RESERVED26,			/*!< 26: Reserved */
ARM GAS  /tmp/ccnl65aq.s 			page 26


 280:../../lpc11cx4-library/lpc_chip_11cxx_lib/inc/clock_11xx.h **** #endif
 281:../../lpc11cx4-library/lpc_chip_11cxx_lib/inc/clock_11xx.h **** #if defined(CHIP_LPC11UXX)
 282:../../lpc11cx4-library/lpc_chip_11cxx_lib/inc/clock_11xx.h **** 	SYSCTL_CLOCK_USBRAM,				/*!< 27: USB SRAM block clock, LPC11Uxx only */
 283:../../lpc11cx4-library/lpc_chip_11cxx_lib/inc/clock_11xx.h **** #else
 284:../../lpc11cx4-library/lpc_chip_11cxx_lib/inc/clock_11xx.h **** 	SYSCTL_CLOCK_RESERVED27,			/*!< 27: Reserved */
 285:../../lpc11cx4-library/lpc_chip_11cxx_lib/inc/clock_11xx.h **** #endif
 286:../../lpc11cx4-library/lpc_chip_11cxx_lib/inc/clock_11xx.h **** #endif /* !defined(CHIP_LPC11CXX) */
 287:../../lpc11cx4-library/lpc_chip_11cxx_lib/inc/clock_11xx.h **** #endif /* !(defined(CHIP_LPC110X) || defined(CHIP_LPC11XXLV)) */
 288:../../lpc11cx4-library/lpc_chip_11cxx_lib/inc/clock_11xx.h **** } CHIP_SYSCTL_CLOCK_T;
 289:../../lpc11cx4-library/lpc_chip_11cxx_lib/inc/clock_11xx.h **** 
 290:../../lpc11cx4-library/lpc_chip_11cxx_lib/inc/clock_11xx.h **** /**
 291:../../lpc11cx4-library/lpc_chip_11cxx_lib/inc/clock_11xx.h ****  * @brief	Enable a system or peripheral clock
 292:../../lpc11cx4-library/lpc_chip_11cxx_lib/inc/clock_11xx.h ****  * @param	clk	: Clock to enable
 293:../../lpc11cx4-library/lpc_chip_11cxx_lib/inc/clock_11xx.h ****  * @return	Nothing
 294:../../lpc11cx4-library/lpc_chip_11cxx_lib/inc/clock_11xx.h ****  */
 295:../../lpc11cx4-library/lpc_chip_11cxx_lib/inc/clock_11xx.h **** STATIC INLINE void Chip_Clock_EnablePeriphClock(CHIP_SYSCTL_CLOCK_T clk)
 296:../../lpc11cx4-library/lpc_chip_11cxx_lib/inc/clock_11xx.h **** {
 297:../../lpc11cx4-library/lpc_chip_11cxx_lib/inc/clock_11xx.h **** 	LPC_SYSCTL->SYSAHBCLKCTRL |= (1 << clk);
 673              		.loc 2 297 0
 674 000a 2020     		mov	r0, #32	@ tmp130,
 675              	.LVL43:
 676              	.LBE88:
 677              	.LBE87:
 678              	.LBE86:
 679              		.loc 1 373 0
 680 000c 9A60     		str	r2, [r3, #8]	@ tmp119, i2c.mEvent
 374:../../lpc11cx4-library/lpc_chip_11cxx_lib/src/i2c_11xx.c **** 	i2c.sEvent = NULL;
 681              		.loc 1 374 0
 682 000e 0022     		mov	r2, #0	@ tmp121,
 683 0010 DA60     		str	r2, [r3, #12]	@ tmp121, i2c.sEvent
 375:../../lpc11cx4-library/lpc_chip_11cxx_lib/src/i2c_11xx.c **** 	i2c.mXfer = NULL;
 684              		.loc 1 375 0
 685 0012 1A61     		str	r2, [r3, #16]	@ tmp121, i2c.mXfer
 376:../../lpc11cx4-library/lpc_chip_11cxx_lib/src/i2c_11xx.c **** 	i2c.sXfer = NULL;
 686              		.loc 1 376 0
 687 0014 5A61     		str	r2, [r3, #20]	@ tmp121, i2c.sXfer
 377:../../lpc11cx4-library/lpc_chip_11cxx_lib/src/i2c_11xx.c **** 	i2c.flags = 0;
 688              		.loc 1 377 0
 689 0016 9A61     		str	r2, [r3, #24]	@ tmp121, i2c.flags
 690              	.LVL44:
 691              	.LBB95:
 692              	.LBB92:
 693              	.LBB89:
 694              		.loc 2 297 0
 695 0018 064A     		ldr	r2, .L147+8	@ tmp129,
 696              	.LBE89:
 697              	.LBE92:
 698              	.LBE95:
 371:../../lpc11cx4-library/lpc_chip_11cxx_lib/src/i2c_11xx.c **** 	i2c.clk = SYSCTL_CLOCK_I2C;
 699              		.loc 1 371 0
 700 001a C905     		lsl	r1, r1, #23	@ tmp114, tmp114,
 701 001c 1960     		str	r1, [r3]	@ tmp114, i2c.ip
 702              	.LBB96:
 703              	.LBB93:
 704              	.LBB90:
 705              		.loc 2 297 0
 706 001e D36F     		ldr	r3, [r2, #124]	@ D.6763, MEM[(struct LPC_SYSCTL_T *)1074036736B].SYSAHBCLKCTRL
ARM GAS  /tmp/ccnl65aq.s 			page 27


 707              	.LBE90:
 708              	.LBE93:
 709              	.LBE96:
 378:../../lpc11cx4-library/lpc_chip_11cxx_lib/src/i2c_11xx.c **** 
 379:../../lpc11cx4-library/lpc_chip_11cxx_lib/src/i2c_11xx.c **** 
 380:../../lpc11cx4-library/lpc_chip_11cxx_lib/src/i2c_11xx.c **** 	enableClk(id);
 381:../../lpc11cx4-library/lpc_chip_11cxx_lib/src/i2c_11xx.c **** 
 382:../../lpc11cx4-library/lpc_chip_11cxx_lib/src/i2c_11xx.c **** 	/* Set I2C operation to default */
 383:../../lpc11cx4-library/lpc_chip_11cxx_lib/src/i2c_11xx.c **** 	LPC_I2Cx(id)->CONCLR = (I2C_CON_AA | I2C_CON_SI | I2C_CON_STA | I2C_CON_I2EN);
 384:../../lpc11cx4-library/lpc_chip_11cxx_lib/src/i2c_11xx.c **** }
 710              		.loc 1 384 0
 711              		@ sp needed	@
 712              	.LBB97:
 713              	.LBB94:
 714              	.LBB91:
 715              		.loc 2 297 0
 716 0020 0343     		orr	r3, r0	@ D.6763, tmp130
 717 0022 D367     		str	r3, [r2, #124]	@ D.6763, MEM[(struct LPC_SYSCTL_T *)1074036736B].SYSAHBCLKCTRL
 718              	.LBE91:
 719              	.LBE94:
 720              	.LBE97:
 383:../../lpc11cx4-library/lpc_chip_11cxx_lib/src/i2c_11xx.c **** }
 721              		.loc 1 383 0
 722 0024 6C23     		mov	r3, #108	@ tmp134,
 723 0026 8B61     		str	r3, [r1, #24]	@ tmp134, MEM[(struct LPC_I2C_T *)1073741824B].CONCLR
 724              		.loc 1 384 0
 725 0028 7047     		bx	lr
 726              	.L148:
 727 002a C046     		.align	2
 728              	.L147:
 729 002c 00000000 		.word	.LANCHOR0
 730 0030 00000000 		.word	Chip_I2C_EventHandler
 731 0034 04800440 		.word	1074036740
 732              		.cfi_endproc
 733              	.LFE214:
 734              		.size	Chip_I2C_Init, .-Chip_I2C_Init
 735              		.section	.text.Chip_I2C_DeInit,"ax",%progbits
 736              		.align	1
 737              		.global	Chip_I2C_DeInit
 738              		.code	16
 739              		.thumb_func
 740              		.type	Chip_I2C_DeInit, %function
 741              	Chip_I2C_DeInit:
 742              	.LFB215:
 385:../../lpc11cx4-library/lpc_chip_11cxx_lib/src/i2c_11xx.c **** 
 386:../../lpc11cx4-library/lpc_chip_11cxx_lib/src/i2c_11xx.c **** /* De-initializes the I2C peripheral registers to their default reset values */
 387:../../lpc11cx4-library/lpc_chip_11cxx_lib/src/i2c_11xx.c **** void Chip_I2C_DeInit(I2C_ID_T id)
 388:../../lpc11cx4-library/lpc_chip_11cxx_lib/src/i2c_11xx.c **** {
 743              		.loc 1 388 0
 744              		.cfi_startproc
 745              	.LVL45:
 389:../../lpc11cx4-library/lpc_chip_11cxx_lib/src/i2c_11xx.c **** 	/* Disable I2C control */
 390:../../lpc11cx4-library/lpc_chip_11cxx_lib/src/i2c_11xx.c **** 	LPC_I2Cx(id)->CONCLR = I2C_CON_I2EN | I2C_CON_SI | I2C_CON_STO | I2C_CON_STA | I2C_CON_AA;
 746              		.loc 1 390 0
 747 0000 7C21     		mov	r1, #124	@ tmp120,
 748 0002 054A     		ldr	r2, .L150	@ tmp119,
 391:../../lpc11cx4-library/lpc_chip_11cxx_lib/src/i2c_11xx.c **** 
ARM GAS  /tmp/ccnl65aq.s 			page 28


 392:../../lpc11cx4-library/lpc_chip_11cxx_lib/src/i2c_11xx.c **** 	disableClk(id);
 393:../../lpc11cx4-library/lpc_chip_11cxx_lib/src/i2c_11xx.c **** }
 749              		.loc 1 393 0
 750              		@ sp needed	@
 390:../../lpc11cx4-library/lpc_chip_11cxx_lib/src/i2c_11xx.c **** 
 751              		.loc 1 390 0
 752 0004 1368     		ldr	r3, [r2]	@ D.6769, i2c.ip
 753 0006 9961     		str	r1, [r3, #24]	@ tmp120, _2->CONCLR
 754              	.LVL46:
 755              	.LBB102:
 756              	.LBB103:
 757              	.LBB104:
 758              	.LBB105:
 298:../../lpc11cx4-library/lpc_chip_11cxx_lib/inc/clock_11xx.h **** }
 299:../../lpc11cx4-library/lpc_chip_11cxx_lib/inc/clock_11xx.h **** 
 300:../../lpc11cx4-library/lpc_chip_11cxx_lib/inc/clock_11xx.h **** /**
 301:../../lpc11cx4-library/lpc_chip_11cxx_lib/inc/clock_11xx.h ****  * @brief	Disable a system or peripheral clock
 302:../../lpc11cx4-library/lpc_chip_11cxx_lib/inc/clock_11xx.h ****  * @param	clk	: Clock to disable
 303:../../lpc11cx4-library/lpc_chip_11cxx_lib/inc/clock_11xx.h ****  * @return	Nothing
 304:../../lpc11cx4-library/lpc_chip_11cxx_lib/inc/clock_11xx.h ****  */
 305:../../lpc11cx4-library/lpc_chip_11cxx_lib/inc/clock_11xx.h **** STATIC INLINE void Chip_Clock_DisablePeriphClock(CHIP_SYSCTL_CLOCK_T clk)
 306:../../lpc11cx4-library/lpc_chip_11cxx_lib/inc/clock_11xx.h **** {
 307:../../lpc11cx4-library/lpc_chip_11cxx_lib/inc/clock_11xx.h **** 	LPC_SYSCTL->SYSAHBCLKCTRL &= ~(1 << clk);
 759              		.loc 2 307 0
 760 0008 1079     		ldrb	r0, [r2, #4]	@ D.6772,
 761              	.LVL47:
 762 000a 0122     		mov	r2, #1	@ tmp126,
 763 000c 8240     		lsl	r2, r2, r0	@ D.6772, tmp126, D.6772
 764 000e 0349     		ldr	r1, .L150+4	@ tmp122,
 765 0010 CB6F     		ldr	r3, [r1, #124]	@ D.6770, MEM[(struct LPC_SYSCTL_T *)1074036736B].SYSAHBCLKCTRL
 766 0012 9343     		bic	r3, r2	@ D.6770, D.6772
 767 0014 CB67     		str	r3, [r1, #124]	@ D.6770, MEM[(struct LPC_SYSCTL_T *)1074036736B].SYSAHBCLKCTRL
 768              	.LBE105:
 769              	.LBE104:
 770              	.LBE103:
 771              	.LBE102:
 772              		.loc 1 393 0
 773 0016 7047     		bx	lr
 774              	.L151:
 775              		.align	2
 776              	.L150:
 777 0018 00000000 		.word	.LANCHOR0
 778 001c 04800440 		.word	1074036740
 779              		.cfi_endproc
 780              	.LFE215:
 781              		.size	Chip_I2C_DeInit, .-Chip_I2C_DeInit
 782              		.global	__aeabi_uidiv
 783              		.section	.text.Chip_I2C_SetClockRate,"ax",%progbits
 784              		.align	1
 785              		.global	Chip_I2C_SetClockRate
 786              		.code	16
 787              		.thumb_func
 788              		.type	Chip_I2C_SetClockRate, %function
 789              	Chip_I2C_SetClockRate:
 790              	.LFB216:
 394:../../lpc11cx4-library/lpc_chip_11cxx_lib/src/i2c_11xx.c **** 
 395:../../lpc11cx4-library/lpc_chip_11cxx_lib/src/i2c_11xx.c **** /* Set up clock rate for LPC_I2C peripheral */
ARM GAS  /tmp/ccnl65aq.s 			page 29


 396:../../lpc11cx4-library/lpc_chip_11cxx_lib/src/i2c_11xx.c **** void Chip_I2C_SetClockRate(I2C_ID_T id, uint32_t clockrate)
 397:../../lpc11cx4-library/lpc_chip_11cxx_lib/src/i2c_11xx.c **** {
 791              		.loc 1 397 0
 792              		.cfi_startproc
 793              	.LVL48:
 794 0000 08B5     		push	{r3, lr}	@
 795              		.cfi_def_cfa_offset 8
 796              		.cfi_offset 3, -8
 797              		.cfi_offset 14, -4
 798              	.LBB106:
 799              	.LBB107:
  92:../../lpc11cx4-library/lpc_chip_11cxx_lib/src/i2c_11xx.c **** }
 800              		.loc 1 92 0
 801 0002 064B     		ldr	r3, .L153	@ tmp118,
 802              	.LBE107:
 803              	.LBE106:
 398:../../lpc11cx4-library/lpc_chip_11cxx_lib/src/i2c_11xx.c **** 	UNUSED(id);
 399:../../lpc11cx4-library/lpc_chip_11cxx_lib/src/i2c_11xx.c **** 	uint32_t SCLValue;
 400:../../lpc11cx4-library/lpc_chip_11cxx_lib/src/i2c_11xx.c **** 
 401:../../lpc11cx4-library/lpc_chip_11cxx_lib/src/i2c_11xx.c **** 	SCLValue = (getClkRate() / clockrate);
 402:../../lpc11cx4-library/lpc_chip_11cxx_lib/src/i2c_11xx.c **** 	LPC_I2Cx(id)->SCLH = (uint32_t) (SCLValue >> 1);
 403:../../lpc11cx4-library/lpc_chip_11cxx_lib/src/i2c_11xx.c **** 	LPC_I2Cx(id)->SCLL = (uint32_t) (SCLValue - LPC_I2Cx(id)->SCLH);
 404:../../lpc11cx4-library/lpc_chip_11cxx_lib/src/i2c_11xx.c **** }
 804              		.loc 1 404 0
 805              		@ sp needed	@
 401:../../lpc11cx4-library/lpc_chip_11cxx_lib/src/i2c_11xx.c **** 	LPC_I2Cx(id)->SCLH = (uint32_t) (SCLValue >> 1);
 806              		.loc 1 401 0
 807 0004 1868     		ldr	r0, [r3]	@, SystemCoreClock
 808              	.LVL49:
 809 0006 FFF7FEFF 		bl	__aeabi_uidiv	@
 810              	.LVL50:
 402:../../lpc11cx4-library/lpc_chip_11cxx_lib/src/i2c_11xx.c **** 	LPC_I2Cx(id)->SCLL = (uint32_t) (SCLValue - LPC_I2Cx(id)->SCLH);
 811              		.loc 1 402 0
 812 000a 054B     		ldr	r3, .L153+4	@ tmp122,
 813 000c 4208     		lsr	r2, r0, #1	@ D.6777, tmp121,
 814 000e 1B68     		ldr	r3, [r3]	@ D.6776, i2c.ip
 815 0010 1A61     		str	r2, [r3, #16]	@ D.6777, _4->SCLH
 403:../../lpc11cx4-library/lpc_chip_11cxx_lib/src/i2c_11xx.c **** }
 816              		.loc 1 403 0
 817 0012 1A69     		ldr	r2, [r3, #16]	@ D.6777, _4->SCLH
 818 0014 801A     		sub	r0, r0, r2	@ D.6777, tmp121, D.6777
 819              	.LVL51:
 820 0016 5861     		str	r0, [r3, #20]	@ D.6777, _4->SCLL
 821              		.loc 1 404 0
 822 0018 08BD     		pop	{r3, pc}
 823              	.L154:
 824 001a C046     		.align	2
 825              	.L153:
 826 001c 00000000 		.word	SystemCoreClock
 827 0020 00000000 		.word	.LANCHOR0
 828              		.cfi_endproc
 829              	.LFE216:
 830              		.size	Chip_I2C_SetClockRate, .-Chip_I2C_SetClockRate
 831              		.section	.text.Chip_I2C_GetClockRate,"ax",%progbits
 832              		.align	1
 833              		.global	Chip_I2C_GetClockRate
 834              		.code	16
ARM GAS  /tmp/ccnl65aq.s 			page 30


 835              		.thumb_func
 836              		.type	Chip_I2C_GetClockRate, %function
 837              	Chip_I2C_GetClockRate:
 838              	.LFB217:
 405:../../lpc11cx4-library/lpc_chip_11cxx_lib/src/i2c_11xx.c **** 
 406:../../lpc11cx4-library/lpc_chip_11cxx_lib/src/i2c_11xx.c **** /* Get current clock rate for LPC_I2C peripheral */
 407:../../lpc11cx4-library/lpc_chip_11cxx_lib/src/i2c_11xx.c **** uint32_t Chip_I2C_GetClockRate(I2C_ID_T id)
 408:../../lpc11cx4-library/lpc_chip_11cxx_lib/src/i2c_11xx.c **** {
 839              		.loc 1 408 0
 840              		.cfi_startproc
 841              	.LVL52:
 842 0000 08B5     		push	{r3, lr}	@
 843              		.cfi_def_cfa_offset 8
 844              		.cfi_offset 3, -8
 845              		.cfi_offset 14, -4
 409:../../lpc11cx4-library/lpc_chip_11cxx_lib/src/i2c_11xx.c **** 	UNUSED(id);
 410:../../lpc11cx4-library/lpc_chip_11cxx_lib/src/i2c_11xx.c **** 	return getClkRate() / (LPC_I2Cx(id)->SCLH + LPC_I2Cx(id)->SCLL);
 846              		.loc 1 410 0
 847 0002 054B     		ldr	r3, .L156	@ tmp118,
 411:../../lpc11cx4-library/lpc_chip_11cxx_lib/src/i2c_11xx.c **** }
 848              		.loc 1 411 0
 849              		@ sp needed	@
 410:../../lpc11cx4-library/lpc_chip_11cxx_lib/src/i2c_11xx.c **** }
 850              		.loc 1 410 0
 851 0004 1A68     		ldr	r2, [r3]	@ D.6782, i2c.ip
 852 0006 1369     		ldr	r3, [r2, #16]	@ D.6783, _2->SCLH
 853 0008 5169     		ldr	r1, [r2, #20]	@ D.6783, _2->SCLL
 854 000a C918     		add	r1, r1, r3	@ D.6783, D.6783, D.6783
 855 000c 034B     		ldr	r3, .L156+4	@ tmp120,
 856 000e 1868     		ldr	r0, [r3]	@, SystemCoreClock
 857              	.LVL53:
 858 0010 FFF7FEFF 		bl	__aeabi_uidiv	@
 859              	.LVL54:
 860              		.loc 1 411 0
 861 0014 08BD     		pop	{r3, pc}
 862              	.L157:
 863 0016 C046     		.align	2
 864              	.L156:
 865 0018 00000000 		.word	.LANCHOR0
 866 001c 00000000 		.word	SystemCoreClock
 867              		.cfi_endproc
 868              	.LFE217:
 869              		.size	Chip_I2C_GetClockRate, .-Chip_I2C_GetClockRate
 870              		.section	.text.Chip_I2C_SetMasterEventHandler,"ax",%progbits
 871              		.align	1
 872              		.global	Chip_I2C_SetMasterEventHandler
 873              		.code	16
 874              		.thumb_func
 875              		.type	Chip_I2C_SetMasterEventHandler, %function
 876              	Chip_I2C_SetMasterEventHandler:
 877              	.LFB218:
 412:../../lpc11cx4-library/lpc_chip_11cxx_lib/src/i2c_11xx.c **** 
 413:../../lpc11cx4-library/lpc_chip_11cxx_lib/src/i2c_11xx.c **** /* Set the master event handler */
 414:../../lpc11cx4-library/lpc_chip_11cxx_lib/src/i2c_11xx.c **** int Chip_I2C_SetMasterEventHandler(I2C_ID_T id, I2C_EVENTHANDLER_T event)
 415:../../lpc11cx4-library/lpc_chip_11cxx_lib/src/i2c_11xx.c **** {
 878              		.loc 1 415 0
 879              		.cfi_startproc
ARM GAS  /tmp/ccnl65aq.s 			page 31


 880              	.LVL55:
 416:../../lpc11cx4-library/lpc_chip_11cxx_lib/src/i2c_11xx.c **** 	UNUSED(id);
 417:../../lpc11cx4-library/lpc_chip_11cxx_lib/src/i2c_11xx.c **** 	struct i2c_interface *iic = &i2c; 
 418:../../lpc11cx4-library/lpc_chip_11cxx_lib/src/i2c_11xx.c **** 	if (!iic->mXfer) {
 881              		.loc 1 418 0
 882 0000 044B     		ldr	r3, .L160	@ tmp117,
 883 0002 1A69     		ldr	r2, [r3, #16]	@ i2c.mXfer, i2c.mXfer
 884 0004 002A     		cmp	r2, #0	@ i2c.mXfer,
 885 0006 00D1     		bne	.L159	@,
 419:../../lpc11cx4-library/lpc_chip_11cxx_lib/src/i2c_11xx.c **** 		iic->mEvent = event;
 886              		.loc 1 419 0
 887 0008 9960     		str	r1, [r3, #8]	@ event, i2c.mEvent
 888              	.L159:
 420:../../lpc11cx4-library/lpc_chip_11cxx_lib/src/i2c_11xx.c **** 	}
 421:../../lpc11cx4-library/lpc_chip_11cxx_lib/src/i2c_11xx.c **** 	return iic->mEvent == event;
 889              		.loc 1 421 0
 890 000a 9B68     		ldr	r3, [r3, #8]	@ i2c.mEvent, i2c.mEvent
 422:../../lpc11cx4-library/lpc_chip_11cxx_lib/src/i2c_11xx.c **** }
 891              		.loc 1 422 0
 892              		@ sp needed	@
 421:../../lpc11cx4-library/lpc_chip_11cxx_lib/src/i2c_11xx.c **** }
 893              		.loc 1 421 0
 894 000c 581A     		sub	r0, r3, r1	@ tmp125, i2c.mEvent, event
 895              	.LVL56:
 896 000e 4142     		neg	r1, r0	@ tmp126, tmp125
 897 0010 4841     		adc	r0, r0, r1	@ D.6790, tmp125, tmp126
 898              	.LVL57:
 899              		.loc 1 422 0
 900 0012 7047     		bx	lr
 901              	.L161:
 902              		.align	2
 903              	.L160:
 904 0014 00000000 		.word	.LANCHOR0
 905              		.cfi_endproc
 906              	.LFE218:
 907              		.size	Chip_I2C_SetMasterEventHandler, .-Chip_I2C_SetMasterEventHandler
 908              		.section	.text.Chip_I2C_GetMasterEventHandler,"ax",%progbits
 909              		.align	1
 910              		.global	Chip_I2C_GetMasterEventHandler
 911              		.code	16
 912              		.thumb_func
 913              		.type	Chip_I2C_GetMasterEventHandler, %function
 914              	Chip_I2C_GetMasterEventHandler:
 915              	.LFB219:
 423:../../lpc11cx4-library/lpc_chip_11cxx_lib/src/i2c_11xx.c **** 
 424:../../lpc11cx4-library/lpc_chip_11cxx_lib/src/i2c_11xx.c **** /* Get the master event handler */
 425:../../lpc11cx4-library/lpc_chip_11cxx_lib/src/i2c_11xx.c **** I2C_EVENTHANDLER_T Chip_I2C_GetMasterEventHandler(I2C_ID_T id)
 426:../../lpc11cx4-library/lpc_chip_11cxx_lib/src/i2c_11xx.c **** {
 916              		.loc 1 426 0
 917              		.cfi_startproc
 918              	.LVL58:
 427:../../lpc11cx4-library/lpc_chip_11cxx_lib/src/i2c_11xx.c **** 	UNUSED(id);
 428:../../lpc11cx4-library/lpc_chip_11cxx_lib/src/i2c_11xx.c **** 	return i2c.mEvent;
 919              		.loc 1 428 0
 920 0000 014B     		ldr	r3, .L163	@ tmp114,
 429:../../lpc11cx4-library/lpc_chip_11cxx_lib/src/i2c_11xx.c **** }
 921              		.loc 1 429 0
ARM GAS  /tmp/ccnl65aq.s 			page 32


 922              		@ sp needed	@
 428:../../lpc11cx4-library/lpc_chip_11cxx_lib/src/i2c_11xx.c **** }
 923              		.loc 1 428 0
 924 0002 9868     		ldr	r0, [r3, #8]	@ i2c.mEvent, i2c.mEvent
 925              	.LVL59:
 926              		.loc 1 429 0
 927 0004 7047     		bx	lr
 928              	.L164:
 929 0006 C046     		.align	2
 930              	.L163:
 931 0008 00000000 		.word	.LANCHOR0
 932              		.cfi_endproc
 933              	.LFE219:
 934              		.size	Chip_I2C_GetMasterEventHandler, .-Chip_I2C_GetMasterEventHandler
 935              		.section	.text.Chip_I2C_MasterTransfer,"ax",%progbits
 936              		.align	1
 937              		.global	Chip_I2C_MasterTransfer
 938              		.code	16
 939              		.thumb_func
 940              		.type	Chip_I2C_MasterTransfer, %function
 941              	Chip_I2C_MasterTransfer:
 942              	.LFB220:
 430:../../lpc11cx4-library/lpc_chip_11cxx_lib/src/i2c_11xx.c **** 
 431:../../lpc11cx4-library/lpc_chip_11cxx_lib/src/i2c_11xx.c **** /* Transmit and Receive data in master mode */
 432:../../lpc11cx4-library/lpc_chip_11cxx_lib/src/i2c_11xx.c **** int Chip_I2C_MasterTransfer(I2C_ID_T id, I2C_XFER_T *xfer)
 433:../../lpc11cx4-library/lpc_chip_11cxx_lib/src/i2c_11xx.c **** {
 943              		.loc 1 433 0
 944              		.cfi_startproc
 945              	.LVL60:
 946 0000 70B5     		push	{r4, r5, r6, lr}	@
 947              		.cfi_def_cfa_offset 16
 948              		.cfi_offset 4, -16
 949              		.cfi_offset 5, -12
 950              		.cfi_offset 6, -8
 951              		.cfi_offset 14, -4
 434:../../lpc11cx4-library/lpc_chip_11cxx_lib/src/i2c_11xx.c **** 	struct i2c_interface *iic = &i2c;
 435:../../lpc11cx4-library/lpc_chip_11cxx_lib/src/i2c_11xx.c **** 
 436:../../lpc11cx4-library/lpc_chip_11cxx_lib/src/i2c_11xx.c **** 	i2c.mEvent(id, I2C_EVENT_LOCK);
 952              		.loc 1 436 0
 953 0002 154C     		ldr	r4, .L172	@ tmp125,
 433:../../lpc11cx4-library/lpc_chip_11cxx_lib/src/i2c_11xx.c **** 	struct i2c_interface *iic = &i2c;
 954              		.loc 1 433 0
 955 0004 0D1C     		mov	r5, r1	@ xfer, xfer
 956              		.loc 1 436 0
 957 0006 A368     		ldr	r3, [r4, #8]	@ tmp154, i2c.mEvent
 958 0008 0321     		mov	r1, #3	@,
 959              	.LVL61:
 433:../../lpc11cx4-library/lpc_chip_11cxx_lib/src/i2c_11xx.c **** 	struct i2c_interface *iic = &i2c;
 960              		.loc 1 433 0
 961 000a 061C     		mov	r6, r0	@ id, id
 962              		.loc 1 436 0
 963 000c 9847     		blx	r3	@ tmp154
 964              	.LVL62:
 437:../../lpc11cx4-library/lpc_chip_11cxx_lib/src/i2c_11xx.c **** 	xfer->status = I2C_STATUS_BUSY;
 965              		.loc 1 437 0
 966 000e 0423     		mov	r3, #4	@ tmp127,
 967 0010 2B75     		strb	r3, [r5, #20]	@ tmp127, xfer_8(D)->status
ARM GAS  /tmp/ccnl65aq.s 			page 33


 438:../../lpc11cx4-library/lpc_chip_11cxx_lib/src/i2c_11xx.c **** 	iic->mXfer = xfer;
 439:../../lpc11cx4-library/lpc_chip_11cxx_lib/src/i2c_11xx.c **** 	/* If slave xfer not in progress */
 440:../../lpc11cx4-library/lpc_chip_11cxx_lib/src/i2c_11xx.c **** 	if (!iic->sXfer) {
 968              		.loc 1 440 0
 969 0012 6369     		ldr	r3, [r4, #20]	@ i2c.sXfer, i2c.sXfer
 438:../../lpc11cx4-library/lpc_chip_11cxx_lib/src/i2c_11xx.c **** 	iic->mXfer = xfer;
 970              		.loc 1 438 0
 971 0014 2561     		str	r5, [r4, #16]	@ xfer, i2c.mXfer
 972              		.loc 1 440 0
 973 0016 002B     		cmp	r3, #0	@ i2c.sXfer,
 974 0018 04D1     		bne	.L166	@,
 975              	.LBB108:
 976              	.LBB109:
  99:../../lpc11cx4-library/lpc_chip_11cxx_lib/src/i2c_11xx.c **** 
 977              		.loc 1 99 0
 978 001a 3C22     		mov	r2, #60	@ tmp133,
 979              	.LBE109:
 980              	.LBE108:
 441:../../lpc11cx4-library/lpc_chip_11cxx_lib/src/i2c_11xx.c **** 		startMasterXfer(iic->ip);
 981              		.loc 1 441 0
 982 001c 2368     		ldr	r3, [r4]	@ D.6801, i2c.ip
 983              	.LVL63:
 984              	.LBB111:
 985              	.LBB110:
  99:../../lpc11cx4-library/lpc_chip_11cxx_lib/src/i2c_11xx.c **** 
 986              		.loc 1 99 0
 987 001e 9A61     		str	r2, [r3, #24]	@ tmp133, _12->CONCLR
 102:../../lpc11cx4-library/lpc_chip_11cxx_lib/src/i2c_11xx.c **** }
 988              		.loc 1 102 0
 989 0020 2432     		add	r2, r2, #36	@ tmp134,
 990 0022 1A60     		str	r2, [r3]	@ tmp134, _12->CONSET
 991              	.LVL64:
 992              	.L166:
 993              	.LBE110:
 994              	.LBE111:
 442:../../lpc11cx4-library/lpc_chip_11cxx_lib/src/i2c_11xx.c **** 	} 
 443:../../lpc11cx4-library/lpc_chip_11cxx_lib/src/i2c_11xx.c **** 	i2c.mEvent(id, I2C_EVENT_WAIT);
 995              		.loc 1 443 0
 996 0024 A368     		ldr	r3, [r4, #8]	@ tmp156, i2c.mEvent
 997 0026 301C     		mov	r0, r6	@, id
 998 0028 0121     		mov	r1, #1	@,
 999 002a 9847     		blx	r3	@ tmp156
 1000              	.LVL65:
 444:../../lpc11cx4-library/lpc_chip_11cxx_lib/src/i2c_11xx.c **** 	iic->mXfer = 0;
 1001              		.loc 1 444 0
 1002 002c 0023     		mov	r3, #0	@ tmp138,
 1003 002e 2361     		str	r3, [r4, #16]	@ tmp138, i2c.mXfer
 445:../../lpc11cx4-library/lpc_chip_11cxx_lib/src/i2c_11xx.c **** 
 446:../../lpc11cx4-library/lpc_chip_11cxx_lib/src/i2c_11xx.c **** 	/* Wait for stop condition to appear on bus */
 447:../../lpc11cx4-library/lpc_chip_11cxx_lib/src/i2c_11xx.c **** 	while (!isI2CBusFree(iic->ip)) {}
 1004              		.loc 1 447 0
 1005 0030 2368     		ldr	r3, [r4]	@ D.6801, i2c.ip
 1006              	.L167:
 1007              	.LVL66:
 1008              	.LBB112:
 1009              	.LBB113:
 118:../../lpc11cx4-library/lpc_chip_11cxx_lib/src/i2c_11xx.c **** }
ARM GAS  /tmp/ccnl65aq.s 			page 34


 1010              		.loc 1 118 0 discriminator 1
 1011 0032 1A68     		ldr	r2, [r3]	@ D.6802, _17->CONSET
 1012              	.LBE113:
 1013              	.LBE112:
 1014              		.loc 1 447 0 discriminator 1
 1015 0034 D206     		lsl	r2, r2, #27	@ tmp153, D.6802,
 1016 0036 FCD4     		bmi	.L167	@,
 448:../../lpc11cx4-library/lpc_chip_11cxx_lib/src/i2c_11xx.c **** 
 449:../../lpc11cx4-library/lpc_chip_11cxx_lib/src/i2c_11xx.c **** 	/* Start slave if one is active */
 450:../../lpc11cx4-library/lpc_chip_11cxx_lib/src/i2c_11xx.c **** 	if (SLAVE_ACTIVE(iic)) {
 1017              		.loc 1 450 0
 1018 0038 FF22     		mov	r2, #255	@ tmp145,
 1019 003a A169     		ldr	r1, [r4, #24]	@ tmp158, i2c.flags
 1020 003c 1202     		lsl	r2, r2, #8	@ tmp145, tmp145,
 1021 003e 1142     		tst	r1, r2	@ tmp158, tmp145
 1022 0040 03D0     		beq	.L168	@,
 1023              	.LVL67:
 1024              	.LBB114:
 1025              	.LBB115:
 109:../../lpc11cx4-library/lpc_chip_11cxx_lib/src/i2c_11xx.c **** 
 1026              		.loc 1 109 0
 1027 0042 3822     		mov	r2, #56	@ tmp146,
 1028 0044 9A61     		str	r2, [r3, #24]	@ tmp146, _17->CONCLR
 112:../../lpc11cx4-library/lpc_chip_11cxx_lib/src/i2c_11xx.c **** }
 1029              		.loc 1 112 0
 1030 0046 0C32     		add	r2, r2, #12	@ tmp147,
 1031 0048 1A60     		str	r2, [r3]	@ tmp147, _17->CONSET
 1032              	.LVL68:
 1033              	.L168:
 1034              	.LBE115:
 1035              	.LBE114:
 451:../../lpc11cx4-library/lpc_chip_11cxx_lib/src/i2c_11xx.c **** 		startSlaverXfer(iic->ip);
 452:../../lpc11cx4-library/lpc_chip_11cxx_lib/src/i2c_11xx.c **** 	}
 453:../../lpc11cx4-library/lpc_chip_11cxx_lib/src/i2c_11xx.c **** 
 454:../../lpc11cx4-library/lpc_chip_11cxx_lib/src/i2c_11xx.c **** 	i2c.mEvent(id, I2C_EVENT_UNLOCK);
 1036              		.loc 1 454 0
 1037 004a 301C     		mov	r0, r6	@, id
 1038 004c A368     		ldr	r3, [r4, #8]	@ i2c.mEvent, i2c.mEvent
 1039 004e 0421     		mov	r1, #4	@,
 1040 0050 9847     		blx	r3	@ i2c.mEvent
 1041              	.LVL69:
 455:../../lpc11cx4-library/lpc_chip_11cxx_lib/src/i2c_11xx.c **** 	return (int) xfer->status;
 456:../../lpc11cx4-library/lpc_chip_11cxx_lib/src/i2c_11xx.c **** }
 1042              		.loc 1 456 0
 1043              		@ sp needed	@
 455:../../lpc11cx4-library/lpc_chip_11cxx_lib/src/i2c_11xx.c **** 	return (int) xfer->status;
 1044              		.loc 1 455 0
 1045 0052 287D     		ldrb	r0, [r5, #20]	@ D.6804,
 1046              	.LVL70:
 1047              		.loc 1 456 0
 1048 0054 70BD     		pop	{r4, r5, r6, pc}
 1049              	.L173:
 1050 0056 C046     		.align	2
 1051              	.L172:
 1052 0058 00000000 		.word	.LANCHOR0
 1053              		.cfi_endproc
 1054              	.LFE220:
ARM GAS  /tmp/ccnl65aq.s 			page 35


 1055              		.size	Chip_I2C_MasterTransfer, .-Chip_I2C_MasterTransfer
 1056              		.section	.text.Chip_I2C_MasterSend,"ax",%progbits
 1057              		.align	1
 1058              		.global	Chip_I2C_MasterSend
 1059              		.code	16
 1060              		.thumb_func
 1061              		.type	Chip_I2C_MasterSend, %function
 1062              	Chip_I2C_MasterSend:
 1063              	.LFB221:
 457:../../lpc11cx4-library/lpc_chip_11cxx_lib/src/i2c_11xx.c **** 
 458:../../lpc11cx4-library/lpc_chip_11cxx_lib/src/i2c_11xx.c **** /* Master tx only */
 459:../../lpc11cx4-library/lpc_chip_11cxx_lib/src/i2c_11xx.c **** int Chip_I2C_MasterSend(I2C_ID_T id, uint8_t slaveAddr, const uint8_t *buff, uint8_t len)
 460:../../lpc11cx4-library/lpc_chip_11cxx_lib/src/i2c_11xx.c **** {
 1064              		.loc 1 460 0
 1065              		.cfi_startproc
 1066              	.LVL71:
 1067 0000 30B5     		push	{r4, r5, lr}	@
 1068              		.cfi_def_cfa_offset 12
 1069              		.cfi_offset 4, -12
 1070              		.cfi_offset 5, -8
 1071              		.cfi_offset 14, -4
 1072 0002 87B0     		sub	sp, sp, #28	@,,
 1073              		.cfi_def_cfa_offset 40
 1074              		.loc 1 460 0
 1075 0004 1C1C     		mov	r4, r3	@ len, len
 461:../../lpc11cx4-library/lpc_chip_11cxx_lib/src/i2c_11xx.c **** 	I2C_XFER_T xfer;
 462:../../lpc11cx4-library/lpc_chip_11cxx_lib/src/i2c_11xx.c **** 	xfer.slaveAddr = slaveAddr;
 1076              		.loc 1 462 0
 1077 0006 6B46     		mov	r3, sp	@ tmp130,
 1078              	.LVL72:
 1079 0008 1970     		strb	r1, [r3]	@ slaveAddr, xfer.slaveAddr
 463:../../lpc11cx4-library/lpc_chip_11cxx_lib/src/i2c_11xx.c **** 	xfer.txBuff = buff;
 464:../../lpc11cx4-library/lpc_chip_11cxx_lib/src/i2c_11xx.c **** 	xfer.txSz = len;
 465:../../lpc11cx4-library/lpc_chip_11cxx_lib/src/i2c_11xx.c **** 	xfer.rxSz = 0;
 1080              		.loc 1 465 0
 1081 000a 0023     		mov	r3, #0	@ tmp124,
 460:../../lpc11cx4-library/lpc_chip_11cxx_lib/src/i2c_11xx.c **** 	I2C_XFER_T xfer;
 1082              		.loc 1 460 0
 1083 000c 051C     		mov	r5, r0	@ id, id
 463:../../lpc11cx4-library/lpc_chip_11cxx_lib/src/i2c_11xx.c **** 	xfer.txBuff = buff;
 1084              		.loc 1 463 0
 1085 000e 0192     		str	r2, [sp, #4]	@ buff, xfer.txBuff
 464:../../lpc11cx4-library/lpc_chip_11cxx_lib/src/i2c_11xx.c **** 	xfer.rxSz = 0;
 1086              		.loc 1 464 0
 1087 0010 0294     		str	r4, [sp, #8]	@ len, xfer.txSz
 1088              		.loc 1 465 0
 1089 0012 0493     		str	r3, [sp, #16]	@ tmp124, xfer.rxSz
 1090              	.LVL73:
 1091              	.L175:
 466:../../lpc11cx4-library/lpc_chip_11cxx_lib/src/i2c_11xx.c **** 	while (Chip_I2C_MasterTransfer(id, &xfer) == I2C_STATUS_ARBLOST) {}
 1092              		.loc 1 466 0 discriminator 1
 1093 0014 281C     		mov	r0, r5	@, id
 1094 0016 6946     		mov	r1, sp	@,
 1095 0018 FFF7FEFF 		bl	Chip_I2C_MasterTransfer	@
 1096              	.LVL74:
 1097 001c 0228     		cmp	r0, #2	@ D.6809,
 1098 001e F9D0     		beq	.L175	@,
ARM GAS  /tmp/ccnl65aq.s 			page 36


 467:../../lpc11cx4-library/lpc_chip_11cxx_lib/src/i2c_11xx.c **** 	return len - xfer.txSz;
 1099              		.loc 1 467 0
 1100 0020 0298     		ldr	r0, [sp, #8]	@ xfer.txSz, xfer.txSz
 1101 0022 201A     		sub	r0, r4, r0	@ D.6809, len, xfer.txSz
 468:../../lpc11cx4-library/lpc_chip_11cxx_lib/src/i2c_11xx.c **** }
 1102              		.loc 1 468 0
 1103 0024 07B0     		add	sp, sp, #28	@,,
 1104              		@ sp needed	@
 1105 0026 30BD     		pop	{r4, r5, pc}
 1106              		.cfi_endproc
 1107              	.LFE221:
 1108              		.size	Chip_I2C_MasterSend, .-Chip_I2C_MasterSend
 1109              		.section	.text.Chip_I2C_MasterCmdRead,"ax",%progbits
 1110              		.align	1
 1111              		.global	Chip_I2C_MasterCmdRead
 1112              		.code	16
 1113              		.thumb_func
 1114              		.type	Chip_I2C_MasterCmdRead, %function
 1115              	Chip_I2C_MasterCmdRead:
 1116              	.LFB222:
 469:../../lpc11cx4-library/lpc_chip_11cxx_lib/src/i2c_11xx.c **** 
 470:../../lpc11cx4-library/lpc_chip_11cxx_lib/src/i2c_11xx.c **** /* Transmit one byte and receive an array of bytes after a repeated start condition is generated in
 471:../../lpc11cx4-library/lpc_chip_11cxx_lib/src/i2c_11xx.c ****  * This function is useful for communicating with the I2C slave registers
 472:../../lpc11cx4-library/lpc_chip_11cxx_lib/src/i2c_11xx.c ****  */
 473:../../lpc11cx4-library/lpc_chip_11cxx_lib/src/i2c_11xx.c **** int Chip_I2C_MasterCmdRead(I2C_ID_T id, uint8_t slaveAddr, uint8_t cmd, uint8_t *buff, int len)
 474:../../lpc11cx4-library/lpc_chip_11cxx_lib/src/i2c_11xx.c **** {
 1117              		.loc 1 474 0
 1118              		.cfi_startproc
 1119              	.LVL75:
 1120 0000 70B5     		push	{r4, r5, r6, lr}	@
 1121              		.cfi_def_cfa_offset 16
 1122              		.cfi_offset 4, -16
 1123              		.cfi_offset 5, -12
 1124              		.cfi_offset 6, -8
 1125              		.cfi_offset 14, -4
 1126 0002 88B0     		sub	sp, sp, #32	@,,
 1127              		.cfi_def_cfa_offset 48
 1128              		.loc 1 474 0
 1129 0004 061C     		mov	r6, r0	@ id, id
 1130 0006 6846     		mov	r0, sp	@ tmp134,
 1131              	.LVL76:
 1132 0008 C271     		strb	r2, [r0, #7]	@ cmd, cmd
 475:../../lpc11cx4-library/lpc_chip_11cxx_lib/src/i2c_11xx.c **** 	I2C_XFER_T xfer;
 476:../../lpc11cx4-library/lpc_chip_11cxx_lib/src/i2c_11xx.c **** 	xfer.slaveAddr = slaveAddr;
 477:../../lpc11cx4-library/lpc_chip_11cxx_lib/src/i2c_11xx.c **** 	xfer.txBuff = &cmd;
 478:../../lpc11cx4-library/lpc_chip_11cxx_lib/src/i2c_11xx.c **** 	xfer.txSz = 1;
 1133              		.loc 1 478 0
 1134 000a 0122     		mov	r2, #1	@ tmp126,
 1135              	.LVL77:
 474:../../lpc11cx4-library/lpc_chip_11cxx_lib/src/i2c_11xx.c **** 	I2C_XFER_T xfer;
 1136              		.loc 1 474 0
 1137 000c 0C9D     		ldr	r5, [sp, #48]	@ len, len
 476:../../lpc11cx4-library/lpc_chip_11cxx_lib/src/i2c_11xx.c **** 	xfer.txBuff = &cmd;
 1138              		.loc 1 476 0
 1139 000e 02AC     		add	r4, sp, #8	@ tmp121,,
 474:../../lpc11cx4-library/lpc_chip_11cxx_lib/src/i2c_11xx.c **** 	I2C_XFER_T xfer;
 1140              		.loc 1 474 0
ARM GAS  /tmp/ccnl65aq.s 			page 37


 1141 0010 0730     		add	r0, r0, #7	@ tmp117,
 1142              	.LVL78:
 476:../../lpc11cx4-library/lpc_chip_11cxx_lib/src/i2c_11xx.c **** 	xfer.txBuff = &cmd;
 1143              		.loc 1 476 0
 1144 0012 2170     		strb	r1, [r4]	@ slaveAddr, xfer.slaveAddr
 477:../../lpc11cx4-library/lpc_chip_11cxx_lib/src/i2c_11xx.c **** 	xfer.txSz = 1;
 1145              		.loc 1 477 0
 1146 0014 6060     		str	r0, [r4, #4]	@ tmp117, xfer.txBuff
 1147              		.loc 1 478 0
 1148 0016 A260     		str	r2, [r4, #8]	@ tmp126, xfer.txSz
 479:../../lpc11cx4-library/lpc_chip_11cxx_lib/src/i2c_11xx.c **** 	xfer.rxBuff = buff;
 1149              		.loc 1 479 0
 1150 0018 E360     		str	r3, [r4, #12]	@ buff, xfer.rxBuff
 480:../../lpc11cx4-library/lpc_chip_11cxx_lib/src/i2c_11xx.c **** 	xfer.rxSz = len;
 1151              		.loc 1 480 0
 1152 001a 2561     		str	r5, [r4, #16]	@ len, xfer.rxSz
 1153              	.LVL79:
 1154              	.L178:
 481:../../lpc11cx4-library/lpc_chip_11cxx_lib/src/i2c_11xx.c **** 	while (Chip_I2C_MasterTransfer(id, &xfer) == I2C_STATUS_ARBLOST) {}
 1155              		.loc 1 481 0 discriminator 1
 1156 001c 301C     		mov	r0, r6	@, id
 1157 001e 211C     		mov	r1, r4	@, tmp121
 1158 0020 FFF7FEFF 		bl	Chip_I2C_MasterTransfer	@
 1159              	.LVL80:
 1160 0024 0228     		cmp	r0, #2	@ D.6812,
 1161 0026 F9D0     		beq	.L178	@,
 482:../../lpc11cx4-library/lpc_chip_11cxx_lib/src/i2c_11xx.c **** 	return len - xfer.rxSz;
 1162              		.loc 1 482 0
 1163 0028 2069     		ldr	r0, [r4, #16]	@ xfer.rxSz, xfer.rxSz
 1164 002a 281A     		sub	r0, r5, r0	@ D.6812, len, xfer.rxSz
 483:../../lpc11cx4-library/lpc_chip_11cxx_lib/src/i2c_11xx.c **** }
 1165              		.loc 1 483 0
 1166 002c 08B0     		add	sp, sp, #32	@,,
 1167              	.LVL81:
 1168              		@ sp needed	@
 1169 002e 70BD     		pop	{r4, r5, r6, pc}
 1170              		.cfi_endproc
 1171              	.LFE222:
 1172              		.size	Chip_I2C_MasterCmdRead, .-Chip_I2C_MasterCmdRead
 1173              		.section	.text.Chip_I2C_MasterRead,"ax",%progbits
 1174              		.align	1
 1175              		.global	Chip_I2C_MasterRead
 1176              		.code	16
 1177              		.thumb_func
 1178              		.type	Chip_I2C_MasterRead, %function
 1179              	Chip_I2C_MasterRead:
 1180              	.LFB223:
 484:../../lpc11cx4-library/lpc_chip_11cxx_lib/src/i2c_11xx.c **** 
 485:../../lpc11cx4-library/lpc_chip_11cxx_lib/src/i2c_11xx.c **** /* Sequential master read */
 486:../../lpc11cx4-library/lpc_chip_11cxx_lib/src/i2c_11xx.c **** int Chip_I2C_MasterRead(I2C_ID_T id, uint8_t slaveAddr, uint8_t *buff, int len)
 487:../../lpc11cx4-library/lpc_chip_11cxx_lib/src/i2c_11xx.c **** {
 1181              		.loc 1 487 0
 1182              		.cfi_startproc
 1183              	.LVL82:
 1184 0000 30B5     		push	{r4, r5, lr}	@
 1185              		.cfi_def_cfa_offset 12
 1186              		.cfi_offset 4, -12
ARM GAS  /tmp/ccnl65aq.s 			page 38


 1187              		.cfi_offset 5, -8
 1188              		.cfi_offset 14, -4
 1189 0002 87B0     		sub	sp, sp, #28	@,,
 1190              		.cfi_def_cfa_offset 40
 1191              		.loc 1 487 0
 1192 0004 1C1C     		mov	r4, r3	@ len, len
 488:../../lpc11cx4-library/lpc_chip_11cxx_lib/src/i2c_11xx.c **** 	UNUSED(id);
 489:../../lpc11cx4-library/lpc_chip_11cxx_lib/src/i2c_11xx.c **** 	I2C_XFER_T xfer;
 490:../../lpc11cx4-library/lpc_chip_11cxx_lib/src/i2c_11xx.c **** 	xfer.slaveAddr = slaveAddr;
 1193              		.loc 1 490 0
 1194 0006 6B46     		mov	r3, sp	@ tmp129,
 1195              	.LVL83:
 1196 0008 1970     		strb	r1, [r3]	@ slaveAddr, xfer.slaveAddr
 491:../../lpc11cx4-library/lpc_chip_11cxx_lib/src/i2c_11xx.c **** 	xfer.rxBuff = buff;
 492:../../lpc11cx4-library/lpc_chip_11cxx_lib/src/i2c_11xx.c **** 	xfer.rxSz = len;
 493:../../lpc11cx4-library/lpc_chip_11cxx_lib/src/i2c_11xx.c **** 	xfer.txSz = 0;
 1197              		.loc 1 493 0
 1198 000a 0023     		mov	r3, #0	@ tmp123,
 487:../../lpc11cx4-library/lpc_chip_11cxx_lib/src/i2c_11xx.c **** 	UNUSED(id);
 1199              		.loc 1 487 0
 1200 000c 051C     		mov	r5, r0	@ id, id
 491:../../lpc11cx4-library/lpc_chip_11cxx_lib/src/i2c_11xx.c **** 	xfer.rxBuff = buff;
 1201              		.loc 1 491 0
 1202 000e 0392     		str	r2, [sp, #12]	@ buff, xfer.rxBuff
 492:../../lpc11cx4-library/lpc_chip_11cxx_lib/src/i2c_11xx.c **** 	xfer.txSz = 0;
 1203              		.loc 1 492 0
 1204 0010 0494     		str	r4, [sp, #16]	@ len, xfer.rxSz
 1205              		.loc 1 493 0
 1206 0012 0293     		str	r3, [sp, #8]	@ tmp123, xfer.txSz
 1207              	.LVL84:
 1208              	.L181:
 494:../../lpc11cx4-library/lpc_chip_11cxx_lib/src/i2c_11xx.c **** 	while (Chip_I2C_MasterTransfer(id, &xfer) == I2C_STATUS_ARBLOST) {}
 1209              		.loc 1 494 0 discriminator 1
 1210 0014 281C     		mov	r0, r5	@, id
 1211 0016 6946     		mov	r1, sp	@,
 1212 0018 FFF7FEFF 		bl	Chip_I2C_MasterTransfer	@
 1213              	.LVL85:
 1214 001c 0228     		cmp	r0, #2	@ D.6815,
 1215 001e F9D0     		beq	.L181	@,
 495:../../lpc11cx4-library/lpc_chip_11cxx_lib/src/i2c_11xx.c **** 	return len - xfer.rxSz;
 1216              		.loc 1 495 0
 1217 0020 0498     		ldr	r0, [sp, #16]	@ xfer.rxSz, xfer.rxSz
 1218 0022 201A     		sub	r0, r4, r0	@ D.6815, len, xfer.rxSz
 496:../../lpc11cx4-library/lpc_chip_11cxx_lib/src/i2c_11xx.c **** }
 1219              		.loc 1 496 0
 1220 0024 07B0     		add	sp, sp, #28	@,,
 1221              		@ sp needed	@
 1222              	.LVL86:
 1223 0026 30BD     		pop	{r4, r5, pc}
 1224              		.cfi_endproc
 1225              	.LFE223:
 1226              		.size	Chip_I2C_MasterRead, .-Chip_I2C_MasterRead
 1227              		.section	.text.Chip_I2C_IsMasterActive,"ax",%progbits
 1228              		.align	1
 1229              		.global	Chip_I2C_IsMasterActive
 1230              		.code	16
 1231              		.thumb_func
ARM GAS  /tmp/ccnl65aq.s 			page 39


 1232              		.type	Chip_I2C_IsMasterActive, %function
 1233              	Chip_I2C_IsMasterActive:
 1234              	.LFB224:
 497:../../lpc11cx4-library/lpc_chip_11cxx_lib/src/i2c_11xx.c **** 
 498:../../lpc11cx4-library/lpc_chip_11cxx_lib/src/i2c_11xx.c **** /* Check if master state is active */
 499:../../lpc11cx4-library/lpc_chip_11cxx_lib/src/i2c_11xx.c **** int Chip_I2C_IsMasterActive(I2C_ID_T id)
 500:../../lpc11cx4-library/lpc_chip_11cxx_lib/src/i2c_11xx.c **** {
 1235              		.loc 1 500 0
 1236              		.cfi_startproc
 1237              	.LVL87:
 501:../../lpc11cx4-library/lpc_chip_11cxx_lib/src/i2c_11xx.c **** 	UNUSED(id);
 502:../../lpc11cx4-library/lpc_chip_11cxx_lib/src/i2c_11xx.c **** 	return isMasterState(i2c.ip);
 1238              		.loc 1 502 0
 1239 0000 054B     		ldr	r3, .L184	@ tmp118,
 1240              	.LBB116:
 1241              	.LBB117:
 130:../../lpc11cx4-library/lpc_chip_11cxx_lib/src/i2c_11xx.c **** }
 1242              		.loc 1 130 0
 1243 0002 5F21     		mov	r1, #95	@ tmp124,
 1244              	.LBE117:
 1245              	.LBE116:
 1246              		.loc 1 502 0
 1247 0004 1B68     		ldr	r3, [r3]	@ D.6818, i2c.ip
 1248              	.LVL88:
 503:../../lpc11cx4-library/lpc_chip_11cxx_lib/src/i2c_11xx.c **** }
 1249              		.loc 1 503 0
 1250              		@ sp needed	@
 1251              	.LBB121:
 1252              	.LBB120:
 1253              	.LBB118:
 1254              	.LBB119:
 124:../../lpc11cx4-library/lpc_chip_11cxx_lib/src/i2c_11xx.c **** }
 1255              		.loc 1 124 0
 1256 0006 5A68     		ldr	r2, [r3, #4]	@ D.6819, _2->STAT
 1257 0008 F823     		mov	r3, #248	@ tmp121,
 1258              	.LVL89:
 1259 000a 1340     		and	r3, r2	@ D.6820, D.6819
 1260              	.LBE119:
 1261              	.LBE118:
 130:../../lpc11cx4-library/lpc_chip_11cxx_lib/src/i2c_11xx.c **** }
 1262              		.loc 1 130 0
 1263 000c 0022     		mov	r2, #0	@ tmp126,
 1264 000e D80F     		lsr	r0, r3, #31	@ tmp125, D.6820,
 1265              	.LVL90:
 1266 0010 9942     		cmp	r1, r3	@ tmp124, D.6820
 1267 0012 5041     		adc	r0, r0, r2	@ D.6821, tmp125, tmp126
 1268              	.LBE120:
 1269              	.LBE121:
 1270              		.loc 1 503 0
 1271 0014 7047     		bx	lr
 1272              	.L185:
 1273 0016 C046     		.align	2
 1274              	.L184:
 1275 0018 00000000 		.word	.LANCHOR0
 1276              		.cfi_endproc
 1277              	.LFE224:
 1278              		.size	Chip_I2C_IsMasterActive, .-Chip_I2C_IsMasterActive
ARM GAS  /tmp/ccnl65aq.s 			page 40


 1279              		.section	.text.Chip_I2C_MasterStateHandler,"ax",%progbits
 1280              		.align	1
 1281              		.global	Chip_I2C_MasterStateHandler
 1282              		.code	16
 1283              		.thumb_func
 1284              		.type	Chip_I2C_MasterStateHandler, %function
 1285              	Chip_I2C_MasterStateHandler:
 1286              	.LFB225:
 504:../../lpc11cx4-library/lpc_chip_11cxx_lib/src/i2c_11xx.c **** 
 505:../../lpc11cx4-library/lpc_chip_11cxx_lib/src/i2c_11xx.c **** /* State change handler for master transfer */
 506:../../lpc11cx4-library/lpc_chip_11cxx_lib/src/i2c_11xx.c **** void Chip_I2C_MasterStateHandler(I2C_ID_T id)
 507:../../lpc11cx4-library/lpc_chip_11cxx_lib/src/i2c_11xx.c **** {
 1287              		.loc 1 507 0
 1288              		.cfi_startproc
 1289              	.LVL91:
 1290 0000 38B5     		push	{r3, r4, r5, lr}	@
 1291              		.cfi_def_cfa_offset 16
 1292              		.cfi_offset 3, -16
 1293              		.cfi_offset 4, -12
 1294              		.cfi_offset 5, -8
 1295              		.cfi_offset 14, -4
 508:../../lpc11cx4-library/lpc_chip_11cxx_lib/src/i2c_11xx.c **** 	if (!handleMasterXferState(i2c.ip, i2c.mXfer)) {
 1296              		.loc 1 508 0
 1297 0002 064C     		ldr	r4, .L188	@ tmp115,
 507:../../lpc11cx4-library/lpc_chip_11cxx_lib/src/i2c_11xx.c **** 	if (!handleMasterXferState(i2c.ip, i2c.mXfer)) {
 1298              		.loc 1 507 0
 1299 0004 051C     		mov	r5, r0	@ id, id
 1300              		.loc 1 508 0
 1301 0006 2169     		ldr	r1, [r4, #16]	@, i2c.mXfer
 1302 0008 2068     		ldr	r0, [r4]	@, i2c.ip
 1303              	.LVL92:
 1304 000a FFF7FEFF 		bl	handleMasterXferState	@
 1305              	.LVL93:
 1306 000e 0028     		cmp	r0, #0	@ D.6828,
 1307 0010 03D1     		bne	.L186	@,
 1308              	.LVL94:
 1309              	.LBB124:
 1310              	.LBB125:
 509:../../lpc11cx4-library/lpc_chip_11cxx_lib/src/i2c_11xx.c **** 		i2c.mEvent(id, I2C_EVENT_DONE);
 1311              		.loc 1 509 0
 1312 0012 A368     		ldr	r3, [r4, #8]	@ i2c.mEvent, i2c.mEvent
 1313 0014 281C     		mov	r0, r5	@, id
 1314 0016 0221     		mov	r1, #2	@,
 1315 0018 9847     		blx	r3	@ i2c.mEvent
 1316              	.LVL95:
 1317              	.L186:
 1318              	.LBE125:
 1319              	.LBE124:
 510:../../lpc11cx4-library/lpc_chip_11cxx_lib/src/i2c_11xx.c **** 	}
 511:../../lpc11cx4-library/lpc_chip_11cxx_lib/src/i2c_11xx.c **** }
 1320              		.loc 1 511 0
 1321              		@ sp needed	@
 1322 001a 38BD     		pop	{r3, r4, r5, pc}
 1323              	.L189:
 1324              		.align	2
 1325              	.L188:
 1326 001c 00000000 		.word	.LANCHOR0
ARM GAS  /tmp/ccnl65aq.s 			page 41


 1327              		.cfi_endproc
 1328              	.LFE225:
 1329              		.size	Chip_I2C_MasterStateHandler, .-Chip_I2C_MasterStateHandler
 1330              		.section	.text.Chip_I2C_SlaveSetup,"ax",%progbits
 1331              		.align	1
 1332              		.global	Chip_I2C_SlaveSetup
 1333              		.code	16
 1334              		.thumb_func
 1335              		.type	Chip_I2C_SlaveSetup, %function
 1336              	Chip_I2C_SlaveSetup:
 1337              	.LFB226:
 512:../../lpc11cx4-library/lpc_chip_11cxx_lib/src/i2c_11xx.c **** 
 513:../../lpc11cx4-library/lpc_chip_11cxx_lib/src/i2c_11xx.c **** /* Setup slave function */
 514:../../lpc11cx4-library/lpc_chip_11cxx_lib/src/i2c_11xx.c **** void Chip_I2C_SlaveSetup(I2C_ID_T id,
 515:../../lpc11cx4-library/lpc_chip_11cxx_lib/src/i2c_11xx.c **** 						 I2C_SLAVE_ID sid,
 516:../../lpc11cx4-library/lpc_chip_11cxx_lib/src/i2c_11xx.c **** 						 I2C_XFER_T *xfer,
 517:../../lpc11cx4-library/lpc_chip_11cxx_lib/src/i2c_11xx.c **** 						 I2C_EVENTHANDLER_T event,
 518:../../lpc11cx4-library/lpc_chip_11cxx_lib/src/i2c_11xx.c **** 						 uint8_t addrMask)
 519:../../lpc11cx4-library/lpc_chip_11cxx_lib/src/i2c_11xx.c **** {
 1338              		.loc 1 519 0
 1339              		.cfi_startproc
 1340              	.LVL96:
 1341 0000 70B5     		push	{r4, r5, r6, lr}	@
 1342              		.cfi_def_cfa_offset 16
 1343              		.cfi_offset 4, -16
 1344              		.cfi_offset 5, -12
 1345              		.cfi_offset 6, -8
 1346              		.cfi_offset 14, -4
 520:../../lpc11cx4-library/lpc_chip_11cxx_lib/src/i2c_11xx.c **** 	struct i2c_interface *iic = &i2c;
 521:../../lpc11cx4-library/lpc_chip_11cxx_lib/src/i2c_11xx.c **** 	struct i2c_slave_interface *si2c = &i2c_slave[id][sid];
 522:../../lpc11cx4-library/lpc_chip_11cxx_lib/src/i2c_11xx.c **** 	si2c->xfer = xfer;
 1347              		.loc 1 522 0
 1348 0002 0526     		mov	r6, #5	@ tmp138,
 1349 0004 7043     		mul	r0, r6	@ tmp139, tmp138
 1350              	.LVL97:
 519:../../lpc11cx4-library/lpc_chip_11cxx_lib/src/i2c_11xx.c **** 	struct i2c_interface *iic = &i2c;
 1351              		.loc 1 519 0
 1352 0006 04AC     		add	r4, sp, #16	@ tmp136,,
 1353              	.LVL98:
 1354 0008 2578     		ldrb	r5, [r4]	@ addrMask, addrMask
 1355              		.loc 1 522 0
 1356 000a 4018     		add	r0, r0, r1	@ tmp140, tmp139, sid
 1357 000c 154C     		ldr	r4, .L197	@ tmp137,
 1358              	.LVL99:
 1359 000e C000     		lsl	r0, r0, #3	@ tmp141, tmp140,
 1360 0010 0251     		str	r2, [r0, r4]	@ xfer, MEM[(struct i2c_slave_interface *)&i2c_slave][_4][_6].xfer
 523:../../lpc11cx4-library/lpc_chip_11cxx_lib/src/i2c_11xx.c **** 	si2c->event = event;
 1361              		.loc 1 523 0
 1362 0012 2018     		add	r0, r4, r0	@ tmp147, tmp137, tmp141
 1363 0014 4360     		str	r3, [r0, #4]	@ event, MEM[(struct i2c_slave_interface *)&i2c_slave][_4][_6].event
 1364 0016 144B     		ldr	r3, .L197+4	@ tmp167,
 1365              	.LVL100:
 524:../../lpc11cx4-library/lpc_chip_11cxx_lib/src/i2c_11xx.c **** 
 525:../../lpc11cx4-library/lpc_chip_11cxx_lib/src/i2c_11xx.c **** 	/* Set up the slave address */
 526:../../lpc11cx4-library/lpc_chip_11cxx_lib/src/i2c_11xx.c **** 	if (sid != I2C_SLAVE_GENERAL) {
 1366              		.loc 1 526 0
 1367 0018 0029     		cmp	r1, #0	@ sid,
ARM GAS  /tmp/ccnl65aq.s 			page 42


 1368 001a 0FD0     		beq	.L191	@,
 527:../../lpc11cx4-library/lpc_chip_11cxx_lib/src/i2c_11xx.c **** 		setSlaveAddr(iic->ip, sid, xfer->slaveAddr, addrMask);
 1369              		.loc 1 527 0
 1370 001c 1478     		ldrb	r4, [r2]	@ D.6841, *xfer_8(D)
 1371              	.LBB131:
 1372              	.LBB132:
 137:../../lpc11cx4-library/lpc_chip_11cxx_lib/src/i2c_11xx.c **** 	if (sid == I2C_SLAVE_0) {
 1373              		.loc 1 137 0
 1374 001e 0A1C     		mov	r2, r1	@ tmp149, sid
 1375              	.LVL101:
 1376              	.LBE132:
 1377              	.LBE131:
 1378              		.loc 1 527 0
 1379 0020 1868     		ldr	r0, [r3]	@ D.6840, i2c.ip
 1380              	.LVL102:
 1381              	.LBB135:
 1382              	.LBB134:
 137:../../lpc11cx4-library/lpc_chip_11cxx_lib/src/i2c_11xx.c **** 	if (sid == I2C_SLAVE_0) {
 1383              		.loc 1 137 0
 1384 0022 0B32     		add	r2, r2, #11	@ tmp149,
 1385 0024 9200     		lsl	r2, r2, #2	@ tmp150, tmp149,
 1386 0026 1550     		str	r5, [r2, r0]	@ addrMask, _12->MASK
 138:../../lpc11cx4-library/lpc_chip_11cxx_lib/src/i2c_11xx.c **** 		pI2C->ADR0 = addr;
 1387              		.loc 1 138 0
 1388 0028 0129     		cmp	r1, #1	@ sid,
 1389 002a 01D1     		bne	.L192	@,
 139:../../lpc11cx4-library/lpc_chip_11cxx_lib/src/i2c_11xx.c **** 	}
 1390              		.loc 1 139 0
 1391 002c C460     		str	r4, [r0, #12]	@ D.6841, _12->ADR0
 1392 002e 05E0     		b	.L191	@
 1393              	.L192:
 1394              	.LVL103:
 1395              	.LBB133:
 143:../../lpc11cx4-library/lpc_chip_11cxx_lib/src/i2c_11xx.c **** 	}
 1396              		.loc 1 143 0
 1397 0030 0E4A     		ldr	r2, .L197+8	@ tmp170,
 142:../../lpc11cx4-library/lpc_chip_11cxx_lib/src/i2c_11xx.c **** 		abase[index - 1] = addr;
 1398              		.loc 1 142 0
 1399 0032 2030     		add	r0, r0, #32	@ abase,
 1400              	.LVL104:
 143:../../lpc11cx4-library/lpc_chip_11cxx_lib/src/i2c_11xx.c **** 	}
 1401              		.loc 1 143 0
 1402 0034 8A18     		add	r2, r1, r2	@ D.6844, sid, tmp170
 1403 0036 9200     		lsl	r2, r2, #2	@ D.6844, D.6844,
 1404 0038 8218     		add	r2, r0, r2	@ D.6845, abase, D.6844
 1405 003a 1460     		str	r4, [r2]	@ D.6841, *_34
 1406              	.LVL105:
 1407              	.L191:
 1408              	.LBE133:
 1409              	.LBE134:
 1410              	.LBE135:
 528:../../lpc11cx4-library/lpc_chip_11cxx_lib/src/i2c_11xx.c **** 	}
 529:../../lpc11cx4-library/lpc_chip_11cxx_lib/src/i2c_11xx.c **** 
 530:../../lpc11cx4-library/lpc_chip_11cxx_lib/src/i2c_11xx.c **** 	if (!SLAVE_ACTIVE(iic) && !iic->mXfer) {
 1411              		.loc 1 530 0
 1412 003c FF20     		mov	r0, #255	@ tmp156,
 1413 003e 9A69     		ldr	r2, [r3, #24]	@ D.6842, i2c.flags
ARM GAS  /tmp/ccnl65aq.s 			page 43


 1414 0040 0002     		lsl	r0, r0, #8	@ tmp156, tmp156,
 1415 0042 0242     		tst	r2, r0	@ D.6842, tmp156
 1416 0044 07D1     		bne	.L193	@,
 1417              		.loc 1 530 0 is_stmt 0 discriminator 1
 1418 0046 1869     		ldr	r0, [r3, #16]	@ tmp171, i2c.mXfer
 1419 0048 0028     		cmp	r0, #0	@ tmp171,
 1420 004a 04D1     		bne	.L193	@,
 1421              	.LBB136:
 1422              	.LBB137:
 109:../../lpc11cx4-library/lpc_chip_11cxx_lib/src/i2c_11xx.c **** 
 1423              		.loc 1 109 0 is_stmt 1
 1424 004c 3824     		mov	r4, #56	@ tmp160,
 1425              	.LBE137:
 1426              	.LBE136:
 531:../../lpc11cx4-library/lpc_chip_11cxx_lib/src/i2c_11xx.c **** 		startSlaverXfer(iic->ip);
 1427              		.loc 1 531 0
 1428 004e 1868     		ldr	r0, [r3]	@ D.6840, i2c.ip
 1429              	.LVL106:
 1430              	.LBB139:
 1431              	.LBB138:
 109:../../lpc11cx4-library/lpc_chip_11cxx_lib/src/i2c_11xx.c **** 
 1432              		.loc 1 109 0
 1433 0050 8461     		str	r4, [r0, #24]	@ tmp160, _19->CONCLR
 112:../../lpc11cx4-library/lpc_chip_11cxx_lib/src/i2c_11xx.c **** }
 1434              		.loc 1 112 0
 1435 0052 0C34     		add	r4, r4, #12	@ tmp161,
 1436 0054 0460     		str	r4, [r0]	@ tmp161, _19->CONSET
 1437              	.LVL107:
 1438              	.L193:
 1439              	.LBE138:
 1440              	.LBE139:
 532:../../lpc11cx4-library/lpc_chip_11cxx_lib/src/i2c_11xx.c **** 	}
 533:../../lpc11cx4-library/lpc_chip_11cxx_lib/src/i2c_11xx.c **** 	iic->flags |= 1 << (sid + 8);
 1441              		.loc 1 533 0
 1442 0056 0120     		mov	r0, #1	@ tmp165,
 1443 0058 0831     		add	r1, r1, #8	@ D.6839,
 1444              	.LVL108:
 1445 005a 8840     		lsl	r0, r0, r1	@ D.6839, D.6839, D.6839
 1446 005c 0243     		orr	r2, r0	@ D.6842, D.6839
 1447 005e 9A61     		str	r2, [r3, #24]	@ D.6842, i2c.flags
 534:../../lpc11cx4-library/lpc_chip_11cxx_lib/src/i2c_11xx.c **** }
 1448              		.loc 1 534 0
 1449              		@ sp needed	@
 1450 0060 70BD     		pop	{r4, r5, r6, pc}
 1451              	.L198:
 1452 0062 C046     		.align	2
 1453              	.L197:
 1454 0064 00000000 		.word	.LANCHOR1
 1455 0068 00000000 		.word	.LANCHOR0
 1456 006c FEFFFF3F 		.word	1073741822
 1457              		.cfi_endproc
 1458              	.LFE226:
 1459              		.size	Chip_I2C_SlaveSetup, .-Chip_I2C_SlaveSetup
 1460              		.section	.text.Chip_I2C_SlaveStateHandler,"ax",%progbits
 1461              		.align	1
 1462              		.global	Chip_I2C_SlaveStateHandler
 1463              		.code	16
ARM GAS  /tmp/ccnl65aq.s 			page 44


 1464              		.thumb_func
 1465              		.type	Chip_I2C_SlaveStateHandler, %function
 1466              	Chip_I2C_SlaveStateHandler:
 1467              	.LFB227:
 535:../../lpc11cx4-library/lpc_chip_11cxx_lib/src/i2c_11xx.c **** 
 536:../../lpc11cx4-library/lpc_chip_11cxx_lib/src/i2c_11xx.c **** /* I2C Slave event handler */
 537:../../lpc11cx4-library/lpc_chip_11cxx_lib/src/i2c_11xx.c **** void Chip_I2C_SlaveStateHandler(I2C_ID_T id)
 538:../../lpc11cx4-library/lpc_chip_11cxx_lib/src/i2c_11xx.c **** {
 1468              		.loc 1 538 0
 1469              		.cfi_startproc
 1470              	.LVL109:
 1471 0000 70B5     		push	{r4, r5, r6, lr}	@
 1472              		.cfi_def_cfa_offset 16
 1473              		.cfi_offset 4, -16
 1474              		.cfi_offset 5, -12
 1475              		.cfi_offset 6, -8
 1476              		.cfi_offset 14, -4
 539:../../lpc11cx4-library/lpc_chip_11cxx_lib/src/i2c_11xx.c **** 	int ret;
 540:../../lpc11cx4-library/lpc_chip_11cxx_lib/src/i2c_11xx.c **** 	struct i2c_interface *iic = &i2c;
 541:../../lpc11cx4-library/lpc_chip_11cxx_lib/src/i2c_11xx.c **** 
 542:../../lpc11cx4-library/lpc_chip_11cxx_lib/src/i2c_11xx.c **** 	/* Get the currently addressed slave */
 543:../../lpc11cx4-library/lpc_chip_11cxx_lib/src/i2c_11xx.c **** 	if (!iic->sXfer) {
 1477              		.loc 1 543 0
 1478 0002 144C     		ldr	r4, .L206	@ tmp131,
 538:../../lpc11cx4-library/lpc_chip_11cxx_lib/src/i2c_11xx.c **** 	int ret;
 1479              		.loc 1 538 0
 1480 0004 051C     		mov	r5, r0	@ id, id
 1481              		.loc 1 543 0
 1482 0006 6369     		ldr	r3, [r4, #20]	@ i2c.sXfer, i2c.sXfer
 1483 0008 002B     		cmp	r3, #0	@ i2c.sXfer,
 1484 000a 0CD1     		bne	.L200	@,
 1485              	.LBB140:
 544:../../lpc11cx4-library/lpc_chip_11cxx_lib/src/i2c_11xx.c **** 		struct i2c_slave_interface *si2c;
 545:../../lpc11cx4-library/lpc_chip_11cxx_lib/src/i2c_11xx.c **** 
 546:../../lpc11cx4-library/lpc_chip_11cxx_lib/src/i2c_11xx.c **** 		I2C_SLAVE_ID sid = getSlaveIndex(iic->ip);
 1486              		.loc 1 546 0
 1487 000c 2068     		ldr	r0, [r4]	@, i2c.ip
 1488              	.LVL110:
 1489 000e FFF7FEFF 		bl	getSlaveIndex	@
 1490              	.LVL111:
 547:../../lpc11cx4-library/lpc_chip_11cxx_lib/src/i2c_11xx.c **** 		si2c = &i2c_slave[id][sid];
 548:../../lpc11cx4-library/lpc_chip_11cxx_lib/src/i2c_11xx.c **** 		iic->sXfer = si2c->xfer;
 1491              		.loc 1 548 0
 1492 0012 0523     		mov	r3, #5	@ tmp138,
 1493 0014 6B43     		mul	r3, r5	@ tmp139, id
 1494 0016 104A     		ldr	r2, .L206+4	@ tmp137,
 1495 0018 1818     		add	r0, r3, r0	@ tmp140, tmp139, tmp134
 1496              	.LVL112:
 1497 001a C000     		lsl	r0, r0, #3	@ tmp141, tmp140,
 1498 001c 8358     		ldr	r3, [r0, r2]	@ tmp171, MEM[(struct i2c_slave_interface *)&i2c_slave][_10][_11].xfer
 549:../../lpc11cx4-library/lpc_chip_11cxx_lib/src/i2c_11xx.c **** 		iic->sEvent = si2c->event;
 1499              		.loc 1 549 0
 1500 001e 1018     		add	r0, r2, r0	@ tmp149, tmp137, tmp141
 548:../../lpc11cx4-library/lpc_chip_11cxx_lib/src/i2c_11xx.c **** 		iic->sEvent = si2c->event;
 1501              		.loc 1 548 0
 1502 0020 6361     		str	r3, [r4, #20]	@ tmp171, i2c.sXfer
 1503              		.loc 1 549 0
ARM GAS  /tmp/ccnl65aq.s 			page 45


 1504 0022 4368     		ldr	r3, [r0, #4]	@ tmp172, MEM[(struct i2c_slave_interface *)&i2c_slave][_10][_11].event
 1505 0024 E360     		str	r3, [r4, #12]	@ tmp172, i2c.sEvent
 1506              	.L200:
 1507              	.LBE140:
 550:../../lpc11cx4-library/lpc_chip_11cxx_lib/src/i2c_11xx.c **** 	}
 551:../../lpc11cx4-library/lpc_chip_11cxx_lib/src/i2c_11xx.c **** 
 552:../../lpc11cx4-library/lpc_chip_11cxx_lib/src/i2c_11xx.c **** 	iic->sXfer->slaveAddr |= iic->mXfer != 0;
 1508              		.loc 1 552 0
 1509 0026 2269     		ldr	r2, [r4, #16]	@ tmp155, i2c.mXfer
 1510 0028 6669     		ldr	r6, [r4, #20]	@ D.6851, i2c.sXfer
 1511 002a 531E     		sub	r3, r2, #1	@ tmp156, tmp155
 1512 002c 9A41     		sbc	r2, r2, r3	@ tmp155, tmp155, tmp156
 1513 002e 3378     		ldrb	r3, [r6]	@ *_16, *_16
 553:../../lpc11cx4-library/lpc_chip_11cxx_lib/src/i2c_11xx.c **** 	ret = handleSlaveXferState(iic->ip, iic->sXfer);
 1514              		.loc 1 553 0
 1515 0030 2068     		ldr	r0, [r4]	@, i2c.ip
 552:../../lpc11cx4-library/lpc_chip_11cxx_lib/src/i2c_11xx.c **** 	ret = handleSlaveXferState(iic->ip, iic->sXfer);
 1516              		.loc 1 552 0
 1517 0032 1343     		orr	r3, r2	@ tmp159, tmp155
 1518 0034 3370     		strb	r3, [r6]	@ tmp159, _16->slaveAddr
 1519              		.loc 1 553 0
 1520 0036 311C     		mov	r1, r6	@, D.6851
 1521 0038 FFF7FEFF 		bl	handleSlaveXferState	@
 1522              	.LVL113:
 554:../../lpc11cx4-library/lpc_chip_11cxx_lib/src/i2c_11xx.c **** 	if (ret) {
 1523              		.loc 1 554 0
 1524 003c 0028     		cmp	r0, #0	@ ret,
 1525 003e 07D0     		beq	.L199	@,
 555:../../lpc11cx4-library/lpc_chip_11cxx_lib/src/i2c_11xx.c **** 		if (iic->sXfer->status == I2C_STATUS_DONE) {
 1526              		.loc 1 555 0
 1527 0040 337D     		ldrb	r3, [r6, #20]	@ tmp162,
 1528 0042 002B     		cmp	r3, #0	@ tmp162,
 1529 0044 00D1     		bne	.L202	@,
 556:../../lpc11cx4-library/lpc_chip_11cxx_lib/src/i2c_11xx.c **** 			iic->sXfer = 0;
 1530              		.loc 1 556 0
 1531 0046 6361     		str	r3, [r4, #20]	@ tmp162, i2c.sXfer
 1532              	.L202:
 557:../../lpc11cx4-library/lpc_chip_11cxx_lib/src/i2c_11xx.c **** 		}
 558:../../lpc11cx4-library/lpc_chip_11cxx_lib/src/i2c_11xx.c **** 		iic->sEvent(id, (I2C_EVENT_T) ret);
 1533              		.loc 1 558 0
 1534 0048 C1B2     		uxtb	r1, r0	@ ret, ret
 1535 004a E368     		ldr	r3, [r4, #12]	@ i2c.sEvent, i2c.sEvent
 1536 004c 281C     		mov	r0, r5	@, id
 1537              	.LVL114:
 1538 004e 9847     		blx	r3	@ i2c.sEvent
 1539              	.LVL115:
 1540              	.L199:
 559:../../lpc11cx4-library/lpc_chip_11cxx_lib/src/i2c_11xx.c **** 	}
 560:../../lpc11cx4-library/lpc_chip_11cxx_lib/src/i2c_11xx.c **** }
 1541              		.loc 1 560 0
 1542              		@ sp needed	@
 1543 0050 70BD     		pop	{r4, r5, r6, pc}
 1544              	.L207:
 1545 0052 C046     		.align	2
 1546              	.L206:
 1547 0054 00000000 		.word	.LANCHOR0
 1548 0058 00000000 		.word	.LANCHOR1
ARM GAS  /tmp/ccnl65aq.s 			page 46


 1549              		.cfi_endproc
 1550              	.LFE227:
 1551              		.size	Chip_I2C_SlaveStateHandler, .-Chip_I2C_SlaveStateHandler
 1552              		.section	.text.Chip_I2C_Disable,"ax",%progbits
 1553              		.align	1
 1554              		.global	Chip_I2C_Disable
 1555              		.code	16
 1556              		.thumb_func
 1557              		.type	Chip_I2C_Disable, %function
 1558              	Chip_I2C_Disable:
 1559              	.LFB228:
 561:../../lpc11cx4-library/lpc_chip_11cxx_lib/src/i2c_11xx.c **** 
 562:../../lpc11cx4-library/lpc_chip_11cxx_lib/src/i2c_11xx.c **** /* Disable I2C device */
 563:../../lpc11cx4-library/lpc_chip_11cxx_lib/src/i2c_11xx.c **** void Chip_I2C_Disable(I2C_ID_T id)
 564:../../lpc11cx4-library/lpc_chip_11cxx_lib/src/i2c_11xx.c **** {
 1560              		.loc 1 564 0
 1561              		.cfi_startproc
 1562              	.LVL116:
 565:../../lpc11cx4-library/lpc_chip_11cxx_lib/src/i2c_11xx.c **** 	UNUSED(id);
 566:../../lpc11cx4-library/lpc_chip_11cxx_lib/src/i2c_11xx.c **** 	LPC_I2Cx(id)->CONCLR = I2C_I2CONCLR_I2ENC;
 1563              		.loc 1 566 0
 1564 0000 4022     		mov	r2, #64	@ tmp113,
 1565 0002 024B     		ldr	r3, .L209	@ tmp112,
 567:../../lpc11cx4-library/lpc_chip_11cxx_lib/src/i2c_11xx.c **** }
 1566              		.loc 1 567 0
 1567              		@ sp needed	@
 566:../../lpc11cx4-library/lpc_chip_11cxx_lib/src/i2c_11xx.c **** }
 1568              		.loc 1 566 0
 1569 0004 1B68     		ldr	r3, [r3]	@ D.6866, i2c.ip
 1570 0006 9A61     		str	r2, [r3, #24]	@ tmp113, _2->CONCLR
 1571              		.loc 1 567 0
 1572 0008 7047     		bx	lr
 1573              	.L210:
 1574 000a C046     		.align	2
 1575              	.L209:
 1576 000c 00000000 		.word	.LANCHOR0
 1577              		.cfi_endproc
 1578              	.LFE228:
 1579              		.size	Chip_I2C_Disable, .-Chip_I2C_Disable
 1580              		.section	.text.Chip_I2C_IsStateChanged,"ax",%progbits
 1581              		.align	1
 1582              		.global	Chip_I2C_IsStateChanged
 1583              		.code	16
 1584              		.thumb_func
 1585              		.type	Chip_I2C_IsStateChanged, %function
 1586              	Chip_I2C_IsStateChanged:
 1587              	.LFB229:
 568:../../lpc11cx4-library/lpc_chip_11cxx_lib/src/i2c_11xx.c **** 
 569:../../lpc11cx4-library/lpc_chip_11cxx_lib/src/i2c_11xx.c **** /* State change checking */
 570:../../lpc11cx4-library/lpc_chip_11cxx_lib/src/i2c_11xx.c **** int Chip_I2C_IsStateChanged(I2C_ID_T id)
 571:../../lpc11cx4-library/lpc_chip_11cxx_lib/src/i2c_11xx.c **** {
 1588              		.loc 1 571 0
 1589              		.cfi_startproc
 1590              	.LVL117:
 572:../../lpc11cx4-library/lpc_chip_11cxx_lib/src/i2c_11xx.c **** 	UNUSED(id);
 573:../../lpc11cx4-library/lpc_chip_11cxx_lib/src/i2c_11xx.c **** 	return (LPC_I2Cx(id)->CONSET & I2C_CON_SI) != 0;
 1591              		.loc 1 573 0
ARM GAS  /tmp/ccnl65aq.s 			page 47


 1592 0000 024B     		ldr	r3, .L212	@ tmp117,
 574:../../lpc11cx4-library/lpc_chip_11cxx_lib/src/i2c_11xx.c **** }
 1593              		.loc 1 574 0
 1594              		@ sp needed	@
 573:../../lpc11cx4-library/lpc_chip_11cxx_lib/src/i2c_11xx.c **** }
 1595              		.loc 1 573 0
 1596 0002 1B68     		ldr	r3, [r3]	@ D.6870, i2c.ip
 1597 0004 1868     		ldr	r0, [r3]	@ D.6871, _2->CONSET
 1598              	.LVL118:
 1599 0006 0007     		lsl	r0, r0, #28	@ tmp121, D.6871,
 1600 0008 C00F     		lsr	r0, r0, #31	@ D.6872, tmp121,
 1601              		.loc 1 574 0
 1602 000a 7047     		bx	lr
 1603              	.L213:
 1604              		.align	2
 1605              	.L212:
 1606 000c 00000000 		.word	.LANCHOR0
 1607              		.cfi_endproc
 1608              	.LFE229:
 1609              		.size	Chip_I2C_IsStateChanged, .-Chip_I2C_IsStateChanged
 1610              		.section	.text.Chip_I2C_EventHandlerPolling,"ax",%progbits
 1611              		.align	1
 1612              		.global	Chip_I2C_EventHandlerPolling
 1613              		.code	16
 1614              		.thumb_func
 1615              		.type	Chip_I2C_EventHandlerPolling, %function
 1616              	Chip_I2C_EventHandlerPolling:
 1617              	.LFB213:
 349:../../lpc11cx4-library/lpc_chip_11cxx_lib/src/i2c_11xx.c **** 	struct i2c_interface *iic = &i2c;
 1618              		.loc 1 349 0
 1619              		.cfi_startproc
 1620              	.LVL119:
 1621 0000 38B5     		push	{r3, r4, r5, lr}	@
 1622              		.cfi_def_cfa_offset 16
 1623              		.cfi_offset 3, -16
 1624              		.cfi_offset 4, -12
 1625              		.cfi_offset 5, -8
 1626              		.cfi_offset 14, -4
 354:../../lpc11cx4-library/lpc_chip_11cxx_lib/src/i2c_11xx.c **** 		return;
 1627              		.loc 1 354 0
 1628 0002 0129     		cmp	r1, #1	@ event,
 1629 0004 0ED1     		bne	.L214	@,
 1630 0006 041C     		mov	r4, r0	@ id, id
 358:../../lpc11cx4-library/lpc_chip_11cxx_lib/src/i2c_11xx.c **** 	/* Call the state change handler till xfer is done */
 1631              		.loc 1 358 0
 1632 0008 074B     		ldr	r3, .L221	@ tmp115,
 1633 000a 1D69     		ldr	r5, [r3, #16]	@ D.6877, i2c.mXfer
 1634              	.LVL120:
 1635              	.L217:
 360:../../lpc11cx4-library/lpc_chip_11cxx_lib/src/i2c_11xx.c **** 		if (Chip_I2C_IsStateChanged(id)) {
 1636              		.loc 1 360 0
 1637 000c 2B7D     		ldrb	r3, [r5, #20]	@ MEM[(volatile I2C_STATUS_T *)_6 + 20B], MEM[(volatile I2C_STATUS_T *)_6 + 20B
 1638 000e 042B     		cmp	r3, #4	@ MEM[(volatile I2C_STATUS_T *)_6 + 20B],
 1639 0010 08D1     		bne	.L214	@,
 361:../../lpc11cx4-library/lpc_chip_11cxx_lib/src/i2c_11xx.c **** 			Chip_I2C_MasterStateHandler(id);
 1640              		.loc 1 361 0
 1641 0012 201C     		mov	r0, r4	@, id
ARM GAS  /tmp/ccnl65aq.s 			page 48


 1642 0014 FFF7FEFF 		bl	Chip_I2C_IsStateChanged	@
 1643              	.LVL121:
 1644 0018 0028     		cmp	r0, #0	@ D.6879,
 1645 001a F7D0     		beq	.L217	@,
 362:../../lpc11cx4-library/lpc_chip_11cxx_lib/src/i2c_11xx.c **** 		}
 1646              		.loc 1 362 0
 1647 001c 201C     		mov	r0, r4	@, id
 1648 001e FFF7FEFF 		bl	Chip_I2C_MasterStateHandler	@
 1649              	.LVL122:
 1650 0022 F3E7     		b	.L217	@
 1651              	.LVL123:
 1652              	.L214:
 365:../../lpc11cx4-library/lpc_chip_11cxx_lib/src/i2c_11xx.c **** 
 1653              		.loc 1 365 0
 1654              		@ sp needed	@
 1655 0024 38BD     		pop	{r3, r4, r5, pc}
 1656              	.L222:
 1657 0026 C046     		.align	2
 1658              	.L221:
 1659 0028 00000000 		.word	.LANCHOR0
 1660              		.cfi_endproc
 1661              	.LFE213:
 1662              		.size	Chip_I2C_EventHandlerPolling, .-Chip_I2C_EventHandlerPolling
 1663              		.section	.data.i2c,"aw",%progbits
 1664              		.align	2
 1665              		.set	.LANCHOR0,. + 0
 1666              		.type	i2c, %object
 1667              		.size	i2c, 28
 1668              	i2c:
 1669              	@ ip:
 1670 0000 00000040 		.word	1073741824
 1671              	@ clk:
 1672 0004 05       		.byte	5
 1673              	@ mEvent:
 1674 0005 000000   		.space	3
 1675 0008 00000000 		.word	Chip_I2C_EventHandler
 1676              	@ sEvent:
 1677 000c 00000000 		.word	0
 1678              	@ mXfer:
 1679 0010 00000000 		.word	0
 1680              	@ sXfer:
 1681 0014 00000000 		.word	0
 1682              	@ flags:
 1683 0018 00000000 		.word	0
 1684              		.section	.bss.i2c_slave,"aw",%nobits
 1685              		.align	2
 1686              		.set	.LANCHOR1,. + 0
 1687              		.type	i2c_slave, %object
 1688              		.size	i2c_slave, 40
 1689              	i2c_slave:
 1690 0000 00000000 		.space	40
 1690      00000000 
 1690      00000000 
 1690      00000000 
 1690      00000000 
 1691              		.text
 1692              	.Letext0:
ARM GAS  /tmp/ccnl65aq.s 			page 49


 1693              		.file 3 "/usr/arm-none-eabi/include/machine/_default_types.h"
 1694              		.file 4 "/usr/arm-none-eabi/include/sys/_stdint.h"
 1695              		.file 5 "../../lpc11cx4-library/lpc_chip_11cxx_lib/inc/sysctl_11xx.h"
 1696              		.file 6 "../../lpc11cx4-library/lpc_chip_11cxx_lib/inc/i2c_11xx.h"
 1697              		.file 7 "../../lpc11cx4-library/lpc_chip_11cxx_lib/inc/chip.h"