ARM GAS  /tmp/cc6mGMeo.s 			page 1


   1              		.cpu cortex-m0
   2              		.fpu softvfp
   3              		.eabi_attribute 20, 1	@ Tag_ABI_FP_denormal
   4              		.eabi_attribute 21, 1	@ Tag_ABI_FP_exceptions
   5              		.eabi_attribute 23, 3	@ Tag_ABI_FP_number_model
   6              		.eabi_attribute 24, 1	@ Tag_ABI_align8_needed
   7              		.eabi_attribute 25, 1	@ Tag_ABI_align8_preserved
   8              		.eabi_attribute 26, 1	@ Tag_ABI_enum_size
   9              		.eabi_attribute 30, 2	@ Tag_ABI_optimization_goals
  10              		.eabi_attribute 34, 0	@ Tag_CPU_unaligned_access
  11              		.eabi_attribute 18, 4	@ Tag_ABI_PCS_wchar_t
  12              		.file	"main.c"
  13              	@ GNU C (GNU Tools for ARM Embedded Processors) version 4.9.3 20150529 (release) [ARM/embedded-4_9-
  14              	@	compiled by GNU C version 4.8.4, GMP version 5.1.3, MPFR version 3.1.2-p3, MPC version 1.0.1
  15              	@ GGC heuristics: --param ggc-min-expand=98 --param ggc-min-heapsize=128397
  16              	@ options passed:  -I . -I inc/
  17              	@ -I ../../lpc11cx4-library/lpc_chip_11cxx_lib/inc
  18              	@ -I ../../lpc11cx4-library/evt_lib/inc/ -imultilib armv6-m
  19              	@ -iprefix /usr/bin/../lib/gcc/arm-none-eabi/4.9.3/
  20              	@ -isysroot /usr/bin/../arm-none-eabi -MD bin/main.d -MF bin/main.d -MP
  21              	@ -MQ bin/main.o -D__USES_INITFINI__ -D UART_BAUD=115200 -D CORE_M0
  22              	@ -D DEBUG_ENABLE src/main.c -mcpu=cortex-m0 -mthumb
  23              	@ -auxbase-strip bin/main.o -g -ggdb3 -O2 -Wall -Wstrict-prototypes -Wextra
  24              	@ -std=gnu90 -ffunction-sections -fdata-sections -fdiagnostics-color=always
  25              	@ -fverbose-asm
  26              	@ options enabled:  -faggressive-loop-optimizations -fauto-inc-dec
  27              	@ -fbranch-count-reg -fcaller-saves -fcombine-stack-adjustments -fcommon
  28              	@ -fcompare-elim -fcprop-registers -fcrossjumping -fcse-follow-jumps
  29              	@ -fdata-sections -fdefer-pop -fdelete-null-pointer-checks -fdevirtualize
  30              	@ -fdevirtualize-speculatively -fdwarf2-cfi-asm -fearly-inlining
  31              	@ -feliminate-unused-debug-types -fexpensive-optimizations
  32              	@ -fforward-propagate -ffunction-cse -ffunction-sections -fgcse -fgcse-lm
  33              	@ -fgnu-runtime -fgnu-unique -fguess-branch-probability
  34              	@ -fhoist-adjacent-loads -fident -fif-conversion -fif-conversion2
  35              	@ -findirect-inlining -finline -finline-atomics
  36              	@ -finline-functions-called-once -finline-small-functions -fipa-cp
  37              	@ -fipa-profile -fipa-pure-const -fipa-reference -fipa-sra
  38              	@ -fira-hoist-pressure -fira-share-save-slots -fira-share-spill-slots
  39              	@ -fisolate-erroneous-paths-dereference -fivopts -fkeep-static-consts
  40              	@ -fleading-underscore -flifetime-dse -fmath-errno -fmerge-constants
  41              	@ -fmerge-debug-strings -fmove-loop-invariants -fomit-frame-pointer
  42              	@ -foptimize-sibling-calls -foptimize-strlen -fpartial-inlining -fpeephole
  43              	@ -fpeephole2 -fprefetch-loop-arrays -freg-struct-return -freorder-blocks
  44              	@ -freorder-functions -frerun-cse-after-loop
  45              	@ -fsched-critical-path-heuristic -fsched-dep-count-heuristic
  46              	@ -fsched-group-heuristic -fsched-interblock -fsched-last-insn-heuristic
  47              	@ -fsched-pressure -fsched-rank-heuristic -fsched-spec
  48              	@ -fsched-spec-insn-heuristic -fsched-stalled-insns-dep -fschedule-insns2
  49              	@ -fsection-anchors -fshow-column -fshrink-wrap -fsigned-zeros
  50              	@ -fsplit-ivs-in-unroller -fsplit-wide-types -fstrict-aliasing
  51              	@ -fstrict-overflow -fstrict-volatile-bitfields -fsync-libcalls
  52              	@ -fthread-jumps -ftoplevel-reorder -ftrapping-math -ftree-bit-ccp
  53              	@ -ftree-builtin-call-dce -ftree-ccp -ftree-ch -ftree-coalesce-vars
  54              	@ -ftree-copy-prop -ftree-copyrename -ftree-cselim -ftree-dce
  55              	@ -ftree-dominator-opts -ftree-dse -ftree-forwprop -ftree-fre
  56              	@ -ftree-loop-if-convert -ftree-loop-im -ftree-loop-ivcanon
  57              	@ -ftree-loop-optimize -ftree-parallelize-loops= -ftree-phiprop -ftree-pre
ARM GAS  /tmp/cc6mGMeo.s 			page 2


  58              	@ -ftree-pta -ftree-reassoc -ftree-scev-cprop -ftree-sink -ftree-slsr
  59              	@ -ftree-sra -ftree-switch-conversion -ftree-tail-merge -ftree-ter
  60              	@ -ftree-vrp -funit-at-a-time -fvar-tracking -fvar-tracking-assignments
  61              	@ -fverbose-asm -fzero-initialized-in-bss -mlittle-endian -mlra
  62              	@ -mpic-data-is-text-relative -msched-prolog -mthumb
  63              	@ -mvectorize-with-neon-quad
  64              	
  65              		.text
  66              	.Ltext0:
  67              		.cfi_sections	.debug_frame
  68              		.section	.text._delay,"ax",%progbits
  69              		.align	2
  70              		.global	_delay
  71              		.code	16
  72              		.thumb_func
  73              		.type	_delay, %function
  74              	_delay:
  75              	.LFB198:
  76              		.file 1 "src/main.c"
   1:src/main.c    **** #include "board.h"
   2:src/main.c    **** #include "can.h"
   3:src/main.c    **** 
   4:src/main.c    **** // -------------------------------------------------------------
   5:src/main.c    **** // Macro Definitions
   6:src/main.c    **** 
   7:src/main.c    **** #define CCAN_BAUD_RATE 500000 					// Desired CAN Baud Rate
   8:src/main.c    **** #define UART_BAUD_RATE 115200 					// Desired UART Baud Rate
   9:src/main.c    **** #define GMB_EDGES_PER_ROTATION 49	 		        // Clock edges per wheel rotation for GBM wheel bearin
  10:src/main.c    **** 
  11:src/main.c    **** #define BUFFER_SIZE 8
  12:src/main.c    **** 
  13:src/main.c    **** // -------------------------------------------------------------
  14:src/main.c    **** // Static Variable Declaration
  15:src/main.c    **** 
  16:src/main.c    **** extern volatile uint32_t msTicks;
  17:src/main.c    **** 
  18:src/main.c    **** // Variables for the wheel velocity tracking
  19:src/main.c    **** static char rpm_str[23];		// Used for composing UART messages
  20:src/main.c    **** volatile static uint32_t rpm_ticks;	// The current running average of time
  21:src/main.c    **** volatile static uint32_t rpm_count;	// Number of samples taken since the last output
  22:src/main.c    **** volatile static uint16_t curr_rpm;	// Current RPM measurement
  23:src/main.c    **** 
  24:src/main.c    **** CCAN_MSG_OBJ_T rx_msg;
  25:src/main.c    **** static CCAN_MSG_OBJ_T msg_obj; 			// Message Object data structure for manipulating CAN messages
  26:src/main.c    **** static RINGBUFF_T can_rx_buffer; 		// Ring Buffer for storing received CAN messages
  27:src/main.c    **** static CCAN_MSG_OBJ_T _rx_buffer[BUFFER_SIZE]; 	// Underlying array used in ring buffer
  28:src/main.c    **** 
  29:src/main.c    **** static char str[100];				// Used for composing UART messages
  30:src/main.c    **** static uint8_t uart_rx_buffer[BUFFER_SIZE]; 	// UART received message buffer
  31:src/main.c    **** 
  32:src/main.c    **** static bool can_error_flag;
  33:src/main.c    **** static uint32_t can_error_info;
  34:src/main.c    **** 
  35:src/main.c    **** static uint32_t lastPrint;
  36:src/main.c    **** 
  37:src/main.c    **** // -------------------------------------------------------------
  38:src/main.c    **** // Helper Functions
ARM GAS  /tmp/cc6mGMeo.s 			page 3


  39:src/main.c    **** 
  40:src/main.c    **** /**
  41:src/main.c    ****  * Delay the processor for a given number of milliseconds
  42:src/main.c    ****  * @param ms Number of milliseconds to delay
  43:src/main.c    ****  */
  44:src/main.c    **** void _delay(uint32_t ms) {
  77              		.loc 1 44 0
  78              		.cfi_startproc
  79              	.LVL0:
  45:src/main.c    **** 	uint32_t curTicks = msTicks;
  80              		.loc 1 45 0
  81 0000 034A     		ldr	r2, .L5	@ tmp117,
  82 0002 1168     		ldr	r1, [r2]	@ curTicks, msTicks
  83              	.LVL1:
  84              	.L2:
  46:src/main.c    **** 	while ((msTicks - curTicks) < ms);
  85              		.loc 1 46 0 discriminator 1
  86 0004 1368     		ldr	r3, [r2]	@ D.6559, msTicks
  87 0006 5B1A     		sub	r3, r3, r1	@ D.6559, D.6559, curTicks
  88 0008 8342     		cmp	r3, r0	@ D.6559, ms
  89 000a FBD3     		bcc	.L2	@,
  47:src/main.c    **** }
  90              		.loc 1 47 0
  91              		@ sp needed	@
  92 000c 7047     		bx	lr
  93              	.L6:
  94 000e C046     		.align	2
  95              	.L5:
  96 0010 00000000 		.word	msTicks
  97              		.cfi_endproc
  98              	.LFE198:
  99              		.size	_delay, .-_delay
 100              		.global	__aeabi_uidiv
 101              		.section	.text.TIMER32_0_IRQHandler,"ax",%progbits
 102              		.align	2
 103              		.global	TIMER32_0_IRQHandler
 104              		.code	16
 105              		.thumb_func
 106              		.type	TIMER32_0_IRQHandler, %function
 107              	TIMER32_0_IRQHandler:
 108              	.LFB200:
  48:src/main.c    **** 
  49:src/main.c    **** static void Print_Buffer(uint8_t* buff, uint8_t buff_size) {
  50:src/main.c    ****     Chip_UART_SendBlocking(LPC_USART, "0x", 2);
  51:src/main.c    ****     uint8_t i;
  52:src/main.c    ****     for(i = 0; i < buff_size; i++) {
  53:src/main.c    ****         itoa(buff[i], str, 16);
  54:src/main.c    ****         if(buff[i] < 16) {
  55:src/main.c    ****             Chip_UART_SendBlocking(LPC_USART, "0", 1);
  56:src/main.c    ****         }
  57:src/main.c    ****         Chip_UART_SendBlocking(LPC_USART, str, 2);
  58:src/main.c    ****     }
  59:src/main.c    **** }
  60:src/main.c    **** // -------------------------------------------------------------
  61:src/main.c    **** 
  62:src/main.c    **** // Interrupt Service Routines
  63:src/main.c    **** 
ARM GAS  /tmp/cc6mGMeo.s 			page 4


  64:src/main.c    **** void TIMER32_0_IRQHandler(void){
 109              		.loc 1 64 0
 110              		.cfi_startproc
 111 0000 70B5     		push	{r4, r5, r6, lr}	@
 112              		.cfi_def_cfa_offset 16
 113              		.cfi_offset 4, -16
 114              		.cfi_offset 5, -12
 115              		.cfi_offset 6, -8
 116              		.cfi_offset 14, -4
  65:src/main.c    **** 	Board_Timer0_Reset_Clear();
 117              		.loc 1 65 0
 118 0002 FFF7FEFF 		bl	Board_Timer0_Reset_Clear	@
 119              	.LVL2:
  66:src/main.c    **** 	rpm_ticks = (rpm_ticks*rpm_count+Board_Timer0_ReadCapture())/(1+rpm_count);	// Continue the runnin
 120              		.loc 1 66 0
 121 0006 084D     		ldr	r5, .L8	@ tmp121,
 122 0008 084E     		ldr	r6, .L8+4	@ tmp120,
  67:src/main.c    **** 	rpm_count++;    								// Increase the count to allow the running average to be properly computed
  68:src/main.c    **** }
 123              		.loc 1 68 0
 124              		@ sp needed	@
  66:src/main.c    **** 	rpm_ticks = (rpm_ticks*rpm_count+Board_Timer0_ReadCapture())/(1+rpm_count);	// Continue the runnin
 125              		.loc 1 66 0
 126 000a 3368     		ldr	r3, [r6]	@ D.6562, rpm_ticks
 127 000c 2C68     		ldr	r4, [r5]	@ D.6562, rpm_count
 128 000e 5C43     		mul	r4, r3	@ D.6562, D.6562
 129 0010 FFF7FEFF 		bl	Board_Timer0_ReadCapture	@
 130              	.LVL3:
 131 0014 2968     		ldr	r1, [r5]	@ D.6562, rpm_count
 132 0016 0019     		add	r0, r0, r4	@ D.6562, D.6562, D.6562
 133 0018 0131     		add	r1, r1, #1	@ D.6562,
 134 001a FFF7FEFF 		bl	__aeabi_uidiv	@
 135              	.LVL4:
 136 001e 3060     		str	r0, [r6]	@ tmp127, rpm_ticks
  67:src/main.c    **** 	rpm_count++;    								// Increase the count to allow the running average to be properly computed
 137              		.loc 1 67 0
 138 0020 2B68     		ldr	r3, [r5]	@ D.6562, rpm_count
 139 0022 0133     		add	r3, r3, #1	@ D.6562,
 140 0024 2B60     		str	r3, [r5]	@ D.6562, rpm_count
 141              		.loc 1 68 0
 142 0026 70BD     		pop	{r4, r5, r6, pc}
 143              	.L9:
 144              		.align	2
 145              	.L8:
 146 0028 00000000 		.word	.LANCHOR1
 147 002c 00000000 		.word	.LANCHOR0
 148              		.cfi_endproc
 149              	.LFE200:
 150              		.size	TIMER32_0_IRQHandler, .-TIMER32_0_IRQHandler
 151              		.section	.text.startup.main,"ax",%progbits
 152              		.align	2
 153              		.global	main
 154              		.code	16
 155              		.thumb_func
 156              		.type	main, %function
 157              	main:
 158              	.LFB201:
ARM GAS  /tmp/cc6mGMeo.s 			page 5


  69:src/main.c    **** // -------------------------------------------------------------
  70:src/main.c    **** // Main Program Loop
  71:src/main.c    **** 
  72:src/main.c    **** int main(void)
  73:src/main.c    **** {
 159              		.loc 1 73 0
 160              		.cfi_startproc
 161 0000 F0B5     		push	{r4, r5, r6, r7, lr}	@
 162              		.cfi_def_cfa_offset 20
 163              		.cfi_offset 4, -20
 164              		.cfi_offset 5, -16
 165              		.cfi_offset 6, -12
 166              		.cfi_offset 7, -8
 167              		.cfi_offset 14, -4
 168 0002 4446     		mov	r4, r8	@,
 169 0004 5F46     		mov	r7, fp	@,
 170 0006 5646     		mov	r6, r10	@,
 171 0008 4D46     		mov	r5, r9	@,
 172 000a F0B4     		push	{r4, r5, r6, r7}	@
 173              		.cfi_def_cfa_offset 36
 174              		.cfi_offset 8, -36
 175              		.cfi_offset 9, -32
 176              		.cfi_offset 10, -28
 177              		.cfi_offset 11, -24
 178 000c 85B0     		sub	sp, sp, #20	@,,
 179              		.cfi_def_cfa_offset 56
  74:src/main.c    **** 
  75:src/main.c    **** 	//---------------
  76:src/main.c    **** 	// Initialize SysTick Timer to generate millisecond count
  77:src/main.c    **** 	if (Board_SysTick_Init()) {
 180              		.loc 1 77 0
 181 000e FFF7FEFF 		bl	Board_SysTick_Init	@
 182              	.LVL5:
 183 0012 041E     		sub	r4, r0, #0	@ tmp174,,
 184 0014 00D0     		beq	.L11	@,
 185              	.L36:
  78:src/main.c    **** 		// Unrecoverable Error. Hang.
  79:src/main.c    **** 		while(1);
 186              		.loc 1 79 0 discriminator 1
 187 0016 FEE7     		b	.L36	@
 188              	.L11:
  80:src/main.c    **** 	}
  81:src/main.c    **** 	//---------------
  82:src/main.c    **** 	// Initialize UART Communication
  83:src/main.c    **** 	Board_UART_Init(UART_BAUD_RATE);
 189              		.loc 1 83 0
 190 0018 E120     		mov	r0, #225	@,
 191 001a 4002     		lsl	r0, r0, #9	@,,
 192 001c FFF7FEFF 		bl	Board_UART_Init	@
 193              	.LVL6:
  84:src/main.c    **** 	Board_UART_Println("Started up");
 194              		.loc 1 84 0
 195 0020 6148     		ldr	r0, .L39	@,
 196 0022 FFF7FEFF 		bl	Board_UART_Println	@
 197              	.LVL7:
  85:src/main.c    **** 
  86:src/main.c    **** 	//---------------
ARM GAS  /tmp/cc6mGMeo.s 			page 6


  87:src/main.c    **** 	// Initialize GPIO and LED as output
  88:src/main.c    **** //	Board_LEDs_Init();
  89:src/main.c    **** //	Board_LED_On(LED0);
  90:src/main.c    **** 
  91:src/main.c    **** 	//---------------
  92:src/main.c    **** 	// Initialize CAN  and CAN Ring Buffer
  93:src/main.c    **** 
  94:src/main.c    **** 	CAN_Init(CCAN_BAUD_RATE);
 198              		.loc 1 94 0
 199 0026 6148     		ldr	r0, .L39+4	@,
 200 0028 FFF7FEFF 		bl	CAN_Init	@
 201              	.LVL8:
  95:src/main.c    **** 
  96:src/main.c    **** //	rpm_count = 0;
  97:src/main.c    **** 
  98:src/main.c    **** 	Board_Setup_Timers();
 202              		.loc 1 98 0
 203 002c FFF7FEFF 		bl	Board_Setup_Timers	@
 204              	.LVL9:
  99:src/main.c    **** 
 100:src/main.c    **** 	// For your convenience.
 101:src/main.c    **** 	// typedef struct CCAN_MSG_OBJ {
 102:src/main.c    **** 	// 	uint32_t  mode_id;
 103:src/main.c    **** 	// 	uint32_t  mask;
 104:src/main.c    **** 	// 	uint8_t   data[8];
 105:src/main.c    **** 	// 	uint8_t   dlc;
 106:src/main.c    **** 	// 	uint8_t   msgobj;
 107:src/main.c    **** 	// } CCAN_MSG_OBJ_T;
 108:src/main.c    **** 
 109:src/main.c    **** 	/* [Tutorial] How do filters work?
 110:src/main.c    **** 
 111:src/main.c    **** 		Incoming ID & Mask == Mode_ID for msgobj to accept message
 112:src/main.c    **** 
 113:src/main.c    **** 		Incoming ID : 0xabc
 114:src/main.c    **** 		Mask: 		  0xF0F &
 115:src/main.c    **** 		            -----------
 116:src/main.c    **** 		              0xa0c
 117:src/main.c    **** 
 118:src/main.c    **** 		mode_id == 0xa0c for msgobj to accept message
 119:src/main.c    **** 
 120:src/main.c    **** 	*/
 121:src/main.c    **** 
 122:src/main.c    **** 
 123:src/main.c    **** 	/* [Tutorial] How do I send a CAN Message?
 124:src/main.c    **** 
 125:src/main.c    **** 		There are 32 Message Objects in the CAN Peripherals Message RAM.
 126:src/main.c    **** 		We need to pick one that isn't setup for receiving messages and use it to send.
 127:src/main.c    **** 
 128:src/main.c    **** 		For this exmaple we'll pick 31
 129:src/main.c    **** 
 130:src/main.c    **** 		msg_obj.msgobj = 31;
 131:src/main.c    **** 		msg_obj.mode_id = 0x600; 		// CAN ID of Message to Send
 132:src/main.c    **** 		msg_obj.dlc = 8; 				// Byte length of CAN Message
 133:src/main.c    **** 		msg_obj.data[0] = 0xAA; 		// Fill your bytes here
 134:src/main.c    **** 		msg_obj.data[1] = ..;
 135:src/main.c    **** 		..
 136:src/main.c    **** 		msg_obj.data[7] = 0xBB:
ARM GAS  /tmp/cc6mGMeo.s 			page 7


 137:src/main.c    **** 
 138:src/main.c    **** 		Now its time to send
 139:src/main.c    **** 		LPC_CCAN_API->can_transmit(&msg_obj);
 140:src/main.c    **** 
 141:src/main.c    **** 	*/
 142:src/main.c    **** 	uint32_t ret;
 143:src/main.c    **** 	uint32_t reset_can_peripheral_time;
 144:src/main.c    **** 	const uint32_t can_error_delay = 5000;
 145:src/main.c    **** 	bool reset_can_peripheral = false;
 146:src/main.c    **** 	can_error_flag = false;
 205              		.loc 1 146 0
 206 0030 5F4B     		ldr	r3, .L39+8	@ tmp179,
 147:src/main.c    **** 	can_error_info = 0;
 148:src/main.c    **** 	uint8_t heartbeat[1];
 149:src/main.c    **** 	heartbeat[0] = 0x10; 
 207              		.loc 1 149 0
 208 0032 02AA     		add	r2, sp, #8	@ tmp268,,
 146:src/main.c    **** 	can_error_info = 0;
 209              		.loc 1 146 0
 210 0034 1C70     		strb	r4, [r3]	@ tmp174, can_error_flag
 147:src/main.c    **** 	can_error_info = 0;
 211              		.loc 1 147 0
 212 0036 5F4B     		ldr	r3, .L39+12	@ tmp182,
 213 0038 5F4F     		ldr	r7, .L39+16	@ tmp253,
 214 003a 1C60     		str	r4, [r3]	@ tmp174, can_error_info
 215              		.loc 1 149 0
 216 003c 1023     		mov	r3, #16	@ tmp185,
 217 003e 1370     		strb	r3, [r2]	@ tmp185, heartbeat
 145:src/main.c    **** 	can_error_flag = false;
 218              		.loc 1 145 0
 219 0040 0023     		mov	r3, #0	@ reset_can_peripheral,
 220 0042 9946     		mov	r9, r3	@ reset_can_peripheral, reset_can_peripheral
 221 0044 5D4B     		ldr	r3, .L39+20	@ tmp256,
 222 0046 5E4D     		ldr	r5, .L39+24	@ tmp249,
 223 0048 9846     		mov	r8, r3	@ tmp256, tmp256
 224 004a 5E4B     		ldr	r3, .L39+28	@ tmp257,
 225 004c 9B46     		mov	fp, r3	@ tmp257, tmp257
 226 004e 5E4B     		ldr	r3, .L39+32	@ tmp245,
 227 0050 9A46     		mov	r10, r3	@ tmp245, tmp245
 228              	.LVL10:
 229              	.L25:
 230              	.LBB7:
 150:src/main.c    **** //	uint8_t dt=0x04;
 151:src/main.c    **** 
 152:src/main.c    **** 	while (1) {
 153:src/main.c    **** 
 154:src/main.c    **** 		if (lastPrint<msTicks-200) {
 231              		.loc 1 154 0
 232 0052 4346     		mov	r3, r8	@ tmp256, tmp256
 233 0054 5A46     		mov	r2, fp	@ tmp257, tmp257
 234 0056 1B68     		ldr	r3, [r3]	@ D.6581, msTicks
 235 0058 1268     		ldr	r2, [r2]	@ tmp275, lastPrint
 236 005a C83B     		sub	r3, r3, #200	@ D.6581,
 237 005c 9342     		cmp	r3, r2	@ D.6581, tmp275
 238 005e 6FD8     		bhi	.L37	@,
 239              	.L13:
 155:src/main.c    **** //			Board_UART_Println("Sending heartbeat");
ARM GAS  /tmp/cc6mGMeo.s 			page 8


 156:src/main.c    **** 			CAN_Transmit(0x703,heartbeat,1);
 157:src/main.c    **** 			lastPrint = msTicks;
 158:src/main.c    **** 		}
 159:src/main.c    **** 		/* //increments velocity msg
 160:src/main.c    **** 		heartbeat[0] = heartbeat[0]+dt;
 161:src/main.c    **** 		if (heartbeat[0]>0xF0) {
 162:src/main.c    **** 			heartbeat[0]=0x00;
 163:src/main.c    **** 		}*/
 164:src/main.c    **** 
 165:src/main.c    **** 		if(reset_can_peripheral && msTicks > reset_can_peripheral_time) {
 240              		.loc 1 165 0
 241 0060 4B46     		mov	r3, r9	@ reset_can_peripheral, reset_can_peripheral
 242 0062 002B     		cmp	r3, #0	@ reset_can_peripheral,
 243 0064 05D0     		beq	.L14	@,
 244              		.loc 1 165 0 is_stmt 0 discriminator 1
 245 0066 4346     		mov	r3, r8	@ tmp256, tmp256
 246 0068 019A     		ldr	r2, [sp, #4]	@ reset_can_peripheral_time, %sfp
 247 006a 1B68     		ldr	r3, [r3]	@ D.6581, msTicks
 248 006c 9A42     		cmp	r2, r3	@ reset_can_peripheral_time, D.6581
 249 006e 00D2     		bcs	.LCB170	@
 250 0070 8CE0     		b	.L38	@long jump	@
 251              	.LCB170:
 252              	.LVL11:
 253              	.L14:
 166:src/main.c    **** 		    Board_UART_Println("Attempting to reset CAN peripheral...");
 167:src/main.c    **** 		    CAN_ResetPeripheral();
 168:src/main.c    **** 		    CAN_Init(CCAN_BAUD_RATE);
 169:src/main.c    **** 		    Board_UART_Println("Reset CAN peripheral. ");
 170:src/main.c    **** 		    reset_can_peripheral = false;
 171:src/main.c    **** 		}
 172:src/main.c    **** 
 173:src/main.c    **** 
 174:src/main.c    ****             // recieve message if there is a message
 175:src/main.c    **** 		    ret = CAN_Receive(&rx_msg);
 254              		.loc 1 175 0 is_stmt 1
 255 0072 381C     		mov	r0, r7	@, tmp253
 256 0074 FFF7FEFF 		bl	CAN_Receive	@
 257              	.LVL12:
 258 0078 041E     		sub	r4, r0, #0	@ tmp200,,
 259              	.LVL13:
 176:src/main.c    **** 		    if(ret == NO_RX_CAN_MESSAGE) {
 260              		.loc 1 176 0
 261 007a 012C     		cmp	r4, #1	@ tmp200,
 262 007c 37D0     		beq	.L15	@,
 177:src/main.c    **** //		        Board_UART_Println("No CAN message received...");
 178:src/main.c    **** 		    } else if(ret == NO_CAN_ERROR) {
 263              		.loc 1 178 0
 264 007e 0028     		cmp	r0, #0	@ tmp200,
 265 0080 68D1     		bne	.L16	@,
 179:src/main.c    **** 		        Board_UART_Print("Recieved data ");
 266              		.loc 1 179 0
 267 0082 5248     		ldr	r0, .L39+36	@,
 268              	.LVL14:
 269 0084 FFF7FEFF 		bl	Board_UART_Print	@
 270              	.LVL15:
 180:src/main.c    **** 		        Print_Buffer(rx_msg.data, rx_msg.dlc);
 271              		.loc 1 180 0
ARM GAS  /tmp/cc6mGMeo.s 			page 9


 272 0088 3E7C     		ldrb	r6, [r7, #16]	@ D.6583,
 273              	.LVL16:
 274              	.LBB8:
 275              	.LBB9:
  50:src/main.c    ****     uint8_t i;
 276              		.loc 1 50 0
 277 008a 5148     		ldr	r0, .L39+40	@,
 278 008c 5149     		ldr	r1, .L39+44	@,
 279 008e 0222     		mov	r2, #2	@,
 280 0090 FFF7FEFF 		bl	Chip_UART_SendBlocking	@
 281              	.LVL17:
  52:src/main.c    ****         itoa(buff[i], str, 16);
 282              		.loc 1 52 0
 283 0094 002E     		cmp	r6, #0	@ D.6583,
 284 0096 22D0     		beq	.L20	@,
 285 0098 013E     		sub	r6, r6, #1	@ tmp209,
 286              	.LVL18:
 287 009a F6B2     		uxtb	r6, r6	@ D.6586, tmp209
 288              	.LVL19:
 289 009c 0136     		add	r6, r6, #1	@ D.6586,
 290 009e 3C1C     		mov	r4, r7	@ ivtmp.28, tmp253
 291              	.LVL20:
 292 00a0 BE19     		add	r6, r7, r6	@ D.6588, tmp253, D.6586
 293 00a2 07E0     		b	.L19	@
 294              	.LVL21:
 295              	.L18:
 296              	.LBB10:
  57:src/main.c    ****     }
 297              		.loc 1 57 0
 298 00a4 4A48     		ldr	r0, .L39+40	@,
 299 00a6 291C     		mov	r1, r5	@, tmp249
 300 00a8 0222     		mov	r2, #2	@,
 301 00aa 0134     		add	r4, r4, #1	@ ivtmp.28,
 302              	.LVL22:
 303 00ac FFF7FEFF 		bl	Chip_UART_SendBlocking	@
 304              	.LVL23:
 305              	.LBE10:
  52:src/main.c    ****         itoa(buff[i], str, 16);
 306              		.loc 1 52 0
 307 00b0 B442     		cmp	r4, r6	@ ivtmp.28, D.6588
 308 00b2 14D0     		beq	.L20	@,
 309              	.L19:
 310              	.LVL24:
 311              	.LBB11:
  53:src/main.c    ****         if(buff[i] < 16) {
 312              		.loc 1 53 0
 313 00b4 207A     		ldrb	r0, [r4, #8]	@ D.6584, MEM[base: _81, offset: 8B]
 314 00b6 291C     		mov	r1, r5	@, tmp249
 315 00b8 1022     		mov	r2, #16	@,
 316 00ba FFF7FEFF 		bl	itoa	@
 317              	.LVL25:
  54:src/main.c    ****             Chip_UART_SendBlocking(LPC_USART, "0", 1);
 318              		.loc 1 54 0
 319 00be 237A     		ldrb	r3, [r4, #8]	@ MEM[base: _81, offset: 8B], MEM[base: _81, offset: 8B]
 320 00c0 0F2B     		cmp	r3, #15	@ MEM[base: _81, offset: 8B],
 321 00c2 EFD8     		bhi	.L18	@,
  55:src/main.c    ****         }
ARM GAS  /tmp/cc6mGMeo.s 			page 10


 322              		.loc 1 55 0
 323 00c4 4449     		ldr	r1, .L39+48	@,
 324 00c6 0122     		mov	r2, #1	@,
 325 00c8 4148     		ldr	r0, .L39+40	@,
 326 00ca FFF7FEFF 		bl	Chip_UART_SendBlocking	@
 327              	.LVL26:
 328 00ce 0134     		add	r4, r4, #1	@ ivtmp.28,
 329              	.LVL27:
  57:src/main.c    ****     }
 330              		.loc 1 57 0
 331 00d0 3F48     		ldr	r0, .L39+40	@,
 332 00d2 291C     		mov	r1, r5	@, tmp249
 333 00d4 0222     		mov	r2, #2	@,
 334 00d6 FFF7FEFF 		bl	Chip_UART_SendBlocking	@
 335              	.LVL28:
 336              	.LBE11:
  52:src/main.c    ****         itoa(buff[i], str, 16);
 337              		.loc 1 52 0
 338 00da B442     		cmp	r4, r6	@ ivtmp.28, D.6588
 339 00dc EAD1     		bne	.L19	@,
 340              	.L20:
 341              	.LBE9:
 342              	.LBE8:
 181:src/main.c    **** 		        Board_UART_Print(" from ");
 343              		.loc 1 181 0
 344 00de 3F48     		ldr	r0, .L39+52	@,
 345 00e0 FFF7FEFF 		bl	Board_UART_Print	@
 346              	.LVL29:
 182:src/main.c    **** 		        Board_UART_PrintNum(rx_msg.mode_id,16,true);
 347              		.loc 1 182 0
 348 00e4 3868     		ldr	r0, [r7]	@, rx_msg.mode_id
 349 00e6 1021     		mov	r1, #16	@,
 350 00e8 0122     		mov	r2, #1	@,
 351 00ea FFF7FEFF 		bl	Board_UART_PrintNum	@
 352              	.LVL30:
 353              	.L15:
 183:src/main.c    **** 		    } else {
 184:src/main.c    **** 		        Board_UART_Print("CAN Error: ");
 185:src/main.c    **** 		        Board_UART_PrintNum(ret, 2,true);
 186:src/main.c    **** 
 187:src/main.c    **** 		        Board_UART_Print("Will attempt to reset peripheral in ");
 188:src/main.c    **** 		        Board_UART_PrintNum(can_error_delay/1000,10,false);
 189:src/main.c    **** 		        Board_UART_Println(" seconds.");
 190:src/main.c    **** 		        reset_can_peripheral = true;
 191:src/main.c    **** 		        reset_can_peripheral_time = msTicks + can_error_delay;
 192:src/main.c    **** 		    }
 193:src/main.c    **** 
 194:src/main.c    **** 		uint8_t count;
 195:src/main.c    **** 		uint8_t data[1];	
 196:src/main.c    ****         
 197:src/main.c    **** 		if ((count = Chip_UART_Read(LPC_USART, uart_rx_buffer, BUFFER_SIZE)) != 0) {
 354              		.loc 1 197 0
 355 00ee 3848     		ldr	r0, .L39+40	@,
 356 00f0 5146     		mov	r1, r10	@, tmp245
 357 00f2 0822     		mov	r2, #8	@,
 358 00f4 FFF7FEFF 		bl	Chip_UART_Read	@
 359              	.LVL31:
ARM GAS  /tmp/cc6mGMeo.s 			page 11


 360 00f8 C0B2     		uxtb	r0, r0	@ D.6584, D.6584
 361 00fa 0028     		cmp	r0, #0	@ D.6584,
 362 00fc A9D0     		beq	.L25	@,
 198:src/main.c    **** 			switch (uart_rx_buffer[0]) {
 363              		.loc 1 198 0
 364 00fe 5346     		mov	r3, r10	@ tmp245, tmp245
 365 0100 1B78     		ldrb	r3, [r3]	@ D.6583, uart_rx_buffer
 366 0102 612B     		cmp	r3, #97	@ D.6583,
 367 0104 A5D1     		bne	.L25	@,
 199:src/main.c    **** 				case 'a':
 200:src/main.c    **** 					Board_UART_Println("Sending CAN with ID: 0x600");
 368              		.loc 1 200 0
 369 0106 3648     		ldr	r0, .L39+56	@,
 370              	.LVL32:
 371 0108 FFF7FEFF 		bl	Board_UART_Println	@
 372              	.LVL33:
 201:src/main.c    **** 					data[0] = 0xAA;
 373              		.loc 1 201 0
 374 010c AA23     		mov	r3, #170	@ tmp234,
 202:src/main.c    **** 					ret = CAN_Transmit(0x600, data, 1);
 375              		.loc 1 202 0
 376 010e C020     		mov	r0, #192	@,
 201:src/main.c    **** 					data[0] = 0xAA;
 377              		.loc 1 201 0
 378 0110 02AA     		add	r2, sp, #8	@ tmp291,,
 379 0112 1371     		strb	r3, [r2, #4]	@ tmp234, data
 380              		.loc 1 202 0
 381 0114 C000     		lsl	r0, r0, #3	@,,
 382 0116 03A9     		add	r1, sp, #12	@ tmp292,,
 383 0118 0122     		mov	r2, #1	@,
 384 011a FFF7FEFF 		bl	CAN_Transmit	@
 385              	.LVL34:
 386 011e 041E     		sub	r4, r0, #0	@ tmp238,,
 387              	.LVL35:
 203:src/main.c    **** 					    if(ret != NO_CAN_ERROR) {
 388              		.loc 1 203 0
 389 0120 97D0     		beq	.L25	@,
 204:src/main.c    **** 						Board_UART_Print("CAN Error: ");
 390              		.loc 1 204 0
 391 0122 3048     		ldr	r0, .L39+60	@,
 392              	.LVL36:
 393 0124 FFF7FEFF 		bl	Board_UART_Print	@
 394              	.LVL37:
 205:src/main.c    **** 						Board_UART_PrintNum(ret, 2,true);
 395              		.loc 1 205 0
 396 0128 0122     		mov	r2, #1	@,
 397 012a 201C     		mov	r0, r4	@, tmp238
 398 012c 0221     		mov	r1, #2	@,
 399 012e FFF7FEFF 		bl	Board_UART_PrintNum	@
 400              	.LVL38:
 154:src/main.c    **** //			Board_UART_Println("Sending heartbeat");
 401              		.loc 1 154 0
 402 0132 4346     		mov	r3, r8	@ tmp256, tmp256
 403 0134 5A46     		mov	r2, fp	@ tmp257, tmp257
 404 0136 1B68     		ldr	r3, [r3]	@ D.6581, msTicks
 405 0138 1268     		ldr	r2, [r2]	@ tmp275, lastPrint
 406 013a C83B     		sub	r3, r3, #200	@ D.6581,
ARM GAS  /tmp/cc6mGMeo.s 			page 12


 407 013c 9342     		cmp	r3, r2	@ D.6581, tmp275
 408 013e 8FD9     		bls	.L13	@,
 409              	.L37:
 156:src/main.c    **** 			lastPrint = msTicks;
 410              		.loc 1 156 0
 411 0140 0122     		mov	r2, #1	@,
 412 0142 2948     		ldr	r0, .L39+64	@,
 413 0144 02A9     		add	r1, sp, #8	@,,
 414 0146 FFF7FEFF 		bl	CAN_Transmit	@
 415              	.LVL39:
 157:src/main.c    **** 		}
 416              		.loc 1 157 0
 417 014a 4346     		mov	r3, r8	@ tmp256, tmp256
 418 014c 5A46     		mov	r2, fp	@ tmp257, tmp257
 419 014e 1B68     		ldr	r3, [r3]	@ D.6581, msTicks
 420 0150 1360     		str	r3, [r2]	@ D.6581, lastPrint
 421 0152 85E7     		b	.L13	@
 422              	.LVL40:
 423              	.L16:
 184:src/main.c    **** 		        Board_UART_PrintNum(ret, 2,true);
 424              		.loc 1 184 0
 425 0154 2348     		ldr	r0, .L39+60	@,
 426              	.LVL41:
 427 0156 FFF7FEFF 		bl	Board_UART_Print	@
 428              	.LVL42:
 185:src/main.c    **** 
 429              		.loc 1 185 0
 430 015a 0221     		mov	r1, #2	@,
 431 015c 0122     		mov	r2, #1	@,
 432 015e 201C     		mov	r0, r4	@, tmp200
 433 0160 FFF7FEFF 		bl	Board_UART_PrintNum	@
 434              	.LVL43:
 187:src/main.c    **** 		        Board_UART_PrintNum(can_error_delay/1000,10,false);
 435              		.loc 1 187 0
 436 0164 2148     		ldr	r0, .L39+68	@,
 437 0166 FFF7FEFF 		bl	Board_UART_Print	@
 438              	.LVL44:
 188:src/main.c    **** 		        Board_UART_Println(" seconds.");
 439              		.loc 1 188 0
 440 016a 0022     		mov	r2, #0	@,
 441 016c 0520     		mov	r0, #5	@,
 442 016e 0A21     		mov	r1, #10	@,
 443 0170 FFF7FEFF 		bl	Board_UART_PrintNum	@
 444              	.LVL45:
 189:src/main.c    **** 		        reset_can_peripheral = true;
 445              		.loc 1 189 0
 446 0174 1E48     		ldr	r0, .L39+72	@,
 447 0176 FFF7FEFF 		bl	Board_UART_Println	@
 448              	.LVL46:
 191:src/main.c    **** 		    }
 449              		.loc 1 191 0
 450 017a 4346     		mov	r3, r8	@ tmp256, tmp256
 451 017c 1D4A     		ldr	r2, .L39+76	@ tmp286,
 452 017e 1B68     		ldr	r3, [r3]	@ D.6581, msTicks
 453 0180 9446     		mov	ip, r2	@ tmp286, tmp286
 454 0182 6344     		add	r3, r3, ip	@ reset_can_peripheral_time, tmp286
 455 0184 0193     		str	r3, [sp, #4]	@ reset_can_peripheral_time, %sfp
ARM GAS  /tmp/cc6mGMeo.s 			page 13


 456              	.LVL47:
 190:src/main.c    **** 		        reset_can_peripheral_time = msTicks + can_error_delay;
 457              		.loc 1 190 0
 458 0186 0123     		mov	r3, #1	@ reset_can_peripheral,
 459              	.LVL48:
 460 0188 9946     		mov	r9, r3	@ reset_can_peripheral, reset_can_peripheral
 461 018a B0E7     		b	.L15	@
 462              	.LVL49:
 463              	.L38:
 166:src/main.c    **** 		    CAN_ResetPeripheral();
 464              		.loc 1 166 0
 465 018c 1A48     		ldr	r0, .L39+80	@,
 466 018e FFF7FEFF 		bl	Board_UART_Println	@
 467              	.LVL50:
 167:src/main.c    **** 		    CAN_Init(CCAN_BAUD_RATE);
 468              		.loc 1 167 0
 469 0192 FFF7FEFF 		bl	CAN_ResetPeripheral	@
 470              	.LVL51:
 168:src/main.c    **** 		    Board_UART_Println("Reset CAN peripheral. ");
 471              		.loc 1 168 0
 472 0196 0548     		ldr	r0, .L39+4	@,
 473 0198 FFF7FEFF 		bl	CAN_Init	@
 474              	.LVL52:
 169:src/main.c    **** 		    reset_can_peripheral = false;
 475              		.loc 1 169 0
 476 019c 1748     		ldr	r0, .L39+84	@,
 477 019e FFF7FEFF 		bl	Board_UART_Println	@
 478              	.LVL53:
 170:src/main.c    **** 		}
 479              		.loc 1 170 0
 480 01a2 0023     		mov	r3, #0	@ reset_can_peripheral,
 481 01a4 9946     		mov	r9, r3	@ reset_can_peripheral, reset_can_peripheral
 482 01a6 64E7     		b	.L14	@
 483              	.L40:
 484              		.align	2
 485              	.L39:
 486 01a8 00000000 		.word	.LC7
 487 01ac 20A10700 		.word	500000
 488 01b0 00000000 		.word	.LANCHOR2
 489 01b4 00000000 		.word	.LANCHOR3
 490 01b8 00000000 		.word	rx_msg
 491 01bc 00000000 		.word	msTicks
 492 01c0 00000000 		.word	.LANCHOR5
 493 01c4 00000000 		.word	.LANCHOR4
 494 01c8 00000000 		.word	.LANCHOR6
 495 01cc 4C000000 		.word	.LC17
 496 01d0 00800040 		.word	1073774592
 497 01d4 5C000000 		.word	.LC19
 498 01d8 68000000 		.word	.LC24
 499 01dc 60000000 		.word	.LC21
 500 01e0 AC000000 		.word	.LC33
 501 01e4 6C000000 		.word	.LC26
 502 01e8 03070000 		.word	1795
 503 01ec 78000000 		.word	.LC28
 504 01f0 A0000000 		.word	.LC30
 505 01f4 88130000 		.word	5000
 506 01f8 0C000000 		.word	.LC13
ARM GAS  /tmp/cc6mGMeo.s 			page 14


 507 01fc 34000000 		.word	.LC15
 508              	.LBE7:
 509              		.cfi_endproc
 510              	.LFE201:
 511              		.size	main, .-main
 512              		.comm	rx_msg,24,8
 513              		.comm	msTicks,4,4
 514              		.section	.bss.can_error_flag,"aw",%nobits
 515              		.set	.LANCHOR2,. + 0
 516              		.type	can_error_flag, %object
 517              		.size	can_error_flag, 1
 518              	can_error_flag:
 519 0000 00       		.space	1
 520              		.section	.bss.str,"aw",%nobits
 521              		.align	2
 522              		.set	.LANCHOR5,. + 0
 523              		.type	str, %object
 524              		.size	str, 100
 525              	str:
 526 0000 00000000 		.space	100
 526      00000000 
 526      00000000 
 526      00000000 
 526      00000000 
 527              		.section	.bss.uart_rx_buffer,"aw",%nobits
 528              		.align	2
 529              		.set	.LANCHOR6,. + 0
 530              		.type	uart_rx_buffer, %object
 531              		.size	uart_rx_buffer, 8
 532              	uart_rx_buffer:
 533 0000 00000000 		.space	8
 533      00000000 
 534              		.section	.bss.lastPrint,"aw",%nobits
 535              		.align	2
 536              		.set	.LANCHOR4,. + 0
 537              		.type	lastPrint, %object
 538              		.size	lastPrint, 4
 539              	lastPrint:
 540 0000 00000000 		.space	4
 541              		.section	.bss.rpm_ticks,"aw",%nobits
 542              		.align	2
 543              		.set	.LANCHOR0,. + 0
 544              		.type	rpm_ticks, %object
 545              		.size	rpm_ticks, 4
 546              	rpm_ticks:
 547 0000 00000000 		.space	4
 548              		.section	.bss.can_error_info,"aw",%nobits
 549              		.align	2
 550              		.set	.LANCHOR3,. + 0
 551              		.type	can_error_info, %object
 552              		.size	can_error_info, 4
 553              	can_error_info:
 554 0000 00000000 		.space	4
 555              		.section	.bss.curr_rpm,"aw",%nobits
 556              		.align	1
 557              		.type	curr_rpm, %object
 558              		.size	curr_rpm, 2
ARM GAS  /tmp/cc6mGMeo.s 			page 15


 559              	curr_rpm:
 560 0000 0000     		.space	2
 561              		.section	.rodata.str1.4,"aMS",%progbits,1
 562              		.align	2
 563              	.LC7:
 564 0000 53746172 		.ascii	"Started up\000"
 564      74656420 
 564      757000
 565 000b 00       		.space	1
 566              	.LC13:
 567 000c 41747465 		.ascii	"Attempting to reset CAN peripheral...\000"
 567      6D707469 
 567      6E672074 
 567      6F207265 
 567      73657420 
 568 0032 0000     		.space	2
 569              	.LC15:
 570 0034 52657365 		.ascii	"Reset CAN peripheral. \000"
 570      74204341 
 570      4E207065 
 570      72697068 
 570      6572616C 
 571 004b 00       		.space	1
 572              	.LC17:
 573 004c 52656369 		.ascii	"Recieved data \000"
 573      65766564 
 573      20646174 
 573      612000
 574 005b 00       		.space	1
 575              	.LC19:
 576 005c 307800   		.ascii	"0x\000"
 577 005f 00       		.space	1
 578              	.LC21:
 579 0060 2066726F 		.ascii	" from \000"
 579      6D2000
 580 0067 00       		.space	1
 581              	.LC24:
 582 0068 3000     		.ascii	"0\000"
 583 006a 0000     		.space	2
 584              	.LC26:
 585 006c 43414E20 		.ascii	"CAN Error: \000"
 585      4572726F 
 585      723A2000 
 586              	.LC28:
 587 0078 57696C6C 		.ascii	"Will attempt to reset peripheral in \000"
 587      20617474 
 587      656D7074 
 587      20746F20 
 587      72657365 
 588 009d 000000   		.space	3
 589              	.LC30:
 590 00a0 20736563 		.ascii	" seconds.\000"
 590      6F6E6473 
 590      2E00
 591 00aa 0000     		.space	2
 592              	.LC33:
 593 00ac 53656E64 		.ascii	"Sending CAN with ID: 0x600\000"
ARM GAS  /tmp/cc6mGMeo.s 			page 16


 593      696E6720 
 593      43414E20 
 593      77697468 
 593      2049443A 
 594              		.section	.bss.rpm_count,"aw",%nobits
 595              		.align	2
 596              		.set	.LANCHOR1,. + 0
 597              		.type	rpm_count, %object
 598              		.size	rpm_count, 4
 599              	rpm_count:
 600 0000 00000000 		.space	4
 601              		.text
 602              	.Letext0:
 603              		.file 2 "/usr/arm-none-eabi/include/machine/_default_types.h"
 604              		.file 3 "/usr/arm-none-eabi/include/sys/_stdint.h"
 605              		.file 4 "../../lpc11cx4-library/lpc_chip_11cxx_lib/inc/ring_buffer.h"
 606              		.file 5 "../../lpc11cx4-library/lpc_chip_11cxx_lib/inc/uart_11xx.h"
 607              		.file 6 "../../lpc11cx4-library/lpc_chip_11cxx_lib/inc/ccand_11xx.h"
 608              		.file 7 "../../lpc11cx4-library/evt_lib/inc/can.h"
 609              		.file 8 "inc/board.h"