ARM GAS  /tmp/ccdcx6z1.s 			page 1


   1              		.cpu cortex-m0
   2              		.fpu softvfp
   3              		.eabi_attribute 20, 1	@ Tag_ABI_FP_denormal
   4              		.eabi_attribute 21, 1	@ Tag_ABI_FP_exceptions
   5              		.eabi_attribute 23, 3	@ Tag_ABI_FP_number_model
   6              		.eabi_attribute 24, 1	@ Tag_ABI_align8_needed
   7              		.eabi_attribute 25, 1	@ Tag_ABI_align8_preserved
   8              		.eabi_attribute 26, 1	@ Tag_ABI_enum_size
   9              		.eabi_attribute 30, 4	@ Tag_ABI_optimization_goals
  10              		.eabi_attribute 34, 0	@ Tag_CPU_unaligned_access
  11              		.eabi_attribute 18, 4	@ Tag_ABI_PCS_wchar_t
  12              		.file	"ring_buffer.c"
  13              	@ GNU C (GNU Tools for ARM Embedded Processors) version 4.9.3 20150529 (release) [ARM/embedded-4_9-
  14              	@	compiled by GNU C version 4.8.4, GMP version 5.1.3, MPFR version 3.1.2-p3, MPC version 1.0.1
  15              	@ GGC heuristics: --param ggc-min-expand=98 --param ggc-min-heapsize=128397
  16              	@ options passed:  -I . -I ../../lpc11cx4-library/lpc_chip_11cxx_lib/inc
  17              	@ -I ../../lpc11cx4-library/evt_lib/inc -I inc -imultilib armv6-m
  18              	@ -iprefix /usr/bin/../lib/gcc/arm-none-eabi/4.9.3/
  19              	@ -isysroot /usr/bin/../arm-none-eabi -MD bin/ring_buffer.d
  20              	@ -MF bin/ring_buffer.d -MP -MQ bin/ring_buffer.o -D__USES_INITFINI__
  21              	@ -D CORE_M0 ../../lpc11cx4-library/lpc_chip_11cxx_lib/src/ring_buffer.c
  22              	@ -mcpu=cortex-m0 -mthumb -auxbase-strip bin/ring_buffer.o -g -ggdb3 -Os
  23              	@ -Wall -Wstrict-prototypes -Wextra -std=gnu90 -ffunction-sections
  24              	@ -fdata-sections -fverbose-asm -fstack-usage
  25              	@ options enabled:  -faggressive-loop-optimizations -fauto-inc-dec
  26              	@ -fbranch-count-reg -fcaller-saves -fcombine-stack-adjustments -fcommon
  27              	@ -fcompare-elim -fcprop-registers -fcrossjumping -fcse-follow-jumps
  28              	@ -fdata-sections -fdefer-pop -fdelete-null-pointer-checks -fdevirtualize
  29              	@ -fdevirtualize-speculatively -fdwarf2-cfi-asm -fearly-inlining
  30              	@ -feliminate-unused-debug-types -fexpensive-optimizations
  31              	@ -fforward-propagate -ffunction-cse -ffunction-sections -fgcse -fgcse-lm
  32              	@ -fgnu-runtime -fgnu-unique -fguess-branch-probability
  33              	@ -fhoist-adjacent-loads -fident -fif-conversion -fif-conversion2
  34              	@ -findirect-inlining -finline -finline-atomics -finline-functions
  35              	@ -finline-functions-called-once -finline-small-functions -fipa-cp
  36              	@ -fipa-profile -fipa-pure-const -fipa-reference -fipa-sra
  37              	@ -fira-hoist-pressure -fira-share-save-slots -fira-share-spill-slots
  38              	@ -fisolate-erroneous-paths-dereference -fivopts -fkeep-static-consts
  39              	@ -fleading-underscore -flifetime-dse -fmath-errno -fmerge-constants
  40              	@ -fmerge-debug-strings -fomit-frame-pointer -foptimize-sibling-calls
  41              	@ -fpartial-inlining -fpeephole -fpeephole2 -fprefetch-loop-arrays
  42              	@ -freg-struct-return -freorder-blocks -freorder-functions
  43              	@ -frerun-cse-after-loop -fsched-critical-path-heuristic
  44              	@ -fsched-dep-count-heuristic -fsched-group-heuristic -fsched-interblock
  45              	@ -fsched-last-insn-heuristic -fsched-pressure -fsched-rank-heuristic
  46              	@ -fsched-spec -fsched-spec-insn-heuristic -fsched-stalled-insns-dep
  47              	@ -fschedule-insns2 -fsection-anchors -fshow-column -fshrink-wrap
  48              	@ -fsigned-zeros -fsplit-ivs-in-unroller -fsplit-wide-types
  49              	@ -fstrict-aliasing -fstrict-overflow -fstrict-volatile-bitfields
  50              	@ -fsync-libcalls -fthread-jumps -ftoplevel-reorder -ftrapping-math
  51              	@ -ftree-bit-ccp -ftree-builtin-call-dce -ftree-ccp -ftree-ch
  52              	@ -ftree-coalesce-vars -ftree-copy-prop -ftree-copyrename -ftree-cselim
  53              	@ -ftree-dce -ftree-dominator-opts -ftree-dse -ftree-forwprop -ftree-fre
  54              	@ -ftree-loop-if-convert -ftree-loop-im -ftree-loop-ivcanon
  55              	@ -ftree-loop-optimize -ftree-parallelize-loops= -ftree-phiprop -ftree-pre
  56              	@ -ftree-pta -ftree-reassoc -ftree-scev-cprop -ftree-sink -ftree-slsr
  57              	@ -ftree-sra -ftree-switch-conversion -ftree-tail-merge -ftree-ter
ARM GAS  /tmp/ccdcx6z1.s 			page 2


  58              	@ -ftree-vrp -funit-at-a-time -fvar-tracking -fvar-tracking-assignments
  59              	@ -fverbose-asm -fzero-initialized-in-bss -mlittle-endian -mlra
  60              	@ -mpic-data-is-text-relative -msched-prolog -mthumb
  61              	@ -mvectorize-with-neon-quad
  62              	
  63              		.text
  64              	.Ltext0:
  65              		.cfi_sections	.debug_frame
  66              		.section	.text.RingBuffer_Init,"ax",%progbits
  67              		.align	1
  68              		.global	RingBuffer_Init
  69              		.code	16
  70              		.thumb_func
  71              		.type	RingBuffer_Init, %function
  72              	RingBuffer_Init:
  73              	.LFB6:
  74              		.file 1 "../../lpc11cx4-library/lpc_chip_11cxx_lib/src/ring_buffer.c"
   1:../../lpc11cx4-library/lpc_chip_11cxx_lib/src/ring_buffer.c **** /*
   2:../../lpc11cx4-library/lpc_chip_11cxx_lib/src/ring_buffer.c ****  * @brief Common ring buffer support functions
   3:../../lpc11cx4-library/lpc_chip_11cxx_lib/src/ring_buffer.c ****  *
   4:../../lpc11cx4-library/lpc_chip_11cxx_lib/src/ring_buffer.c ****  * @note
   5:../../lpc11cx4-library/lpc_chip_11cxx_lib/src/ring_buffer.c ****  * Copyright(C) NXP Semiconductors, 2012
   6:../../lpc11cx4-library/lpc_chip_11cxx_lib/src/ring_buffer.c ****  * All rights reserved.
   7:../../lpc11cx4-library/lpc_chip_11cxx_lib/src/ring_buffer.c ****  *
   8:../../lpc11cx4-library/lpc_chip_11cxx_lib/src/ring_buffer.c ****  * @par
   9:../../lpc11cx4-library/lpc_chip_11cxx_lib/src/ring_buffer.c ****  * Software that is described herein is for illustrative purposes only
  10:../../lpc11cx4-library/lpc_chip_11cxx_lib/src/ring_buffer.c ****  * which provides customers with programming information regarding the
  11:../../lpc11cx4-library/lpc_chip_11cxx_lib/src/ring_buffer.c ****  * LPC products.  This software is supplied "AS IS" without any warranties of
  12:../../lpc11cx4-library/lpc_chip_11cxx_lib/src/ring_buffer.c ****  * any kind, and NXP Semiconductors and its licensor disclaim any and
  13:../../lpc11cx4-library/lpc_chip_11cxx_lib/src/ring_buffer.c ****  * all warranties, express or implied, including all implied warranties of
  14:../../lpc11cx4-library/lpc_chip_11cxx_lib/src/ring_buffer.c ****  * merchantability, fitness for a particular purpose and non-infringement of
  15:../../lpc11cx4-library/lpc_chip_11cxx_lib/src/ring_buffer.c ****  * intellectual property rights.  NXP Semiconductors assumes no responsibility
  16:../../lpc11cx4-library/lpc_chip_11cxx_lib/src/ring_buffer.c ****  * or liability for the use of the software, conveys no license or rights under any
  17:../../lpc11cx4-library/lpc_chip_11cxx_lib/src/ring_buffer.c ****  * patent, copyright, mask work right, or any other intellectual property rights in
  18:../../lpc11cx4-library/lpc_chip_11cxx_lib/src/ring_buffer.c ****  * or to any products. NXP Semiconductors reserves the right to make changes
  19:../../lpc11cx4-library/lpc_chip_11cxx_lib/src/ring_buffer.c ****  * in the software without notification. NXP Semiconductors also makes no
  20:../../lpc11cx4-library/lpc_chip_11cxx_lib/src/ring_buffer.c ****  * representation or warranty that such application will be suitable for the
  21:../../lpc11cx4-library/lpc_chip_11cxx_lib/src/ring_buffer.c ****  * specified use without further testing or modification.
  22:../../lpc11cx4-library/lpc_chip_11cxx_lib/src/ring_buffer.c ****  *
  23:../../lpc11cx4-library/lpc_chip_11cxx_lib/src/ring_buffer.c ****  * @par
  24:../../lpc11cx4-library/lpc_chip_11cxx_lib/src/ring_buffer.c ****  * Permission to use, copy, modify, and distribute this software and its
  25:../../lpc11cx4-library/lpc_chip_11cxx_lib/src/ring_buffer.c ****  * documentation is hereby granted, under NXP Semiconductors' and its
  26:../../lpc11cx4-library/lpc_chip_11cxx_lib/src/ring_buffer.c ****  * licensor's relevant copyrights in the software, without fee, provided that it
  27:../../lpc11cx4-library/lpc_chip_11cxx_lib/src/ring_buffer.c ****  * is used in conjunction with NXP Semiconductors microcontrollers.  This
  28:../../lpc11cx4-library/lpc_chip_11cxx_lib/src/ring_buffer.c ****  * copyright, permission, and disclaimer notice must appear in all copies of
  29:../../lpc11cx4-library/lpc_chip_11cxx_lib/src/ring_buffer.c ****  * this code.
  30:../../lpc11cx4-library/lpc_chip_11cxx_lib/src/ring_buffer.c ****  */
  31:../../lpc11cx4-library/lpc_chip_11cxx_lib/src/ring_buffer.c **** 
  32:../../lpc11cx4-library/lpc_chip_11cxx_lib/src/ring_buffer.c **** #include <string.h>
  33:../../lpc11cx4-library/lpc_chip_11cxx_lib/src/ring_buffer.c **** #include "ring_buffer.h"
  34:../../lpc11cx4-library/lpc_chip_11cxx_lib/src/ring_buffer.c **** 
  35:../../lpc11cx4-library/lpc_chip_11cxx_lib/src/ring_buffer.c **** /*****************************************************************************
  36:../../lpc11cx4-library/lpc_chip_11cxx_lib/src/ring_buffer.c ****  * Private types/enumerations/variables
  37:../../lpc11cx4-library/lpc_chip_11cxx_lib/src/ring_buffer.c ****  ****************************************************************************/
  38:../../lpc11cx4-library/lpc_chip_11cxx_lib/src/ring_buffer.c **** 
  39:../../lpc11cx4-library/lpc_chip_11cxx_lib/src/ring_buffer.c **** #define RB_INDH(rb)                ((rb)->head % (rb)->count)
  40:../../lpc11cx4-library/lpc_chip_11cxx_lib/src/ring_buffer.c **** #define RB_INDT(rb)                ((rb)->tail % (rb)->count)
ARM GAS  /tmp/ccdcx6z1.s 			page 3


  41:../../lpc11cx4-library/lpc_chip_11cxx_lib/src/ring_buffer.c **** 
  42:../../lpc11cx4-library/lpc_chip_11cxx_lib/src/ring_buffer.c **** /*****************************************************************************
  43:../../lpc11cx4-library/lpc_chip_11cxx_lib/src/ring_buffer.c ****  * Public types/enumerations/variables
  44:../../lpc11cx4-library/lpc_chip_11cxx_lib/src/ring_buffer.c ****  ****************************************************************************/
  45:../../lpc11cx4-library/lpc_chip_11cxx_lib/src/ring_buffer.c **** 
  46:../../lpc11cx4-library/lpc_chip_11cxx_lib/src/ring_buffer.c **** /*****************************************************************************
  47:../../lpc11cx4-library/lpc_chip_11cxx_lib/src/ring_buffer.c ****  * Private functions
  48:../../lpc11cx4-library/lpc_chip_11cxx_lib/src/ring_buffer.c ****  ****************************************************************************/
  49:../../lpc11cx4-library/lpc_chip_11cxx_lib/src/ring_buffer.c **** 
  50:../../lpc11cx4-library/lpc_chip_11cxx_lib/src/ring_buffer.c **** /*****************************************************************************
  51:../../lpc11cx4-library/lpc_chip_11cxx_lib/src/ring_buffer.c ****  * Public functions
  52:../../lpc11cx4-library/lpc_chip_11cxx_lib/src/ring_buffer.c ****  ****************************************************************************/
  53:../../lpc11cx4-library/lpc_chip_11cxx_lib/src/ring_buffer.c **** 
  54:../../lpc11cx4-library/lpc_chip_11cxx_lib/src/ring_buffer.c **** /* Initialize ring buffer */
  55:../../lpc11cx4-library/lpc_chip_11cxx_lib/src/ring_buffer.c **** int RingBuffer_Init(RINGBUFF_T *RingBuff, void *buffer, uint32_t itemSize, uint32_t count)
  56:../../lpc11cx4-library/lpc_chip_11cxx_lib/src/ring_buffer.c **** {
  75              		.loc 1 56 0
  76              		.cfi_startproc
  77              	.LVL0:
  57:../../lpc11cx4-library/lpc_chip_11cxx_lib/src/ring_buffer.c **** 	RingBuff->data = buffer;
  58:../../lpc11cx4-library/lpc_chip_11cxx_lib/src/ring_buffer.c **** 	RingBuff->count = count;
  78              		.loc 1 58 0
  79 0000 4360     		str	r3, [r0, #4]	@ count, RingBuff_2(D)->count
  59:../../lpc11cx4-library/lpc_chip_11cxx_lib/src/ring_buffer.c **** 	RingBuff->itemSz = itemSize;
  60:../../lpc11cx4-library/lpc_chip_11cxx_lib/src/ring_buffer.c **** 	RingBuff->head = RingBuff->tail = 0;
  80              		.loc 1 60 0
  81 0002 0023     		mov	r3, #0	@ tmp115,
  82              	.LVL1:
  57:../../lpc11cx4-library/lpc_chip_11cxx_lib/src/ring_buffer.c **** 	RingBuff->data = buffer;
  83              		.loc 1 57 0
  84 0004 0160     		str	r1, [r0]	@ buffer, RingBuff_2(D)->data
  59:../../lpc11cx4-library/lpc_chip_11cxx_lib/src/ring_buffer.c **** 	RingBuff->itemSz = itemSize;
  85              		.loc 1 59 0
  86 0006 8260     		str	r2, [r0, #8]	@ itemSize, RingBuff_2(D)->itemSz
  87              		.loc 1 60 0
  88 0008 0361     		str	r3, [r0, #16]	@ tmp115, RingBuff_2(D)->tail
  89 000a C360     		str	r3, [r0, #12]	@ tmp115, RingBuff_2(D)->head
  61:../../lpc11cx4-library/lpc_chip_11cxx_lib/src/ring_buffer.c **** 
  62:../../lpc11cx4-library/lpc_chip_11cxx_lib/src/ring_buffer.c **** 	return 1;
  63:../../lpc11cx4-library/lpc_chip_11cxx_lib/src/ring_buffer.c **** }
  90              		.loc 1 63 0
  91              		@ sp needed	@
  92 000c 0120     		mov	r0, #1	@,
  93              	.LVL2:
  94 000e 7047     		bx	lr
  95              		.cfi_endproc
  96              	.LFE6:
  97              		.size	RingBuffer_Init, .-RingBuffer_Init
  98              		.global	__aeabi_uidivmod
  99              		.section	.text.RingBuffer_Insert,"ax",%progbits
 100              		.align	1
 101              		.global	RingBuffer_Insert
 102              		.code	16
 103              		.thumb_func
 104              		.type	RingBuffer_Insert, %function
 105              	RingBuffer_Insert:
 106              	.LFB7:
ARM GAS  /tmp/ccdcx6z1.s 			page 4


  64:../../lpc11cx4-library/lpc_chip_11cxx_lib/src/ring_buffer.c **** 
  65:../../lpc11cx4-library/lpc_chip_11cxx_lib/src/ring_buffer.c **** /* Insert a single item into Ring Buffer */
  66:../../lpc11cx4-library/lpc_chip_11cxx_lib/src/ring_buffer.c **** int RingBuffer_Insert(RINGBUFF_T *RingBuff, const void *data)
  67:../../lpc11cx4-library/lpc_chip_11cxx_lib/src/ring_buffer.c **** {
 107              		.loc 1 67 0
 108              		.cfi_startproc
 109              	.LVL3:
 110 0000 F8B5     		push	{r3, r4, r5, r6, r7, lr}	@
 111              		.cfi_def_cfa_offset 24
 112              		.cfi_offset 3, -24
 113              		.cfi_offset 4, -20
 114              		.cfi_offset 5, -16
 115              		.cfi_offset 6, -12
 116              		.cfi_offset 7, -8
 117              		.cfi_offset 14, -4
 118              		.loc 1 67 0
 119 0002 041C     		mov	r4, r0	@ RingBuff, RingBuff
 120 0004 0D1C     		mov	r5, r1	@ data, data
  68:../../lpc11cx4-library/lpc_chip_11cxx_lib/src/ring_buffer.c **** 	uint8_t *ptr = RingBuff->data;
 121              		.loc 1 68 0
 122 0006 0768     		ldr	r7, [r0]	@ ptr, RingBuff_4(D)->data
 123              	.LVL4:
 124              	.LBB16:
 125              	.LBB17:
 126              	.LBB18:
 127              	.LBB19:
 128              		.file 2 "../../lpc11cx4-library/lpc_chip_11cxx_lib/inc/ring_buffer.h"
   1:../../lpc11cx4-library/lpc_chip_11cxx_lib/inc/ring_buffer.h **** /*
   2:../../lpc11cx4-library/lpc_chip_11cxx_lib/inc/ring_buffer.h ****  * @brief Common ring buffer support functions
   3:../../lpc11cx4-library/lpc_chip_11cxx_lib/inc/ring_buffer.h ****  *
   4:../../lpc11cx4-library/lpc_chip_11cxx_lib/inc/ring_buffer.h ****  * @note
   5:../../lpc11cx4-library/lpc_chip_11cxx_lib/inc/ring_buffer.h ****  * Copyright(C) NXP Semiconductors, 2012
   6:../../lpc11cx4-library/lpc_chip_11cxx_lib/inc/ring_buffer.h ****  * All rights reserved.
   7:../../lpc11cx4-library/lpc_chip_11cxx_lib/inc/ring_buffer.h ****  *
   8:../../lpc11cx4-library/lpc_chip_11cxx_lib/inc/ring_buffer.h ****  * @par
   9:../../lpc11cx4-library/lpc_chip_11cxx_lib/inc/ring_buffer.h ****  * Software that is described herein is for illustrative purposes only
  10:../../lpc11cx4-library/lpc_chip_11cxx_lib/inc/ring_buffer.h ****  * which provides customers with programming information regarding the
  11:../../lpc11cx4-library/lpc_chip_11cxx_lib/inc/ring_buffer.h ****  * LPC products.  This software is supplied "AS IS" without any warranties of
  12:../../lpc11cx4-library/lpc_chip_11cxx_lib/inc/ring_buffer.h ****  * any kind, and NXP Semiconductors and its licensor disclaim any and
  13:../../lpc11cx4-library/lpc_chip_11cxx_lib/inc/ring_buffer.h ****  * all warranties, express or implied, including all implied warranties of
  14:../../lpc11cx4-library/lpc_chip_11cxx_lib/inc/ring_buffer.h ****  * merchantability, fitness for a particular purpose and non-infringement of
  15:../../lpc11cx4-library/lpc_chip_11cxx_lib/inc/ring_buffer.h ****  * intellectual property rights.  NXP Semiconductors assumes no responsibility
  16:../../lpc11cx4-library/lpc_chip_11cxx_lib/inc/ring_buffer.h ****  * or liability for the use of the software, conveys no license or rights under any
  17:../../lpc11cx4-library/lpc_chip_11cxx_lib/inc/ring_buffer.h ****  * patent, copyright, mask work right, or any other intellectual property rights in
  18:../../lpc11cx4-library/lpc_chip_11cxx_lib/inc/ring_buffer.h ****  * or to any products. NXP Semiconductors reserves the right to make changes
  19:../../lpc11cx4-library/lpc_chip_11cxx_lib/inc/ring_buffer.h ****  * in the software without notification. NXP Semiconductors also makes no
  20:../../lpc11cx4-library/lpc_chip_11cxx_lib/inc/ring_buffer.h ****  * representation or warranty that such application will be suitable for the
  21:../../lpc11cx4-library/lpc_chip_11cxx_lib/inc/ring_buffer.h ****  * specified use without further testing or modification.
  22:../../lpc11cx4-library/lpc_chip_11cxx_lib/inc/ring_buffer.h ****  *
  23:../../lpc11cx4-library/lpc_chip_11cxx_lib/inc/ring_buffer.h ****  * @par
  24:../../lpc11cx4-library/lpc_chip_11cxx_lib/inc/ring_buffer.h ****  * Permission to use, copy, modify, and distribute this software and its
  25:../../lpc11cx4-library/lpc_chip_11cxx_lib/inc/ring_buffer.h ****  * documentation is hereby granted, under NXP Semiconductors' and its
  26:../../lpc11cx4-library/lpc_chip_11cxx_lib/inc/ring_buffer.h ****  * licensor's relevant copyrights in the software, without fee, provided that it
  27:../../lpc11cx4-library/lpc_chip_11cxx_lib/inc/ring_buffer.h ****  * is used in conjunction with NXP Semiconductors microcontrollers.  This
  28:../../lpc11cx4-library/lpc_chip_11cxx_lib/inc/ring_buffer.h ****  * copyright, permission, and disclaimer notice must appear in all copies of
  29:../../lpc11cx4-library/lpc_chip_11cxx_lib/inc/ring_buffer.h ****  * this code.
  30:../../lpc11cx4-library/lpc_chip_11cxx_lib/inc/ring_buffer.h ****  */
ARM GAS  /tmp/ccdcx6z1.s 			page 5


  31:../../lpc11cx4-library/lpc_chip_11cxx_lib/inc/ring_buffer.h **** 
  32:../../lpc11cx4-library/lpc_chip_11cxx_lib/inc/ring_buffer.h **** #ifndef __RING_BUFFER_H_
  33:../../lpc11cx4-library/lpc_chip_11cxx_lib/inc/ring_buffer.h **** #define __RING_BUFFER_H_
  34:../../lpc11cx4-library/lpc_chip_11cxx_lib/inc/ring_buffer.h **** 
  35:../../lpc11cx4-library/lpc_chip_11cxx_lib/inc/ring_buffer.h **** #include "lpc_types.h"
  36:../../lpc11cx4-library/lpc_chip_11cxx_lib/inc/ring_buffer.h **** 
  37:../../lpc11cx4-library/lpc_chip_11cxx_lib/inc/ring_buffer.h **** /** @defgroup Ring_Buffer CHIP: Simple ring buffer implementation
  38:../../lpc11cx4-library/lpc_chip_11cxx_lib/inc/ring_buffer.h ****  * @ingroup CHIP_Common
  39:../../lpc11cx4-library/lpc_chip_11cxx_lib/inc/ring_buffer.h ****  * @{
  40:../../lpc11cx4-library/lpc_chip_11cxx_lib/inc/ring_buffer.h ****  */
  41:../../lpc11cx4-library/lpc_chip_11cxx_lib/inc/ring_buffer.h **** 
  42:../../lpc11cx4-library/lpc_chip_11cxx_lib/inc/ring_buffer.h **** /**
  43:../../lpc11cx4-library/lpc_chip_11cxx_lib/inc/ring_buffer.h ****  * @brief Ring buffer structure
  44:../../lpc11cx4-library/lpc_chip_11cxx_lib/inc/ring_buffer.h ****  */
  45:../../lpc11cx4-library/lpc_chip_11cxx_lib/inc/ring_buffer.h **** typedef struct {
  46:../../lpc11cx4-library/lpc_chip_11cxx_lib/inc/ring_buffer.h **** 	void *data;
  47:../../lpc11cx4-library/lpc_chip_11cxx_lib/inc/ring_buffer.h **** 	uint32_t count;
  48:../../lpc11cx4-library/lpc_chip_11cxx_lib/inc/ring_buffer.h **** 	uint32_t itemSz;
  49:../../lpc11cx4-library/lpc_chip_11cxx_lib/inc/ring_buffer.h **** 	uint32_t head;
  50:../../lpc11cx4-library/lpc_chip_11cxx_lib/inc/ring_buffer.h **** 	uint32_t tail;
  51:../../lpc11cx4-library/lpc_chip_11cxx_lib/inc/ring_buffer.h **** } RINGBUFF_T;
  52:../../lpc11cx4-library/lpc_chip_11cxx_lib/inc/ring_buffer.h **** 
  53:../../lpc11cx4-library/lpc_chip_11cxx_lib/inc/ring_buffer.h **** /**
  54:../../lpc11cx4-library/lpc_chip_11cxx_lib/inc/ring_buffer.h ****  * @def		RB_VHEAD(rb)
  55:../../lpc11cx4-library/lpc_chip_11cxx_lib/inc/ring_buffer.h ****  * volatile typecasted head index
  56:../../lpc11cx4-library/lpc_chip_11cxx_lib/inc/ring_buffer.h ****  */
  57:../../lpc11cx4-library/lpc_chip_11cxx_lib/inc/ring_buffer.h **** // #define RB_VHEAD(rb)              (*(volatile uint32_t *) &(rb)->head)
  58:../../lpc11cx4-library/lpc_chip_11cxx_lib/inc/ring_buffer.h **** #define RB_VHEAD(rb)				((volatile uint32_t)(rb->head))
  59:../../lpc11cx4-library/lpc_chip_11cxx_lib/inc/ring_buffer.h **** 
  60:../../lpc11cx4-library/lpc_chip_11cxx_lib/inc/ring_buffer.h **** /**
  61:../../lpc11cx4-library/lpc_chip_11cxx_lib/inc/ring_buffer.h ****  * @def		RB_VTAIL(rb)
  62:../../lpc11cx4-library/lpc_chip_11cxx_lib/inc/ring_buffer.h ****  * volatile typecasted tail index
  63:../../lpc11cx4-library/lpc_chip_11cxx_lib/inc/ring_buffer.h ****  */
  64:../../lpc11cx4-library/lpc_chip_11cxx_lib/inc/ring_buffer.h **** // #define RB_VTAIL(rb)              (*(volatile uint32_t *) &(rb)->tail)
  65:../../lpc11cx4-library/lpc_chip_11cxx_lib/inc/ring_buffer.h **** #define RB_VTAIL(rb)				((volatile uint32_t)(rb->tail))
  66:../../lpc11cx4-library/lpc_chip_11cxx_lib/inc/ring_buffer.h **** 
  67:../../lpc11cx4-library/lpc_chip_11cxx_lib/inc/ring_buffer.h **** /**
  68:../../lpc11cx4-library/lpc_chip_11cxx_lib/inc/ring_buffer.h ****  * @brief	Initialize ring buffer
  69:../../lpc11cx4-library/lpc_chip_11cxx_lib/inc/ring_buffer.h ****  * @param	RingBuff	: Pointer to ring buffer to initialize
  70:../../lpc11cx4-library/lpc_chip_11cxx_lib/inc/ring_buffer.h ****  * @param	buffer		: Pointer to buffer to associate with RingBuff
  71:../../lpc11cx4-library/lpc_chip_11cxx_lib/inc/ring_buffer.h ****  * @param	itemSize	: Size of each buffer item size
  72:../../lpc11cx4-library/lpc_chip_11cxx_lib/inc/ring_buffer.h ****  * @param	count		: Size of ring buffer
  73:../../lpc11cx4-library/lpc_chip_11cxx_lib/inc/ring_buffer.h ****  * @note	Memory pointed by @a buffer must have correct alignment of
  74:../../lpc11cx4-library/lpc_chip_11cxx_lib/inc/ring_buffer.h ****  * 			@a itemSize, and @a count must be a power of 2 and must at
  75:../../lpc11cx4-library/lpc_chip_11cxx_lib/inc/ring_buffer.h ****  * 			least be 2 or greater.
  76:../../lpc11cx4-library/lpc_chip_11cxx_lib/inc/ring_buffer.h ****  * @return	Nothing
  77:../../lpc11cx4-library/lpc_chip_11cxx_lib/inc/ring_buffer.h ****  */
  78:../../lpc11cx4-library/lpc_chip_11cxx_lib/inc/ring_buffer.h **** int RingBuffer_Init(RINGBUFF_T *RingBuff, void *buffer, uint32_t itemSize, uint32_t count);
  79:../../lpc11cx4-library/lpc_chip_11cxx_lib/inc/ring_buffer.h **** 
  80:../../lpc11cx4-library/lpc_chip_11cxx_lib/inc/ring_buffer.h **** /**
  81:../../lpc11cx4-library/lpc_chip_11cxx_lib/inc/ring_buffer.h ****  * @brief	Resets the ring buffer to empty
  82:../../lpc11cx4-library/lpc_chip_11cxx_lib/inc/ring_buffer.h ****  * @param	RingBuff	: Pointer to ring buffer
  83:../../lpc11cx4-library/lpc_chip_11cxx_lib/inc/ring_buffer.h ****  * @return	Nothing
  84:../../lpc11cx4-library/lpc_chip_11cxx_lib/inc/ring_buffer.h ****  */
  85:../../lpc11cx4-library/lpc_chip_11cxx_lib/inc/ring_buffer.h **** STATIC INLINE void RingBuffer_Flush(RINGBUFF_T *RingBuff)
  86:../../lpc11cx4-library/lpc_chip_11cxx_lib/inc/ring_buffer.h **** {
  87:../../lpc11cx4-library/lpc_chip_11cxx_lib/inc/ring_buffer.h **** 	RingBuff->head = RingBuff->tail = 0;
ARM GAS  /tmp/ccdcx6z1.s 			page 6


  88:../../lpc11cx4-library/lpc_chip_11cxx_lib/inc/ring_buffer.h **** }
  89:../../lpc11cx4-library/lpc_chip_11cxx_lib/inc/ring_buffer.h **** 
  90:../../lpc11cx4-library/lpc_chip_11cxx_lib/inc/ring_buffer.h **** /**
  91:../../lpc11cx4-library/lpc_chip_11cxx_lib/inc/ring_buffer.h ****  * @brief	Return size the ring buffer
  92:../../lpc11cx4-library/lpc_chip_11cxx_lib/inc/ring_buffer.h ****  * @param	RingBuff	: Pointer to ring buffer
  93:../../lpc11cx4-library/lpc_chip_11cxx_lib/inc/ring_buffer.h ****  * @return	Size of the ring buffer in bytes
  94:../../lpc11cx4-library/lpc_chip_11cxx_lib/inc/ring_buffer.h ****  */
  95:../../lpc11cx4-library/lpc_chip_11cxx_lib/inc/ring_buffer.h **** STATIC INLINE uint32_t RingBuffer_GetSize(RINGBUFF_T *RingBuff)
  96:../../lpc11cx4-library/lpc_chip_11cxx_lib/inc/ring_buffer.h **** {
  97:../../lpc11cx4-library/lpc_chip_11cxx_lib/inc/ring_buffer.h **** 	return RingBuff->count;
  98:../../lpc11cx4-library/lpc_chip_11cxx_lib/inc/ring_buffer.h **** }
  99:../../lpc11cx4-library/lpc_chip_11cxx_lib/inc/ring_buffer.h **** 
 100:../../lpc11cx4-library/lpc_chip_11cxx_lib/inc/ring_buffer.h **** /**
 101:../../lpc11cx4-library/lpc_chip_11cxx_lib/inc/ring_buffer.h ****  * @brief	Return number of items in the ring buffer
 102:../../lpc11cx4-library/lpc_chip_11cxx_lib/inc/ring_buffer.h ****  * @param	RingBuff	: Pointer to ring buffer
 103:../../lpc11cx4-library/lpc_chip_11cxx_lib/inc/ring_buffer.h ****  * @return	Number of items in the ring buffer
 104:../../lpc11cx4-library/lpc_chip_11cxx_lib/inc/ring_buffer.h ****  */
 105:../../lpc11cx4-library/lpc_chip_11cxx_lib/inc/ring_buffer.h **** STATIC INLINE uint32_t RingBuffer_GetCount(RINGBUFF_T *RingBuff)
 106:../../lpc11cx4-library/lpc_chip_11cxx_lib/inc/ring_buffer.h **** {
 107:../../lpc11cx4-library/lpc_chip_11cxx_lib/inc/ring_buffer.h **** 	return RB_VHEAD(RingBuff) - RB_VTAIL(RingBuff);
 129              		.loc 2 107 0
 130 0008 2369     		ldr	r3, [r4, #16]	@ tmp145, RingBuff_4(D)->tail
 131 000a C068     		ldr	r0, [r0, #12]	@ D.4676, RingBuff_4(D)->head
 132              	.LVL5:
 133              	.LBE19:
 134              	.LBE18:
 108:../../lpc11cx4-library/lpc_chip_11cxx_lib/inc/ring_buffer.h **** }
 109:../../lpc11cx4-library/lpc_chip_11cxx_lib/inc/ring_buffer.h **** 
 110:../../lpc11cx4-library/lpc_chip_11cxx_lib/inc/ring_buffer.h **** /**
 111:../../lpc11cx4-library/lpc_chip_11cxx_lib/inc/ring_buffer.h ****  * @brief	Return number of free items in the ring buffer
 112:../../lpc11cx4-library/lpc_chip_11cxx_lib/inc/ring_buffer.h ****  * @param	RingBuff	: Pointer to ring buffer
 113:../../lpc11cx4-library/lpc_chip_11cxx_lib/inc/ring_buffer.h ****  * @return	Number of free items in the ring buffer
 114:../../lpc11cx4-library/lpc_chip_11cxx_lib/inc/ring_buffer.h ****  */
 115:../../lpc11cx4-library/lpc_chip_11cxx_lib/inc/ring_buffer.h **** STATIC INLINE uint32_t RingBuffer_GetFree(RINGBUFF_T *RingBuff)
 116:../../lpc11cx4-library/lpc_chip_11cxx_lib/inc/ring_buffer.h **** {
 117:../../lpc11cx4-library/lpc_chip_11cxx_lib/inc/ring_buffer.h **** 	return RingBuff->count - RingBuffer_GetCount(RingBuff);
 118:../../lpc11cx4-library/lpc_chip_11cxx_lib/inc/ring_buffer.h **** }
 119:../../lpc11cx4-library/lpc_chip_11cxx_lib/inc/ring_buffer.h **** 
 120:../../lpc11cx4-library/lpc_chip_11cxx_lib/inc/ring_buffer.h **** /**
 121:../../lpc11cx4-library/lpc_chip_11cxx_lib/inc/ring_buffer.h ****  * @brief	Return number of items in the ring buffer
 122:../../lpc11cx4-library/lpc_chip_11cxx_lib/inc/ring_buffer.h ****  * @param	RingBuff	: Pointer to ring buffer
 123:../../lpc11cx4-library/lpc_chip_11cxx_lib/inc/ring_buffer.h ****  * @return	1 if the ring buffer is full, otherwise 0
 124:../../lpc11cx4-library/lpc_chip_11cxx_lib/inc/ring_buffer.h ****  */
 125:../../lpc11cx4-library/lpc_chip_11cxx_lib/inc/ring_buffer.h **** STATIC INLINE int RingBuffer_IsFull(RINGBUFF_T *RingBuff)
 126:../../lpc11cx4-library/lpc_chip_11cxx_lib/inc/ring_buffer.h **** {
 127:../../lpc11cx4-library/lpc_chip_11cxx_lib/inc/ring_buffer.h **** 	return (RingBuffer_GetCount(RingBuff) >= RingBuff->count);
 135              		.loc 2 127 0
 136 000c 6168     		ldr	r1, [r4, #4]	@ D.4676, RingBuff_4(D)->count
 137              	.LVL6:
 138              	.LBB21:
 139              	.LBB20:
 107:../../lpc11cx4-library/lpc_chip_11cxx_lib/inc/ring_buffer.h **** }
 140              		.loc 2 107 0
 141 000e C31A     		sub	r3, r0, r3	@ D.4677, D.4676, tmp145
 142              	.LBE20:
 143              	.LBE21:
 144              	.LBE17:
ARM GAS  /tmp/ccdcx6z1.s 			page 7


 145              	.LBE16:
  69:../../lpc11cx4-library/lpc_chip_11cxx_lib/src/ring_buffer.c **** 
  70:../../lpc11cx4-library/lpc_chip_11cxx_lib/src/ring_buffer.c **** 	/* We cannot insert when queue is full */
  71:../../lpc11cx4-library/lpc_chip_11cxx_lib/src/ring_buffer.c **** 	if (RingBuffer_IsFull(RingBuff))
  72:../../lpc11cx4-library/lpc_chip_11cxx_lib/src/ring_buffer.c **** 		return 0;
 146              		.loc 1 72 0
 147 0010 0022     		mov	r2, #0	@ D.4675,
  71:../../lpc11cx4-library/lpc_chip_11cxx_lib/src/ring_buffer.c **** 		return 0;
 148              		.loc 1 71 0
 149 0012 8B42     		cmp	r3, r1	@ D.4677, D.4676
 150 0014 0CD2     		bcs	.L3	@,
  73:../../lpc11cx4-library/lpc_chip_11cxx_lib/src/ring_buffer.c **** 
  74:../../lpc11cx4-library/lpc_chip_11cxx_lib/src/ring_buffer.c **** 	ptr += RB_INDH(RingBuff) * RingBuff->itemSz;
 151              		.loc 1 74 0
 152 0016 FFF7FEFF 		bl	__aeabi_uidivmod	@
 153              	.LVL7:
 154 001a A668     		ldr	r6, [r4, #8]	@ D.4676, RingBuff_4(D)->itemSz
 155              	.LVL8:
 156 001c 7143     		mul	r1, r6	@ D.4676, D.4676
  75:../../lpc11cx4-library/lpc_chip_11cxx_lib/src/ring_buffer.c **** 	memcpy(ptr, data, RingBuff->itemSz);
 157              		.loc 1 75 0
 158 001e 321C     		mov	r2, r6	@, D.4676
  74:../../lpc11cx4-library/lpc_chip_11cxx_lib/src/ring_buffer.c **** 	memcpy(ptr, data, RingBuff->itemSz);
 159              		.loc 1 74 0
 160 0020 7818     		add	r0, r7, r1	@ ptr, ptr, D.4676
 161              		.loc 1 75 0
 162 0022 291C     		mov	r1, r5	@, data
 163 0024 FFF7FEFF 		bl	memcpy	@
 164              	.LVL9:
  76:../../lpc11cx4-library/lpc_chip_11cxx_lib/src/ring_buffer.c **** 	RingBuff->head++;
  77:../../lpc11cx4-library/lpc_chip_11cxx_lib/src/ring_buffer.c **** 
  78:../../lpc11cx4-library/lpc_chip_11cxx_lib/src/ring_buffer.c **** 	return 1;
 165              		.loc 1 78 0
 166 0028 0122     		mov	r2, #1	@ D.4675,
  76:../../lpc11cx4-library/lpc_chip_11cxx_lib/src/ring_buffer.c **** 	RingBuff->head++;
 167              		.loc 1 76 0
 168 002a E368     		ldr	r3, [r4, #12]	@ tmp146, RingBuff_4(D)->head
 169 002c 0133     		add	r3, r3, #1	@ D.4676,
 170 002e E360     		str	r3, [r4, #12]	@ D.4676, RingBuff_4(D)->head
 171              	.L3:
  79:../../lpc11cx4-library/lpc_chip_11cxx_lib/src/ring_buffer.c **** }
 172              		.loc 1 79 0
 173 0030 101C     		mov	r0, r2	@, D.4675
 174              		@ sp needed	@
 175              	.LVL10:
 176              	.LVL11:
 177 0032 F8BD     		pop	{r3, r4, r5, r6, r7, pc}
 178              		.cfi_endproc
 179              	.LFE7:
 180              		.size	RingBuffer_Insert, .-RingBuffer_Insert
 181              		.section	.text.RingBuffer_InsertMult,"ax",%progbits
 182              		.align	1
 183              		.global	RingBuffer_InsertMult
 184              		.code	16
 185              		.thumb_func
 186              		.type	RingBuffer_InsertMult, %function
 187              	RingBuffer_InsertMult:
ARM GAS  /tmp/ccdcx6z1.s 			page 8


 188              	.LFB8:
  80:../../lpc11cx4-library/lpc_chip_11cxx_lib/src/ring_buffer.c **** 
  81:../../lpc11cx4-library/lpc_chip_11cxx_lib/src/ring_buffer.c **** /* Insert multiple items into Ring Buffer */
  82:../../lpc11cx4-library/lpc_chip_11cxx_lib/src/ring_buffer.c **** uint32_t RingBuffer_InsertMult(RINGBUFF_T *RingBuff, const void *data, int num)
  83:../../lpc11cx4-library/lpc_chip_11cxx_lib/src/ring_buffer.c **** {
 189              		.loc 1 83 0
 190              		.cfi_startproc
 191              	.LVL12:
 192 0000 F7B5     		push	{r0, r1, r2, r4, r5, r6, r7, lr}	@
 193              		.cfi_def_cfa_offset 32
 194              		.cfi_offset 0, -32
 195              		.cfi_offset 1, -28
 196              		.cfi_offset 2, -24
 197              		.cfi_offset 4, -20
 198              		.cfi_offset 5, -16
 199              		.cfi_offset 6, -12
 200              		.cfi_offset 7, -8
 201              		.cfi_offset 14, -4
 202              		.loc 1 83 0
 203 0002 041C     		mov	r4, r0	@ RingBuff, RingBuff
  84:../../lpc11cx4-library/lpc_chip_11cxx_lib/src/ring_buffer.c **** 
  85:../../lpc11cx4-library/lpc_chip_11cxx_lib/src/ring_buffer.c **** 	uint8_t *ptr = RingBuff->data;
 204              		.loc 1 85 0
 205 0004 0368     		ldr	r3, [r0]	@ ptr, RingBuff_5(D)->data
 206              	.LBB30:
 207              	.LBB31:
 208              		.loc 2 127 0
 209 0006 6668     		ldr	r6, [r4, #4]	@ D.4691, RingBuff_5(D)->count
 210              	.LBE31:
 211              	.LBE30:
 212              		.loc 1 85 0
 213 0008 0193     		str	r3, [sp, #4]	@ ptr, %sfp
 214              	.LVL13:
 215              	.LBB35:
 216              	.LBB34:
 217              	.LBB32:
 218              	.LBB33:
 107:../../lpc11cx4-library/lpc_chip_11cxx_lib/inc/ring_buffer.h **** }
 219              		.loc 2 107 0
 220 000a C068     		ldr	r0, [r0, #12]	@ D.4691, RingBuff_5(D)->head
 221              	.LVL14:
 222 000c 2369     		ldr	r3, [r4, #16]	@ tmp196, RingBuff_5(D)->tail
 223              	.LVL15:
 224 000e C71A     		sub	r7, r0, r3	@ D.4690, D.4691, tmp196
 225              	.LBE33:
 226              	.LBE32:
 227              	.LBE34:
 228              	.LBE35:
  86:../../lpc11cx4-library/lpc_chip_11cxx_lib/src/ring_buffer.c **** 	int cnt1, cnt2;
  87:../../lpc11cx4-library/lpc_chip_11cxx_lib/src/ring_buffer.c **** 
  88:../../lpc11cx4-library/lpc_chip_11cxx_lib/src/ring_buffer.c **** 	/* We cannot insert when queue is full */
  89:../../lpc11cx4-library/lpc_chip_11cxx_lib/src/ring_buffer.c **** 	if (RingBuffer_IsFull(RingBuff))
  90:../../lpc11cx4-library/lpc_chip_11cxx_lib/src/ring_buffer.c **** 		return 0;
 229              		.loc 1 90 0
 230 0010 0023     		mov	r3, #0	@ D.4690,
  89:../../lpc11cx4-library/lpc_chip_11cxx_lib/src/ring_buffer.c **** 		return 0;
 231              		.loc 1 89 0
ARM GAS  /tmp/ccdcx6z1.s 			page 9


 232 0012 B742     		cmp	r7, r6	@ D.4690, D.4691
 233 0014 30D2     		bcs	.L7	@,
 234 0016 0091     		str	r1, [sp]	@ data, %sfp
 235              	.LVL16:
  91:../../lpc11cx4-library/lpc_chip_11cxx_lib/src/ring_buffer.c **** 
  92:../../lpc11cx4-library/lpc_chip_11cxx_lib/src/ring_buffer.c **** 	/* Calculate the segment lengths */
  93:../../lpc11cx4-library/lpc_chip_11cxx_lib/src/ring_buffer.c **** 	cnt1 = cnt2 = RingBuffer_GetFree(RingBuff);
  94:../../lpc11cx4-library/lpc_chip_11cxx_lib/src/ring_buffer.c **** 	if (RB_INDH(RingBuff) + cnt1 >= RingBuff->count)
 236              		.loc 1 94 0
 237 0018 311C     		mov	r1, r6	@, D.4691
 238              	.LVL17:
 239 001a 151C     		mov	r5, r2	@ num, num
 240 001c FFF7FEFF 		bl	__aeabi_uidivmod	@
 241              	.LVL18:
 242              	.LBB36:
 243              	.LBB37:
 117:../../lpc11cx4-library/lpc_chip_11cxx_lib/inc/ring_buffer.h **** }
 244              		.loc 2 117 0
 245 0020 F71B     		sub	r7, r6, r7	@ cnt1, D.4691, D.4690
 246              	.LVL19:
 247              	.LBE37:
 248              	.LBE36:
 249              		.loc 1 94 0
 250 0022 7B18     		add	r3, r7, r1	@ D.4691, cnt1, D.4691
  93:../../lpc11cx4-library/lpc_chip_11cxx_lib/src/ring_buffer.c **** 	if (RB_INDH(RingBuff) + cnt1 >= RingBuff->count)
 251              		.loc 1 93 0
 252 0024 381C     		mov	r0, r7	@ cnt1, cnt1
 253              		.loc 1 94 0
 254 0026 B342     		cmp	r3, r6	@ D.4691, D.4691
 255 0028 00D3     		bcc	.L8	@,
  95:../../lpc11cx4-library/lpc_chip_11cxx_lib/src/ring_buffer.c **** 		cnt1 = RingBuff->count - RB_INDH(RingBuff);
 256              		.loc 1 95 0
 257 002a 701A     		sub	r0, r6, r1	@ cnt1, D.4691, D.4691
 258              	.LVL20:
 259              	.L8:
  96:../../lpc11cx4-library/lpc_chip_11cxx_lib/src/ring_buffer.c **** 	cnt2 -= cnt1;
 260              		.loc 1 96 0
 261 002c 3F1A     		sub	r7, r7, r0	@ cnt2, cnt1, cnt1
 262              	.LVL21:
  97:../../lpc11cx4-library/lpc_chip_11cxx_lib/src/ring_buffer.c **** 
  98:../../lpc11cx4-library/lpc_chip_11cxx_lib/src/ring_buffer.c **** 	cnt1 = MIN(cnt1, num);
 263              		.loc 1 98 0
 264 002e 061E     		sub	r6, r0, #0	@ cnt1, cnt1,
 265 0030 AE42     		cmp	r6, r5	@ cnt1, num
 266 0032 00DD     		ble	.L9	@,
 267 0034 2E1C     		mov	r6, r5	@ cnt1, num
 268              	.L9:
 269              	.LVL22:
  99:../../lpc11cx4-library/lpc_chip_11cxx_lib/src/ring_buffer.c **** 	num -= cnt1;
 270              		.loc 1 99 0
 271 0036 AD1B     		sub	r5, r5, r6	@ cnt2, num, cnt1
 272              	.LVL23:
 100:../../lpc11cx4-library/lpc_chip_11cxx_lib/src/ring_buffer.c **** 
 101:../../lpc11cx4-library/lpc_chip_11cxx_lib/src/ring_buffer.c **** 	cnt2 = MIN(cnt2, num);
 273              		.loc 1 101 0
 274 0038 BD42     		cmp	r5, r7	@ cnt2, cnt2
 275 003a 00DD     		ble	.L10	@,
ARM GAS  /tmp/ccdcx6z1.s 			page 10


 276 003c 3D1C     		mov	r5, r7	@ cnt2, cnt2
 277              	.LVL24:
 278              	.L10:
 102:../../lpc11cx4-library/lpc_chip_11cxx_lib/src/ring_buffer.c **** 	num -= cnt2;
 103:../../lpc11cx4-library/lpc_chip_11cxx_lib/src/ring_buffer.c **** 
 104:../../lpc11cx4-library/lpc_chip_11cxx_lib/src/ring_buffer.c **** 	/* Write segment 1 */
 105:../../lpc11cx4-library/lpc_chip_11cxx_lib/src/ring_buffer.c **** 	ptr += RB_INDH(RingBuff) * RingBuff->itemSz;
 279              		.loc 1 105 0
 280 003e A268     		ldr	r2, [r4, #8]	@ D.4691, RingBuff_5(D)->itemSz
 281              	.LVL25:
 282 0040 019B     		ldr	r3, [sp, #4]	@ ptr, %sfp
 283 0042 5143     		mul	r1, r2	@ D.4691, D.4691
 284              	.LVL26:
 106:../../lpc11cx4-library/lpc_chip_11cxx_lib/src/ring_buffer.c **** 	memcpy(ptr, data, cnt1 * RingBuff->itemSz);
 285              		.loc 1 106 0
 286 0044 7243     		mul	r2, r6	@ D.4691, cnt1
 105:../../lpc11cx4-library/lpc_chip_11cxx_lib/src/ring_buffer.c **** 	memcpy(ptr, data, cnt1 * RingBuff->itemSz);
 287              		.loc 1 105 0
 288 0046 5818     		add	r0, r3, r1	@ ptr, ptr, D.4691
 289              	.LVL27:
 290              		.loc 1 106 0
 291 0048 0099     		ldr	r1, [sp]	@, %sfp
 292 004a FFF7FEFF 		bl	memcpy	@
 293              	.LVL28:
 107:../../lpc11cx4-library/lpc_chip_11cxx_lib/src/ring_buffer.c **** 	RingBuff->head += cnt1;
 294              		.loc 1 107 0
 295 004e E368     		ldr	r3, [r4, #12]	@ tmp198, RingBuff_5(D)->head
 108:../../lpc11cx4-library/lpc_chip_11cxx_lib/src/ring_buffer.c **** 
 109:../../lpc11cx4-library/lpc_chip_11cxx_lib/src/ring_buffer.c **** 	/* Write segment 2 */
 110:../../lpc11cx4-library/lpc_chip_11cxx_lib/src/ring_buffer.c **** 	ptr = (uint8_t *) RingBuff->data + RB_INDH(RingBuff) * RingBuff->itemSz;
 296              		.loc 1 110 0
 297 0050 6168     		ldr	r1, [r4, #4]	@, RingBuff_5(D)->count
 107:../../lpc11cx4-library/lpc_chip_11cxx_lib/src/ring_buffer.c **** 	RingBuff->head += cnt1;
 298              		.loc 1 107 0
 299 0052 F018     		add	r0, r6, r3	@ D.4691, cnt1, tmp198
 300 0054 E060     		str	r0, [r4, #12]	@ D.4691, RingBuff_5(D)->head
 301              		.loc 1 110 0
 302 0056 FFF7FEFF 		bl	__aeabi_uidivmod	@
 303              	.LVL29:
 304 005a A768     		ldr	r7, [r4, #8]	@ D.4691, RingBuff_5(D)->itemSz
 305              	.LVL30:
 306 005c 2368     		ldr	r3, [r4]	@ tmp199, RingBuff_5(D)->data
 111:../../lpc11cx4-library/lpc_chip_11cxx_lib/src/ring_buffer.c **** 	data = (const uint8_t *) data + cnt1 * RingBuff->itemSz;
 112:../../lpc11cx4-library/lpc_chip_11cxx_lib/src/ring_buffer.c **** 	memcpy(ptr, data, cnt2 * RingBuff->itemSz);
 307              		.loc 1 112 0
 308 005e 3A1C     		mov	r2, r7	@ D.4691, D.4691
 110:../../lpc11cx4-library/lpc_chip_11cxx_lib/src/ring_buffer.c **** 	data = (const uint8_t *) data + cnt1 * RingBuff->itemSz;
 309              		.loc 1 110 0
 310 0060 7943     		mul	r1, r7	@ D.4691, D.4691
 111:../../lpc11cx4-library/lpc_chip_11cxx_lib/src/ring_buffer.c **** 	data = (const uint8_t *) data + cnt1 * RingBuff->itemSz;
 311              		.loc 1 111 0
 312 0062 7743     		mul	r7, r6	@ D.4691, cnt1
 313              	.LVL31:
 110:../../lpc11cx4-library/lpc_chip_11cxx_lib/src/ring_buffer.c **** 	data = (const uint8_t *) data + cnt1 * RingBuff->itemSz;
 314              		.loc 1 110 0
 315 0064 5818     		add	r0, r3, r1	@ ptr, tmp199, D.4691
 111:../../lpc11cx4-library/lpc_chip_11cxx_lib/src/ring_buffer.c **** 	data = (const uint8_t *) data + cnt1 * RingBuff->itemSz;
ARM GAS  /tmp/ccdcx6z1.s 			page 11


 316              		.loc 1 111 0
 317 0066 009B     		ldr	r3, [sp]	@ data, %sfp
 318              		.loc 1 112 0
 319 0068 6A43     		mul	r2, r5	@ D.4691, cnt2
 320              	.LVL32:
 111:../../lpc11cx4-library/lpc_chip_11cxx_lib/src/ring_buffer.c **** 	data = (const uint8_t *) data + cnt1 * RingBuff->itemSz;
 321              		.loc 1 111 0
 322 006a D919     		add	r1, r3, r7	@ data, data, D.4691
 323              	.LVL33:
 324              		.loc 1 112 0
 325 006c FFF7FEFF 		bl	memcpy	@
 326              	.LVL34:
 113:../../lpc11cx4-library/lpc_chip_11cxx_lib/src/ring_buffer.c **** 	RingBuff->head += cnt2;
 327              		.loc 1 113 0
 328 0070 E368     		ldr	r3, [r4, #12]	@ tmp202, RingBuff_5(D)->head
 329 0072 5B19     		add	r3, r3, r5	@ D.4691, tmp202, cnt2
 330 0074 E360     		str	r3, [r4, #12]	@ D.4691, RingBuff_5(D)->head
 114:../../lpc11cx4-library/lpc_chip_11cxx_lib/src/ring_buffer.c **** 
 115:../../lpc11cx4-library/lpc_chip_11cxx_lib/src/ring_buffer.c **** 	return cnt1 + cnt2;
 331              		.loc 1 115 0
 332 0076 7319     		add	r3, r6, r5	@ D.4690, cnt1, cnt2
 333              	.LVL35:
 334              	.L7:
 116:../../lpc11cx4-library/lpc_chip_11cxx_lib/src/ring_buffer.c **** }
 335              		.loc 1 116 0
 336 0078 181C     		mov	r0, r3	@, D.4690
 337              		@ sp needed	@
 338              	.LVL36:
 339 007a FEBD     		pop	{r1, r2, r3, r4, r5, r6, r7, pc}
 340              		.cfi_endproc
 341              	.LFE8:
 342              		.size	RingBuffer_InsertMult, .-RingBuffer_InsertMult
 343              		.section	.text.RingBuffer_Pop,"ax",%progbits
 344              		.align	1
 345              		.global	RingBuffer_Pop
 346              		.code	16
 347              		.thumb_func
 348              		.type	RingBuffer_Pop, %function
 349              	RingBuffer_Pop:
 350              	.LFB9:
 117:../../lpc11cx4-library/lpc_chip_11cxx_lib/src/ring_buffer.c **** 
 118:../../lpc11cx4-library/lpc_chip_11cxx_lib/src/ring_buffer.c **** /* Pop single item from Ring Buffer */
 119:../../lpc11cx4-library/lpc_chip_11cxx_lib/src/ring_buffer.c **** int RingBuffer_Pop(RINGBUFF_T *RingBuff, void *data)
 120:../../lpc11cx4-library/lpc_chip_11cxx_lib/src/ring_buffer.c **** {
 351              		.loc 1 120 0
 352              		.cfi_startproc
 353              	.LVL37:
 354 0000 F8B5     		push	{r3, r4, r5, r6, r7, lr}	@
 355              		.cfi_def_cfa_offset 24
 356              		.cfi_offset 3, -24
 357              		.cfi_offset 4, -20
 358              		.cfi_offset 5, -16
 359              		.cfi_offset 6, -12
 360              		.cfi_offset 7, -8
 361              		.cfi_offset 14, -4
 362              		.loc 1 120 0
 363 0002 041C     		mov	r4, r0	@ RingBuff, RingBuff
ARM GAS  /tmp/ccdcx6z1.s 			page 12


 121:../../lpc11cx4-library/lpc_chip_11cxx_lib/src/ring_buffer.c **** 	uint8_t *ptr = RingBuff->data;
 364              		.loc 1 121 0
 365 0004 0768     		ldr	r7, [r0]	@ ptr, RingBuff_4(D)->data
 366              	.LVL38:
 122:../../lpc11cx4-library/lpc_chip_11cxx_lib/src/ring_buffer.c **** 
 123:../../lpc11cx4-library/lpc_chip_11cxx_lib/src/ring_buffer.c **** 	/* We cannot pop when queue is empty */
 124:../../lpc11cx4-library/lpc_chip_11cxx_lib/src/ring_buffer.c **** 	if (RingBuffer_IsEmpty(RingBuff))
 367              		.loc 1 124 0
 368 0006 E268     		ldr	r2, [r4, #12]	@ tmp143, RingBuff_4(D)->head
 369              	.LBB38:
 370              	.LBB39:
 128:../../lpc11cx4-library/lpc_chip_11cxx_lib/inc/ring_buffer.h **** }
 129:../../lpc11cx4-library/lpc_chip_11cxx_lib/inc/ring_buffer.h **** 
 130:../../lpc11cx4-library/lpc_chip_11cxx_lib/inc/ring_buffer.h **** /**
 131:../../lpc11cx4-library/lpc_chip_11cxx_lib/inc/ring_buffer.h ****  * @brief	Return empty status of ring buffer
 132:../../lpc11cx4-library/lpc_chip_11cxx_lib/inc/ring_buffer.h ****  * @param	RingBuff	: Pointer to ring buffer
 133:../../lpc11cx4-library/lpc_chip_11cxx_lib/inc/ring_buffer.h ****  * @return	1 if the ring buffer is empty, otherwise 0
 134:../../lpc11cx4-library/lpc_chip_11cxx_lib/inc/ring_buffer.h ****  */
 135:../../lpc11cx4-library/lpc_chip_11cxx_lib/inc/ring_buffer.h **** STATIC INLINE int RingBuffer_IsEmpty(RINGBUFF_T *RingBuff)
 136:../../lpc11cx4-library/lpc_chip_11cxx_lib/inc/ring_buffer.h **** {
 137:../../lpc11cx4-library/lpc_chip_11cxx_lib/inc/ring_buffer.h **** 	return RB_VHEAD(RingBuff) == RB_VTAIL(RingBuff);
 371              		.loc 2 137 0
 372 0008 0069     		ldr	r0, [r0, #16]	@ D.4705, RingBuff_4(D)->tail
 373              	.LVL39:
 374              	.LBE39:
 375              	.LBE38:
 125:../../lpc11cx4-library/lpc_chip_11cxx_lib/src/ring_buffer.c **** 		return 0;
 376              		.loc 1 125 0
 377 000a 0023     		mov	r3, #0	@ D.4704,
 124:../../lpc11cx4-library/lpc_chip_11cxx_lib/src/ring_buffer.c **** 		return 0;
 378              		.loc 1 124 0
 379 000c 8242     		cmp	r2, r0	@ tmp143, D.4705
 380 000e 0ED0     		beq	.L14	@,
 381 0010 0D1C     		mov	r5, r1	@ data, data
 126:../../lpc11cx4-library/lpc_chip_11cxx_lib/src/ring_buffer.c **** 
 127:../../lpc11cx4-library/lpc_chip_11cxx_lib/src/ring_buffer.c **** 	ptr += RB_INDT(RingBuff) * RingBuff->itemSz;
 382              		.loc 1 127 0
 383 0012 6168     		ldr	r1, [r4, #4]	@, RingBuff_4(D)->count
 384              	.LVL40:
 385 0014 FFF7FEFF 		bl	__aeabi_uidivmod	@
 386              	.LVL41:
 387 0018 A668     		ldr	r6, [r4, #8]	@ D.4705, RingBuff_4(D)->itemSz
 388              	.LVL42:
 128:../../lpc11cx4-library/lpc_chip_11cxx_lib/src/ring_buffer.c **** 	memcpy(data, ptr, RingBuff->itemSz);
 389              		.loc 1 128 0
 390 001a 281C     		mov	r0, r5	@, data
 127:../../lpc11cx4-library/lpc_chip_11cxx_lib/src/ring_buffer.c **** 	memcpy(data, ptr, RingBuff->itemSz);
 391              		.loc 1 127 0
 392 001c 7143     		mul	r1, r6	@ D.4705, D.4705
 393              		.loc 1 128 0
 394 001e 321C     		mov	r2, r6	@, D.4705
 127:../../lpc11cx4-library/lpc_chip_11cxx_lib/src/ring_buffer.c **** 	memcpy(data, ptr, RingBuff->itemSz);
 395              		.loc 1 127 0
 396 0020 7918     		add	r1, r7, r1	@ ptr, ptr, D.4705
 397              		.loc 1 128 0
 398 0022 FFF7FEFF 		bl	memcpy	@
 399              	.LVL43:
ARM GAS  /tmp/ccdcx6z1.s 			page 13


 129:../../lpc11cx4-library/lpc_chip_11cxx_lib/src/ring_buffer.c **** 	RingBuff->tail++;
 400              		.loc 1 129 0
 401 0026 2369     		ldr	r3, [r4, #16]	@ tmp145, RingBuff_4(D)->tail
 402 0028 0133     		add	r3, r3, #1	@ D.4705,
 403 002a 2361     		str	r3, [r4, #16]	@ D.4705, RingBuff_4(D)->tail
 130:../../lpc11cx4-library/lpc_chip_11cxx_lib/src/ring_buffer.c ****  
 131:../../lpc11cx4-library/lpc_chip_11cxx_lib/src/ring_buffer.c **** 	return 1;
 404              		.loc 1 131 0
 405 002c 0123     		mov	r3, #1	@ D.4704,
 406              	.LVL44:
 407              	.L14:
 132:../../lpc11cx4-library/lpc_chip_11cxx_lib/src/ring_buffer.c **** }
 408              		.loc 1 132 0
 409 002e 181C     		mov	r0, r3	@, D.4704
 410              		@ sp needed	@
 411              	.LVL45:
 412 0030 F8BD     		pop	{r3, r4, r5, r6, r7, pc}
 413              		.cfi_endproc
 414              	.LFE9:
 415              		.size	RingBuffer_Pop, .-RingBuffer_Pop
 416              		.section	.text.RingBuffer_PopMult,"ax",%progbits
 417              		.align	1
 418              		.global	RingBuffer_PopMult
 419              		.code	16
 420              		.thumb_func
 421              		.type	RingBuffer_PopMult, %function
 422              	RingBuffer_PopMult:
 423              	.LFB10:
 133:../../lpc11cx4-library/lpc_chip_11cxx_lib/src/ring_buffer.c **** 
 134:../../lpc11cx4-library/lpc_chip_11cxx_lib/src/ring_buffer.c **** /* Pop multiple items from Ring buffer */
 135:../../lpc11cx4-library/lpc_chip_11cxx_lib/src/ring_buffer.c **** uint32_t RingBuffer_PopMult(RINGBUFF_T *RingBuff, void *data, int num)
 136:../../lpc11cx4-library/lpc_chip_11cxx_lib/src/ring_buffer.c **** {
 424              		.loc 1 136 0
 425              		.cfi_startproc
 426              	.LVL46:
 427 0000 F7B5     		push	{r0, r1, r2, r4, r5, r6, r7, lr}	@
 428              		.cfi_def_cfa_offset 32
 429              		.cfi_offset 0, -32
 430              		.cfi_offset 1, -28
 431              		.cfi_offset 2, -24
 432              		.cfi_offset 4, -20
 433              		.cfi_offset 5, -16
 434              		.cfi_offset 6, -12
 435              		.cfi_offset 7, -8
 436              		.cfi_offset 14, -4
 137:../../lpc11cx4-library/lpc_chip_11cxx_lib/src/ring_buffer.c **** 	uint8_t *ptr = RingBuff->data;
 437              		.loc 1 137 0
 438 0002 0368     		ldr	r3, [r0]	@ ptr, RingBuff_5(D)->data
 136:../../lpc11cx4-library/lpc_chip_11cxx_lib/src/ring_buffer.c **** 	uint8_t *ptr = RingBuff->data;
 439              		.loc 1 136 0
 440 0004 041C     		mov	r4, r0	@ RingBuff, RingBuff
 441              	.LBB40:
 442              	.LBB41:
 443              		.loc 2 137 0
 444 0006 C768     		ldr	r7, [r0, #12]	@ D.4712, RingBuff_5(D)->head
 445 0008 0069     		ldr	r0, [r0, #16]	@ D.4712, RingBuff_5(D)->tail
 446              	.LVL47:
ARM GAS  /tmp/ccdcx6z1.s 			page 14


 447              	.LBE41:
 448              	.LBE40:
 449              		.loc 1 137 0
 450 000a 0193     		str	r3, [sp, #4]	@ ptr, %sfp
 451              	.LVL48:
 138:../../lpc11cx4-library/lpc_chip_11cxx_lib/src/ring_buffer.c **** 	int cnt1, cnt2;
 139:../../lpc11cx4-library/lpc_chip_11cxx_lib/src/ring_buffer.c **** 
 140:../../lpc11cx4-library/lpc_chip_11cxx_lib/src/ring_buffer.c **** 	/* We cannot insert when queue is empty */
 141:../../lpc11cx4-library/lpc_chip_11cxx_lib/src/ring_buffer.c **** 	if (RingBuffer_IsEmpty(RingBuff))
 142:../../lpc11cx4-library/lpc_chip_11cxx_lib/src/ring_buffer.c **** 		return 0;
 452              		.loc 1 142 0
 453 000c 0026     		mov	r6, #0	@ D.4711,
 141:../../lpc11cx4-library/lpc_chip_11cxx_lib/src/ring_buffer.c **** 		return 0;
 454              		.loc 1 141 0
 455 000e 8742     		cmp	r7, r0	@ D.4712, D.4712
 456 0010 37D0     		beq	.L17	@,
 143:../../lpc11cx4-library/lpc_chip_11cxx_lib/src/ring_buffer.c **** 
 144:../../lpc11cx4-library/lpc_chip_11cxx_lib/src/ring_buffer.c **** 	/* Calculate the segment lengths */
 145:../../lpc11cx4-library/lpc_chip_11cxx_lib/src/ring_buffer.c **** 	cnt1 = cnt2 = RingBuffer_GetCount(RingBuff);
 146:../../lpc11cx4-library/lpc_chip_11cxx_lib/src/ring_buffer.c **** 	if (RB_INDT(RingBuff) + cnt1 >= RingBuff->count)
 457              		.loc 1 146 0
 458 0012 6668     		ldr	r6, [r4, #4]	@ D.4712, RingBuff_5(D)->count
 459 0014 0091     		str	r1, [sp]	@ data, %sfp
 460              	.LVL49:
 461 0016 311C     		mov	r1, r6	@, D.4712
 462              	.LVL50:
 463              	.LBB42:
 464              	.LBB43:
 107:../../lpc11cx4-library/lpc_chip_11cxx_lib/inc/ring_buffer.h **** }
 465              		.loc 2 107 0
 466 0018 3F1A     		sub	r7, r7, r0	@ cnt1, D.4712, D.4712
 467              	.LVL51:
 468 001a 151C     		mov	r5, r2	@ num, num
 469              	.LBE43:
 470              	.LBE42:
 471              		.loc 1 146 0
 472 001c FFF7FEFF 		bl	__aeabi_uidivmod	@
 473              	.LVL52:
 474 0020 CB19     		add	r3, r1, r7	@ D.4712, D.4712, cnt1
 145:../../lpc11cx4-library/lpc_chip_11cxx_lib/src/ring_buffer.c **** 	if (RB_INDT(RingBuff) + cnt1 >= RingBuff->count)
 475              		.loc 1 145 0
 476 0022 381C     		mov	r0, r7	@ cnt1, cnt1
 477              		.loc 1 146 0
 478 0024 B342     		cmp	r3, r6	@ D.4712, D.4712
 479 0026 00D3     		bcc	.L18	@,
 147:../../lpc11cx4-library/lpc_chip_11cxx_lib/src/ring_buffer.c **** 		cnt1 = RingBuff->count - RB_INDT(RingBuff);
 480              		.loc 1 147 0
 481 0028 701A     		sub	r0, r6, r1	@ cnt1, D.4712, D.4712
 482              	.LVL53:
 483              	.L18:
 148:../../lpc11cx4-library/lpc_chip_11cxx_lib/src/ring_buffer.c **** 	cnt2 -= cnt1;
 484              		.loc 1 148 0
 485 002a 3F1A     		sub	r7, r7, r0	@ cnt2, cnt1, cnt1
 486              	.LVL54:
 149:../../lpc11cx4-library/lpc_chip_11cxx_lib/src/ring_buffer.c **** 
 150:../../lpc11cx4-library/lpc_chip_11cxx_lib/src/ring_buffer.c **** 	cnt1 = MIN(cnt1, num);
 487              		.loc 1 150 0
ARM GAS  /tmp/ccdcx6z1.s 			page 15


 488 002c 061E     		sub	r6, r0, #0	@ cnt1, cnt1,
 489 002e AE42     		cmp	r6, r5	@ cnt1, num
 490 0030 00DD     		ble	.L19	@,
 491 0032 2E1C     		mov	r6, r5	@ cnt1, num
 492              	.L19:
 493              	.LVL55:
 151:../../lpc11cx4-library/lpc_chip_11cxx_lib/src/ring_buffer.c **** 	num -= cnt1;
 494              		.loc 1 151 0
 495 0034 AD1B     		sub	r5, r5, r6	@ cnt2, num, cnt1
 496              	.LVL56:
 152:../../lpc11cx4-library/lpc_chip_11cxx_lib/src/ring_buffer.c **** 
 153:../../lpc11cx4-library/lpc_chip_11cxx_lib/src/ring_buffer.c **** 	cnt2 = MIN(cnt2, num);
 497              		.loc 1 153 0
 498 0036 BD42     		cmp	r5, r7	@ cnt2, cnt2
 499 0038 00DD     		ble	.L20	@,
 500 003a 3D1C     		mov	r5, r7	@ cnt2, cnt2
 501              	.LVL57:
 502              	.L20:
 154:../../lpc11cx4-library/lpc_chip_11cxx_lib/src/ring_buffer.c **** 	num -= cnt2;
 155:../../lpc11cx4-library/lpc_chip_11cxx_lib/src/ring_buffer.c **** 
 156:../../lpc11cx4-library/lpc_chip_11cxx_lib/src/ring_buffer.c **** 	/* Write segment 1 */
 157:../../lpc11cx4-library/lpc_chip_11cxx_lib/src/ring_buffer.c **** 	ptr += RB_INDT(RingBuff) * RingBuff->itemSz;
 503              		.loc 1 157 0
 504 003c A368     		ldr	r3, [r4, #8]	@ D.4712, RingBuff_5(D)->itemSz
 505              	.LVL58:
 158:../../lpc11cx4-library/lpc_chip_11cxx_lib/src/ring_buffer.c **** 	memcpy(data, ptr, cnt1 * RingBuff->itemSz);
 506              		.loc 1 158 0
 507 003e 0098     		ldr	r0, [sp]	@, %sfp
 508 0040 1A1C     		mov	r2, r3	@ D.4712, D.4712
 157:../../lpc11cx4-library/lpc_chip_11cxx_lib/src/ring_buffer.c **** 	memcpy(data, ptr, cnt1 * RingBuff->itemSz);
 509              		.loc 1 157 0
 510 0042 4B43     		mul	r3, r1	@ D.4712, D.4712
 511              	.LVL59:
 512 0044 0199     		ldr	r1, [sp, #4]	@ ptr, %sfp
 513              	.LVL60:
 514              		.loc 1 158 0
 515 0046 7243     		mul	r2, r6	@ D.4712, cnt1
 157:../../lpc11cx4-library/lpc_chip_11cxx_lib/src/ring_buffer.c **** 	memcpy(data, ptr, cnt1 * RingBuff->itemSz);
 516              		.loc 1 157 0
 517 0048 C918     		add	r1, r1, r3	@ ptr, ptr, D.4712
 518              	.LVL61:
 519              		.loc 1 158 0
 520 004a FFF7FEFF 		bl	memcpy	@
 521              	.LVL62:
 159:../../lpc11cx4-library/lpc_chip_11cxx_lib/src/ring_buffer.c **** 	RingBuff->tail += cnt1;
 160:../../lpc11cx4-library/lpc_chip_11cxx_lib/src/ring_buffer.c **** 
 161:../../lpc11cx4-library/lpc_chip_11cxx_lib/src/ring_buffer.c **** 	/* Write segment 2 */
 162:../../lpc11cx4-library/lpc_chip_11cxx_lib/src/ring_buffer.c **** 	ptr = (uint8_t *) RingBuff->data + RB_INDT(RingBuff) * RingBuff->itemSz;
 522              		.loc 1 162 0
 523 004e A768     		ldr	r7, [r4, #8]	@ D.4712, RingBuff_5(D)->itemSz
 159:../../lpc11cx4-library/lpc_chip_11cxx_lib/src/ring_buffer.c **** 	RingBuff->tail += cnt1;
 524              		.loc 1 159 0
 525 0050 2369     		ldr	r3, [r4, #16]	@ tmp196, RingBuff_5(D)->tail
 163:../../lpc11cx4-library/lpc_chip_11cxx_lib/src/ring_buffer.c **** 	data = (uint8_t *) data + cnt1 * RingBuff->itemSz;
 526              		.loc 1 163 0
 527 0052 391C     		mov	r1, r7	@ D.4712, D.4712
 528 0054 7143     		mul	r1, r6	@ D.4712, cnt1
ARM GAS  /tmp/ccdcx6z1.s 			page 16


 159:../../lpc11cx4-library/lpc_chip_11cxx_lib/src/ring_buffer.c **** 	RingBuff->tail += cnt1;
 529              		.loc 1 159 0
 530 0056 F018     		add	r0, r6, r3	@ D.4712, cnt1, tmp196
 531              	.LVL63:
 532              		.loc 1 163 0
 533 0058 009B     		ldr	r3, [sp]	@ data, %sfp
 159:../../lpc11cx4-library/lpc_chip_11cxx_lib/src/ring_buffer.c **** 	RingBuff->tail += cnt1;
 534              		.loc 1 159 0
 535 005a 2061     		str	r0, [r4, #16]	@ D.4712, RingBuff_5(D)->tail
 536              		.loc 1 163 0
 537 005c 5B18     		add	r3, r3, r1	@ data, data, D.4712
 538              	.LVL64:
 539 005e 0093     		str	r3, [sp]	@ data, %sfp
 164:../../lpc11cx4-library/lpc_chip_11cxx_lib/src/ring_buffer.c **** 	memcpy(data, ptr, cnt2 * RingBuff->itemSz);
 540              		.loc 1 164 0
 541 0060 3B1C     		mov	r3, r7	@ D.4712, D.4712
 542              	.LVL65:
 543 0062 6B43     		mul	r3, r5	@ D.4712, cnt2
 162:../../lpc11cx4-library/lpc_chip_11cxx_lib/src/ring_buffer.c **** 	data = (uint8_t *) data + cnt1 * RingBuff->itemSz;
 544              		.loc 1 162 0
 545 0064 6168     		ldr	r1, [r4, #4]	@, RingBuff_5(D)->count
 546              		.loc 1 164 0
 547 0066 0193     		str	r3, [sp, #4]	@ D.4712, %sfp
 162:../../lpc11cx4-library/lpc_chip_11cxx_lib/src/ring_buffer.c **** 	data = (uint8_t *) data + cnt1 * RingBuff->itemSz;
 548              		.loc 1 162 0
 549 0068 FFF7FEFF 		bl	__aeabi_uidivmod	@
 550              	.LVL66:
 551 006c 4F43     		mul	r7, r1	@ D.4712, D.4712
 552 006e 2368     		ldr	r3, [r4]	@ tmp201, RingBuff_5(D)->data
 553              		.loc 1 164 0
 554 0070 0098     		ldr	r0, [sp]	@, %sfp
 162:../../lpc11cx4-library/lpc_chip_11cxx_lib/src/ring_buffer.c **** 	data = (uint8_t *) data + cnt1 * RingBuff->itemSz;
 555              		.loc 1 162 0
 556 0072 D919     		add	r1, r3, r7	@ ptr, tmp201, D.4712
 557              		.loc 1 164 0
 558 0074 019A     		ldr	r2, [sp, #4]	@, %sfp
 559 0076 FFF7FEFF 		bl	memcpy	@
 560              	.LVL67:
 165:../../lpc11cx4-library/lpc_chip_11cxx_lib/src/ring_buffer.c **** 	RingBuff->tail += cnt2;
 561              		.loc 1 165 0
 562 007a 2369     		ldr	r3, [r4, #16]	@ tmp202, RingBuff_5(D)->tail
 166:../../lpc11cx4-library/lpc_chip_11cxx_lib/src/ring_buffer.c **** 
 167:../../lpc11cx4-library/lpc_chip_11cxx_lib/src/ring_buffer.c **** 	return cnt1 + cnt2;
 563              		.loc 1 167 0
 564 007c 7619     		add	r6, r6, r5	@ D.4711, cnt1, cnt2
 565              	.LVL68:
 165:../../lpc11cx4-library/lpc_chip_11cxx_lib/src/ring_buffer.c **** 	RingBuff->tail += cnt2;
 566              		.loc 1 165 0
 567 007e 5B19     		add	r3, r3, r5	@ D.4712, tmp202, cnt2
 568 0080 2361     		str	r3, [r4, #16]	@ D.4712, RingBuff_5(D)->tail
 569              	.LVL69:
 570              	.L17:
 168:../../lpc11cx4-library/lpc_chip_11cxx_lib/src/ring_buffer.c **** }
 571              		.loc 1 168 0
 572 0082 301C     		mov	r0, r6	@, D.4711
 573              		@ sp needed	@
 574              	.LVL70:
ARM GAS  /tmp/ccdcx6z1.s 			page 17


 575 0084 FEBD     		pop	{r1, r2, r3, r4, r5, r6, r7, pc}
 576              		.cfi_endproc
 577              	.LFE10:
 578              		.size	RingBuffer_PopMult, .-RingBuffer_PopMult
 579              		.text
 580              	.Letext0:
 581              		.file 3 "/usr/arm-none-eabi/include/machine/_default_types.h"
 582              		.file 4 "/usr/arm-none-eabi/include/sys/_stdint.h"