ARM GAS  /tmp/ccjsfSlY.s 			page 1


   1              		.cpu cortex-m0
   2              		.fpu softvfp
   3              		.eabi_attribute 20, 1	@ Tag_ABI_FP_denormal
   4              		.eabi_attribute 21, 1	@ Tag_ABI_FP_exceptions
   5              		.eabi_attribute 23, 3	@ Tag_ABI_FP_number_model
   6              		.eabi_attribute 24, 1	@ Tag_ABI_align8_needed
   7              		.eabi_attribute 25, 1	@ Tag_ABI_align8_preserved
   8              		.eabi_attribute 26, 1	@ Tag_ABI_enum_size
   9              		.eabi_attribute 30, 2	@ Tag_ABI_optimization_goals
  10              		.eabi_attribute 34, 0	@ Tag_CPU_unaligned_access
  11              		.eabi_attribute 18, 4	@ Tag_ABI_PCS_wchar_t
  12              		.file	"ssp_11xx.c"
  13              	@ GNU C (GNU Tools for ARM Embedded Processors) version 4.9.3 20150529 (release) [ARM/embedded-4_9-
  14              	@	compiled by GNU C version 4.8.4, GMP version 5.1.3, MPFR version 3.1.2-p3, MPC version 1.0.1
  15              	@ GGC heuristics: --param ggc-min-expand=98 --param ggc-min-heapsize=128397
  16              	@ options passed:  -I . -I inc/
  17              	@ -I ../../lpc11cx4-library/lpc_chip_11cxx_lib/inc
  18              	@ -I ../../lpc11cx4-library/evt_lib/inc/ -imultilib armv6-m
  19              	@ -iprefix /usr/bin/../lib/gcc/arm-none-eabi/4.9.3/
  20              	@ -isysroot /usr/bin/../arm-none-eabi -MD bin/ssp_11xx.d -MF bin/ssp_11xx.d
  21              	@ -MP -MQ bin/ssp_11xx.o -D__USES_INITFINI__ -D UART_BAUD=115200 -D CORE_M0
  22              	@ -D DEBUG_ENABLE ../../lpc11cx4-library/lpc_chip_11cxx_lib/src/ssp_11xx.c
  23              	@ -mcpu=cortex-m0 -mthumb -auxbase-strip bin/ssp_11xx.o -g -ggdb3 -O2 -Wall
  24              	@ -Wstrict-prototypes -Wextra -std=gnu90 -ffunction-sections
  25              	@ -fdata-sections -fdiagnostics-color=always -fverbose-asm
  26              	@ options enabled:  -faggressive-loop-optimizations -fauto-inc-dec
  27              	@ -fbranch-count-reg -fcaller-saves -fcombine-stack-adjustments -fcommon
  28              	@ -fcompare-elim -fcprop-registers -fcrossjumping -fcse-follow-jumps
  29              	@ -fdata-sections -fdefer-pop -fdelete-null-pointer-checks -fdevirtualize
  30              	@ -fdevirtualize-speculatively -fdwarf2-cfi-asm -fearly-inlining
  31              	@ -feliminate-unused-debug-types -fexpensive-optimizations
  32              	@ -fforward-propagate -ffunction-cse -ffunction-sections -fgcse -fgcse-lm
  33              	@ -fgnu-runtime -fgnu-unique -fguess-branch-probability
  34              	@ -fhoist-adjacent-loads -fident -fif-conversion -fif-conversion2
  35              	@ -findirect-inlining -finline -finline-atomics
  36              	@ -finline-functions-called-once -finline-small-functions -fipa-cp
  37              	@ -fipa-profile -fipa-pure-const -fipa-reference -fipa-sra
  38              	@ -fira-hoist-pressure -fira-share-save-slots -fira-share-spill-slots
  39              	@ -fisolate-erroneous-paths-dereference -fivopts -fkeep-static-consts
  40              	@ -fleading-underscore -flifetime-dse -fmath-errno -fmerge-constants
  41              	@ -fmerge-debug-strings -fmove-loop-invariants -fomit-frame-pointer
  42              	@ -foptimize-sibling-calls -foptimize-strlen -fpartial-inlining -fpeephole
  43              	@ -fpeephole2 -fprefetch-loop-arrays -freg-struct-return -freorder-blocks
  44              	@ -freorder-functions -frerun-cse-after-loop
  45              	@ -fsched-critical-path-heuristic -fsched-dep-count-heuristic
  46              	@ -fsched-group-heuristic -fsched-interblock -fsched-last-insn-heuristic
  47              	@ -fsched-pressure -fsched-rank-heuristic -fsched-spec
  48              	@ -fsched-spec-insn-heuristic -fsched-stalled-insns-dep -fschedule-insns2
  49              	@ -fsection-anchors -fshow-column -fshrink-wrap -fsigned-zeros
  50              	@ -fsplit-ivs-in-unroller -fsplit-wide-types -fstrict-aliasing
  51              	@ -fstrict-overflow -fstrict-volatile-bitfields -fsync-libcalls
  52              	@ -fthread-jumps -ftoplevel-reorder -ftrapping-math -ftree-bit-ccp
  53              	@ -ftree-builtin-call-dce -ftree-ccp -ftree-ch -ftree-coalesce-vars
  54              	@ -ftree-copy-prop -ftree-copyrename -ftree-cselim -ftree-dce
  55              	@ -ftree-dominator-opts -ftree-dse -ftree-forwprop -ftree-fre
  56              	@ -ftree-loop-if-convert -ftree-loop-im -ftree-loop-ivcanon
  57              	@ -ftree-loop-optimize -ftree-parallelize-loops= -ftree-phiprop -ftree-pre
ARM GAS  /tmp/ccjsfSlY.s 			page 2


  58              	@ -ftree-pta -ftree-reassoc -ftree-scev-cprop -ftree-sink -ftree-slsr
  59              	@ -ftree-sra -ftree-switch-conversion -ftree-tail-merge -ftree-ter
  60              	@ -ftree-vrp -funit-at-a-time -fvar-tracking -fvar-tracking-assignments
  61              	@ -fverbose-asm -fzero-initialized-in-bss -mlittle-endian -mlra
  62              	@ -mpic-data-is-text-relative -msched-prolog -mthumb
  63              	@ -mvectorize-with-neon-quad
  64              	
  65              		.text
  66              	.Ltext0:
  67              		.cfi_sections	.debug_frame
  68              		.section	.text.SSP_Read1BFifo,"ax",%progbits
  69              		.align	2
  70              		.code	16
  71              		.thumb_func
  72              		.type	SSP_Read1BFifo, %function
  73              	SSP_Read1BFifo:
  74              	.LFB201:
  75              		.file 1 "../../lpc11cx4-library/lpc_chip_11cxx_lib/src/ssp_11xx.c"
   1:../../lpc11cx4-library/lpc_chip_11cxx_lib/src/ssp_11xx.c **** /*
   2:../../lpc11cx4-library/lpc_chip_11cxx_lib/src/ssp_11xx.c ****  * @brief LPC11xx SSP Registers and control functions
   3:../../lpc11cx4-library/lpc_chip_11cxx_lib/src/ssp_11xx.c ****  *
   4:../../lpc11cx4-library/lpc_chip_11cxx_lib/src/ssp_11xx.c ****  * @note
   5:../../lpc11cx4-library/lpc_chip_11cxx_lib/src/ssp_11xx.c ****  * Copyright(C) NXP Semiconductors, 2012
   6:../../lpc11cx4-library/lpc_chip_11cxx_lib/src/ssp_11xx.c ****  * All rights reserved.
   7:../../lpc11cx4-library/lpc_chip_11cxx_lib/src/ssp_11xx.c ****  *
   8:../../lpc11cx4-library/lpc_chip_11cxx_lib/src/ssp_11xx.c ****  * @par
   9:../../lpc11cx4-library/lpc_chip_11cxx_lib/src/ssp_11xx.c ****  * Software that is described herein is for illustrative purposes only
  10:../../lpc11cx4-library/lpc_chip_11cxx_lib/src/ssp_11xx.c ****  * which provides customers with programming information regarding the
  11:../../lpc11cx4-library/lpc_chip_11cxx_lib/src/ssp_11xx.c ****  * LPC products.  This software is supplied "AS IS" without any warranties of
  12:../../lpc11cx4-library/lpc_chip_11cxx_lib/src/ssp_11xx.c ****  * any kind, and NXP Semiconductors and its licensor disclaim any and
  13:../../lpc11cx4-library/lpc_chip_11cxx_lib/src/ssp_11xx.c ****  * all warranties, express or implied, including all implied warranties of
  14:../../lpc11cx4-library/lpc_chip_11cxx_lib/src/ssp_11xx.c ****  * merchantability, fitness for a particular purpose and non-infringement of
  15:../../lpc11cx4-library/lpc_chip_11cxx_lib/src/ssp_11xx.c ****  * intellectual property rights.  NXP Semiconductors assumes no responsibility
  16:../../lpc11cx4-library/lpc_chip_11cxx_lib/src/ssp_11xx.c ****  * or liability for the use of the software, conveys no license or rights under any
  17:../../lpc11cx4-library/lpc_chip_11cxx_lib/src/ssp_11xx.c ****  * patent, copyright, mask work right, or any other intellectual property rights in
  18:../../lpc11cx4-library/lpc_chip_11cxx_lib/src/ssp_11xx.c ****  * or to any products. NXP Semiconductors reserves the right to make changes
  19:../../lpc11cx4-library/lpc_chip_11cxx_lib/src/ssp_11xx.c ****  * in the software without notification. NXP Semiconductors also makes no
  20:../../lpc11cx4-library/lpc_chip_11cxx_lib/src/ssp_11xx.c ****  * representation or warranty that such application will be suitable for the
  21:../../lpc11cx4-library/lpc_chip_11cxx_lib/src/ssp_11xx.c ****  * specified use without further testing or modification.
  22:../../lpc11cx4-library/lpc_chip_11cxx_lib/src/ssp_11xx.c ****  *
  23:../../lpc11cx4-library/lpc_chip_11cxx_lib/src/ssp_11xx.c ****  * @par
  24:../../lpc11cx4-library/lpc_chip_11cxx_lib/src/ssp_11xx.c ****  * Permission to use, copy, modify, and distribute this software and its
  25:../../lpc11cx4-library/lpc_chip_11cxx_lib/src/ssp_11xx.c ****  * documentation is hereby granted, under NXP Semiconductors' and its
  26:../../lpc11cx4-library/lpc_chip_11cxx_lib/src/ssp_11xx.c ****  * licensor's relevant copyrights in the software, without fee, provided that it
  27:../../lpc11cx4-library/lpc_chip_11cxx_lib/src/ssp_11xx.c ****  * is used in conjunction with NXP Semiconductors microcontrollers.  This
  28:../../lpc11cx4-library/lpc_chip_11cxx_lib/src/ssp_11xx.c ****  * copyright, permission, and disclaimer notice must appear in all copies of
  29:../../lpc11cx4-library/lpc_chip_11cxx_lib/src/ssp_11xx.c ****  * this code.
  30:../../lpc11cx4-library/lpc_chip_11cxx_lib/src/ssp_11xx.c ****  */
  31:../../lpc11cx4-library/lpc_chip_11cxx_lib/src/ssp_11xx.c **** 
  32:../../lpc11cx4-library/lpc_chip_11cxx_lib/src/ssp_11xx.c **** #include "chip.h"
  33:../../lpc11cx4-library/lpc_chip_11cxx_lib/src/ssp_11xx.c **** 
  34:../../lpc11cx4-library/lpc_chip_11cxx_lib/src/ssp_11xx.c **** /*****************************************************************************
  35:../../lpc11cx4-library/lpc_chip_11cxx_lib/src/ssp_11xx.c ****  * Private types/enumerations/variables
  36:../../lpc11cx4-library/lpc_chip_11cxx_lib/src/ssp_11xx.c ****  ****************************************************************************/
  37:../../lpc11cx4-library/lpc_chip_11cxx_lib/src/ssp_11xx.c **** 
  38:../../lpc11cx4-library/lpc_chip_11cxx_lib/src/ssp_11xx.c **** /*****************************************************************************
  39:../../lpc11cx4-library/lpc_chip_11cxx_lib/src/ssp_11xx.c ****  * Public types/enumerations/variables
ARM GAS  /tmp/ccjsfSlY.s 			page 3


  40:../../lpc11cx4-library/lpc_chip_11cxx_lib/src/ssp_11xx.c ****  ****************************************************************************/
  41:../../lpc11cx4-library/lpc_chip_11cxx_lib/src/ssp_11xx.c **** 
  42:../../lpc11cx4-library/lpc_chip_11cxx_lib/src/ssp_11xx.c **** /*****************************************************************************
  43:../../lpc11cx4-library/lpc_chip_11cxx_lib/src/ssp_11xx.c ****  * Private functions
  44:../../lpc11cx4-library/lpc_chip_11cxx_lib/src/ssp_11xx.c ****  ****************************************************************************/
  45:../../lpc11cx4-library/lpc_chip_11cxx_lib/src/ssp_11xx.c **** 
  46:../../lpc11cx4-library/lpc_chip_11cxx_lib/src/ssp_11xx.c **** STATIC void SSP_Write2BFifo(LPC_SSP_T *pSSP, Chip_SSP_DATA_SETUP_T *xf_setup)
  47:../../lpc11cx4-library/lpc_chip_11cxx_lib/src/ssp_11xx.c **** {
  48:../../lpc11cx4-library/lpc_chip_11cxx_lib/src/ssp_11xx.c **** 	if (xf_setup->tx_data) {
  49:../../lpc11cx4-library/lpc_chip_11cxx_lib/src/ssp_11xx.c **** 		Chip_SSP_SendFrame(pSSP, (*(uint16_t *) ((uint32_t) xf_setup->tx_data +
  50:../../lpc11cx4-library/lpc_chip_11cxx_lib/src/ssp_11xx.c **** 												 xf_setup->tx_cnt)));
  51:../../lpc11cx4-library/lpc_chip_11cxx_lib/src/ssp_11xx.c **** 	}
  52:../../lpc11cx4-library/lpc_chip_11cxx_lib/src/ssp_11xx.c **** 	else {
  53:../../lpc11cx4-library/lpc_chip_11cxx_lib/src/ssp_11xx.c **** 		Chip_SSP_SendFrame(pSSP, 0xFFFF);
  54:../../lpc11cx4-library/lpc_chip_11cxx_lib/src/ssp_11xx.c **** 	}
  55:../../lpc11cx4-library/lpc_chip_11cxx_lib/src/ssp_11xx.c **** 
  56:../../lpc11cx4-library/lpc_chip_11cxx_lib/src/ssp_11xx.c **** 	xf_setup->tx_cnt += 2;
  57:../../lpc11cx4-library/lpc_chip_11cxx_lib/src/ssp_11xx.c **** }
  58:../../lpc11cx4-library/lpc_chip_11cxx_lib/src/ssp_11xx.c **** 
  59:../../lpc11cx4-library/lpc_chip_11cxx_lib/src/ssp_11xx.c **** /** SSP macro: write 1 bytes to FIFO buffer */
  60:../../lpc11cx4-library/lpc_chip_11cxx_lib/src/ssp_11xx.c **** STATIC void SSP_Write1BFifo(LPC_SSP_T *pSSP, Chip_SSP_DATA_SETUP_T *xf_setup)
  61:../../lpc11cx4-library/lpc_chip_11cxx_lib/src/ssp_11xx.c **** {
  62:../../lpc11cx4-library/lpc_chip_11cxx_lib/src/ssp_11xx.c **** 	if (xf_setup->tx_data) {
  63:../../lpc11cx4-library/lpc_chip_11cxx_lib/src/ssp_11xx.c **** 		Chip_SSP_SendFrame(pSSP, (*(uint8_t *) ((uint32_t) xf_setup->tx_data + xf_setup->tx_cnt)));
  64:../../lpc11cx4-library/lpc_chip_11cxx_lib/src/ssp_11xx.c **** 	}
  65:../../lpc11cx4-library/lpc_chip_11cxx_lib/src/ssp_11xx.c **** 	else {
  66:../../lpc11cx4-library/lpc_chip_11cxx_lib/src/ssp_11xx.c **** 		Chip_SSP_SendFrame(pSSP, 0xFF);
  67:../../lpc11cx4-library/lpc_chip_11cxx_lib/src/ssp_11xx.c **** 	}
  68:../../lpc11cx4-library/lpc_chip_11cxx_lib/src/ssp_11xx.c **** 
  69:../../lpc11cx4-library/lpc_chip_11cxx_lib/src/ssp_11xx.c **** 	xf_setup->tx_cnt++;
  70:../../lpc11cx4-library/lpc_chip_11cxx_lib/src/ssp_11xx.c **** }
  71:../../lpc11cx4-library/lpc_chip_11cxx_lib/src/ssp_11xx.c **** 
  72:../../lpc11cx4-library/lpc_chip_11cxx_lib/src/ssp_11xx.c **** /** SSP macro: read 1 bytes from FIFO buffer */
  73:../../lpc11cx4-library/lpc_chip_11cxx_lib/src/ssp_11xx.c **** STATIC void SSP_Read2BFifo(LPC_SSP_T *pSSP, Chip_SSP_DATA_SETUP_T *xf_setup)
  74:../../lpc11cx4-library/lpc_chip_11cxx_lib/src/ssp_11xx.c **** {
  75:../../lpc11cx4-library/lpc_chip_11cxx_lib/src/ssp_11xx.c **** 	uint16_t rDat;
  76:../../lpc11cx4-library/lpc_chip_11cxx_lib/src/ssp_11xx.c **** 
  77:../../lpc11cx4-library/lpc_chip_11cxx_lib/src/ssp_11xx.c **** 	while ((Chip_SSP_GetStatus(pSSP, SSP_STAT_RNE) == SET) &&
  78:../../lpc11cx4-library/lpc_chip_11cxx_lib/src/ssp_11xx.c **** 		   (xf_setup->rx_cnt < xf_setup->length)) {
  79:../../lpc11cx4-library/lpc_chip_11cxx_lib/src/ssp_11xx.c **** 		rDat = Chip_SSP_ReceiveFrame(pSSP);
  80:../../lpc11cx4-library/lpc_chip_11cxx_lib/src/ssp_11xx.c **** 		if (xf_setup->rx_data) {
  81:../../lpc11cx4-library/lpc_chip_11cxx_lib/src/ssp_11xx.c **** 			*(uint16_t *) ((uint32_t) xf_setup->rx_data + xf_setup->rx_cnt) = rDat;
  82:../../lpc11cx4-library/lpc_chip_11cxx_lib/src/ssp_11xx.c **** 		}
  83:../../lpc11cx4-library/lpc_chip_11cxx_lib/src/ssp_11xx.c **** 
  84:../../lpc11cx4-library/lpc_chip_11cxx_lib/src/ssp_11xx.c **** 		xf_setup->rx_cnt += 2;
  85:../../lpc11cx4-library/lpc_chip_11cxx_lib/src/ssp_11xx.c **** 	}
  86:../../lpc11cx4-library/lpc_chip_11cxx_lib/src/ssp_11xx.c **** }
  87:../../lpc11cx4-library/lpc_chip_11cxx_lib/src/ssp_11xx.c **** 
  88:../../lpc11cx4-library/lpc_chip_11cxx_lib/src/ssp_11xx.c **** /** SSP macro: read 2 bytes from FIFO buffer */
  89:../../lpc11cx4-library/lpc_chip_11cxx_lib/src/ssp_11xx.c **** STATIC void SSP_Read1BFifo(LPC_SSP_T *pSSP, Chip_SSP_DATA_SETUP_T *xf_setup)
  90:../../lpc11cx4-library/lpc_chip_11cxx_lib/src/ssp_11xx.c **** {
  76              		.loc 1 90 0
  77              		.cfi_startproc
  78              	.LVL0:
  79              	.LBB224:
  80              	.LBB225:
  81              		.file 2 "../../lpc11cx4-library/lpc_chip_11cxx_lib/inc/ssp_11xx.h"
ARM GAS  /tmp/ccjsfSlY.s 			page 4


   1:../../lpc11cx4-library/lpc_chip_11cxx_lib/inc/ssp_11xx.h **** /*
   2:../../lpc11cx4-library/lpc_chip_11cxx_lib/inc/ssp_11xx.h ****  * @brief LPC11xx SSP Registers and control functions
   3:../../lpc11cx4-library/lpc_chip_11cxx_lib/inc/ssp_11xx.h ****  *
   4:../../lpc11cx4-library/lpc_chip_11cxx_lib/inc/ssp_11xx.h ****  * @note
   5:../../lpc11cx4-library/lpc_chip_11cxx_lib/inc/ssp_11xx.h ****  * Copyright(C) NXP Semiconductors, 2012
   6:../../lpc11cx4-library/lpc_chip_11cxx_lib/inc/ssp_11xx.h ****  * All rights reserved.
   7:../../lpc11cx4-library/lpc_chip_11cxx_lib/inc/ssp_11xx.h ****  *
   8:../../lpc11cx4-library/lpc_chip_11cxx_lib/inc/ssp_11xx.h ****  * @par
   9:../../lpc11cx4-library/lpc_chip_11cxx_lib/inc/ssp_11xx.h ****  * Software that is described herein is for illustrative purposes only
  10:../../lpc11cx4-library/lpc_chip_11cxx_lib/inc/ssp_11xx.h ****  * which provides customers with programming information regarding the
  11:../../lpc11cx4-library/lpc_chip_11cxx_lib/inc/ssp_11xx.h ****  * LPC products.  This software is supplied "AS IS" without any warranties of
  12:../../lpc11cx4-library/lpc_chip_11cxx_lib/inc/ssp_11xx.h ****  * any kind, and NXP Semiconductors and its licensor disclaim any and
  13:../../lpc11cx4-library/lpc_chip_11cxx_lib/inc/ssp_11xx.h ****  * all warranties, express or implied, including all implied warranties of
  14:../../lpc11cx4-library/lpc_chip_11cxx_lib/inc/ssp_11xx.h ****  * merchantability, fitness for a particular purpose and non-infringement of
  15:../../lpc11cx4-library/lpc_chip_11cxx_lib/inc/ssp_11xx.h ****  * intellectual property rights.  NXP Semiconductors assumes no responsibility
  16:../../lpc11cx4-library/lpc_chip_11cxx_lib/inc/ssp_11xx.h ****  * or liability for the use of the software, conveys no license or rights under any
  17:../../lpc11cx4-library/lpc_chip_11cxx_lib/inc/ssp_11xx.h ****  * patent, copyright, mask work right, or any other intellectual property rights in
  18:../../lpc11cx4-library/lpc_chip_11cxx_lib/inc/ssp_11xx.h ****  * or to any products. NXP Semiconductors reserves the right to make changes
  19:../../lpc11cx4-library/lpc_chip_11cxx_lib/inc/ssp_11xx.h ****  * in the software without notification. NXP Semiconductors also makes no
  20:../../lpc11cx4-library/lpc_chip_11cxx_lib/inc/ssp_11xx.h ****  * representation or warranty that such application will be suitable for the
  21:../../lpc11cx4-library/lpc_chip_11cxx_lib/inc/ssp_11xx.h ****  * specified use without further testing or modification.
  22:../../lpc11cx4-library/lpc_chip_11cxx_lib/inc/ssp_11xx.h ****  *
  23:../../lpc11cx4-library/lpc_chip_11cxx_lib/inc/ssp_11xx.h ****  * @par
  24:../../lpc11cx4-library/lpc_chip_11cxx_lib/inc/ssp_11xx.h ****  * Permission to use, copy, modify, and distribute this software and its
  25:../../lpc11cx4-library/lpc_chip_11cxx_lib/inc/ssp_11xx.h ****  * documentation is hereby granted, under NXP Semiconductors' and its
  26:../../lpc11cx4-library/lpc_chip_11cxx_lib/inc/ssp_11xx.h ****  * licensor's relevant copyrights in the software, without fee, provided that it
  27:../../lpc11cx4-library/lpc_chip_11cxx_lib/inc/ssp_11xx.h ****  * is used in conjunction with NXP Semiconductors microcontrollers.  This
  28:../../lpc11cx4-library/lpc_chip_11cxx_lib/inc/ssp_11xx.h ****  * copyright, permission, and disclaimer notice must appear in all copies of
  29:../../lpc11cx4-library/lpc_chip_11cxx_lib/inc/ssp_11xx.h ****  * this code.
  30:../../lpc11cx4-library/lpc_chip_11cxx_lib/inc/ssp_11xx.h ****  */
  31:../../lpc11cx4-library/lpc_chip_11cxx_lib/inc/ssp_11xx.h **** 
  32:../../lpc11cx4-library/lpc_chip_11cxx_lib/inc/ssp_11xx.h **** #ifndef __SSP_11XX_H_
  33:../../lpc11cx4-library/lpc_chip_11cxx_lib/inc/ssp_11xx.h **** #define __SSP_11XX_H_
  34:../../lpc11cx4-library/lpc_chip_11cxx_lib/inc/ssp_11xx.h **** 
  35:../../lpc11cx4-library/lpc_chip_11cxx_lib/inc/ssp_11xx.h **** #ifdef __cplusplus
  36:../../lpc11cx4-library/lpc_chip_11cxx_lib/inc/ssp_11xx.h **** extern "C" {
  37:../../lpc11cx4-library/lpc_chip_11cxx_lib/inc/ssp_11xx.h **** #endif
  38:../../lpc11cx4-library/lpc_chip_11cxx_lib/inc/ssp_11xx.h **** 
  39:../../lpc11cx4-library/lpc_chip_11cxx_lib/inc/ssp_11xx.h **** /** @defgroup SSP_11XX CHIP: LPC11xx SSP register block and driver
  40:../../lpc11cx4-library/lpc_chip_11cxx_lib/inc/ssp_11xx.h ****  * @ingroup CHIP_11XX_Drivers
  41:../../lpc11cx4-library/lpc_chip_11cxx_lib/inc/ssp_11xx.h ****  * @{
  42:../../lpc11cx4-library/lpc_chip_11cxx_lib/inc/ssp_11xx.h ****  */
  43:../../lpc11cx4-library/lpc_chip_11cxx_lib/inc/ssp_11xx.h **** 
  44:../../lpc11cx4-library/lpc_chip_11cxx_lib/inc/ssp_11xx.h **** /**
  45:../../lpc11cx4-library/lpc_chip_11cxx_lib/inc/ssp_11xx.h ****  * @brief SSP register block structure
  46:../../lpc11cx4-library/lpc_chip_11cxx_lib/inc/ssp_11xx.h ****  */
  47:../../lpc11cx4-library/lpc_chip_11cxx_lib/inc/ssp_11xx.h **** typedef struct {			/*!< SSPn Structure         */
  48:../../lpc11cx4-library/lpc_chip_11cxx_lib/inc/ssp_11xx.h **** 	__IO uint32_t CR0;		/*!< Control Register 0. Selects the serial clock rate, bus type, and data siz
  49:../../lpc11cx4-library/lpc_chip_11cxx_lib/inc/ssp_11xx.h **** 	__IO uint32_t CR1;		/*!< Control Register 1. Selects master/slave and other modes. */
  50:../../lpc11cx4-library/lpc_chip_11cxx_lib/inc/ssp_11xx.h **** 	__IO uint32_t DR;		/*!< Data Register. Writes fill the transmit FIFO, and reads empty the receive 
  51:../../lpc11cx4-library/lpc_chip_11cxx_lib/inc/ssp_11xx.h **** 	__I  uint32_t SR;		/*!< Status Register        */
  52:../../lpc11cx4-library/lpc_chip_11cxx_lib/inc/ssp_11xx.h **** 	__IO uint32_t CPSR;		/*!< Clock Prescale Register */
  53:../../lpc11cx4-library/lpc_chip_11cxx_lib/inc/ssp_11xx.h **** 	__IO uint32_t IMSC;		/*!< Interrupt Mask Set and Clear Register */
  54:../../lpc11cx4-library/lpc_chip_11cxx_lib/inc/ssp_11xx.h **** 	__I  uint32_t RIS;		/*!< Raw Interrupt Status Register */
  55:../../lpc11cx4-library/lpc_chip_11cxx_lib/inc/ssp_11xx.h **** 	__I  uint32_t MIS;		/*!< Masked Interrupt Status Register */
  56:../../lpc11cx4-library/lpc_chip_11cxx_lib/inc/ssp_11xx.h **** 	__O  uint32_t ICR;		/*!< SSPICR Interrupt Clear Register */
  57:../../lpc11cx4-library/lpc_chip_11cxx_lib/inc/ssp_11xx.h **** } LPC_SSP_T;
ARM GAS  /tmp/ccjsfSlY.s 			page 5


  58:../../lpc11cx4-library/lpc_chip_11cxx_lib/inc/ssp_11xx.h **** 
  59:../../lpc11cx4-library/lpc_chip_11cxx_lib/inc/ssp_11xx.h **** /**
  60:../../lpc11cx4-library/lpc_chip_11cxx_lib/inc/ssp_11xx.h ****  * Macro defines for CR0 register
  61:../../lpc11cx4-library/lpc_chip_11cxx_lib/inc/ssp_11xx.h ****  */
  62:../../lpc11cx4-library/lpc_chip_11cxx_lib/inc/ssp_11xx.h **** 
  63:../../lpc11cx4-library/lpc_chip_11cxx_lib/inc/ssp_11xx.h **** /** SSP data size select, must be 4 bits to 16 bits */
  64:../../lpc11cx4-library/lpc_chip_11cxx_lib/inc/ssp_11xx.h **** #define SSP_CR0_DSS(n)          ((uint32_t) ((n) & 0xF))
  65:../../lpc11cx4-library/lpc_chip_11cxx_lib/inc/ssp_11xx.h **** /** SSP control 0 Motorola SPI mode */
  66:../../lpc11cx4-library/lpc_chip_11cxx_lib/inc/ssp_11xx.h **** #define SSP_CR0_FRF_SPI         ((uint32_t) (0 << 4))
  67:../../lpc11cx4-library/lpc_chip_11cxx_lib/inc/ssp_11xx.h **** /** SSP control 0 TI synchronous serial mode */
  68:../../lpc11cx4-library/lpc_chip_11cxx_lib/inc/ssp_11xx.h **** #define SSP_CR0_FRF_TI          ((uint32_t) (1 << 4))
  69:../../lpc11cx4-library/lpc_chip_11cxx_lib/inc/ssp_11xx.h **** /** SSP control 0 National Micro-wire mode */
  70:../../lpc11cx4-library/lpc_chip_11cxx_lib/inc/ssp_11xx.h **** #define SSP_CR0_FRF_MICROWIRE   ((uint32_t) (2 << 4))
  71:../../lpc11cx4-library/lpc_chip_11cxx_lib/inc/ssp_11xx.h **** /** SPI clock polarity bit (used in SPI mode only), (1) = maintains the
  72:../../lpc11cx4-library/lpc_chip_11cxx_lib/inc/ssp_11xx.h ****    bus clock high between frames, (0) = low */
  73:../../lpc11cx4-library/lpc_chip_11cxx_lib/inc/ssp_11xx.h **** #define SSP_CR0_CPOL_LO     ((uint32_t) (0))
  74:../../lpc11cx4-library/lpc_chip_11cxx_lib/inc/ssp_11xx.h **** #define SSP_CR0_CPOL_HI     ((uint32_t) (1 << 6))
  75:../../lpc11cx4-library/lpc_chip_11cxx_lib/inc/ssp_11xx.h **** /** SPI clock out phase bit (used in SPI mode only), (1) = captures data
  76:../../lpc11cx4-library/lpc_chip_11cxx_lib/inc/ssp_11xx.h ****    on the second clock transition of the frame, (0) = first */
  77:../../lpc11cx4-library/lpc_chip_11cxx_lib/inc/ssp_11xx.h **** #define SSP_CR0_CPHA_FIRST  ((uint32_t) (0))
  78:../../lpc11cx4-library/lpc_chip_11cxx_lib/inc/ssp_11xx.h **** #define SSP_CR0_CPHA_SECOND ((uint32_t) (1 << 7))
  79:../../lpc11cx4-library/lpc_chip_11cxx_lib/inc/ssp_11xx.h **** /** SSP serial clock rate value load macro, divider rate is
  80:../../lpc11cx4-library/lpc_chip_11cxx_lib/inc/ssp_11xx.h ****    PERIPH_CLK / (cpsr * (SCR + 1)) */
  81:../../lpc11cx4-library/lpc_chip_11cxx_lib/inc/ssp_11xx.h **** #define SSP_CR0_SCR(n)      ((uint32_t) ((n & 0xFF) << 8))
  82:../../lpc11cx4-library/lpc_chip_11cxx_lib/inc/ssp_11xx.h **** /** SSP CR0 bit mask */
  83:../../lpc11cx4-library/lpc_chip_11cxx_lib/inc/ssp_11xx.h **** #define SSP_CR0_BITMASK     ((uint32_t) (0xFFFF))
  84:../../lpc11cx4-library/lpc_chip_11cxx_lib/inc/ssp_11xx.h **** /** SSP CR0 bit mask */
  85:../../lpc11cx4-library/lpc_chip_11cxx_lib/inc/ssp_11xx.h **** #define SSP_CR0_BITMASK     ((uint32_t) (0xFFFF))
  86:../../lpc11cx4-library/lpc_chip_11cxx_lib/inc/ssp_11xx.h **** /** SSP serial clock rate value load macro, divider rate is
  87:../../lpc11cx4-library/lpc_chip_11cxx_lib/inc/ssp_11xx.h ****    PERIPH_CLK / (cpsr * (SCR + 1)) */
  88:../../lpc11cx4-library/lpc_chip_11cxx_lib/inc/ssp_11xx.h **** #define SSP_CR0_SCR(n)      ((uint32_t) ((n & 0xFF) << 8))
  89:../../lpc11cx4-library/lpc_chip_11cxx_lib/inc/ssp_11xx.h **** 
  90:../../lpc11cx4-library/lpc_chip_11cxx_lib/inc/ssp_11xx.h **** /**
  91:../../lpc11cx4-library/lpc_chip_11cxx_lib/inc/ssp_11xx.h ****  * Macro defines for CR1 register
  92:../../lpc11cx4-library/lpc_chip_11cxx_lib/inc/ssp_11xx.h ****  */
  93:../../lpc11cx4-library/lpc_chip_11cxx_lib/inc/ssp_11xx.h **** 
  94:../../lpc11cx4-library/lpc_chip_11cxx_lib/inc/ssp_11xx.h **** /** SSP control 1 loopback mode enable bit */
  95:../../lpc11cx4-library/lpc_chip_11cxx_lib/inc/ssp_11xx.h **** #define SSP_CR1_LBM_EN      ((uint32_t) (1 << 0))
  96:../../lpc11cx4-library/lpc_chip_11cxx_lib/inc/ssp_11xx.h **** /** SSP control 1 enable bit */
  97:../../lpc11cx4-library/lpc_chip_11cxx_lib/inc/ssp_11xx.h **** #define SSP_CR1_SSP_EN      ((uint32_t) (1 << 1))
  98:../../lpc11cx4-library/lpc_chip_11cxx_lib/inc/ssp_11xx.h **** /** SSP control 1 slave enable */
  99:../../lpc11cx4-library/lpc_chip_11cxx_lib/inc/ssp_11xx.h **** #define SSP_CR1_SLAVE_EN    ((uint32_t) (1 << 2))
 100:../../lpc11cx4-library/lpc_chip_11cxx_lib/inc/ssp_11xx.h **** #define SSP_CR1_MASTER_EN   ((uint32_t) (0))
 101:../../lpc11cx4-library/lpc_chip_11cxx_lib/inc/ssp_11xx.h **** /** SSP control 1 slave out disable bit, disables transmit line in slave
 102:../../lpc11cx4-library/lpc_chip_11cxx_lib/inc/ssp_11xx.h ****    mode */
 103:../../lpc11cx4-library/lpc_chip_11cxx_lib/inc/ssp_11xx.h **** #define SSP_CR1_SO_DISABLE  ((uint32_t) (1 << 3))
 104:../../lpc11cx4-library/lpc_chip_11cxx_lib/inc/ssp_11xx.h **** /** SSP CR1 bit mask */
 105:../../lpc11cx4-library/lpc_chip_11cxx_lib/inc/ssp_11xx.h **** #define SSP_CR1_BITMASK     ((uint32_t) (0x0F))
 106:../../lpc11cx4-library/lpc_chip_11cxx_lib/inc/ssp_11xx.h **** 
 107:../../lpc11cx4-library/lpc_chip_11cxx_lib/inc/ssp_11xx.h **** /** SSP CPSR bit mask */
 108:../../lpc11cx4-library/lpc_chip_11cxx_lib/inc/ssp_11xx.h **** #define SSP_CPSR_BITMASK    ((uint32_t) (0xFF))
 109:../../lpc11cx4-library/lpc_chip_11cxx_lib/inc/ssp_11xx.h **** /**
 110:../../lpc11cx4-library/lpc_chip_11cxx_lib/inc/ssp_11xx.h ****  * Macro defines for DR register
 111:../../lpc11cx4-library/lpc_chip_11cxx_lib/inc/ssp_11xx.h ****  */
 112:../../lpc11cx4-library/lpc_chip_11cxx_lib/inc/ssp_11xx.h **** 
 113:../../lpc11cx4-library/lpc_chip_11cxx_lib/inc/ssp_11xx.h **** /** SSP data bit mask */
 114:../../lpc11cx4-library/lpc_chip_11cxx_lib/inc/ssp_11xx.h **** #define SSP_DR_BITMASK(n)   ((n) & 0xFFFF)
ARM GAS  /tmp/ccjsfSlY.s 			page 6


 115:../../lpc11cx4-library/lpc_chip_11cxx_lib/inc/ssp_11xx.h **** 
 116:../../lpc11cx4-library/lpc_chip_11cxx_lib/inc/ssp_11xx.h **** /**
 117:../../lpc11cx4-library/lpc_chip_11cxx_lib/inc/ssp_11xx.h ****  * Macro defines for SR register
 118:../../lpc11cx4-library/lpc_chip_11cxx_lib/inc/ssp_11xx.h ****  */
 119:../../lpc11cx4-library/lpc_chip_11cxx_lib/inc/ssp_11xx.h **** 
 120:../../lpc11cx4-library/lpc_chip_11cxx_lib/inc/ssp_11xx.h **** /** SSP SR bit mask */
 121:../../lpc11cx4-library/lpc_chip_11cxx_lib/inc/ssp_11xx.h **** #define SSP_SR_BITMASK  ((uint32_t) (0x1F))
 122:../../lpc11cx4-library/lpc_chip_11cxx_lib/inc/ssp_11xx.h **** 
 123:../../lpc11cx4-library/lpc_chip_11cxx_lib/inc/ssp_11xx.h **** /** ICR bit mask */
 124:../../lpc11cx4-library/lpc_chip_11cxx_lib/inc/ssp_11xx.h **** #define SSP_ICR_BITMASK ((uint32_t) (0x03))
 125:../../lpc11cx4-library/lpc_chip_11cxx_lib/inc/ssp_11xx.h **** 
 126:../../lpc11cx4-library/lpc_chip_11cxx_lib/inc/ssp_11xx.h **** /**
 127:../../lpc11cx4-library/lpc_chip_11cxx_lib/inc/ssp_11xx.h ****  * @brief SSP Type of Status
 128:../../lpc11cx4-library/lpc_chip_11cxx_lib/inc/ssp_11xx.h ****  */
 129:../../lpc11cx4-library/lpc_chip_11cxx_lib/inc/ssp_11xx.h **** typedef enum _SSP_STATUS {
 130:../../lpc11cx4-library/lpc_chip_11cxx_lib/inc/ssp_11xx.h **** 	SSP_STAT_TFE = ((uint32_t)(1 << 0)),/**< TX FIFO Empty */
 131:../../lpc11cx4-library/lpc_chip_11cxx_lib/inc/ssp_11xx.h **** 	SSP_STAT_TNF = ((uint32_t)(1 << 1)),/**< TX FIFO not full */
 132:../../lpc11cx4-library/lpc_chip_11cxx_lib/inc/ssp_11xx.h **** 	SSP_STAT_RNE = ((uint32_t)(1 << 2)),/**< RX FIFO not empty */
 133:../../lpc11cx4-library/lpc_chip_11cxx_lib/inc/ssp_11xx.h **** 	SSP_STAT_RFF = ((uint32_t)(1 << 3)),/**< RX FIFO full */
 134:../../lpc11cx4-library/lpc_chip_11cxx_lib/inc/ssp_11xx.h **** 	SSP_STAT_BSY = ((uint32_t)(1 << 4)),/**< SSP Busy */
 135:../../lpc11cx4-library/lpc_chip_11cxx_lib/inc/ssp_11xx.h **** } SSP_STATUS_T;
 136:../../lpc11cx4-library/lpc_chip_11cxx_lib/inc/ssp_11xx.h **** 
 137:../../lpc11cx4-library/lpc_chip_11cxx_lib/inc/ssp_11xx.h **** /**
 138:../../lpc11cx4-library/lpc_chip_11cxx_lib/inc/ssp_11xx.h ****  * @brief SSP Type of Interrupt Mask
 139:../../lpc11cx4-library/lpc_chip_11cxx_lib/inc/ssp_11xx.h ****  */
 140:../../lpc11cx4-library/lpc_chip_11cxx_lib/inc/ssp_11xx.h **** typedef enum _SSP_INTMASK {
 141:../../lpc11cx4-library/lpc_chip_11cxx_lib/inc/ssp_11xx.h **** 	SSP_RORIM = ((uint32_t)(1 << 0)),	/**< Overun */
 142:../../lpc11cx4-library/lpc_chip_11cxx_lib/inc/ssp_11xx.h **** 	SSP_RTIM = ((uint32_t)(1 << 1)),/**< TimeOut */
 143:../../lpc11cx4-library/lpc_chip_11cxx_lib/inc/ssp_11xx.h **** 	SSP_RXIM = ((uint32_t)(1 << 2)),/**< Rx FIFO is at least half full */
 144:../../lpc11cx4-library/lpc_chip_11cxx_lib/inc/ssp_11xx.h **** 	SSP_TXIM = ((uint32_t)(1 << 3)),/**< Tx FIFO is at least half empty */
 145:../../lpc11cx4-library/lpc_chip_11cxx_lib/inc/ssp_11xx.h **** 	SSP_INT_MASK_BITMASK = ((uint32_t)(0xF)),
 146:../../lpc11cx4-library/lpc_chip_11cxx_lib/inc/ssp_11xx.h **** } SSP_INTMASK_T;
 147:../../lpc11cx4-library/lpc_chip_11cxx_lib/inc/ssp_11xx.h **** 
 148:../../lpc11cx4-library/lpc_chip_11cxx_lib/inc/ssp_11xx.h **** /**
 149:../../lpc11cx4-library/lpc_chip_11cxx_lib/inc/ssp_11xx.h ****  * @brief SSP Type of Mask Interrupt Status
 150:../../lpc11cx4-library/lpc_chip_11cxx_lib/inc/ssp_11xx.h ****  */
 151:../../lpc11cx4-library/lpc_chip_11cxx_lib/inc/ssp_11xx.h **** typedef enum _SSP_MASKINTSTATUS {
 152:../../lpc11cx4-library/lpc_chip_11cxx_lib/inc/ssp_11xx.h **** 	SSP_RORMIS = ((uint32_t)(1 << 0)),	/**< Overun */
 153:../../lpc11cx4-library/lpc_chip_11cxx_lib/inc/ssp_11xx.h **** 	SSP_RTMIS = ((uint32_t)(1 << 1)),	/**< TimeOut */
 154:../../lpc11cx4-library/lpc_chip_11cxx_lib/inc/ssp_11xx.h **** 	SSP_RXMIS = ((uint32_t)(1 << 2)),	/**< Rx FIFO is at least half full */
 155:../../lpc11cx4-library/lpc_chip_11cxx_lib/inc/ssp_11xx.h **** 	SSP_TXMIS = ((uint32_t)(1 << 3)),	/**< Tx FIFO is at least half empty */
 156:../../lpc11cx4-library/lpc_chip_11cxx_lib/inc/ssp_11xx.h **** 	SSP_MASK_INT_STAT_BITMASK = ((uint32_t)(0xF)),
 157:../../lpc11cx4-library/lpc_chip_11cxx_lib/inc/ssp_11xx.h **** } SSP_MASKINTSTATUS_T;
 158:../../lpc11cx4-library/lpc_chip_11cxx_lib/inc/ssp_11xx.h **** 
 159:../../lpc11cx4-library/lpc_chip_11cxx_lib/inc/ssp_11xx.h **** /**
 160:../../lpc11cx4-library/lpc_chip_11cxx_lib/inc/ssp_11xx.h ****  * @brief SSP Type of Raw Interrupt Status
 161:../../lpc11cx4-library/lpc_chip_11cxx_lib/inc/ssp_11xx.h ****  */
 162:../../lpc11cx4-library/lpc_chip_11cxx_lib/inc/ssp_11xx.h **** typedef enum _SSP_RAWINTSTATUS {
 163:../../lpc11cx4-library/lpc_chip_11cxx_lib/inc/ssp_11xx.h **** 	SSP_RORRIS = ((uint32_t)(1 << 0)),	/**< Overun */
 164:../../lpc11cx4-library/lpc_chip_11cxx_lib/inc/ssp_11xx.h **** 	SSP_RTRIS = ((uint32_t)(1 << 1)),	/**< TimeOut */
 165:../../lpc11cx4-library/lpc_chip_11cxx_lib/inc/ssp_11xx.h **** 	SSP_RXRIS = ((uint32_t)(1 << 2)),	/**< Rx FIFO is at least half full */
 166:../../lpc11cx4-library/lpc_chip_11cxx_lib/inc/ssp_11xx.h **** 	SSP_TXRIS = ((uint32_t)(1 << 3)),	/**< Tx FIFO is at least half empty */
 167:../../lpc11cx4-library/lpc_chip_11cxx_lib/inc/ssp_11xx.h **** 	SSP_RAW_INT_STAT_BITMASK = ((uint32_t)(0xF)),
 168:../../lpc11cx4-library/lpc_chip_11cxx_lib/inc/ssp_11xx.h **** } SSP_RAWINTSTATUS_T;
 169:../../lpc11cx4-library/lpc_chip_11cxx_lib/inc/ssp_11xx.h **** 
 170:../../lpc11cx4-library/lpc_chip_11cxx_lib/inc/ssp_11xx.h **** typedef enum _SSP_INTCLEAR {
 171:../../lpc11cx4-library/lpc_chip_11cxx_lib/inc/ssp_11xx.h **** 	SSP_RORIC = 0x0,
ARM GAS  /tmp/ccjsfSlY.s 			page 7


 172:../../lpc11cx4-library/lpc_chip_11cxx_lib/inc/ssp_11xx.h **** 	SSP_RTIC = 0x1,
 173:../../lpc11cx4-library/lpc_chip_11cxx_lib/inc/ssp_11xx.h **** 	SSP_INT_CLEAR_BITMASK = 0x3,
 174:../../lpc11cx4-library/lpc_chip_11cxx_lib/inc/ssp_11xx.h **** } SSP_INTCLEAR_T;
 175:../../lpc11cx4-library/lpc_chip_11cxx_lib/inc/ssp_11xx.h **** 
 176:../../lpc11cx4-library/lpc_chip_11cxx_lib/inc/ssp_11xx.h **** /*
 177:../../lpc11cx4-library/lpc_chip_11cxx_lib/inc/ssp_11xx.h ****  * @brief SSP clock format
 178:../../lpc11cx4-library/lpc_chip_11cxx_lib/inc/ssp_11xx.h ****  */
 179:../../lpc11cx4-library/lpc_chip_11cxx_lib/inc/ssp_11xx.h **** typedef enum CHIP_SSP_CLOCK_FORMAT {
 180:../../lpc11cx4-library/lpc_chip_11cxx_lib/inc/ssp_11xx.h **** 	SSP_CLOCK_CPHA0_CPOL0 = (0 << 6),		/**< CPHA = 0, CPOL = 0 */
 181:../../lpc11cx4-library/lpc_chip_11cxx_lib/inc/ssp_11xx.h **** 	SSP_CLOCK_CPHA0_CPOL1 = (1u << 6),		/**< CPHA = 0, CPOL = 1 */
 182:../../lpc11cx4-library/lpc_chip_11cxx_lib/inc/ssp_11xx.h **** 	SSP_CLOCK_CPHA1_CPOL0 = (2u << 6),		/**< CPHA = 1, CPOL = 0 */
 183:../../lpc11cx4-library/lpc_chip_11cxx_lib/inc/ssp_11xx.h **** 	SSP_CLOCK_CPHA1_CPOL1 = (3u << 6),		/**< CPHA = 1, CPOL = 1 */
 184:../../lpc11cx4-library/lpc_chip_11cxx_lib/inc/ssp_11xx.h **** 	SSP_CLOCK_MODE0 = SSP_CLOCK_CPHA0_CPOL0,/**< alias */
 185:../../lpc11cx4-library/lpc_chip_11cxx_lib/inc/ssp_11xx.h **** 	SSP_CLOCK_MODE1 = SSP_CLOCK_CPHA1_CPOL0,/**< alias */
 186:../../lpc11cx4-library/lpc_chip_11cxx_lib/inc/ssp_11xx.h **** 	SSP_CLOCK_MODE2 = SSP_CLOCK_CPHA0_CPOL1,/**< alias */
 187:../../lpc11cx4-library/lpc_chip_11cxx_lib/inc/ssp_11xx.h **** 	SSP_CLOCK_MODE3 = SSP_CLOCK_CPHA1_CPOL1,/**< alias */
 188:../../lpc11cx4-library/lpc_chip_11cxx_lib/inc/ssp_11xx.h **** } CHIP_SSP_CLOCK_MODE_T;
 189:../../lpc11cx4-library/lpc_chip_11cxx_lib/inc/ssp_11xx.h **** 
 190:../../lpc11cx4-library/lpc_chip_11cxx_lib/inc/ssp_11xx.h **** /*
 191:../../lpc11cx4-library/lpc_chip_11cxx_lib/inc/ssp_11xx.h ****  * @brief SSP frame format
 192:../../lpc11cx4-library/lpc_chip_11cxx_lib/inc/ssp_11xx.h ****  */
 193:../../lpc11cx4-library/lpc_chip_11cxx_lib/inc/ssp_11xx.h **** typedef enum CHIP_SSP_FRAME_FORMAT {
 194:../../lpc11cx4-library/lpc_chip_11cxx_lib/inc/ssp_11xx.h **** 	SSP_FRAMEFORMAT_SPI = (0 << 4),			/**< Frame format: SPI */
 195:../../lpc11cx4-library/lpc_chip_11cxx_lib/inc/ssp_11xx.h **** 	CHIP_SSP_FRAME_FORMAT_TI = (1u << 4),			/**< Frame format: TI SSI */
 196:../../lpc11cx4-library/lpc_chip_11cxx_lib/inc/ssp_11xx.h **** 	SSP_FRAMEFORMAT_MICROWIRE = (2u << 4),	/**< Frame format: Microwire */
 197:../../lpc11cx4-library/lpc_chip_11cxx_lib/inc/ssp_11xx.h **** } CHIP_SSP_FRAME_FORMAT_T;
 198:../../lpc11cx4-library/lpc_chip_11cxx_lib/inc/ssp_11xx.h **** 
 199:../../lpc11cx4-library/lpc_chip_11cxx_lib/inc/ssp_11xx.h **** /*
 200:../../lpc11cx4-library/lpc_chip_11cxx_lib/inc/ssp_11xx.h ****  * @brief Number of bits per frame
 201:../../lpc11cx4-library/lpc_chip_11cxx_lib/inc/ssp_11xx.h ****  */
 202:../../lpc11cx4-library/lpc_chip_11cxx_lib/inc/ssp_11xx.h **** typedef enum CHIP_SSP_BITS {
 203:../../lpc11cx4-library/lpc_chip_11cxx_lib/inc/ssp_11xx.h **** 	SSP_BITS_4 = (3u << 0),		/*!< 4 bits/frame */
 204:../../lpc11cx4-library/lpc_chip_11cxx_lib/inc/ssp_11xx.h **** 	SSP_BITS_5 = (4u << 0),		/*!< 5 bits/frame */
 205:../../lpc11cx4-library/lpc_chip_11cxx_lib/inc/ssp_11xx.h **** 	SSP_BITS_6 = (5u << 0),		/*!< 6 bits/frame */
 206:../../lpc11cx4-library/lpc_chip_11cxx_lib/inc/ssp_11xx.h **** 	SSP_BITS_7 = (6u << 0),		/*!< 7 bits/frame */
 207:../../lpc11cx4-library/lpc_chip_11cxx_lib/inc/ssp_11xx.h **** 	SSP_BITS_8 = (7u << 0),		/*!< 8 bits/frame */
 208:../../lpc11cx4-library/lpc_chip_11cxx_lib/inc/ssp_11xx.h **** 	SSP_BITS_9 = (8u << 0),		/*!< 9 bits/frame */
 209:../../lpc11cx4-library/lpc_chip_11cxx_lib/inc/ssp_11xx.h **** 	SSP_BITS_10 = (9u << 0),	/*!< 10 bits/frame */
 210:../../lpc11cx4-library/lpc_chip_11cxx_lib/inc/ssp_11xx.h **** 	SSP_BITS_11 = (10u << 0),	/*!< 11 bits/frame */
 211:../../lpc11cx4-library/lpc_chip_11cxx_lib/inc/ssp_11xx.h **** 	SSP_BITS_12 = (11u << 0),	/*!< 12 bits/frame */
 212:../../lpc11cx4-library/lpc_chip_11cxx_lib/inc/ssp_11xx.h **** 	SSP_BITS_13 = (12u << 0),	/*!< 13 bits/frame */
 213:../../lpc11cx4-library/lpc_chip_11cxx_lib/inc/ssp_11xx.h **** 	SSP_BITS_14 = (13u << 0),	/*!< 14 bits/frame */
 214:../../lpc11cx4-library/lpc_chip_11cxx_lib/inc/ssp_11xx.h **** 	SSP_BITS_15 = (14u << 0),	/*!< 15 bits/frame */
 215:../../lpc11cx4-library/lpc_chip_11cxx_lib/inc/ssp_11xx.h **** 	SSP_BITS_16 = (15u << 0),	/*!< 16 bits/frame */
 216:../../lpc11cx4-library/lpc_chip_11cxx_lib/inc/ssp_11xx.h **** } CHIP_SSP_BITS_T;
 217:../../lpc11cx4-library/lpc_chip_11cxx_lib/inc/ssp_11xx.h **** 
 218:../../lpc11cx4-library/lpc_chip_11cxx_lib/inc/ssp_11xx.h **** /*
 219:../../lpc11cx4-library/lpc_chip_11cxx_lib/inc/ssp_11xx.h ****  * @brief SSP config format
 220:../../lpc11cx4-library/lpc_chip_11cxx_lib/inc/ssp_11xx.h ****  */
 221:../../lpc11cx4-library/lpc_chip_11cxx_lib/inc/ssp_11xx.h **** typedef struct SSP_ConfigFormat {
 222:../../lpc11cx4-library/lpc_chip_11cxx_lib/inc/ssp_11xx.h **** 	CHIP_SSP_BITS_T bits;					/*!< Format config: bits/frame */
 223:../../lpc11cx4-library/lpc_chip_11cxx_lib/inc/ssp_11xx.h **** 	CHIP_SSP_CLOCK_MODE_T clockMode;	/*!< Format config: clock phase/polarity */
 224:../../lpc11cx4-library/lpc_chip_11cxx_lib/inc/ssp_11xx.h **** 	CHIP_SSP_FRAME_FORMAT_T frameFormat;	/*!< Format config: SPI/TI/Microwire */
 225:../../lpc11cx4-library/lpc_chip_11cxx_lib/inc/ssp_11xx.h **** } SSP_ConfigFormat;
 226:../../lpc11cx4-library/lpc_chip_11cxx_lib/inc/ssp_11xx.h **** 
 227:../../lpc11cx4-library/lpc_chip_11cxx_lib/inc/ssp_11xx.h **** /**
 228:../../lpc11cx4-library/lpc_chip_11cxx_lib/inc/ssp_11xx.h ****  * @brief	Enable SSP operation
ARM GAS  /tmp/ccjsfSlY.s 			page 8


 229:../../lpc11cx4-library/lpc_chip_11cxx_lib/inc/ssp_11xx.h ****  * @param	pSSP		: The base of SSP peripheral on the chip
 230:../../lpc11cx4-library/lpc_chip_11cxx_lib/inc/ssp_11xx.h ****  * @return	 Nothing
 231:../../lpc11cx4-library/lpc_chip_11cxx_lib/inc/ssp_11xx.h ****  */
 232:../../lpc11cx4-library/lpc_chip_11cxx_lib/inc/ssp_11xx.h **** STATIC INLINE void Chip_SSP_Enable(LPC_SSP_T *pSSP)
 233:../../lpc11cx4-library/lpc_chip_11cxx_lib/inc/ssp_11xx.h **** {
 234:../../lpc11cx4-library/lpc_chip_11cxx_lib/inc/ssp_11xx.h **** 	pSSP->CR1 |= SSP_CR1_SSP_EN;
 235:../../lpc11cx4-library/lpc_chip_11cxx_lib/inc/ssp_11xx.h **** }
 236:../../lpc11cx4-library/lpc_chip_11cxx_lib/inc/ssp_11xx.h **** 
 237:../../lpc11cx4-library/lpc_chip_11cxx_lib/inc/ssp_11xx.h **** /**
 238:../../lpc11cx4-library/lpc_chip_11cxx_lib/inc/ssp_11xx.h ****  * @brief	Disable SSP operation
 239:../../lpc11cx4-library/lpc_chip_11cxx_lib/inc/ssp_11xx.h ****  * @param	pSSP		: The base of SSP peripheral on the chip
 240:../../lpc11cx4-library/lpc_chip_11cxx_lib/inc/ssp_11xx.h ****  * @return	 Nothing
 241:../../lpc11cx4-library/lpc_chip_11cxx_lib/inc/ssp_11xx.h ****  */
 242:../../lpc11cx4-library/lpc_chip_11cxx_lib/inc/ssp_11xx.h **** STATIC INLINE void Chip_SSP_Disable(LPC_SSP_T *pSSP)
 243:../../lpc11cx4-library/lpc_chip_11cxx_lib/inc/ssp_11xx.h **** {
 244:../../lpc11cx4-library/lpc_chip_11cxx_lib/inc/ssp_11xx.h **** 	pSSP->CR1 &= (~SSP_CR1_SSP_EN) & SSP_CR1_BITMASK;
 245:../../lpc11cx4-library/lpc_chip_11cxx_lib/inc/ssp_11xx.h **** }
 246:../../lpc11cx4-library/lpc_chip_11cxx_lib/inc/ssp_11xx.h **** 
 247:../../lpc11cx4-library/lpc_chip_11cxx_lib/inc/ssp_11xx.h **** /**
 248:../../lpc11cx4-library/lpc_chip_11cxx_lib/inc/ssp_11xx.h ****  * @brief	Enable loopback mode
 249:../../lpc11cx4-library/lpc_chip_11cxx_lib/inc/ssp_11xx.h ****  * @param	pSSP		: The base of SSP peripheral on the chip
 250:../../lpc11cx4-library/lpc_chip_11cxx_lib/inc/ssp_11xx.h ****  * @return	 Nothing
 251:../../lpc11cx4-library/lpc_chip_11cxx_lib/inc/ssp_11xx.h ****  * @note	Serial input is taken from the serial output (MOSI or MISO) rather
 252:../../lpc11cx4-library/lpc_chip_11cxx_lib/inc/ssp_11xx.h ****  * than the serial input pin
 253:../../lpc11cx4-library/lpc_chip_11cxx_lib/inc/ssp_11xx.h ****  */
 254:../../lpc11cx4-library/lpc_chip_11cxx_lib/inc/ssp_11xx.h **** STATIC INLINE void Chip_SSP_EnableLoopBack(LPC_SSP_T *pSSP)
 255:../../lpc11cx4-library/lpc_chip_11cxx_lib/inc/ssp_11xx.h **** {
 256:../../lpc11cx4-library/lpc_chip_11cxx_lib/inc/ssp_11xx.h **** 	pSSP->CR1 |= SSP_CR1_LBM_EN;
 257:../../lpc11cx4-library/lpc_chip_11cxx_lib/inc/ssp_11xx.h **** }
 258:../../lpc11cx4-library/lpc_chip_11cxx_lib/inc/ssp_11xx.h **** 
 259:../../lpc11cx4-library/lpc_chip_11cxx_lib/inc/ssp_11xx.h **** /**
 260:../../lpc11cx4-library/lpc_chip_11cxx_lib/inc/ssp_11xx.h ****  * @brief	Disable loopback mode
 261:../../lpc11cx4-library/lpc_chip_11cxx_lib/inc/ssp_11xx.h ****  * @param	pSSP		: The base of SSP peripheral on the chip
 262:../../lpc11cx4-library/lpc_chip_11cxx_lib/inc/ssp_11xx.h ****  * @return	 Nothing
 263:../../lpc11cx4-library/lpc_chip_11cxx_lib/inc/ssp_11xx.h ****  * @note	Serial input is taken from the serial output (MOSI or MISO) rather
 264:../../lpc11cx4-library/lpc_chip_11cxx_lib/inc/ssp_11xx.h ****  * than the serial input pin
 265:../../lpc11cx4-library/lpc_chip_11cxx_lib/inc/ssp_11xx.h ****  */
 266:../../lpc11cx4-library/lpc_chip_11cxx_lib/inc/ssp_11xx.h **** STATIC INLINE void Chip_SSP_DisableLoopBack(LPC_SSP_T *pSSP)
 267:../../lpc11cx4-library/lpc_chip_11cxx_lib/inc/ssp_11xx.h **** {
 268:../../lpc11cx4-library/lpc_chip_11cxx_lib/inc/ssp_11xx.h **** 	pSSP->CR1 &= (~SSP_CR1_LBM_EN) & SSP_CR1_BITMASK;
 269:../../lpc11cx4-library/lpc_chip_11cxx_lib/inc/ssp_11xx.h **** }
 270:../../lpc11cx4-library/lpc_chip_11cxx_lib/inc/ssp_11xx.h **** 
 271:../../lpc11cx4-library/lpc_chip_11cxx_lib/inc/ssp_11xx.h **** /**
 272:../../lpc11cx4-library/lpc_chip_11cxx_lib/inc/ssp_11xx.h ****  * @brief	Get the current status of SSP controller
 273:../../lpc11cx4-library/lpc_chip_11cxx_lib/inc/ssp_11xx.h ****  * @param	pSSP	: The base of SSP peripheral on the chip
 274:../../lpc11cx4-library/lpc_chip_11cxx_lib/inc/ssp_11xx.h ****  * @param	Stat	: Type of status, should be :
 275:../../lpc11cx4-library/lpc_chip_11cxx_lib/inc/ssp_11xx.h ****  *						- SSP_STAT_TFE
 276:../../lpc11cx4-library/lpc_chip_11cxx_lib/inc/ssp_11xx.h ****  *						- SSP_STAT_TNF
 277:../../lpc11cx4-library/lpc_chip_11cxx_lib/inc/ssp_11xx.h ****  *						- SSP_STAT_RNE
 278:../../lpc11cx4-library/lpc_chip_11cxx_lib/inc/ssp_11xx.h ****  *						- SSP_STAT_RFF
 279:../../lpc11cx4-library/lpc_chip_11cxx_lib/inc/ssp_11xx.h ****  *						- SSP_STAT_BSY
 280:../../lpc11cx4-library/lpc_chip_11cxx_lib/inc/ssp_11xx.h ****  * @return	 SSP controller status, SET or RESET
 281:../../lpc11cx4-library/lpc_chip_11cxx_lib/inc/ssp_11xx.h ****  */
 282:../../lpc11cx4-library/lpc_chip_11cxx_lib/inc/ssp_11xx.h **** STATIC INLINE FlagStatus Chip_SSP_GetStatus(LPC_SSP_T *pSSP, SSP_STATUS_T Stat)
 283:../../lpc11cx4-library/lpc_chip_11cxx_lib/inc/ssp_11xx.h **** {
 284:../../lpc11cx4-library/lpc_chip_11cxx_lib/inc/ssp_11xx.h **** 	return (pSSP->SR & Stat) ? SET : RESET;
  82              		.loc 2 284 0
ARM GAS  /tmp/ccjsfSlY.s 			page 9


  83 0000 C368     		ldr	r3, [r0, #12]	@ D.6840, pSSP_4(D)->SR
  84              	.LBE225:
  85              	.LBE224:
  86              		.loc 1 90 0
  87 0002 30B5     		push	{r4, r5, lr}	@
  88              		.cfi_def_cfa_offset 12
  89              		.cfi_offset 4, -12
  90              		.cfi_offset 5, -8
  91              		.cfi_offset 14, -4
  91:../../lpc11cx4-library/lpc_chip_11cxx_lib/src/ssp_11xx.c **** 	uint16_t rDat;
  92:../../lpc11cx4-library/lpc_chip_11cxx_lib/src/ssp_11xx.c **** 
  93:../../lpc11cx4-library/lpc_chip_11cxx_lib/src/ssp_11xx.c **** 	while ((Chip_SSP_GetStatus(pSSP, SSP_STAT_RNE) == SET) &&
  92              		.loc 1 93 0
  93 0004 5B07     		lsl	r3, r3, #29	@ tmp136, D.6840,
  94 0006 13D5     		bpl	.L1	@,
  94:../../lpc11cx4-library/lpc_chip_11cxx_lib/src/ssp_11xx.c **** 		   (xf_setup->rx_cnt < xf_setup->length)) {
  95              		.loc 1 94 0
  96 0008 CB68     		ldr	r3, [r1, #12]	@ xf_setup_5(D)->rx_cnt, xf_setup_5(D)->rx_cnt
  93:../../lpc11cx4-library/lpc_chip_11cxx_lib/src/ssp_11xx.c **** 		   (xf_setup->rx_cnt < xf_setup->length)) {
  97              		.loc 1 93 0
  98 000a 0A69     		ldr	r2, [r1, #16]	@ tmp137, xf_setup_5(D)->length
  99 000c 9342     		cmp	r3, r2	@ xf_setup_5(D)->rx_cnt, tmp137
 100 000e 0FD2     		bcs	.L1	@,
 101              	.LBB228:
 102              	.LBB226:
 103              		.loc 2 284 0
 104 0010 0425     		mov	r5, #4	@ tmp135,
 105 0012 02E0     		b	.L5	@
 106              	.LVL1:
 107              	.L14:
 108              	.LBE226:
 109              	.LBE228:
  93:../../lpc11cx4-library/lpc_chip_11cxx_lib/src/ssp_11xx.c **** 		   (xf_setup->rx_cnt < xf_setup->length)) {
 110              		.loc 1 93 0 discriminator 1
 111 0014 0A69     		ldr	r2, [r1, #16]	@ tmp139, xf_setup_5(D)->length
 112 0016 9A42     		cmp	r2, r3	@ tmp139, xf_setup_5(D)->rx_cnt
 113 0018 0AD9     		bls	.L1	@,
 114              	.LVL2:
 115              	.L5:
  95:../../lpc11cx4-library/lpc_chip_11cxx_lib/src/ssp_11xx.c **** 		rDat = Chip_SSP_ReceiveFrame(pSSP);
  96:../../lpc11cx4-library/lpc_chip_11cxx_lib/src/ssp_11xx.c **** 		if (xf_setup->rx_data) {
 116              		.loc 1 96 0
 117 001a 8A68     		ldr	r2, [r1, #8]	@ D.6841, xf_setup_5(D)->rx_data
 118              	.LBB229:
 119              	.LBB230:
 285:../../lpc11cx4-library/lpc_chip_11cxx_lib/inc/ssp_11xx.h **** }
 286:../../lpc11cx4-library/lpc_chip_11cxx_lib/inc/ssp_11xx.h **** 
 287:../../lpc11cx4-library/lpc_chip_11cxx_lib/inc/ssp_11xx.h **** /**
 288:../../lpc11cx4-library/lpc_chip_11cxx_lib/inc/ssp_11xx.h ****  * @brief	Get the masked interrupt status
 289:../../lpc11cx4-library/lpc_chip_11cxx_lib/inc/ssp_11xx.h ****  * @param	pSSP	: The base of SSP peripheral on the chip
 290:../../lpc11cx4-library/lpc_chip_11cxx_lib/inc/ssp_11xx.h ****  * @return	 SSP Masked Interrupt Status Register value
 291:../../lpc11cx4-library/lpc_chip_11cxx_lib/inc/ssp_11xx.h ****  * @note	The return value contains a 1 for each interrupt condition that is asserted and enabled (m
 292:../../lpc11cx4-library/lpc_chip_11cxx_lib/inc/ssp_11xx.h ****  */
 293:../../lpc11cx4-library/lpc_chip_11cxx_lib/inc/ssp_11xx.h **** STATIC INLINE uint32_t Chip_SSP_GetIntStatus(LPC_SSP_T *pSSP)
 294:../../lpc11cx4-library/lpc_chip_11cxx_lib/inc/ssp_11xx.h **** {
 295:../../lpc11cx4-library/lpc_chip_11cxx_lib/inc/ssp_11xx.h **** 	return pSSP->MIS;
 296:../../lpc11cx4-library/lpc_chip_11cxx_lib/inc/ssp_11xx.h **** }
ARM GAS  /tmp/ccjsfSlY.s 			page 10


 297:../../lpc11cx4-library/lpc_chip_11cxx_lib/inc/ssp_11xx.h **** 
 298:../../lpc11cx4-library/lpc_chip_11cxx_lib/inc/ssp_11xx.h **** /**
 299:../../lpc11cx4-library/lpc_chip_11cxx_lib/inc/ssp_11xx.h ****  * @brief	Get the raw interrupt status
 300:../../lpc11cx4-library/lpc_chip_11cxx_lib/inc/ssp_11xx.h ****  * @param	pSSP	: The base of SSP peripheral on the chip
 301:../../lpc11cx4-library/lpc_chip_11cxx_lib/inc/ssp_11xx.h ****  * @param	RawInt	: Interrupt condition to be get status, shoud be :
 302:../../lpc11cx4-library/lpc_chip_11cxx_lib/inc/ssp_11xx.h ****  *						- SSP_RORRIS
 303:../../lpc11cx4-library/lpc_chip_11cxx_lib/inc/ssp_11xx.h ****  *						- SSP_RTRIS
 304:../../lpc11cx4-library/lpc_chip_11cxx_lib/inc/ssp_11xx.h ****  *						- SSP_RXRIS
 305:../../lpc11cx4-library/lpc_chip_11cxx_lib/inc/ssp_11xx.h ****  *						- SSP_TXRIS
 306:../../lpc11cx4-library/lpc_chip_11cxx_lib/inc/ssp_11xx.h ****  * @return	 Raw interrupt status corresponding to interrupt condition , SET or RESET
 307:../../lpc11cx4-library/lpc_chip_11cxx_lib/inc/ssp_11xx.h ****  * @note	Get the status of each interrupt condition ,regardless of whether or not the interrupt is 
 308:../../lpc11cx4-library/lpc_chip_11cxx_lib/inc/ssp_11xx.h ****  */
 309:../../lpc11cx4-library/lpc_chip_11cxx_lib/inc/ssp_11xx.h **** STATIC INLINE IntStatus Chip_SSP_GetRawIntStatus(LPC_SSP_T *pSSP, SSP_RAWINTSTATUS_T RawInt)
 310:../../lpc11cx4-library/lpc_chip_11cxx_lib/inc/ssp_11xx.h **** {
 311:../../lpc11cx4-library/lpc_chip_11cxx_lib/inc/ssp_11xx.h **** 	return (pSSP->RIS & RawInt) ? SET : RESET;
 312:../../lpc11cx4-library/lpc_chip_11cxx_lib/inc/ssp_11xx.h **** }
 313:../../lpc11cx4-library/lpc_chip_11cxx_lib/inc/ssp_11xx.h **** 
 314:../../lpc11cx4-library/lpc_chip_11cxx_lib/inc/ssp_11xx.h **** /**
 315:../../lpc11cx4-library/lpc_chip_11cxx_lib/inc/ssp_11xx.h ****  * @brief	Get the number of bits transferred in each frame
 316:../../lpc11cx4-library/lpc_chip_11cxx_lib/inc/ssp_11xx.h ****  * @param	pSSP	: The base of SSP peripheral on the chip
 317:../../lpc11cx4-library/lpc_chip_11cxx_lib/inc/ssp_11xx.h ****  * @return	 the number of bits transferred in each frame minus one
 318:../../lpc11cx4-library/lpc_chip_11cxx_lib/inc/ssp_11xx.h ****  * @note	The return value is 0x03 -> 0xF corresponding to 4bit -> 16bit transfer
 319:../../lpc11cx4-library/lpc_chip_11cxx_lib/inc/ssp_11xx.h ****  */
 320:../../lpc11cx4-library/lpc_chip_11cxx_lib/inc/ssp_11xx.h **** STATIC INLINE uint8_t Chip_SSP_GetDataSize(LPC_SSP_T *pSSP)
 321:../../lpc11cx4-library/lpc_chip_11cxx_lib/inc/ssp_11xx.h **** {
 322:../../lpc11cx4-library/lpc_chip_11cxx_lib/inc/ssp_11xx.h **** 	return SSP_CR0_DSS(pSSP->CR0);
 323:../../lpc11cx4-library/lpc_chip_11cxx_lib/inc/ssp_11xx.h **** }
 324:../../lpc11cx4-library/lpc_chip_11cxx_lib/inc/ssp_11xx.h **** 
 325:../../lpc11cx4-library/lpc_chip_11cxx_lib/inc/ssp_11xx.h **** /**
 326:../../lpc11cx4-library/lpc_chip_11cxx_lib/inc/ssp_11xx.h ****  * @brief	Clear the corresponding interrupt condition(s) in the SSP controller
 327:../../lpc11cx4-library/lpc_chip_11cxx_lib/inc/ssp_11xx.h ****  * @param	pSSP	: The base of SSP peripheral on the chip
 328:../../lpc11cx4-library/lpc_chip_11cxx_lib/inc/ssp_11xx.h ****  * @param	IntClear: Type of cleared interrupt, should be :
 329:../../lpc11cx4-library/lpc_chip_11cxx_lib/inc/ssp_11xx.h ****  *						- SSP_RORIC
 330:../../lpc11cx4-library/lpc_chip_11cxx_lib/inc/ssp_11xx.h ****  *						- SSP_RTIC
 331:../../lpc11cx4-library/lpc_chip_11cxx_lib/inc/ssp_11xx.h ****  * @return	 Nothing
 332:../../lpc11cx4-library/lpc_chip_11cxx_lib/inc/ssp_11xx.h ****  * @note	Software can clear one or more interrupt condition(s) in the SSP controller
 333:../../lpc11cx4-library/lpc_chip_11cxx_lib/inc/ssp_11xx.h ****  */
 334:../../lpc11cx4-library/lpc_chip_11cxx_lib/inc/ssp_11xx.h **** STATIC INLINE void Chip_SSP_ClearIntPending(LPC_SSP_T *pSSP, SSP_INTCLEAR_T IntClear)
 335:../../lpc11cx4-library/lpc_chip_11cxx_lib/inc/ssp_11xx.h **** {
 336:../../lpc11cx4-library/lpc_chip_11cxx_lib/inc/ssp_11xx.h **** 	pSSP->ICR = IntClear;
 337:../../lpc11cx4-library/lpc_chip_11cxx_lib/inc/ssp_11xx.h **** }
 338:../../lpc11cx4-library/lpc_chip_11cxx_lib/inc/ssp_11xx.h **** 
 339:../../lpc11cx4-library/lpc_chip_11cxx_lib/inc/ssp_11xx.h **** /**
 340:../../lpc11cx4-library/lpc_chip_11cxx_lib/inc/ssp_11xx.h ****  * @brief	Enable interrupt for the SSP
 341:../../lpc11cx4-library/lpc_chip_11cxx_lib/inc/ssp_11xx.h ****  * @param	pSSP		: The base of SSP peripheral on the chip
 342:../../lpc11cx4-library/lpc_chip_11cxx_lib/inc/ssp_11xx.h ****  * @return	 Nothing
 343:../../lpc11cx4-library/lpc_chip_11cxx_lib/inc/ssp_11xx.h ****  */
 344:../../lpc11cx4-library/lpc_chip_11cxx_lib/inc/ssp_11xx.h **** STATIC INLINE void Chip_SSP_Int_Enable(LPC_SSP_T *pSSP)
 345:../../lpc11cx4-library/lpc_chip_11cxx_lib/inc/ssp_11xx.h **** {
 346:../../lpc11cx4-library/lpc_chip_11cxx_lib/inc/ssp_11xx.h **** 	pSSP->IMSC |= SSP_TXIM;
 347:../../lpc11cx4-library/lpc_chip_11cxx_lib/inc/ssp_11xx.h **** }
 348:../../lpc11cx4-library/lpc_chip_11cxx_lib/inc/ssp_11xx.h **** 
 349:../../lpc11cx4-library/lpc_chip_11cxx_lib/inc/ssp_11xx.h **** /**
 350:../../lpc11cx4-library/lpc_chip_11cxx_lib/inc/ssp_11xx.h ****  * @brief	Disable interrupt for the SSP
 351:../../lpc11cx4-library/lpc_chip_11cxx_lib/inc/ssp_11xx.h ****  * @param	pSSP		: The base of SSP peripheral on the chip
 352:../../lpc11cx4-library/lpc_chip_11cxx_lib/inc/ssp_11xx.h ****  * @return	 Nothing
 353:../../lpc11cx4-library/lpc_chip_11cxx_lib/inc/ssp_11xx.h ****  */
ARM GAS  /tmp/ccjsfSlY.s 			page 11


 354:../../lpc11cx4-library/lpc_chip_11cxx_lib/inc/ssp_11xx.h **** STATIC INLINE void Chip_SSP_Int_Disable(LPC_SSP_T *pSSP)
 355:../../lpc11cx4-library/lpc_chip_11cxx_lib/inc/ssp_11xx.h **** {
 356:../../lpc11cx4-library/lpc_chip_11cxx_lib/inc/ssp_11xx.h **** 	pSSP->IMSC &= (~SSP_TXIM);
 357:../../lpc11cx4-library/lpc_chip_11cxx_lib/inc/ssp_11xx.h **** }
 358:../../lpc11cx4-library/lpc_chip_11cxx_lib/inc/ssp_11xx.h **** 
 359:../../lpc11cx4-library/lpc_chip_11cxx_lib/inc/ssp_11xx.h **** /**
 360:../../lpc11cx4-library/lpc_chip_11cxx_lib/inc/ssp_11xx.h ****  * @brief	Get received SSP data
 361:../../lpc11cx4-library/lpc_chip_11cxx_lib/inc/ssp_11xx.h ****  * @param	pSSP	: The base of SSP peripheral on the chip
 362:../../lpc11cx4-library/lpc_chip_11cxx_lib/inc/ssp_11xx.h ****  * @return	 SSP 16-bit data received
 363:../../lpc11cx4-library/lpc_chip_11cxx_lib/inc/ssp_11xx.h ****  */
 364:../../lpc11cx4-library/lpc_chip_11cxx_lib/inc/ssp_11xx.h **** STATIC INLINE uint16_t Chip_SSP_ReceiveFrame(LPC_SSP_T *pSSP)
 365:../../lpc11cx4-library/lpc_chip_11cxx_lib/inc/ssp_11xx.h **** {
 366:../../lpc11cx4-library/lpc_chip_11cxx_lib/inc/ssp_11xx.h **** 	return (uint16_t) (SSP_DR_BITMASK(pSSP->DR));
 120              		.loc 2 366 0
 121 001c 8468     		ldr	r4, [r0, #8]	@ D.6840, pSSP_4(D)->DR
 122              	.LBE230:
 123              	.LBE229:
 124              		.loc 1 96 0
 125 001e 002A     		cmp	r2, #0	@ D.6841,
 126 0020 01D0     		beq	.L4	@,
  97:../../lpc11cx4-library/lpc_chip_11cxx_lib/src/ssp_11xx.c **** 			*(uint8_t *) ((uint32_t) xf_setup->rx_data + xf_setup->rx_cnt) = rDat;
 127              		.loc 1 97 0
 128 0022 D454     		strb	r4, [r2, r3]	@ D.6840, *_12
 129 0024 CB68     		ldr	r3, [r1, #12]	@ xf_setup_5(D)->rx_cnt, xf_setup_5(D)->rx_cnt
 130              	.L4:
 131              	.LBB231:
 132              	.LBB227:
 284:../../lpc11cx4-library/lpc_chip_11cxx_lib/inc/ssp_11xx.h **** }
 133              		.loc 2 284 0
 134 0026 C268     		ldr	r2, [r0, #12]	@ D.6840, pSSP_4(D)->SR
 135              	.LBE227:
 136              	.LBE231:
  98:../../lpc11cx4-library/lpc_chip_11cxx_lib/src/ssp_11xx.c **** 		}
  99:../../lpc11cx4-library/lpc_chip_11cxx_lib/src/ssp_11xx.c **** 
 100:../../lpc11cx4-library/lpc_chip_11cxx_lib/src/ssp_11xx.c **** 		xf_setup->rx_cnt++;
 137              		.loc 1 100 0
 138 0028 0133     		add	r3, r3, #1	@ xf_setup_5(D)->rx_cnt,
 139 002a CB60     		str	r3, [r1, #12]	@ xf_setup_5(D)->rx_cnt, xf_setup_5(D)->rx_cnt
  93:../../lpc11cx4-library/lpc_chip_11cxx_lib/src/ssp_11xx.c **** 		   (xf_setup->rx_cnt < xf_setup->length)) {
 140              		.loc 1 93 0
 141 002c 1542     		tst	r5, r2	@ tmp135, D.6840
 142 002e F1D1     		bne	.L14	@,
 143              	.LVL3:
 144              	.L1:
 101:../../lpc11cx4-library/lpc_chip_11cxx_lib/src/ssp_11xx.c **** 	}
 102:../../lpc11cx4-library/lpc_chip_11cxx_lib/src/ssp_11xx.c **** }
 145              		.loc 1 102 0
 146              		@ sp needed	@
 147 0030 30BD     		pop	{r4, r5, pc}
 148              		.cfi_endproc
 149              	.LFE201:
 150              		.size	SSP_Read1BFifo, .-SSP_Read1BFifo
 151 0032 C046     		.section	.text.Chip_SSP_SetClockRate,"ax",%progbits
 152              		.align	2
 153              		.global	Chip_SSP_SetClockRate
 154              		.code	16
 155              		.thumb_func
ARM GAS  /tmp/ccjsfSlY.s 			page 12


 156              		.type	Chip_SSP_SetClockRate, %function
 157              	Chip_SSP_SetClockRate:
 158              	.LFB206:
 103:../../lpc11cx4-library/lpc_chip_11cxx_lib/src/ssp_11xx.c **** 
 104:../../lpc11cx4-library/lpc_chip_11cxx_lib/src/ssp_11xx.c **** /* Returns clock for the peripheral block */
 105:../../lpc11cx4-library/lpc_chip_11cxx_lib/src/ssp_11xx.c **** STATIC CHIP_SYSCTL_CLOCK_T Chip_SSP_GetClockIndex(LPC_SSP_T *pSSP)
 106:../../lpc11cx4-library/lpc_chip_11cxx_lib/src/ssp_11xx.c **** {
 107:../../lpc11cx4-library/lpc_chip_11cxx_lib/src/ssp_11xx.c **** 	CHIP_SYSCTL_CLOCK_T clkSSP;
 108:../../lpc11cx4-library/lpc_chip_11cxx_lib/src/ssp_11xx.c **** 
 109:../../lpc11cx4-library/lpc_chip_11cxx_lib/src/ssp_11xx.c **** 	if (pSSP == LPC_SSP0) {
 110:../../lpc11cx4-library/lpc_chip_11cxx_lib/src/ssp_11xx.c **** 		clkSSP = SYSCTL_CLOCK_SSP0;
 111:../../lpc11cx4-library/lpc_chip_11cxx_lib/src/ssp_11xx.c **** 	}
 112:../../lpc11cx4-library/lpc_chip_11cxx_lib/src/ssp_11xx.c **** #if defined(CHIP_LPC11CXX) || defined(CHIP_LPC11EXX) || defined(CHIP_LPC11AXX) || defined(CHIP_LPC1
 113:../../lpc11cx4-library/lpc_chip_11cxx_lib/src/ssp_11xx.c **** 	else {
 114:../../lpc11cx4-library/lpc_chip_11cxx_lib/src/ssp_11xx.c **** 		clkSSP = SYSCTL_CLOCK_SSP1;
 115:../../lpc11cx4-library/lpc_chip_11cxx_lib/src/ssp_11xx.c **** 	}
 116:../../lpc11cx4-library/lpc_chip_11cxx_lib/src/ssp_11xx.c **** #endif
 117:../../lpc11cx4-library/lpc_chip_11cxx_lib/src/ssp_11xx.c **** 		
 118:../../lpc11cx4-library/lpc_chip_11cxx_lib/src/ssp_11xx.c **** 	return clkSSP;
 119:../../lpc11cx4-library/lpc_chip_11cxx_lib/src/ssp_11xx.c **** }
 120:../../lpc11cx4-library/lpc_chip_11cxx_lib/src/ssp_11xx.c **** 
 121:../../lpc11cx4-library/lpc_chip_11cxx_lib/src/ssp_11xx.c **** /* Returns reset ID for the peripheral block */
 122:../../lpc11cx4-library/lpc_chip_11cxx_lib/src/ssp_11xx.c **** STATIC CHIP_SYSCTL_PERIPH_RESET_T Chip_SSP_GetResetIndex(LPC_SSP_T *pSSP)
 123:../../lpc11cx4-library/lpc_chip_11cxx_lib/src/ssp_11xx.c **** {
 124:../../lpc11cx4-library/lpc_chip_11cxx_lib/src/ssp_11xx.c **** 	CHIP_SYSCTL_PERIPH_RESET_T resetSSP;
 125:../../lpc11cx4-library/lpc_chip_11cxx_lib/src/ssp_11xx.c **** 
 126:../../lpc11cx4-library/lpc_chip_11cxx_lib/src/ssp_11xx.c **** 	if (pSSP == LPC_SSP0) {
 127:../../lpc11cx4-library/lpc_chip_11cxx_lib/src/ssp_11xx.c **** 		resetSSP = RESET_SSP0;
 128:../../lpc11cx4-library/lpc_chip_11cxx_lib/src/ssp_11xx.c **** 	}
 129:../../lpc11cx4-library/lpc_chip_11cxx_lib/src/ssp_11xx.c **** 	else {
 130:../../lpc11cx4-library/lpc_chip_11cxx_lib/src/ssp_11xx.c **** 		resetSSP = RESET_SSP1;
 131:../../lpc11cx4-library/lpc_chip_11cxx_lib/src/ssp_11xx.c **** 	}
 132:../../lpc11cx4-library/lpc_chip_11cxx_lib/src/ssp_11xx.c **** 
 133:../../lpc11cx4-library/lpc_chip_11cxx_lib/src/ssp_11xx.c **** 	return resetSSP;
 134:../../lpc11cx4-library/lpc_chip_11cxx_lib/src/ssp_11xx.c **** }
 135:../../lpc11cx4-library/lpc_chip_11cxx_lib/src/ssp_11xx.c **** 
 136:../../lpc11cx4-library/lpc_chip_11cxx_lib/src/ssp_11xx.c **** /* Returns reset ID for the peripheral block */
 137:../../lpc11cx4-library/lpc_chip_11cxx_lib/src/ssp_11xx.c **** STATIC void Chip_SSP_SetSSPClkDivider(LPC_SSP_T *pSSP, uint32_t div)
 138:../../lpc11cx4-library/lpc_chip_11cxx_lib/src/ssp_11xx.c **** {
 139:../../lpc11cx4-library/lpc_chip_11cxx_lib/src/ssp_11xx.c **** 	if (pSSP == LPC_SSP0) {
 140:../../lpc11cx4-library/lpc_chip_11cxx_lib/src/ssp_11xx.c **** 		Chip_Clock_SetSSP0ClockDiv(div);
 141:../../lpc11cx4-library/lpc_chip_11cxx_lib/src/ssp_11xx.c **** 	}
 142:../../lpc11cx4-library/lpc_chip_11cxx_lib/src/ssp_11xx.c **** #if defined(CHIP_LPC11CXX) || defined(CHIP_LPC11EXX) || defined(CHIP_LPC11AXX) || defined(CHIP_LPC1
 143:../../lpc11cx4-library/lpc_chip_11cxx_lib/src/ssp_11xx.c **** 	else {
 144:../../lpc11cx4-library/lpc_chip_11cxx_lib/src/ssp_11xx.c **** 		Chip_Clock_SetSSP1ClockDiv(div);
 145:../../lpc11cx4-library/lpc_chip_11cxx_lib/src/ssp_11xx.c **** 	}
 146:../../lpc11cx4-library/lpc_chip_11cxx_lib/src/ssp_11xx.c **** #endif
 147:../../lpc11cx4-library/lpc_chip_11cxx_lib/src/ssp_11xx.c **** }
 148:../../lpc11cx4-library/lpc_chip_11cxx_lib/src/ssp_11xx.c **** 
 149:../../lpc11cx4-library/lpc_chip_11cxx_lib/src/ssp_11xx.c **** /* Returns SSP peripheral clock for the peripheral block */
 150:../../lpc11cx4-library/lpc_chip_11cxx_lib/src/ssp_11xx.c **** STATIC uint32_t Chip_SSP_GetPCLKkRate(LPC_SSP_T *pSSP)
 151:../../lpc11cx4-library/lpc_chip_11cxx_lib/src/ssp_11xx.c **** {
 152:../../lpc11cx4-library/lpc_chip_11cxx_lib/src/ssp_11xx.c **** 	uint32_t sspCLK = Chip_Clock_GetMainClockRate();
 153:../../lpc11cx4-library/lpc_chip_11cxx_lib/src/ssp_11xx.c **** 
 154:../../lpc11cx4-library/lpc_chip_11cxx_lib/src/ssp_11xx.c **** 	if (pSSP == LPC_SSP0) {
 155:../../lpc11cx4-library/lpc_chip_11cxx_lib/src/ssp_11xx.c **** 		sspCLK /= Chip_Clock_GetSSP0ClockDiv();
 156:../../lpc11cx4-library/lpc_chip_11cxx_lib/src/ssp_11xx.c **** 	}
ARM GAS  /tmp/ccjsfSlY.s 			page 13


 157:../../lpc11cx4-library/lpc_chip_11cxx_lib/src/ssp_11xx.c **** #if defined(CHIP_LPC11CXX) || defined(CHIP_LPC11EXX) || defined(CHIP_LPC11AXX) || defined(CHIP_LPC1
 158:../../lpc11cx4-library/lpc_chip_11cxx_lib/src/ssp_11xx.c **** 	else {
 159:../../lpc11cx4-library/lpc_chip_11cxx_lib/src/ssp_11xx.c **** 		sspCLK /= Chip_Clock_GetSSP1ClockDiv();
 160:../../lpc11cx4-library/lpc_chip_11cxx_lib/src/ssp_11xx.c **** 	}
 161:../../lpc11cx4-library/lpc_chip_11cxx_lib/src/ssp_11xx.c **** #endif
 162:../../lpc11cx4-library/lpc_chip_11cxx_lib/src/ssp_11xx.c **** 	
 163:../../lpc11cx4-library/lpc_chip_11cxx_lib/src/ssp_11xx.c ****     return sspCLK;
 164:../../lpc11cx4-library/lpc_chip_11cxx_lib/src/ssp_11xx.c **** }
 165:../../lpc11cx4-library/lpc_chip_11cxx_lib/src/ssp_11xx.c **** 
 166:../../lpc11cx4-library/lpc_chip_11cxx_lib/src/ssp_11xx.c **** /*****************************************************************************
 167:../../lpc11cx4-library/lpc_chip_11cxx_lib/src/ssp_11xx.c ****  * Public functions
 168:../../lpc11cx4-library/lpc_chip_11cxx_lib/src/ssp_11xx.c ****  ****************************************************************************/
 169:../../lpc11cx4-library/lpc_chip_11cxx_lib/src/ssp_11xx.c **** 
 170:../../lpc11cx4-library/lpc_chip_11cxx_lib/src/ssp_11xx.c **** /*Set up output clocks per bit for SSP bus*/
 171:../../lpc11cx4-library/lpc_chip_11cxx_lib/src/ssp_11xx.c **** void Chip_SSP_SetClockRate(LPC_SSP_T *pSSP, uint32_t clk_rate, uint32_t prescale)
 172:../../lpc11cx4-library/lpc_chip_11cxx_lib/src/ssp_11xx.c **** {
 159              		.loc 1 172 0
 160              		.cfi_startproc
 161              	.LVL4:
 162 0000 10B5     		push	{r4, lr}	@
 163              		.cfi_def_cfa_offset 8
 164              		.cfi_offset 4, -8
 165              		.cfi_offset 14, -4
 173:../../lpc11cx4-library/lpc_chip_11cxx_lib/src/ssp_11xx.c **** 	uint32_t temp;
 174:../../lpc11cx4-library/lpc_chip_11cxx_lib/src/ssp_11xx.c **** 	temp = pSSP->CR0 & (~(SSP_CR0_SCR(0xFF)));
 166              		.loc 1 174 0
 167 0002 044B     		ldr	r3, .L16	@ tmp122,
 168 0004 0468     		ldr	r4, [r0]	@ D.6846, pSSP_2(D)->CR0
 169              	.LVL5:
 175:../../lpc11cx4-library/lpc_chip_11cxx_lib/src/ssp_11xx.c **** 	pSSP->CR0 = temp | (SSP_CR0_SCR(clk_rate));
 170              		.loc 1 175 0
 171 0006 0906     		lsl	r1, r1, #24	@ tmp120, clk_rate,
 172              	.LVL6:
 174:../../lpc11cx4-library/lpc_chip_11cxx_lib/src/ssp_11xx.c **** 	pSSP->CR0 = temp | (SSP_CR0_SCR(clk_rate));
 173              		.loc 1 174 0
 174 0008 2340     		and	r3, r4	@ temp, D.6846
 175              	.LVL7:
 176              		.loc 1 175 0
 177 000a 090C     		lsr	r1, r1, #16	@ D.6846, tmp120,
 178 000c 1943     		orr	r1, r3	@ D.6846, temp
 179 000e 0160     		str	r1, [r0]	@ D.6846, pSSP_2(D)->CR0
 176:../../lpc11cx4-library/lpc_chip_11cxx_lib/src/ssp_11xx.c **** 	pSSP->CPSR = prescale;
 177:../../lpc11cx4-library/lpc_chip_11cxx_lib/src/ssp_11xx.c **** }
 180              		.loc 1 177 0
 181              		@ sp needed	@
 176:../../lpc11cx4-library/lpc_chip_11cxx_lib/src/ssp_11xx.c **** 	pSSP->CPSR = prescale;
 182              		.loc 1 176 0
 183 0010 0261     		str	r2, [r0, #16]	@ prescale, pSSP_2(D)->CPSR
 184              		.loc 1 177 0
 185 0012 10BD     		pop	{r4, pc}
 186              	.L17:
 187              		.align	2
 188              	.L16:
 189 0014 FF00FFFF 		.word	-65281
 190              		.cfi_endproc
 191              	.LFE206:
 192              		.size	Chip_SSP_SetClockRate, .-Chip_SSP_SetClockRate
ARM GAS  /tmp/ccjsfSlY.s 			page 14


 193              		.section	.text.Chip_SSP_RWFrames_Blocking,"ax",%progbits
 194              		.align	2
 195              		.global	Chip_SSP_RWFrames_Blocking
 196              		.code	16
 197              		.thumb_func
 198              		.type	Chip_SSP_RWFrames_Blocking, %function
 199              	Chip_SSP_RWFrames_Blocking:
 200              	.LFB207:
 178:../../lpc11cx4-library/lpc_chip_11cxx_lib/src/ssp_11xx.c **** 
 179:../../lpc11cx4-library/lpc_chip_11cxx_lib/src/ssp_11xx.c **** /* SSP Polling Read/Write in blocking mode */
 180:../../lpc11cx4-library/lpc_chip_11cxx_lib/src/ssp_11xx.c **** uint32_t Chip_SSP_RWFrames_Blocking(LPC_SSP_T *pSSP, Chip_SSP_DATA_SETUP_T *xf_setup)
 181:../../lpc11cx4-library/lpc_chip_11cxx_lib/src/ssp_11xx.c **** {
 201              		.loc 1 181 0
 202              		.cfi_startproc
 203              	.LVL8:
 204 0000 F0B5     		push	{r4, r5, r6, r7, lr}	@
 205              		.cfi_def_cfa_offset 20
 206              		.cfi_offset 4, -20
 207              		.cfi_offset 5, -16
 208              		.cfi_offset 6, -12
 209              		.cfi_offset 7, -8
 210              		.cfi_offset 14, -4
 211 0002 4746     		mov	r7, r8	@,
 212              	.LBB232:
 213              	.LBB233:
 284:../../lpc11cx4-library/lpc_chip_11cxx_lib/inc/ssp_11xx.h **** }
 214              		.loc 2 284 0
 215 0004 C368     		ldr	r3, [r0, #12]	@ D.6859, pSSP_10(D)->SR
 216              	.LBE233:
 217              	.LBE232:
 218              		.loc 1 181 0
 219 0006 80B4     		push	{r7}	@
 220              		.cfi_def_cfa_offset 24
 221              		.cfi_offset 8, -24
 222              		.loc 1 181 0
 223 0008 041C     		mov	r4, r0	@ pSSP, pSSP
 224 000a 0E1C     		mov	r6, r1	@ xf_setup, xf_setup
 182:../../lpc11cx4-library/lpc_chip_11cxx_lib/src/ssp_11xx.c **** 	/* Clear all remaining frames in RX FIFO */
 183:../../lpc11cx4-library/lpc_chip_11cxx_lib/src/ssp_11xx.c **** 	while (Chip_SSP_GetStatus(pSSP, SSP_STAT_RNE)) {
 225              		.loc 1 183 0
 226 000c 5B07     		lsl	r3, r3, #29	@ tmp242, D.6859,
 227 000e 04D5     		bpl	.L19	@,
 228              	.LBB236:
 229              	.LBB234:
 284:../../lpc11cx4-library/lpc_chip_11cxx_lib/inc/ssp_11xx.h **** }
 230              		.loc 2 284 0
 231 0010 0422     		mov	r2, #4	@ tmp240,
 232              	.L60:
 233              	.LVL9:
 234              	.LBE234:
 235              	.LBE236:
 236              	.LBB237:
 237              	.LBB238:
 238              		.loc 2 366 0
 239 0012 A368     		ldr	r3, [r4, #8]	@ D.6859, pSSP_10(D)->DR
 240              	.LBE238:
 241              	.LBE237:
ARM GAS  /tmp/ccjsfSlY.s 			page 15


 242              	.LBB239:
 243              	.LBB235:
 284:../../lpc11cx4-library/lpc_chip_11cxx_lib/inc/ssp_11xx.h **** }
 244              		.loc 2 284 0
 245 0014 E368     		ldr	r3, [r4, #12]	@ D.6859, pSSP_10(D)->SR
 246              	.LBE235:
 247              	.LBE239:
 248              		.loc 1 183 0
 249 0016 1A42     		tst	r2, r3	@ tmp240, D.6859
 250 0018 FBD1     		bne	.L60	@,
 251              	.LVL10:
 252              	.L19:
 253              	.LBB240:
 254              	.LBB241:
 336:../../lpc11cx4-library/lpc_chip_11cxx_lib/inc/ssp_11xx.h **** }
 255              		.loc 2 336 0
 256 001a 0323     		mov	r3, #3	@ tmp195,
 257              	.LBE241:
 258              	.LBE240:
 184:../../lpc11cx4-library/lpc_chip_11cxx_lib/src/ssp_11xx.c **** 		Chip_SSP_ReceiveFrame(pSSP);
 185:../../lpc11cx4-library/lpc_chip_11cxx_lib/src/ssp_11xx.c **** 	}
 186:../../lpc11cx4-library/lpc_chip_11cxx_lib/src/ssp_11xx.c **** 
 187:../../lpc11cx4-library/lpc_chip_11cxx_lib/src/ssp_11xx.c **** 	/* Clear status */
 188:../../lpc11cx4-library/lpc_chip_11cxx_lib/src/ssp_11xx.c **** 	Chip_SSP_ClearIntPending(pSSP, SSP_INT_CLEAR_BITMASK);
 189:../../lpc11cx4-library/lpc_chip_11cxx_lib/src/ssp_11xx.c **** 
 190:../../lpc11cx4-library/lpc_chip_11cxx_lib/src/ssp_11xx.c **** 	if (Chip_SSP_GetDataSize(pSSP) > SSP_BITS_8) {
 259              		.loc 1 190 0
 260 001c 0F22     		mov	r2, #15	@ tmp200,
 261              	.LBB243:
 262              	.LBB242:
 336:../../lpc11cx4-library/lpc_chip_11cxx_lib/inc/ssp_11xx.h **** }
 263              		.loc 2 336 0
 264 001e 2362     		str	r3, [r4, #32]	@ tmp195, pSSP_10(D)->ICR
 265              	.LVL11:
 266              	.LBE242:
 267              	.LBE243:
 268              	.LBB244:
 269              	.LBB245:
 322:../../lpc11cx4-library/lpc_chip_11cxx_lib/inc/ssp_11xx.h **** }
 270              		.loc 2 322 0
 271 0020 2368     		ldr	r3, [r4]	@ D.6859, pSSP_10(D)->CR0
 272              	.LBE245:
 273              	.LBE244:
 274              		.loc 1 190 0
 275 0022 1340     		and	r3, r2	@ tmp201, tmp200
 276 0024 072B     		cmp	r3, #7	@ tmp201,
 277 0026 3FD9     		bls	.L21	@,
 278              	.LBB246:
 279              	.LBB247:
 280              	.LBB248:
 281              	.LBB249:
 367:../../lpc11cx4-library/lpc_chip_11cxx_lib/inc/ssp_11xx.h **** }
 368:../../lpc11cx4-library/lpc_chip_11cxx_lib/inc/ssp_11xx.h **** 
 369:../../lpc11cx4-library/lpc_chip_11cxx_lib/inc/ssp_11xx.h **** /**
 370:../../lpc11cx4-library/lpc_chip_11cxx_lib/inc/ssp_11xx.h ****  * @brief	Send SSP 16-bit data
 371:../../lpc11cx4-library/lpc_chip_11cxx_lib/inc/ssp_11xx.h ****  * @param	pSSP	: The base of SSP peripheral on the chip
 372:../../lpc11cx4-library/lpc_chip_11cxx_lib/inc/ssp_11xx.h ****  * @param	tx_data	: SSP 16-bit data to be transmited
ARM GAS  /tmp/ccjsfSlY.s 			page 16


 373:../../lpc11cx4-library/lpc_chip_11cxx_lib/inc/ssp_11xx.h ****  * @return	 Nothing
 374:../../lpc11cx4-library/lpc_chip_11cxx_lib/inc/ssp_11xx.h ****  */
 375:../../lpc11cx4-library/lpc_chip_11cxx_lib/inc/ssp_11xx.h **** STATIC INLINE void Chip_SSP_SendFrame(LPC_SSP_T *pSSP, uint16_t tx_data)
 376:../../lpc11cx4-library/lpc_chip_11cxx_lib/inc/ssp_11xx.h **** {
 377:../../lpc11cx4-library/lpc_chip_11cxx_lib/inc/ssp_11xx.h **** 	pSSP->DR = SSP_DR_BITMASK(tx_data);
 282              		.loc 2 377 0
 283 0028 3A4A     		ldr	r2, .L77	@ tmp234,
 284              	.LBE249:
 285              	.LBE248:
 286              	.LBE247:
 287              	.LBE246:
 288              	.LBB260:
 289              	.LBB261:
 284:../../lpc11cx4-library/lpc_chip_11cxx_lib/inc/ssp_11xx.h **** }
 290              		.loc 2 284 0
 291 002a 0220     		mov	r0, #2	@ tmp233,
 292              	.LVL12:
 293              	.LBE261:
 294              	.LBE260:
 295              	.LBB264:
 296              	.LBB256:
 297              	.LBB252:
 298              	.LBB250:
 299              		.loc 2 377 0
 300 002c 9046     		mov	r8, r2	@ tmp234, tmp234
 301              	.LBE250:
 302              	.LBE252:
 303              	.LBE256:
 304              	.LBE264:
 305              	.LBB265:
 306              	.LBB266:
 311:../../lpc11cx4-library/lpc_chip_11cxx_lib/inc/ssp_11xx.h **** }
 307              		.loc 2 311 0
 308 002e 0122     		mov	r2, #1	@ tmp235,
 309              	.LBE266:
 310              	.LBE265:
 311              	.LBB270:
 312              	.LBB271:
 313              	.LBB272:
 314              	.LBB273:
 284:../../lpc11cx4-library/lpc_chip_11cxx_lib/inc/ssp_11xx.h **** }
 315              		.loc 2 284 0
 316 0030 0427     		mov	r7, #4	@ tmp236,
 317              	.LBE273:
 318              	.LBE272:
 319              	.LBE271:
 320              	.LBE270:
 321              	.LBB281:
 322              	.LBB267:
 311:../../lpc11cx4-library/lpc_chip_11cxx_lib/inc/ssp_11xx.h **** }
 323              		.loc 2 311 0
 324 0032 9446     		mov	ip, r2	@ tmp235, tmp235
 325 0034 3569     		ldr	r5, [r6, #16]	@ D.6858, xf_setup_14(D)->length
 326 0036 F368     		ldr	r3, [r6, #12]	@ D.6858, xf_setup_14(D)->rx_cnt
 327              	.LVL13:
 328              	.L22:
 329              	.LBE267:
ARM GAS  /tmp/ccjsfSlY.s 			page 17


 330              	.LBE281:
 191:../../lpc11cx4-library/lpc_chip_11cxx_lib/src/ssp_11xx.c **** 		while (xf_setup->rx_cnt < xf_setup->length || xf_setup->tx_cnt < xf_setup->length) {
 331              		.loc 1 191 0
 332 0038 9D42     		cmp	r5, r3	@ D.6858, D.6858
 333 003a 1FD8     		bhi	.L32	@,
 334              	.L75:
 335              		.loc 1 191 0 is_stmt 0 discriminator 1
 336 003c 7268     		ldr	r2, [r6, #4]	@ D.6859, xf_setup_14(D)->tx_cnt
 337 003e 111E     		sub	r1, r2, #0	@ D.6858, D.6859,
 338 0040 A942     		cmp	r1, r5	@ D.6858, D.6858
 339 0042 57D2     		bcs	.L42	@,
 340              	.LVL14:
 341              	.LBB282:
 342              	.LBB262:
 284:../../lpc11cx4-library/lpc_chip_11cxx_lib/inc/ssp_11xx.h **** }
 343              		.loc 2 284 0 is_stmt 1
 344 0044 E168     		ldr	r1, [r4, #12]	@ D.6859, pSSP_10(D)->SR
 345              	.LBE262:
 346              	.LBE282:
 192:../../lpc11cx4-library/lpc_chip_11cxx_lib/src/ssp_11xx.c **** 			/* write data to buffer */
 193:../../lpc11cx4-library/lpc_chip_11cxx_lib/src/ssp_11xx.c **** 			if (( Chip_SSP_GetStatus(pSSP, SSP_STAT_TNF) == SET) && ( xf_setup->tx_cnt < xf_setup->length) )
 347              		.loc 1 193 0
 348 0046 0842     		tst	r0, r1	@ tmp233, D.6859
 349 0048 1ED1     		bne	.L43	@,
 350              	.L23:
 351              	.LVL15:
 194:../../lpc11cx4-library/lpc_chip_11cxx_lib/src/ssp_11xx.c **** 				SSP_Write2BFifo(pSSP, xf_setup);
 195:../../lpc11cx4-library/lpc_chip_11cxx_lib/src/ssp_11xx.c **** 			}
 196:../../lpc11cx4-library/lpc_chip_11cxx_lib/src/ssp_11xx.c **** 
 197:../../lpc11cx4-library/lpc_chip_11cxx_lib/src/ssp_11xx.c **** 			/* Check overrun error */
 198:../../lpc11cx4-library/lpc_chip_11cxx_lib/src/ssp_11xx.c **** 			if (Chip_SSP_GetRawIntStatus(pSSP, SSP_RORRIS) == SET) {
 352              		.loc 1 198 0
 353 004a 6146     		mov	r1, ip	@ tmp235, tmp235
 354              	.LBB283:
 355              	.LBB268:
 311:../../lpc11cx4-library/lpc_chip_11cxx_lib/inc/ssp_11xx.h **** }
 356              		.loc 2 311 0
 357 004c A269     		ldr	r2, [r4, #24]	@ D.6859, pSSP_10(D)->RIS
 358              	.LBE268:
 359              	.LBE283:
 360              		.loc 1 198 0
 361 004e 1142     		tst	r1, r2	@ tmp235, D.6859
 362 0050 26D1     		bne	.L39	@,
 363              	.L26:
 364              	.LVL16:
 365              	.LBB284:
 366              	.LBB280:
 367              	.LBB276:
 368              	.LBB274:
 284:../../lpc11cx4-library/lpc_chip_11cxx_lib/inc/ssp_11xx.h **** }
 369              		.loc 2 284 0
 370 0052 E268     		ldr	r2, [r4, #12]	@ D.6859, pSSP_10(D)->SR
 371              	.LBE274:
 372              	.LBE276:
  77:../../lpc11cx4-library/lpc_chip_11cxx_lib/src/ssp_11xx.c **** 		   (xf_setup->rx_cnt < xf_setup->length)) {
 373              		.loc 1 77 0
 374 0054 1742     		tst	r7, r2	@ tmp236, D.6859
ARM GAS  /tmp/ccjsfSlY.s 			page 18


 375 0056 EFD0     		beq	.L22	@,
 376 0058 9D42     		cmp	r5, r3	@ D.6858, D.6858
 377 005a EDD9     		bls	.L22	@,
 378 005c B168     		ldr	r1, [r6, #8]	@ D.6860, xf_setup_14(D)->rx_data
 379 005e 01E0     		b	.L31	@
 380              	.LVL17:
 381              	.L74:
 382 0060 AB42     		cmp	r3, r5	@ D.6858, D.6858
 383 0062 08D2     		bcs	.L72	@,
 384              	.LVL18:
 385              	.L31:
 386              	.LBB277:
 387              	.LBB278:
 366:../../lpc11cx4-library/lpc_chip_11cxx_lib/inc/ssp_11xx.h **** }
 388              		.loc 2 366 0
 389 0064 A268     		ldr	r2, [r4, #8]	@ D.6859, pSSP_10(D)->DR
 390 0066 92B2     		uxth	r2, r2	@ D.6865, D.6859
 391              	.LBE278:
 392              	.LBE277:
  80:../../lpc11cx4-library/lpc_chip_11cxx_lib/src/ssp_11xx.c **** 			*(uint16_t *) ((uint32_t) xf_setup->rx_data + xf_setup->rx_cnt) = rDat;
 393              		.loc 1 80 0
 394 0068 0029     		cmp	r1, #0	@ D.6860,
 395 006a 00D0     		beq	.L29	@,
  81:../../lpc11cx4-library/lpc_chip_11cxx_lib/src/ssp_11xx.c **** 		}
 396              		.loc 1 81 0
 397 006c CA52     		strh	r2, [r1, r3]	@ D.6865, MEM[base: _102, index: _115, offset: 0B]
 398              	.L29:
 399              	.LBB279:
 400              	.LBB275:
 284:../../lpc11cx4-library/lpc_chip_11cxx_lib/inc/ssp_11xx.h **** }
 401              		.loc 2 284 0
 402 006e E268     		ldr	r2, [r4, #12]	@ D.6859, pSSP_10(D)->SR
 403              	.LBE275:
 404              	.LBE279:
  84:../../lpc11cx4-library/lpc_chip_11cxx_lib/src/ssp_11xx.c **** 	}
 405              		.loc 1 84 0
 406 0070 0233     		add	r3, r3, #2	@ D.6858,
  77:../../lpc11cx4-library/lpc_chip_11cxx_lib/src/ssp_11xx.c **** 		   (xf_setup->rx_cnt < xf_setup->length)) {
 407              		.loc 1 77 0
 408 0072 1742     		tst	r7, r2	@ tmp236, D.6859
 409 0074 F4D1     		bne	.L74	@,
 410              	.L72:
 411 0076 F360     		str	r3, [r6, #12]	@ D.6858, xf_setup_14(D)->rx_cnt
 412              	.LBE280:
 413              	.LBE284:
 191:../../lpc11cx4-library/lpc_chip_11cxx_lib/src/ssp_11xx.c **** 			/* write data to buffer */
 414              		.loc 1 191 0
 415 0078 9D42     		cmp	r5, r3	@ D.6858, D.6858
 416 007a DFD9     		bls	.L75	@,
 417              	.LVL19:
 418              	.L32:
 419              	.LBB285:
 420              	.LBB263:
 284:../../lpc11cx4-library/lpc_chip_11cxx_lib/inc/ssp_11xx.h **** }
 421              		.loc 2 284 0
 422 007c E268     		ldr	r2, [r4, #12]	@ D.6859, pSSP_10(D)->SR
 423              	.LBE263:
ARM GAS  /tmp/ccjsfSlY.s 			page 19


 424              	.LBE285:
 193:../../lpc11cx4-library/lpc_chip_11cxx_lib/src/ssp_11xx.c **** 				SSP_Write2BFifo(pSSP, xf_setup);
 425              		.loc 1 193 0
 426 007e 1042     		tst	r0, r2	@ tmp233, D.6859
 427 0080 E3D0     		beq	.L23	@,
 193:../../lpc11cx4-library/lpc_chip_11cxx_lib/src/ssp_11xx.c **** 				SSP_Write2BFifo(pSSP, xf_setup);
 428              		.loc 1 193 0 is_stmt 0 discriminator 1
 429 0082 7268     		ldr	r2, [r6, #4]	@ D.6859, xf_setup_14(D)->tx_cnt
 430 0084 AA42     		cmp	r2, r5	@ D.6859, D.6858
 431 0086 E0D2     		bcs	.L23	@,
 432              	.L43:
 433 0088 3168     		ldr	r1, [r6]	@ D.6860, MEM[(void * *)xf_setup_14(D)]
 434              	.LVL20:
 435              	.LBB286:
 436              	.LBB257:
  48:../../lpc11cx4-library/lpc_chip_11cxx_lib/src/ssp_11xx.c **** 		Chip_SSP_SendFrame(pSSP, (*(uint16_t *) ((uint32_t) xf_setup->tx_data +
 437              		.loc 1 48 0 is_stmt 1
 438 008a 0029     		cmp	r1, #0	@ D.6860,
 439 008c 3BD0     		beq	.L24	@,
 440              	.LVL21:
 441              	.LBB253:
 442              	.LBB254:
 443              		.loc 2 377 0
 444 008e 8A5A     		ldrh	r2, [r1, r2]	@ D.6859, *_49
 445              	.LVL22:
 446 0090 A260     		str	r2, [r4, #8]	@ D.6859,
 447              	.LVL23:
 448              	.L25:
 449              	.LBE254:
 450              	.LBE253:
 451              	.LBE257:
 452              	.LBE286:
 453              		.loc 1 198 0
 454 0092 6146     		mov	r1, ip	@ tmp235, tmp235
 455              	.LBB287:
 456              	.LBB258:
  56:../../lpc11cx4-library/lpc_chip_11cxx_lib/src/ssp_11xx.c **** }
 457              		.loc 1 56 0
 458 0094 7268     		ldr	r2, [r6, #4]	@ tmp246, MEM[(uint32_t *)xf_setup_14(D) + 4B]
 459 0096 0232     		add	r2, r2, #2	@ D.6859,
 460 0098 7260     		str	r2, [r6, #4]	@ D.6859, MEM[(uint32_t *)xf_setup_14(D) + 4B]
 461              	.LVL24:
 462              	.LBE258:
 463              	.LBE287:
 464              	.LBB288:
 465              	.LBB269:
 311:../../lpc11cx4-library/lpc_chip_11cxx_lib/inc/ssp_11xx.h **** }
 466              		.loc 2 311 0
 467 009a A269     		ldr	r2, [r4, #24]	@ D.6859, pSSP_10(D)->RIS
 468              	.LBE269:
 469              	.LBE288:
 470              		.loc 1 198 0
 471 009c 1142     		tst	r1, r2	@ tmp235, D.6859
 472 009e D8D0     		beq	.L26	@,
 473              	.LVL25:
 474              	.L39:
 199:../../lpc11cx4-library/lpc_chip_11cxx_lib/src/ssp_11xx.c **** 				return ERROR;
ARM GAS  /tmp/ccjsfSlY.s 			page 20


 475              		.loc 1 199 0
 476 00a0 0020     		mov	r0, #0	@ D.6858,
 477              	.L59:
 200:../../lpc11cx4-library/lpc_chip_11cxx_lib/src/ssp_11xx.c **** 			}
 201:../../lpc11cx4-library/lpc_chip_11cxx_lib/src/ssp_11xx.c **** 
 202:../../lpc11cx4-library/lpc_chip_11cxx_lib/src/ssp_11xx.c **** 			/* Check for any data available in RX FIFO */
 203:../../lpc11cx4-library/lpc_chip_11cxx_lib/src/ssp_11xx.c **** 			SSP_Read2BFifo(pSSP, xf_setup);
 204:../../lpc11cx4-library/lpc_chip_11cxx_lib/src/ssp_11xx.c **** 		}
 205:../../lpc11cx4-library/lpc_chip_11cxx_lib/src/ssp_11xx.c **** 	}
 206:../../lpc11cx4-library/lpc_chip_11cxx_lib/src/ssp_11xx.c **** 	else {
 207:../../lpc11cx4-library/lpc_chip_11cxx_lib/src/ssp_11xx.c **** 		while (xf_setup->rx_cnt < xf_setup->length || xf_setup->tx_cnt < xf_setup->length) {
 208:../../lpc11cx4-library/lpc_chip_11cxx_lib/src/ssp_11xx.c **** 			/* write data to buffer */
 209:../../lpc11cx4-library/lpc_chip_11cxx_lib/src/ssp_11xx.c **** 			if (( Chip_SSP_GetStatus(pSSP, SSP_STAT_TNF) == SET) && ( xf_setup->tx_cnt < xf_setup->length) )
 210:../../lpc11cx4-library/lpc_chip_11cxx_lib/src/ssp_11xx.c **** 				SSP_Write1BFifo(pSSP, xf_setup);
 211:../../lpc11cx4-library/lpc_chip_11cxx_lib/src/ssp_11xx.c **** 			}
 212:../../lpc11cx4-library/lpc_chip_11cxx_lib/src/ssp_11xx.c **** 
 213:../../lpc11cx4-library/lpc_chip_11cxx_lib/src/ssp_11xx.c **** 			/* Check overrun error */
 214:../../lpc11cx4-library/lpc_chip_11cxx_lib/src/ssp_11xx.c **** 			if (Chip_SSP_GetRawIntStatus(pSSP, SSP_RORRIS) == SET) {
 215:../../lpc11cx4-library/lpc_chip_11cxx_lib/src/ssp_11xx.c **** 				return ERROR;
 216:../../lpc11cx4-library/lpc_chip_11cxx_lib/src/ssp_11xx.c **** 			}
 217:../../lpc11cx4-library/lpc_chip_11cxx_lib/src/ssp_11xx.c **** 
 218:../../lpc11cx4-library/lpc_chip_11cxx_lib/src/ssp_11xx.c **** 			/* Check for any data available in RX FIFO */
 219:../../lpc11cx4-library/lpc_chip_11cxx_lib/src/ssp_11xx.c **** 			SSP_Read1BFifo(pSSP, xf_setup);
 220:../../lpc11cx4-library/lpc_chip_11cxx_lib/src/ssp_11xx.c **** 		}
 221:../../lpc11cx4-library/lpc_chip_11cxx_lib/src/ssp_11xx.c **** 	}
 222:../../lpc11cx4-library/lpc_chip_11cxx_lib/src/ssp_11xx.c **** 	if (xf_setup->tx_data) {
 223:../../lpc11cx4-library/lpc_chip_11cxx_lib/src/ssp_11xx.c **** 		return xf_setup->tx_cnt;
 224:../../lpc11cx4-library/lpc_chip_11cxx_lib/src/ssp_11xx.c **** 	}
 225:../../lpc11cx4-library/lpc_chip_11cxx_lib/src/ssp_11xx.c **** 	else if (xf_setup->rx_data) {
 226:../../lpc11cx4-library/lpc_chip_11cxx_lib/src/ssp_11xx.c **** 		return xf_setup->rx_cnt;
 227:../../lpc11cx4-library/lpc_chip_11cxx_lib/src/ssp_11xx.c **** 	}
 228:../../lpc11cx4-library/lpc_chip_11cxx_lib/src/ssp_11xx.c **** 
 229:../../lpc11cx4-library/lpc_chip_11cxx_lib/src/ssp_11xx.c **** 	return 0;
 230:../../lpc11cx4-library/lpc_chip_11cxx_lib/src/ssp_11xx.c **** }
 478              		.loc 1 230 0
 479              		@ sp needed	@
 480              	.LVL26:
 481              	.LVL27:
 482 00a2 04BC     		pop	{r2}
 483 00a4 9046     		mov	r8, r2
 484 00a6 F0BD     		pop	{r4, r5, r6, r7, pc}
 485              	.LVL28:
 486              	.L21:
 487              	.LBB289:
 488              	.LBB290:
 489              	.LBB291:
 490              	.LBB292:
 491              		.loc 2 377 0
 492 00a8 FF23     		mov	r3, #255	@ tmp238,
 493              	.LBE292:
 494              	.LBE291:
 495              	.LBE290:
 496              	.LBE289:
 497              	.LBB302:
 498              	.LBB303:
 284:../../lpc11cx4-library/lpc_chip_11cxx_lib/inc/ssp_11xx.h **** }
 499              		.loc 2 284 0
ARM GAS  /tmp/ccjsfSlY.s 			page 21


 500 00aa 0225     		mov	r5, #2	@ tmp237,
 501              	.LBE303:
 502              	.LBE302:
 503              	.LBB306:
 504              	.LBB299:
 505              	.LBB295:
 506              	.LBB293:
 507              		.loc 2 377 0
 508 00ac 9846     		mov	r8, r3	@ tmp238, tmp238
 509              	.LBE293:
 510              	.LBE295:
 511              	.LBE299:
 512              	.LBE306:
 513              	.LBB307:
 514              	.LBB308:
 311:../../lpc11cx4-library/lpc_chip_11cxx_lib/inc/ssp_11xx.h **** }
 515              		.loc 2 311 0
 516 00ae 0127     		mov	r7, #1	@ tmp239,
 517 00b0 0DE0     		b	.L71	@
 518              	.LVL29:
 519              	.L76:
 520              	.LBE308:
 521              	.LBE307:
 207:../../lpc11cx4-library/lpc_chip_11cxx_lib/src/ssp_11xx.c **** 			/* write data to buffer */
 522              		.loc 1 207 0 discriminator 1
 523 00b2 7268     		ldr	r2, [r6, #4]	@ D.6859, xf_setup_14(D)->tx_cnt
 524 00b4 111C     		mov	r1, r2	@ D.6858, D.6859
 525 00b6 9342     		cmp	r3, r2	@ D.6859, D.6859
 526 00b8 1CD9     		bls	.L42	@,
 527              	.LVL30:
 528              	.LBB310:
 529              	.LBB304:
 284:../../lpc11cx4-library/lpc_chip_11cxx_lib/inc/ssp_11xx.h **** }
 530              		.loc 2 284 0
 531 00ba E368     		ldr	r3, [r4, #12]	@ D.6859, pSSP_10(D)->SR
 532              	.LBE304:
 533              	.LBE310:
 209:../../lpc11cx4-library/lpc_chip_11cxx_lib/src/ssp_11xx.c **** 				SSP_Write1BFifo(pSSP, xf_setup);
 534              		.loc 1 209 0
 535 00bc 1D42     		tst	r5, r3	@ tmp237, D.6859
 536 00be 10D1     		bne	.L44	@,
 537              	.L36:
 538              	.LVL31:
 539              	.LBB311:
 540              	.LBB309:
 311:../../lpc11cx4-library/lpc_chip_11cxx_lib/inc/ssp_11xx.h **** }
 541              		.loc 2 311 0
 542 00c0 A369     		ldr	r3, [r4, #24]	@ D.6859, pSSP_10(D)->RIS
 543              	.LBE309:
 544              	.LBE311:
 214:../../lpc11cx4-library/lpc_chip_11cxx_lib/src/ssp_11xx.c **** 				return ERROR;
 545              		.loc 1 214 0
 546 00c2 1F42     		tst	r7, r3	@ tmp239, D.6859
 547 00c4 ECD1     		bne	.L39	@,
 219:../../lpc11cx4-library/lpc_chip_11cxx_lib/src/ssp_11xx.c **** 		}
 548              		.loc 1 219 0
 549 00c6 201C     		mov	r0, r4	@, pSSP
ARM GAS  /tmp/ccjsfSlY.s 			page 22


 550 00c8 311C     		mov	r1, r6	@, xf_setup
 551 00ca FFF7FEFF 		bl	SSP_Read1BFifo	@
 552              	.LVL32:
 553              	.L71:
 207:../../lpc11cx4-library/lpc_chip_11cxx_lib/src/ssp_11xx.c **** 			/* write data to buffer */
 554              		.loc 1 207 0
 555 00ce 3369     		ldr	r3, [r6, #16]	@ D.6859, xf_setup_14(D)->length
 556 00d0 F268     		ldr	r2, [r6, #12]	@ tmp252, xf_setup_14(D)->rx_cnt
 557 00d2 9A42     		cmp	r2, r3	@ tmp252, D.6859
 558 00d4 EDD2     		bcs	.L76	@,
 559              	.LVL33:
 560              	.LBB312:
 561              	.LBB305:
 284:../../lpc11cx4-library/lpc_chip_11cxx_lib/inc/ssp_11xx.h **** }
 562              		.loc 2 284 0
 563 00d6 E268     		ldr	r2, [r4, #12]	@ D.6859, pSSP_10(D)->SR
 564              	.LBE305:
 565              	.LBE312:
 209:../../lpc11cx4-library/lpc_chip_11cxx_lib/src/ssp_11xx.c **** 				SSP_Write1BFifo(pSSP, xf_setup);
 566              		.loc 1 209 0
 567 00d8 1542     		tst	r5, r2	@ tmp237, D.6859
 568 00da F1D0     		beq	.L36	@,
 209:../../lpc11cx4-library/lpc_chip_11cxx_lib/src/ssp_11xx.c **** 				SSP_Write1BFifo(pSSP, xf_setup);
 569              		.loc 1 209 0 is_stmt 0 discriminator 1
 570 00dc 7268     		ldr	r2, [r6, #4]	@ D.6859, xf_setup_14(D)->tx_cnt
 571 00de 9342     		cmp	r3, r2	@ D.6859, D.6859
 572 00e0 EED9     		bls	.L36	@,
 573              	.L44:
 574 00e2 3368     		ldr	r3, [r6]	@ D.6860, MEM[(void * *)xf_setup_14(D)]
 575              	.LVL34:
 576              	.LBB313:
 577              	.LBB300:
  62:../../lpc11cx4-library/lpc_chip_11cxx_lib/src/ssp_11xx.c **** 		Chip_SSP_SendFrame(pSSP, (*(uint8_t *) ((uint32_t) xf_setup->tx_data + xf_setup->tx_cnt)));
 578              		.loc 1 62 0 is_stmt 1
 579 00e4 002B     		cmp	r3, #0	@ D.6860,
 580 00e6 11D0     		beq	.L37	@,
 581              	.LVL35:
 582              	.LBB296:
 583              	.LBB297:
 584              		.loc 2 377 0
 585 00e8 9B5C     		ldrb	r3, [r3, r2]	@ D.6859, *_73
 586              	.LVL36:
 587 00ea A360     		str	r3, [r4, #8]	@ D.6859,
 588              	.LVL37:
 589              	.L38:
 590              	.LBE297:
 591              	.LBE296:
  69:../../lpc11cx4-library/lpc_chip_11cxx_lib/src/ssp_11xx.c **** }
 592              		.loc 1 69 0
 593 00ec 7368     		ldr	r3, [r6, #4]	@ tmp250, MEM[(uint32_t *)xf_setup_14(D) + 4B]
 594 00ee 0133     		add	r3, r3, #1	@ D.6859,
 595 00f0 7360     		str	r3, [r6, #4]	@ D.6859, MEM[(uint32_t *)xf_setup_14(D) + 4B]
 596 00f2 E5E7     		b	.L36	@
 597              	.LVL38:
 598              	.L42:
 599              	.LBE300:
 600              	.LBE313:
ARM GAS  /tmp/ccjsfSlY.s 			page 23


 222:../../lpc11cx4-library/lpc_chip_11cxx_lib/src/ssp_11xx.c **** 		return xf_setup->tx_cnt;
 601              		.loc 1 222 0
 602 00f4 3368     		ldr	r3, [r6]	@ tmp248, xf_setup_14(D)->tx_data
 223:../../lpc11cx4-library/lpc_chip_11cxx_lib/src/ssp_11xx.c **** 	}
 603              		.loc 1 223 0
 604 00f6 081C     		mov	r0, r1	@ D.6858, D.6858
 222:../../lpc11cx4-library/lpc_chip_11cxx_lib/src/ssp_11xx.c **** 		return xf_setup->tx_cnt;
 605              		.loc 1 222 0
 606 00f8 002B     		cmp	r3, #0	@ tmp248,
 607 00fa D2D1     		bne	.L59	@,
 225:../../lpc11cx4-library/lpc_chip_11cxx_lib/src/ssp_11xx.c **** 		return xf_setup->rx_cnt;
 608              		.loc 1 225 0
 609 00fc B368     		ldr	r3, [r6, #8]	@ tmp254, xf_setup_14(D)->rx_data
 610 00fe 002B     		cmp	r3, #0	@ tmp254,
 611 0100 CED0     		beq	.L39	@,
 226:../../lpc11cx4-library/lpc_chip_11cxx_lib/src/ssp_11xx.c **** 	}
 612              		.loc 1 226 0
 613 0102 F068     		ldr	r0, [r6, #12]	@ D.6858, xf_setup_14(D)->rx_cnt
 614 0104 CDE7     		b	.L59	@
 615              	.LVL39:
 616              	.L24:
 617              	.LBB314:
 618              	.LBB259:
 619              	.LBB255:
 620              	.LBB251:
 621              		.loc 2 377 0
 622 0106 4246     		mov	r2, r8	@ tmp234, tmp234
 623 0108 A260     		str	r2, [r4, #8]	@ tmp234,
 624 010a C2E7     		b	.L25	@
 625              	.LVL40:
 626              	.L37:
 627              	.LBE251:
 628              	.LBE255:
 629              	.LBE259:
 630              	.LBE314:
 631              	.LBB315:
 632              	.LBB301:
 633              	.LBB298:
 634              	.LBB294:
 635 010c 4346     		mov	r3, r8	@ tmp238, tmp238
 636 010e A360     		str	r3, [r4, #8]	@ tmp238,
 637 0110 ECE7     		b	.L38	@
 638              	.L78:
 639 0112 C046     		.align	2
 640              	.L77:
 641 0114 FFFF0000 		.word	65535
 642              	.LBE294:
 643              	.LBE298:
 644              	.LBE301:
 645              	.LBE315:
 646              		.cfi_endproc
 647              	.LFE207:
 648              		.size	Chip_SSP_RWFrames_Blocking, .-Chip_SSP_RWFrames_Blocking
 649              		.section	.text.Chip_SSP_WriteFrames_Blocking,"ax",%progbits
 650              		.align	2
 651              		.global	Chip_SSP_WriteFrames_Blocking
 652              		.code	16
ARM GAS  /tmp/ccjsfSlY.s 			page 24


 653              		.thumb_func
 654              		.type	Chip_SSP_WriteFrames_Blocking, %function
 655              	Chip_SSP_WriteFrames_Blocking:
 656              	.LFB208:
 231:../../lpc11cx4-library/lpc_chip_11cxx_lib/src/ssp_11xx.c **** 
 232:../../lpc11cx4-library/lpc_chip_11cxx_lib/src/ssp_11xx.c **** /* SSP Polling Write in blocking mode */
 233:../../lpc11cx4-library/lpc_chip_11cxx_lib/src/ssp_11xx.c **** uint32_t Chip_SSP_WriteFrames_Blocking(LPC_SSP_T *pSSP, uint8_t *buffer, uint32_t buffer_len)
 234:../../lpc11cx4-library/lpc_chip_11cxx_lib/src/ssp_11xx.c **** {
 657              		.loc 1 234 0
 658              		.cfi_startproc
 659              	.LVL41:
 660 0000 F0B5     		push	{r4, r5, r6, r7, lr}	@
 661              		.cfi_def_cfa_offset 20
 662              		.cfi_offset 4, -20
 663              		.cfi_offset 5, -16
 664              		.cfi_offset 6, -12
 665              		.cfi_offset 7, -8
 666              		.cfi_offset 14, -4
 667 0002 4646     		mov	r6, r8	@,
 668 0004 4F46     		mov	r7, r9	@,
 669              	.LBB316:
 670              	.LBB317:
 284:../../lpc11cx4-library/lpc_chip_11cxx_lib/inc/ssp_11xx.h **** }
 671              		.loc 2 284 0
 672 0006 C368     		ldr	r3, [r0, #12]	@ D.6876, pSSP_25(D)->SR
 673              	.LBE317:
 674              	.LBE316:
 675              		.loc 1 234 0
 676 0008 C0B4     		push	{r6, r7}	@
 677              		.cfi_def_cfa_offset 28
 678              		.cfi_offset 8, -28
 679              		.cfi_offset 9, -24
 680              		.loc 1 234 0
 681 000a 8846     		mov	r8, r1	@ buffer, buffer
 235:../../lpc11cx4-library/lpc_chip_11cxx_lib/src/ssp_11xx.c **** 	uint32_t tx_cnt = 0, rx_cnt = 0;
 236:../../lpc11cx4-library/lpc_chip_11cxx_lib/src/ssp_11xx.c **** 
 237:../../lpc11cx4-library/lpc_chip_11cxx_lib/src/ssp_11xx.c **** 	/* Clear all remaining frames in RX FIFO */
 238:../../lpc11cx4-library/lpc_chip_11cxx_lib/src/ssp_11xx.c **** 	while (Chip_SSP_GetStatus(pSSP, SSP_STAT_RNE)) {
 682              		.loc 1 238 0
 683 000c 5B07     		lsl	r3, r3, #29	@ tmp188, D.6876,
 684 000e 04D5     		bpl	.L80	@,
 685              	.LBB320:
 686              	.LBB318:
 284:../../lpc11cx4-library/lpc_chip_11cxx_lib/inc/ssp_11xx.h **** }
 687              		.loc 2 284 0
 688 0010 0424     		mov	r4, #4	@ tmp187,
 689              	.L110:
 690              	.LVL42:
 691              	.LBE318:
 692              	.LBE320:
 693              	.LBB321:
 694              	.LBB322:
 366:../../lpc11cx4-library/lpc_chip_11cxx_lib/inc/ssp_11xx.h **** }
 695              		.loc 2 366 0
 696 0012 8368     		ldr	r3, [r0, #8]	@ D.6876, pSSP_25(D)->DR
 697              	.LBE322:
 698              	.LBE321:
ARM GAS  /tmp/ccjsfSlY.s 			page 25


 699              	.LBB323:
 700              	.LBB319:
 284:../../lpc11cx4-library/lpc_chip_11cxx_lib/inc/ssp_11xx.h **** }
 701              		.loc 2 284 0
 702 0014 C368     		ldr	r3, [r0, #12]	@ D.6876, pSSP_25(D)->SR
 703              	.LBE319:
 704              	.LBE323:
 705              		.loc 1 238 0
 706 0016 1C42     		tst	r4, r3	@ tmp187, D.6876
 707 0018 FBD1     		bne	.L110	@,
 708              	.LVL43:
 709              	.L80:
 710              	.LBB324:
 711              	.LBB325:
 336:../../lpc11cx4-library/lpc_chip_11cxx_lib/inc/ssp_11xx.h **** }
 712              		.loc 2 336 0
 713 001a 0323     		mov	r3, #3	@ tmp155,
 714              	.LBE325:
 715              	.LBE324:
 239:../../lpc11cx4-library/lpc_chip_11cxx_lib/src/ssp_11xx.c **** 		Chip_SSP_ReceiveFrame(pSSP);
 240:../../lpc11cx4-library/lpc_chip_11cxx_lib/src/ssp_11xx.c **** 	}
 241:../../lpc11cx4-library/lpc_chip_11cxx_lib/src/ssp_11xx.c **** 
 242:../../lpc11cx4-library/lpc_chip_11cxx_lib/src/ssp_11xx.c **** 	/* Clear status */
 243:../../lpc11cx4-library/lpc_chip_11cxx_lib/src/ssp_11xx.c **** 	Chip_SSP_ClearIntPending(pSSP, SSP_INT_CLEAR_BITMASK);
 244:../../lpc11cx4-library/lpc_chip_11cxx_lib/src/ssp_11xx.c **** 
 245:../../lpc11cx4-library/lpc_chip_11cxx_lib/src/ssp_11xx.c **** 	if (Chip_SSP_GetDataSize(pSSP) > SSP_BITS_8) {
 716              		.loc 1 245 0
 717 001c 0F24     		mov	r4, #15	@ tmp160,
 718              	.LBB327:
 719              	.LBB326:
 336:../../lpc11cx4-library/lpc_chip_11cxx_lib/inc/ssp_11xx.h **** }
 720              		.loc 2 336 0
 721 001e 0362     		str	r3, [r0, #32]	@ tmp155, pSSP_25(D)->ICR
 722              	.LVL44:
 723              	.LBE326:
 724              	.LBE327:
 725              	.LBB328:
 726              	.LBB329:
 322:../../lpc11cx4-library/lpc_chip_11cxx_lib/inc/ssp_11xx.h **** }
 727              		.loc 2 322 0
 728 0020 0368     		ldr	r3, [r0]	@ D.6876, pSSP_25(D)->CR0
 729              	.LBE329:
 730              	.LBE328:
 731              		.loc 1 245 0
 732 0022 2340     		and	r3, r4	@ tmp161, tmp160
 733 0024 072B     		cmp	r3, #7	@ tmp161,
 734 0026 2CD8     		bhi	.L82	@,
 735              	.LBB330:
 736              	.LBB331:
 737              	.LBB332:
 284:../../lpc11cx4-library/lpc_chip_11cxx_lib/inc/ssp_11xx.h **** }
 738              		.loc 2 284 0
 739 0028 0221     		mov	r1, #2	@ tmp184,
 740              	.LVL45:
 741              	.LBE332:
 742              	.LBE331:
 743              	.LBE330:
ARM GAS  /tmp/ccjsfSlY.s 			page 26


 744              		.loc 1 245 0
 745 002a 0023     		mov	r3, #0	@ rx_cnt,
 746 002c 0026     		mov	r6, #0	@ tx_cnt,
 747              	.LBB357:
 748              	.LBB336:
 749              	.LBB333:
 284:../../lpc11cx4-library/lpc_chip_11cxx_lib/inc/ssp_11xx.h **** }
 750              		.loc 2 284 0
 751 002e 8C46     		mov	ip, r1	@ tmp184, tmp184
 752              	.LBE333:
 753              	.LBE336:
 754              	.LBB337:
 755              	.LBB338:
 311:../../lpc11cx4-library/lpc_chip_11cxx_lib/inc/ssp_11xx.h **** }
 756              		.loc 2 311 0
 757 0030 0127     		mov	r7, #1	@ tmp185,
 758              	.LBE338:
 759              	.LBE337:
 760              	.LBB341:
 761              	.LBB342:
 284:../../lpc11cx4-library/lpc_chip_11cxx_lib/inc/ssp_11xx.h **** }
 762              		.loc 2 284 0
 763 0032 0425     		mov	r5, #4	@ tmp186,
 764              	.LVL46:
 765              	.L83:
 766              	.LBE342:
 767              	.LBE341:
 246:../../lpc11cx4-library/lpc_chip_11cxx_lib/src/ssp_11xx.c **** 		uint16_t *wdata16;
 247:../../lpc11cx4-library/lpc_chip_11cxx_lib/src/ssp_11xx.c **** 
 248:../../lpc11cx4-library/lpc_chip_11cxx_lib/src/ssp_11xx.c **** 		wdata16 = (uint16_t *) buffer;
 249:../../lpc11cx4-library/lpc_chip_11cxx_lib/src/ssp_11xx.c **** 
 250:../../lpc11cx4-library/lpc_chip_11cxx_lib/src/ssp_11xx.c **** 		while (tx_cnt < buffer_len || rx_cnt < buffer_len) {
 251:../../lpc11cx4-library/lpc_chip_11cxx_lib/src/ssp_11xx.c **** 			/* write data to buffer */
 252:../../lpc11cx4-library/lpc_chip_11cxx_lib/src/ssp_11xx.c **** 			if ((Chip_SSP_GetStatus(pSSP, SSP_STAT_TNF) == SET) && (tx_cnt < buffer_len)) {
 253:../../lpc11cx4-library/lpc_chip_11cxx_lib/src/ssp_11xx.c **** 				Chip_SSP_SendFrame(pSSP, *wdata16);
 254:../../lpc11cx4-library/lpc_chip_11cxx_lib/src/ssp_11xx.c **** 				wdata16++;
 255:../../lpc11cx4-library/lpc_chip_11cxx_lib/src/ssp_11xx.c **** 				tx_cnt += 2;
 256:../../lpc11cx4-library/lpc_chip_11cxx_lib/src/ssp_11xx.c **** 			}
 257:../../lpc11cx4-library/lpc_chip_11cxx_lib/src/ssp_11xx.c **** 
 258:../../lpc11cx4-library/lpc_chip_11cxx_lib/src/ssp_11xx.c **** 			/* Check overrun error */
 259:../../lpc11cx4-library/lpc_chip_11cxx_lib/src/ssp_11xx.c **** 			if (Chip_SSP_GetRawIntStatus(pSSP, SSP_RORRIS) == SET) {
 260:../../lpc11cx4-library/lpc_chip_11cxx_lib/src/ssp_11xx.c **** 				return ERROR;
 261:../../lpc11cx4-library/lpc_chip_11cxx_lib/src/ssp_11xx.c **** 			}
 262:../../lpc11cx4-library/lpc_chip_11cxx_lib/src/ssp_11xx.c **** 
 263:../../lpc11cx4-library/lpc_chip_11cxx_lib/src/ssp_11xx.c **** 			/* Check for any data available in RX FIFO */
 264:../../lpc11cx4-library/lpc_chip_11cxx_lib/src/ssp_11xx.c **** 			while (Chip_SSP_GetStatus(pSSP, SSP_STAT_RNE) == SET) {
 265:../../lpc11cx4-library/lpc_chip_11cxx_lib/src/ssp_11xx.c **** 				Chip_SSP_ReceiveFrame(pSSP);	/* read dummy data */
 266:../../lpc11cx4-library/lpc_chip_11cxx_lib/src/ssp_11xx.c **** 				rx_cnt += 2;
 267:../../lpc11cx4-library/lpc_chip_11cxx_lib/src/ssp_11xx.c **** 			}
 268:../../lpc11cx4-library/lpc_chip_11cxx_lib/src/ssp_11xx.c **** 		}
 269:../../lpc11cx4-library/lpc_chip_11cxx_lib/src/ssp_11xx.c **** 	}
 270:../../lpc11cx4-library/lpc_chip_11cxx_lib/src/ssp_11xx.c **** 	else {
 271:../../lpc11cx4-library/lpc_chip_11cxx_lib/src/ssp_11xx.c **** 		uint8_t *wdata8;
 272:../../lpc11cx4-library/lpc_chip_11cxx_lib/src/ssp_11xx.c **** 
 273:../../lpc11cx4-library/lpc_chip_11cxx_lib/src/ssp_11xx.c **** 		wdata8 = buffer;
 274:../../lpc11cx4-library/lpc_chip_11cxx_lib/src/ssp_11xx.c **** 
 275:../../lpc11cx4-library/lpc_chip_11cxx_lib/src/ssp_11xx.c **** 		while (tx_cnt < buffer_len || rx_cnt < buffer_len) {
ARM GAS  /tmp/ccjsfSlY.s 			page 27


 768              		.loc 1 275 0
 769 0034 9642     		cmp	r6, r2	@ tx_cnt, buffer_len
 770 0036 11D3     		bcc	.L94	@,
 771              	.L125:
 772              		.loc 1 275 0 is_stmt 0 discriminator 1
 773 0038 9342     		cmp	r3, r2	@ rx_cnt, buffer_len
 774 003a 42D2     		bcs	.L122	@,
 775              	.LVL47:
 776              	.LBB345:
 777              	.LBB334:
 284:../../lpc11cx4-library/lpc_chip_11cxx_lib/inc/ssp_11xx.h **** }
 778              		.loc 2 284 0 is_stmt 1
 779 003c C468     		ldr	r4, [r0, #12]	@ D.6876, pSSP_25(D)->SR
 780              	.L99:
 781              	.LVL48:
 782              	.LBE334:
 783              	.LBE345:
 784              	.LBB346:
 785              	.LBB339:
 311:../../lpc11cx4-library/lpc_chip_11cxx_lib/inc/ssp_11xx.h **** }
 786              		.loc 2 311 0
 787 003e 8469     		ldr	r4, [r0, #24]	@ D.6876, pSSP_25(D)->RIS
 788              	.LBE339:
 789              	.LBE346:
 276:../../lpc11cx4-library/lpc_chip_11cxx_lib/src/ssp_11xx.c **** 			/* write data to buffer */
 277:../../lpc11cx4-library/lpc_chip_11cxx_lib/src/ssp_11xx.c **** 			if ((Chip_SSP_GetStatus(pSSP, SSP_STAT_TNF) == SET) && (tx_cnt < buffer_len)) {
 278:../../lpc11cx4-library/lpc_chip_11cxx_lib/src/ssp_11xx.c **** 				Chip_SSP_SendFrame(pSSP, *wdata8);
 279:../../lpc11cx4-library/lpc_chip_11cxx_lib/src/ssp_11xx.c **** 				wdata8++;
 280:../../lpc11cx4-library/lpc_chip_11cxx_lib/src/ssp_11xx.c **** 				tx_cnt++;
 281:../../lpc11cx4-library/lpc_chip_11cxx_lib/src/ssp_11xx.c **** 			}
 282:../../lpc11cx4-library/lpc_chip_11cxx_lib/src/ssp_11xx.c **** 
 283:../../lpc11cx4-library/lpc_chip_11cxx_lib/src/ssp_11xx.c **** 			/* Check overrun error */
 284:../../lpc11cx4-library/lpc_chip_11cxx_lib/src/ssp_11xx.c **** 			if (Chip_SSP_GetRawIntStatus(pSSP, SSP_RORRIS) == SET) {
 790              		.loc 1 284 0
 791 0040 2742     		tst	r7, r4	@ tmp185, D.6876
 792 0042 19D1     		bne	.L91	@,
 793              	.L126:
 794              	.LVL49:
 795              	.LBB347:
 796              	.LBB343:
 284:../../lpc11cx4-library/lpc_chip_11cxx_lib/inc/ssp_11xx.h **** }
 797              		.loc 2 284 0
 798 0044 C468     		ldr	r4, [r0, #12]	@ D.6876,
 799              	.LBE343:
 800              	.LBE347:
 285:../../lpc11cx4-library/lpc_chip_11cxx_lib/src/ssp_11xx.c **** 				return ERROR;
 286:../../lpc11cx4-library/lpc_chip_11cxx_lib/src/ssp_11xx.c **** 			}
 287:../../lpc11cx4-library/lpc_chip_11cxx_lib/src/ssp_11xx.c **** 
 288:../../lpc11cx4-library/lpc_chip_11cxx_lib/src/ssp_11xx.c **** 			/* Check for any data available in RX FIFO */
 289:../../lpc11cx4-library/lpc_chip_11cxx_lib/src/ssp_11xx.c **** 			while (Chip_SSP_GetStatus(pSSP, SSP_STAT_RNE) == SET && rx_cnt < buffer_len) {
 801              		.loc 1 289 0
 802 0046 2542     		tst	r5, r4	@ tmp186, D.6876
 803 0048 F4D0     		beq	.L83	@,
 804              	.L121:
 805 004a 9342     		cmp	r3, r2	@ rx_cnt, buffer_len
 806 004c F2D2     		bcs	.L83	@,
 807              	.LVL50:
ARM GAS  /tmp/ccjsfSlY.s 			page 28


 808              	.LBB348:
 809              	.LBB349:
 366:../../lpc11cx4-library/lpc_chip_11cxx_lib/inc/ssp_11xx.h **** }
 810              		.loc 2 366 0
 811 004e 8468     		ldr	r4, [r0, #8]	@ D.6876, pSSP_25(D)->DR
 812              	.LBE349:
 813              	.LBE348:
 814              	.LBB350:
 815              	.LBB344:
 284:../../lpc11cx4-library/lpc_chip_11cxx_lib/inc/ssp_11xx.h **** }
 816              		.loc 2 284 0
 817 0050 C468     		ldr	r4, [r0, #12]	@ D.6876,
 818              	.LBE344:
 819              	.LBE350:
 290:../../lpc11cx4-library/lpc_chip_11cxx_lib/src/ssp_11xx.c **** 				Chip_SSP_ReceiveFrame(pSSP);	/* read dummy data */
 291:../../lpc11cx4-library/lpc_chip_11cxx_lib/src/ssp_11xx.c **** 				rx_cnt++;
 820              		.loc 1 291 0
 821 0052 0133     		add	r3, r3, #1	@ rx_cnt,
 822              	.LVL51:
 289:../../lpc11cx4-library/lpc_chip_11cxx_lib/src/ssp_11xx.c **** 				Chip_SSP_ReceiveFrame(pSSP);	/* read dummy data */
 823              		.loc 1 289 0
 824 0054 2542     		tst	r5, r4	@ tmp186, D.6876
 825 0056 F8D1     		bne	.L121	@,
 275:../../lpc11cx4-library/lpc_chip_11cxx_lib/src/ssp_11xx.c **** 			/* write data to buffer */
 826              		.loc 1 275 0
 827 0058 9642     		cmp	r6, r2	@ tx_cnt, buffer_len
 828 005a EDD2     		bcs	.L125	@,
 829              	.LVL52:
 830              	.L94:
 277:../../lpc11cx4-library/lpc_chip_11cxx_lib/src/ssp_11xx.c **** 				Chip_SSP_SendFrame(pSSP, *wdata8);
 831              		.loc 1 277 0
 832 005c 6146     		mov	r1, ip	@ tmp184, tmp184
 833              	.LBB351:
 834              	.LBB335:
 284:../../lpc11cx4-library/lpc_chip_11cxx_lib/inc/ssp_11xx.h **** }
 835              		.loc 2 284 0
 836 005e C468     		ldr	r4, [r0, #12]	@ D.6876, pSSP_25(D)->SR
 837              	.LBE335:
 838              	.LBE351:
 277:../../lpc11cx4-library/lpc_chip_11cxx_lib/src/ssp_11xx.c **** 				Chip_SSP_SendFrame(pSSP, *wdata8);
 839              		.loc 1 277 0
 840 0060 2142     		tst	r1, r4	@ tmp184, D.6876
 841 0062 ECD0     		beq	.L99	@,
 842              	.LVL53:
 843              	.LBB352:
 844              	.LBB353:
 845              		.loc 2 377 0
 846 0064 4146     		mov	r1, r8	@ buffer, buffer
 847 0066 0C78     		ldrb	r4, [r1]	@ D.6876, *buffer_13
 848              	.LBE353:
 849              	.LBE352:
 279:../../lpc11cx4-library/lpc_chip_11cxx_lib/src/ssp_11xx.c **** 				tx_cnt++;
 850              		.loc 1 279 0
 851 0068 0121     		mov	r1, #1	@ tmp193,
 852 006a 8946     		mov	r9, r1	@ tmp193, tmp193
 853              	.LBB355:
 854              	.LBB354:
ARM GAS  /tmp/ccjsfSlY.s 			page 29


 855              		.loc 2 377 0
 856 006c 8460     		str	r4, [r0, #8]	@ D.6876, pSSP_25(D)->DR
 857              	.LVL54:
 858              	.LBE354:
 859              	.LBE355:
 860              	.LBB356:
 861              	.LBB340:
 311:../../lpc11cx4-library/lpc_chip_11cxx_lib/inc/ssp_11xx.h **** }
 862              		.loc 2 311 0
 863 006e 8469     		ldr	r4, [r0, #24]	@ D.6876, pSSP_25(D)->RIS
 864              	.LVL55:
 865              	.LBE340:
 866              	.LBE356:
 279:../../lpc11cx4-library/lpc_chip_11cxx_lib/src/ssp_11xx.c **** 				tx_cnt++;
 867              		.loc 1 279 0
 868 0070 C844     		add	r8, r8, r9	@ buffer, tmp193
 869              	.LVL56:
 280:../../lpc11cx4-library/lpc_chip_11cxx_lib/src/ssp_11xx.c **** 			}
 870              		.loc 1 280 0
 871 0072 0136     		add	r6, r6, #1	@ tx_cnt,
 872              	.LVL57:
 284:../../lpc11cx4-library/lpc_chip_11cxx_lib/src/ssp_11xx.c **** 				return ERROR;
 873              		.loc 1 284 0
 874 0074 2742     		tst	r7, r4	@ tmp185, D.6876
 875 0076 E5D0     		beq	.L126	@,
 876              	.LVL58:
 877              	.L91:
 878              	.LBE357:
 879              	.LBB358:
 260:../../lpc11cx4-library/lpc_chip_11cxx_lib/src/ssp_11xx.c **** 			}
 880              		.loc 1 260 0
 881 0078 0020     		mov	r0, #0	@ D.6877,
 882              	.LVL59:
 883              	.L119:
 884              	.LBE358:
 292:../../lpc11cx4-library/lpc_chip_11cxx_lib/src/ssp_11xx.c **** 			}
 293:../../lpc11cx4-library/lpc_chip_11cxx_lib/src/ssp_11xx.c **** 		}
 294:../../lpc11cx4-library/lpc_chip_11cxx_lib/src/ssp_11xx.c **** 	}
 295:../../lpc11cx4-library/lpc_chip_11cxx_lib/src/ssp_11xx.c **** 
 296:../../lpc11cx4-library/lpc_chip_11cxx_lib/src/ssp_11xx.c **** 	return tx_cnt;
 297:../../lpc11cx4-library/lpc_chip_11cxx_lib/src/ssp_11xx.c **** 
 298:../../lpc11cx4-library/lpc_chip_11cxx_lib/src/ssp_11xx.c **** }
 885              		.loc 1 298 0
 886              		@ sp needed	@
 887              	.LVL60:
 888 007a 0CBC     		pop	{r2, r3}
 889 007c 9046     		mov	r8, r2
 890 007e 9946     		mov	r9, r3
 891 0080 F0BD     		pop	{r4, r5, r6, r7, pc}
 892              	.LVL61:
 893              	.L82:
 894              	.LBB381:
 895              	.LBB359:
 896              	.LBB360:
 284:../../lpc11cx4-library/lpc_chip_11cxx_lib/inc/ssp_11xx.h **** }
 897              		.loc 2 284 0
 898 0082 0221     		mov	r1, #2	@ tmp180,
ARM GAS  /tmp/ccjsfSlY.s 			page 30


 899              	.LVL62:
 900              	.LBE360:
 901              	.LBE359:
 902              	.LBE381:
 245:../../lpc11cx4-library/lpc_chip_11cxx_lib/src/ssp_11xx.c **** 		uint16_t *wdata16;
 903              		.loc 1 245 0
 904 0084 0023     		mov	r3, #0	@ rx_cnt,
 905 0086 0026     		mov	r6, #0	@ tx_cnt,
 906              	.LBB382:
 907              	.LBB364:
 908              	.LBB361:
 284:../../lpc11cx4-library/lpc_chip_11cxx_lib/inc/ssp_11xx.h **** }
 909              		.loc 2 284 0
 910 0088 8C46     		mov	ip, r1	@ tmp180, tmp180
 911              	.LBE361:
 912              	.LBE364:
 913              	.LBB365:
 914              	.LBB366:
 311:../../lpc11cx4-library/lpc_chip_11cxx_lib/inc/ssp_11xx.h **** }
 915              		.loc 2 311 0
 916 008a 0127     		mov	r7, #1	@ tmp181,
 917              	.LBE366:
 918              	.LBE365:
 919              	.LBB368:
 920              	.LBB369:
 284:../../lpc11cx4-library/lpc_chip_11cxx_lib/inc/ssp_11xx.h **** }
 921              		.loc 2 284 0
 922 008c 0425     		mov	r5, #4	@ tmp182,
 923              	.LVL63:
 924              	.L84:
 925              	.LBE369:
 926              	.LBE368:
 250:../../lpc11cx4-library/lpc_chip_11cxx_lib/src/ssp_11xx.c **** 			/* write data to buffer */
 927              		.loc 1 250 0
 928 008e 9642     		cmp	r6, r2	@ tx_cnt, buffer_len
 929 0090 0BD3     		bcc	.L89	@,
 250:../../lpc11cx4-library/lpc_chip_11cxx_lib/src/ssp_11xx.c **** 			/* write data to buffer */
 930              		.loc 1 250 0 is_stmt 0 discriminator 1
 931 0092 9342     		cmp	r3, r2	@ rx_cnt, buffer_len
 932 0094 15D2     		bcs	.L122	@,
 933              	.LVL64:
 934              	.LBB371:
 935              	.LBB362:
 284:../../lpc11cx4-library/lpc_chip_11cxx_lib/inc/ssp_11xx.h **** }
 936              		.loc 2 284 0 is_stmt 1
 937 0096 C468     		ldr	r4, [r0, #12]	@ D.6876, pSSP_25(D)->SR
 938              	.L97:
 939              	.LVL65:
 940              	.LBE362:
 941              	.LBE371:
 942              	.LBB372:
 943              	.LBB367:
 311:../../lpc11cx4-library/lpc_chip_11cxx_lib/inc/ssp_11xx.h **** }
 944              		.loc 2 311 0
 945 0098 8469     		ldr	r4, [r0, #24]	@ D.6876, pSSP_25(D)->RIS
 946              	.LBE367:
 947              	.LBE372:
ARM GAS  /tmp/ccjsfSlY.s 			page 31


 259:../../lpc11cx4-library/lpc_chip_11cxx_lib/src/ssp_11xx.c **** 				return ERROR;
 948              		.loc 1 259 0
 949 009a 2742     		tst	r7, r4	@ tmp181, D.6876
 950 009c ECD1     		bne	.L91	@,
 951              	.LVL66:
 952              	.L120:
 953              	.LBB373:
 954              	.LBB370:
 284:../../lpc11cx4-library/lpc_chip_11cxx_lib/inc/ssp_11xx.h **** }
 955              		.loc 2 284 0
 956 009e C468     		ldr	r4, [r0, #12]	@ D.6876,
 957              	.LBE370:
 958              	.LBE373:
 264:../../lpc11cx4-library/lpc_chip_11cxx_lib/src/ssp_11xx.c **** 				Chip_SSP_ReceiveFrame(pSSP);	/* read dummy data */
 959              		.loc 1 264 0
 960 00a0 2542     		tst	r5, r4	@ tmp182, D.6876
 961 00a2 F4D0     		beq	.L84	@,
 962              	.LVL67:
 963              	.LBB374:
 964              	.LBB375:
 366:../../lpc11cx4-library/lpc_chip_11cxx_lib/inc/ssp_11xx.h **** }
 965              		.loc 2 366 0
 966 00a4 8468     		ldr	r4, [r0, #8]	@ D.6876, pSSP_25(D)->DR
 967              	.LBE375:
 968              	.LBE374:
 266:../../lpc11cx4-library/lpc_chip_11cxx_lib/src/ssp_11xx.c **** 			}
 969              		.loc 1 266 0
 970 00a6 0233     		add	r3, r3, #2	@ rx_cnt,
 971              	.LVL68:
 972 00a8 F9E7     		b	.L120	@
 973              	.LVL69:
 974              	.L89:
 252:../../lpc11cx4-library/lpc_chip_11cxx_lib/src/ssp_11xx.c **** 				Chip_SSP_SendFrame(pSSP, *wdata16);
 975              		.loc 1 252 0
 976 00aa 6146     		mov	r1, ip	@ tmp180, tmp180
 977              	.LBB376:
 978              	.LBB363:
 284:../../lpc11cx4-library/lpc_chip_11cxx_lib/inc/ssp_11xx.h **** }
 979              		.loc 2 284 0
 980 00ac C468     		ldr	r4, [r0, #12]	@ D.6876, pSSP_25(D)->SR
 981              	.LBE363:
 982              	.LBE376:
 252:../../lpc11cx4-library/lpc_chip_11cxx_lib/src/ssp_11xx.c **** 				Chip_SSP_SendFrame(pSSP, *wdata16);
 983              		.loc 1 252 0
 984 00ae 2142     		tst	r1, r4	@ tmp180, D.6876
 985 00b0 F2D0     		beq	.L97	@,
 986              	.LVL70:
 987              	.LBB377:
 988              	.LBB378:
 989              		.loc 2 377 0
 990 00b2 4146     		mov	r1, r8	@ buffer, buffer
 991 00b4 0C88     		ldrh	r4, [r1]	@ D.6876, MEM[(uint16_t *)buffer_11]
 992              	.LBE378:
 993              	.LBE377:
 254:../../lpc11cx4-library/lpc_chip_11cxx_lib/src/ssp_11xx.c **** 				tx_cnt += 2;
 994              		.loc 1 254 0
 995 00b6 0221     		mov	r1, #2	@ tmp196,
ARM GAS  /tmp/ccjsfSlY.s 			page 32


 996 00b8 8946     		mov	r9, r1	@ tmp196, tmp196
 997              	.LBB380:
 998              	.LBB379:
 999              		.loc 2 377 0
 1000 00ba 8460     		str	r4, [r0, #8]	@ D.6876, pSSP_25(D)->DR
 1001              	.LVL71:
 1002              	.LBE379:
 1003              	.LBE380:
 254:../../lpc11cx4-library/lpc_chip_11cxx_lib/src/ssp_11xx.c **** 				tx_cnt += 2;
 1004              		.loc 1 254 0
 1005 00bc C844     		add	r8, r8, r9	@ buffer, tmp196
 1006              	.LVL72:
 255:../../lpc11cx4-library/lpc_chip_11cxx_lib/src/ssp_11xx.c **** 			}
 1007              		.loc 1 255 0
 1008 00be 0236     		add	r6, r6, #2	@ tx_cnt,
 1009              	.LVL73:
 1010 00c0 EAE7     		b	.L97	@
 1011              	.LVL74:
 1012              	.L122:
 1013              	.LBE382:
 1014              	.LBB383:
 1015 00c2 301C     		mov	r0, r6	@ D.6877, tx_cnt
 1016              	.LVL75:
 1017 00c4 D9E7     		b	.L119	@
 1018              	.LBE383:
 1019              		.cfi_endproc
 1020              	.LFE208:
 1021              		.size	Chip_SSP_WriteFrames_Blocking, .-Chip_SSP_WriteFrames_Blocking
 1022 00c6 C046     		.section	.text.Chip_SSP_ReadFrames_Blocking,"ax",%progbits
 1023              		.align	2
 1024              		.global	Chip_SSP_ReadFrames_Blocking
 1025              		.code	16
 1026              		.thumb_func
 1027              		.type	Chip_SSP_ReadFrames_Blocking, %function
 1028              	Chip_SSP_ReadFrames_Blocking:
 1029              	.LFB209:
 299:../../lpc11cx4-library/lpc_chip_11cxx_lib/src/ssp_11xx.c **** 
 300:../../lpc11cx4-library/lpc_chip_11cxx_lib/src/ssp_11xx.c **** /* SSP Polling Read in blocking mode */
 301:../../lpc11cx4-library/lpc_chip_11cxx_lib/src/ssp_11xx.c **** uint32_t Chip_SSP_ReadFrames_Blocking(LPC_SSP_T *pSSP, uint8_t *buffer, uint32_t buffer_len)
 302:../../lpc11cx4-library/lpc_chip_11cxx_lib/src/ssp_11xx.c **** {
 1030              		.loc 1 302 0
 1031              		.cfi_startproc
 1032              	.LVL76:
 1033 0000 F0B5     		push	{r4, r5, r6, r7, lr}	@
 1034              		.cfi_def_cfa_offset 20
 1035              		.cfi_offset 4, -20
 1036              		.cfi_offset 5, -16
 1037              		.cfi_offset 6, -12
 1038              		.cfi_offset 7, -8
 1039              		.cfi_offset 14, -4
 1040 0002 4F46     		mov	r7, r9	@,
 1041 0004 4646     		mov	r6, r8	@,
 1042              	.LBB384:
 1043              	.LBB385:
 284:../../lpc11cx4-library/lpc_chip_11cxx_lib/inc/ssp_11xx.h **** }
 1044              		.loc 2 284 0
 1045 0006 C368     		ldr	r3, [r0, #12]	@ D.6897, pSSP_25(D)->SR
ARM GAS  /tmp/ccjsfSlY.s 			page 33


 1046              	.LBE385:
 1047              	.LBE384:
 1048              		.loc 1 302 0
 1049 0008 C0B4     		push	{r6, r7}	@
 1050              		.cfi_def_cfa_offset 28
 1051              		.cfi_offset 8, -28
 1052              		.cfi_offset 9, -24
 303:../../lpc11cx4-library/lpc_chip_11cxx_lib/src/ssp_11xx.c **** 	uint32_t rx_cnt = 0, tx_cnt = 0;
 304:../../lpc11cx4-library/lpc_chip_11cxx_lib/src/ssp_11xx.c **** 
 305:../../lpc11cx4-library/lpc_chip_11cxx_lib/src/ssp_11xx.c **** 	/* Clear all remaining frames in RX FIFO */
 306:../../lpc11cx4-library/lpc_chip_11cxx_lib/src/ssp_11xx.c **** 	while (Chip_SSP_GetStatus(pSSP, SSP_STAT_RNE)) {
 1053              		.loc 1 306 0
 1054 000a 5B07     		lsl	r3, r3, #29	@ tmp216, D.6897,
 1055 000c 04D5     		bpl	.L128	@,
 1056              	.LBB388:
 1057              	.LBB386:
 284:../../lpc11cx4-library/lpc_chip_11cxx_lib/inc/ssp_11xx.h **** }
 1058              		.loc 2 284 0
 1059 000e 0424     		mov	r4, #4	@ tmp215,
 1060              	.L160:
 1061              	.LVL77:
 1062              	.LBE386:
 1063              	.LBE388:
 1064              	.LBB389:
 1065              	.LBB390:
 366:../../lpc11cx4-library/lpc_chip_11cxx_lib/inc/ssp_11xx.h **** }
 1066              		.loc 2 366 0
 1067 0010 8368     		ldr	r3, [r0, #8]	@ D.6897, pSSP_25(D)->DR
 1068              	.LBE390:
 1069              	.LBE389:
 1070              	.LBB391:
 1071              	.LBB387:
 284:../../lpc11cx4-library/lpc_chip_11cxx_lib/inc/ssp_11xx.h **** }
 1072              		.loc 2 284 0
 1073 0012 C368     		ldr	r3, [r0, #12]	@ D.6897, pSSP_25(D)->SR
 1074              	.LBE387:
 1075              	.LBE391:
 1076              		.loc 1 306 0
 1077 0014 1C42     		tst	r4, r3	@ tmp215, D.6897
 1078 0016 FBD1     		bne	.L160	@,
 1079              	.LVL78:
 1080              	.L128:
 1081              	.LBB392:
 1082              	.LBB393:
 336:../../lpc11cx4-library/lpc_chip_11cxx_lib/inc/ssp_11xx.h **** }
 1083              		.loc 2 336 0
 1084 0018 0323     		mov	r3, #3	@ tmp177,
 1085              	.LBE393:
 1086              	.LBE392:
 307:../../lpc11cx4-library/lpc_chip_11cxx_lib/src/ssp_11xx.c **** 		Chip_SSP_ReceiveFrame(pSSP);
 308:../../lpc11cx4-library/lpc_chip_11cxx_lib/src/ssp_11xx.c **** 	}
 309:../../lpc11cx4-library/lpc_chip_11cxx_lib/src/ssp_11xx.c **** 
 310:../../lpc11cx4-library/lpc_chip_11cxx_lib/src/ssp_11xx.c **** 	/* Clear status */
 311:../../lpc11cx4-library/lpc_chip_11cxx_lib/src/ssp_11xx.c **** 	Chip_SSP_ClearIntPending(pSSP, SSP_INT_CLEAR_BITMASK);
 312:../../lpc11cx4-library/lpc_chip_11cxx_lib/src/ssp_11xx.c **** 
 313:../../lpc11cx4-library/lpc_chip_11cxx_lib/src/ssp_11xx.c **** 	if (Chip_SSP_GetDataSize(pSSP) > SSP_BITS_8) {
 1087              		.loc 1 313 0
ARM GAS  /tmp/ccjsfSlY.s 			page 34


 1088 001a 0F24     		mov	r4, #15	@ tmp182,
 1089              	.LBB395:
 1090              	.LBB394:
 336:../../lpc11cx4-library/lpc_chip_11cxx_lib/inc/ssp_11xx.h **** }
 1091              		.loc 2 336 0
 1092 001c 0362     		str	r3, [r0, #32]	@ tmp177, pSSP_25(D)->ICR
 1093              	.LVL79:
 1094              	.LBE394:
 1095              	.LBE395:
 1096              	.LBB396:
 1097              	.LBB397:
 322:../../lpc11cx4-library/lpc_chip_11cxx_lib/inc/ssp_11xx.h **** }
 1098              		.loc 2 322 0
 1099 001e 0368     		ldr	r3, [r0]	@ D.6897, pSSP_25(D)->CR0
 1100              	.LBE397:
 1101              	.LBE396:
 1102              		.loc 1 313 0
 1103 0020 0026     		mov	r6, #0	@ tx_cnt,
 1104 0022 2340     		and	r3, r4	@ tmp183, tmp182
 1105 0024 072B     		cmp	r3, #7	@ tmp183,
 1106 0026 2ED8     		bhi	.L130	@,
 1107              	.LBB398:
 1108              	.LBB399:
 1109              	.LBB400:
 284:../../lpc11cx4-library/lpc_chip_11cxx_lib/inc/ssp_11xx.h **** }
 1110              		.loc 2 284 0
 1111 0028 0D3C     		sub	r4, r4, #13	@ tmp211,
 1112 002a A446     		mov	ip, r4	@ tmp211, tmp211
 1113              	.LBE400:
 1114              	.LBE399:
 1115              	.LBB403:
 1116              	.LBB404:
 1117              		.loc 2 377 0
 1118 002c FD34     		add	r4, r4, #253	@ tmp212,
 1119 002e A046     		mov	r8, r4	@ tmp212, tmp212
 1120              	.LBE404:
 1121              	.LBE403:
 1122              	.LBB407:
 1123              	.LBB408:
 311:../../lpc11cx4-library/lpc_chip_11cxx_lib/inc/ssp_11xx.h **** }
 1124              		.loc 2 311 0
 1125 0030 FE3C     		sub	r4, r4, #254	@ tmp213,
 1126              	.LBE408:
 1127              	.LBE407:
 1128              	.LBE398:
 1129              		.loc 1 313 0
 1130 0032 0023     		mov	r3, #0	@ rx_cnt,
 1131              	.LBB427:
 1132              	.LBB412:
 1133              	.LBB409:
 311:../../lpc11cx4-library/lpc_chip_11cxx_lib/inc/ssp_11xx.h **** }
 1134              		.loc 2 311 0
 1135 0034 A146     		mov	r9, r4	@ tmp213, tmp213
 1136              	.LBE409:
 1137              	.LBE412:
 1138              	.LBB413:
 1139              	.LBB414:
ARM GAS  /tmp/ccjsfSlY.s 			page 35


 284:../../lpc11cx4-library/lpc_chip_11cxx_lib/inc/ssp_11xx.h **** }
 1140              		.loc 2 284 0
 1141 0036 0425     		mov	r5, #4	@ tmp214,
 1142              	.LVL80:
 1143              	.L131:
 1144              	.LBE414:
 1145              	.LBE413:
 314:../../lpc11cx4-library/lpc_chip_11cxx_lib/src/ssp_11xx.c **** 		uint16_t *rdata16;
 315:../../lpc11cx4-library/lpc_chip_11cxx_lib/src/ssp_11xx.c **** 
 316:../../lpc11cx4-library/lpc_chip_11cxx_lib/src/ssp_11xx.c **** 		rdata16 = (uint16_t *) buffer;
 317:../../lpc11cx4-library/lpc_chip_11cxx_lib/src/ssp_11xx.c **** 
 318:../../lpc11cx4-library/lpc_chip_11cxx_lib/src/ssp_11xx.c **** 		while (tx_cnt < buffer_len || rx_cnt < buffer_len) {
 319:../../lpc11cx4-library/lpc_chip_11cxx_lib/src/ssp_11xx.c **** 			/* write data to buffer */
 320:../../lpc11cx4-library/lpc_chip_11cxx_lib/src/ssp_11xx.c **** 			if ((Chip_SSP_GetStatus(pSSP, SSP_STAT_TNF) == SET) && (tx_cnt < buffer_len)) {
 321:../../lpc11cx4-library/lpc_chip_11cxx_lib/src/ssp_11xx.c **** 				Chip_SSP_SendFrame(pSSP, 0xFFFF);	/* just send dummy data */
 322:../../lpc11cx4-library/lpc_chip_11cxx_lib/src/ssp_11xx.c **** 				tx_cnt += 2;
 323:../../lpc11cx4-library/lpc_chip_11cxx_lib/src/ssp_11xx.c **** 			}
 324:../../lpc11cx4-library/lpc_chip_11cxx_lib/src/ssp_11xx.c **** 
 325:../../lpc11cx4-library/lpc_chip_11cxx_lib/src/ssp_11xx.c **** 			/* Check overrun error */
 326:../../lpc11cx4-library/lpc_chip_11cxx_lib/src/ssp_11xx.c **** 			if (Chip_SSP_GetRawIntStatus(pSSP, SSP_RORRIS) == SET) {
 327:../../lpc11cx4-library/lpc_chip_11cxx_lib/src/ssp_11xx.c **** 				return ERROR;
 328:../../lpc11cx4-library/lpc_chip_11cxx_lib/src/ssp_11xx.c **** 			}
 329:../../lpc11cx4-library/lpc_chip_11cxx_lib/src/ssp_11xx.c **** 
 330:../../lpc11cx4-library/lpc_chip_11cxx_lib/src/ssp_11xx.c **** 			/* Check for any data available in RX FIFO */
 331:../../lpc11cx4-library/lpc_chip_11cxx_lib/src/ssp_11xx.c **** 			while (Chip_SSP_GetStatus(pSSP, SSP_STAT_RNE) == SET && rx_cnt < buffer_len) {
 332:../../lpc11cx4-library/lpc_chip_11cxx_lib/src/ssp_11xx.c **** 				*rdata16 = Chip_SSP_ReceiveFrame(pSSP);
 333:../../lpc11cx4-library/lpc_chip_11cxx_lib/src/ssp_11xx.c **** 				rdata16++;
 334:../../lpc11cx4-library/lpc_chip_11cxx_lib/src/ssp_11xx.c **** 				rx_cnt += 2;
 335:../../lpc11cx4-library/lpc_chip_11cxx_lib/src/ssp_11xx.c **** 			}
 336:../../lpc11cx4-library/lpc_chip_11cxx_lib/src/ssp_11xx.c **** 		}
 337:../../lpc11cx4-library/lpc_chip_11cxx_lib/src/ssp_11xx.c **** 	}
 338:../../lpc11cx4-library/lpc_chip_11cxx_lib/src/ssp_11xx.c **** 	else {
 339:../../lpc11cx4-library/lpc_chip_11cxx_lib/src/ssp_11xx.c **** 		uint8_t *rdata8;
 340:../../lpc11cx4-library/lpc_chip_11cxx_lib/src/ssp_11xx.c **** 
 341:../../lpc11cx4-library/lpc_chip_11cxx_lib/src/ssp_11xx.c **** 		rdata8 = buffer;
 342:../../lpc11cx4-library/lpc_chip_11cxx_lib/src/ssp_11xx.c **** 
 343:../../lpc11cx4-library/lpc_chip_11cxx_lib/src/ssp_11xx.c **** 		while (tx_cnt < buffer_len || rx_cnt < buffer_len) {
 1146              		.loc 1 343 0
 1147 0038 9642     		cmp	r6, r2	@ tx_cnt, buffer_len
 1148 003a 14D3     		bcc	.L142	@,
 1149              	.L176:
 1150              		.loc 1 343 0 is_stmt 0 discriminator 1
 1151 003c 9342     		cmp	r3, r2	@ rx_cnt, buffer_len
 1152 003e 49D2     		bcs	.L173	@,
 1153              	.LVL81:
 1154              	.LBB417:
 1155              	.LBB401:
 284:../../lpc11cx4-library/lpc_chip_11cxx_lib/inc/ssp_11xx.h **** }
 1156              		.loc 2 284 0 is_stmt 1
 1157 0040 C468     		ldr	r4, [r0, #12]	@ D.6897, pSSP_25(D)->SR
 1158              	.L146:
 1159              	.LVL82:
 1160              	.LBE401:
 1161              	.LBE417:
 344:../../lpc11cx4-library/lpc_chip_11cxx_lib/src/ssp_11xx.c **** 			/* write data to buffer */
 345:../../lpc11cx4-library/lpc_chip_11cxx_lib/src/ssp_11xx.c **** 			if ((Chip_SSP_GetStatus(pSSP, SSP_STAT_TNF) == SET) && (tx_cnt < buffer_len)) {
 346:../../lpc11cx4-library/lpc_chip_11cxx_lib/src/ssp_11xx.c **** 				Chip_SSP_SendFrame(pSSP, 0xFF);	/* just send dummy data		 */
ARM GAS  /tmp/ccjsfSlY.s 			page 36


 347:../../lpc11cx4-library/lpc_chip_11cxx_lib/src/ssp_11xx.c **** 				tx_cnt++;
 348:../../lpc11cx4-library/lpc_chip_11cxx_lib/src/ssp_11xx.c **** 			}
 349:../../lpc11cx4-library/lpc_chip_11cxx_lib/src/ssp_11xx.c **** 
 350:../../lpc11cx4-library/lpc_chip_11cxx_lib/src/ssp_11xx.c **** 			/* Check overrun error */
 351:../../lpc11cx4-library/lpc_chip_11cxx_lib/src/ssp_11xx.c **** 			if (Chip_SSP_GetRawIntStatus(pSSP, SSP_RORRIS) == SET) {
 1162              		.loc 1 351 0
 1163 0042 4F46     		mov	r7, r9	@ tmp213, tmp213
 1164              	.LBB418:
 1165              	.LBB410:
 311:../../lpc11cx4-library/lpc_chip_11cxx_lib/inc/ssp_11xx.h **** }
 1166              		.loc 2 311 0
 1167 0044 8469     		ldr	r4, [r0, #24]	@ D.6897, pSSP_25(D)->RIS
 1168              	.LBE410:
 1169              	.LBE418:
 1170              		.loc 1 351 0
 1171 0046 2742     		tst	r7, r4	@ tmp213, D.6897
 1172 0048 18D1     		bne	.L139	@,
 1173              	.L177:
 1174              	.LVL83:
 1175              	.LBB419:
 1176              	.LBB415:
 284:../../lpc11cx4-library/lpc_chip_11cxx_lib/inc/ssp_11xx.h **** }
 1177              		.loc 2 284 0
 1178 004a C468     		ldr	r4, [r0, #12]	@ D.6897,
 1179              	.LBE415:
 1180              	.LBE419:
 352:../../lpc11cx4-library/lpc_chip_11cxx_lib/src/ssp_11xx.c **** 				return ERROR;
 353:../../lpc11cx4-library/lpc_chip_11cxx_lib/src/ssp_11xx.c **** 			}
 354:../../lpc11cx4-library/lpc_chip_11cxx_lib/src/ssp_11xx.c **** 
 355:../../lpc11cx4-library/lpc_chip_11cxx_lib/src/ssp_11xx.c **** 			/* Check for any data available in RX FIFO */
 356:../../lpc11cx4-library/lpc_chip_11cxx_lib/src/ssp_11xx.c **** 			while (Chip_SSP_GetStatus(pSSP, SSP_STAT_RNE) == SET && rx_cnt < buffer_len) {
 1181              		.loc 1 356 0
 1182 004c 2542     		tst	r5, r4	@ tmp214, D.6897
 1183 004e F3D0     		beq	.L131	@,
 1184              	.L172:
 1185 0050 9342     		cmp	r3, r2	@ rx_cnt, buffer_len
 1186 0052 F1D2     		bcs	.L131	@,
 1187              	.LVL84:
 1188              	.LBB420:
 1189              	.LBB421:
 366:../../lpc11cx4-library/lpc_chip_11cxx_lib/inc/ssp_11xx.h **** }
 1190              		.loc 2 366 0
 1191 0054 8468     		ldr	r4, [r0, #8]	@ D.6897, pSSP_25(D)->DR
 1192              	.LBE421:
 1193              	.LBE420:
 357:../../lpc11cx4-library/lpc_chip_11cxx_lib/src/ssp_11xx.c **** 				*rdata8 = Chip_SSP_ReceiveFrame(pSSP);
 358:../../lpc11cx4-library/lpc_chip_11cxx_lib/src/ssp_11xx.c **** 				rdata8++;
 359:../../lpc11cx4-library/lpc_chip_11cxx_lib/src/ssp_11xx.c **** 				rx_cnt++;
 1194              		.loc 1 359 0
 1195 0056 0133     		add	r3, r3, #1	@ rx_cnt,
 1196              	.LVL85:
 357:../../lpc11cx4-library/lpc_chip_11cxx_lib/src/ssp_11xx.c **** 				*rdata8 = Chip_SSP_ReceiveFrame(pSSP);
 1197              		.loc 1 357 0
 1198 0058 0C70     		strb	r4, [r1]	@ D.6897, MEM[base: buffer_102, offset: 0B]
 1199              	.LBB422:
 1200              	.LBB416:
 284:../../lpc11cx4-library/lpc_chip_11cxx_lib/inc/ssp_11xx.h **** }
ARM GAS  /tmp/ccjsfSlY.s 			page 37


 1201              		.loc 2 284 0
 1202 005a C468     		ldr	r4, [r0, #12]	@ D.6897,
 1203              	.LBE416:
 1204              	.LBE422:
 358:../../lpc11cx4-library/lpc_chip_11cxx_lib/src/ssp_11xx.c **** 				rx_cnt++;
 1205              		.loc 1 358 0
 1206 005c 0131     		add	r1, r1, #1	@ buffer,
 1207              	.LVL86:
 356:../../lpc11cx4-library/lpc_chip_11cxx_lib/src/ssp_11xx.c **** 				*rdata8 = Chip_SSP_ReceiveFrame(pSSP);
 1208              		.loc 1 356 0
 1209 005e 2542     		tst	r5, r4	@ tmp214, D.6897
 1210 0060 F6D1     		bne	.L172	@,
 343:../../lpc11cx4-library/lpc_chip_11cxx_lib/src/ssp_11xx.c **** 			/* write data to buffer */
 1211              		.loc 1 343 0
 1212 0062 9642     		cmp	r6, r2	@ tx_cnt, buffer_len
 1213 0064 EAD2     		bcs	.L176	@,
 1214              	.LVL87:
 1215              	.L142:
 345:../../lpc11cx4-library/lpc_chip_11cxx_lib/src/ssp_11xx.c **** 				Chip_SSP_SendFrame(pSSP, 0xFF);	/* just send dummy data		 */
 1216              		.loc 1 345 0
 1217 0066 6746     		mov	r7, ip	@ tmp211, tmp211
 1218              	.LBB423:
 1219              	.LBB402:
 284:../../lpc11cx4-library/lpc_chip_11cxx_lib/inc/ssp_11xx.h **** }
 1220              		.loc 2 284 0
 1221 0068 C468     		ldr	r4, [r0, #12]	@ D.6897, pSSP_25(D)->SR
 1222              	.LBE402:
 1223              	.LBE423:
 345:../../lpc11cx4-library/lpc_chip_11cxx_lib/src/ssp_11xx.c **** 				Chip_SSP_SendFrame(pSSP, 0xFF);	/* just send dummy data		 */
 1224              		.loc 1 345 0
 1225 006a 2742     		tst	r7, r4	@ tmp211, D.6897
 1226 006c E9D0     		beq	.L146	@,
 1227              	.LVL88:
 1228              	.LBB424:
 1229              	.LBB405:
 1230              		.loc 2 377 0
 1231 006e 4446     		mov	r4, r8	@ tmp212, tmp212
 1232              	.LBE405:
 1233              	.LBE424:
 351:../../lpc11cx4-library/lpc_chip_11cxx_lib/src/ssp_11xx.c **** 				return ERROR;
 1234              		.loc 1 351 0
 1235 0070 4F46     		mov	r7, r9	@ tmp213, tmp213
 1236              	.LBB425:
 1237              	.LBB406:
 1238              		.loc 2 377 0
 1239 0072 8460     		str	r4, [r0, #8]	@ tmp212, pSSP_25(D)->DR
 1240              	.LBE406:
 1241              	.LBE425:
 1242              	.LBB426:
 1243              	.LBB411:
 311:../../lpc11cx4-library/lpc_chip_11cxx_lib/inc/ssp_11xx.h **** }
 1244              		.loc 2 311 0
 1245 0074 8469     		ldr	r4, [r0, #24]	@ D.6897, pSSP_25(D)->RIS
 1246              	.LBE411:
 1247              	.LBE426:
 347:../../lpc11cx4-library/lpc_chip_11cxx_lib/src/ssp_11xx.c **** 			}
 1248              		.loc 1 347 0
ARM GAS  /tmp/ccjsfSlY.s 			page 38


 1249 0076 0136     		add	r6, r6, #1	@ tx_cnt,
 1250              	.LVL89:
 351:../../lpc11cx4-library/lpc_chip_11cxx_lib/src/ssp_11xx.c **** 				return ERROR;
 1251              		.loc 1 351 0
 1252 0078 2742     		tst	r7, r4	@ tmp213, D.6897
 1253 007a E6D0     		beq	.L177	@,
 1254              	.LVL90:
 1255              	.L139:
 1256              	.LBE427:
 1257              	.LBB428:
 327:../../lpc11cx4-library/lpc_chip_11cxx_lib/src/ssp_11xx.c **** 			}
 1258              		.loc 1 327 0
 1259 007c 0020     		mov	r0, #0	@ D.6896,
 1260              	.LVL91:
 1261              	.L170:
 1262              	.LBE428:
 360:../../lpc11cx4-library/lpc_chip_11cxx_lib/src/ssp_11xx.c **** 			}
 361:../../lpc11cx4-library/lpc_chip_11cxx_lib/src/ssp_11xx.c **** 		}
 362:../../lpc11cx4-library/lpc_chip_11cxx_lib/src/ssp_11xx.c **** 	}
 363:../../lpc11cx4-library/lpc_chip_11cxx_lib/src/ssp_11xx.c **** 
 364:../../lpc11cx4-library/lpc_chip_11cxx_lib/src/ssp_11xx.c **** 	return rx_cnt;
 365:../../lpc11cx4-library/lpc_chip_11cxx_lib/src/ssp_11xx.c **** 
 366:../../lpc11cx4-library/lpc_chip_11cxx_lib/src/ssp_11xx.c **** }
 1263              		.loc 1 366 0
 1264              		@ sp needed	@
 1265              	.LVL92:
 1266 007e 0CBC     		pop	{r2, r3}
 1267 0080 9046     		mov	r8, r2
 1268 0082 9946     		mov	r9, r3
 1269 0084 F0BD     		pop	{r4, r5, r6, r7, pc}
 1270              	.LVL93:
 1271              	.L130:
 1272              	.LBB459:
 1273              	.LBB429:
 1274              	.LBB430:
 284:../../lpc11cx4-library/lpc_chip_11cxx_lib/inc/ssp_11xx.h **** }
 1275              		.loc 2 284 0
 1276 0086 0224     		mov	r4, #2	@ tmp206,
 1277 0088 A446     		mov	ip, r4	@ tmp206, tmp206
 1278              	.LBE430:
 1279              	.LBE429:
 1280              	.LBB433:
 1281              	.LBB434:
 1282              		.loc 2 377 0
 1283 008a 134C     		ldr	r4, .L179	@ tmp207,
 1284              	.LBE434:
 1285              	.LBE433:
 1286              	.LBE459:
 313:../../lpc11cx4-library/lpc_chip_11cxx_lib/src/ssp_11xx.c **** 		uint16_t *rdata16;
 1287              		.loc 1 313 0
 1288 008c 0023     		mov	r3, #0	@ rx_cnt,
 1289              	.LBB460:
 1290              	.LBB438:
 1291              	.LBB435:
 1292              		.loc 2 377 0
 1293 008e A046     		mov	r8, r4	@ tmp207, tmp207
 1294              	.LBE435:
ARM GAS  /tmp/ccjsfSlY.s 			page 39


 1295              	.LBE438:
 1296              	.LBB439:
 1297              	.LBB440:
 311:../../lpc11cx4-library/lpc_chip_11cxx_lib/inc/ssp_11xx.h **** }
 1298              		.loc 2 311 0
 1299 0090 0124     		mov	r4, #1	@ tmp208,
 1300              	.LBE440:
 1301              	.LBE439:
 1302              	.LBB443:
 1303              	.LBB444:
 284:../../lpc11cx4-library/lpc_chip_11cxx_lib/inc/ssp_11xx.h **** }
 1304              		.loc 2 284 0
 1305 0092 0425     		mov	r5, #4	@ tmp209,
 1306              	.LBE444:
 1307              	.LBE443:
 1308              	.LBB447:
 1309              	.LBB441:
 311:../../lpc11cx4-library/lpc_chip_11cxx_lib/inc/ssp_11xx.h **** }
 1310              		.loc 2 311 0
 1311 0094 A146     		mov	r9, r4	@ tmp208, tmp208
 1312              	.LVL94:
 1313              	.L132:
 1314              	.LBE441:
 1315              	.LBE447:
 318:../../lpc11cx4-library/lpc_chip_11cxx_lib/src/ssp_11xx.c **** 			/* write data to buffer */
 1316              		.loc 1 318 0
 1317 0096 9642     		cmp	r6, r2	@ tx_cnt, buffer_len
 1318 0098 14D3     		bcc	.L137	@,
 1319              	.L178:
 318:../../lpc11cx4-library/lpc_chip_11cxx_lib/src/ssp_11xx.c **** 			/* write data to buffer */
 1320              		.loc 1 318 0 is_stmt 0 discriminator 1
 1321 009a 9342     		cmp	r3, r2	@ rx_cnt, buffer_len
 1322 009c 1AD2     		bcs	.L173	@,
 1323              	.LVL95:
 1324              	.LBB448:
 1325              	.LBB431:
 284:../../lpc11cx4-library/lpc_chip_11cxx_lib/inc/ssp_11xx.h **** }
 1326              		.loc 2 284 0 is_stmt 1
 1327 009e C468     		ldr	r4, [r0, #12]	@ D.6897, pSSP_25(D)->SR
 1328              	.L145:
 1329              	.LVL96:
 1330              	.LBE431:
 1331              	.LBE448:
 326:../../lpc11cx4-library/lpc_chip_11cxx_lib/src/ssp_11xx.c **** 				return ERROR;
 1332              		.loc 1 326 0
 1333 00a0 4F46     		mov	r7, r9	@ tmp208, tmp208
 1334              	.LBB449:
 1335              	.LBB442:
 311:../../lpc11cx4-library/lpc_chip_11cxx_lib/inc/ssp_11xx.h **** }
 1336              		.loc 2 311 0
 1337 00a2 8469     		ldr	r4, [r0, #24]	@ D.6897, pSSP_25(D)->RIS
 1338              	.LBE442:
 1339              	.LBE449:
 326:../../lpc11cx4-library/lpc_chip_11cxx_lib/src/ssp_11xx.c **** 				return ERROR;
 1340              		.loc 1 326 0
 1341 00a4 2742     		tst	r7, r4	@ tmp208, D.6897
 1342 00a6 E9D1     		bne	.L139	@,
ARM GAS  /tmp/ccjsfSlY.s 			page 40


 1343              	.LVL97:
 1344              	.LBB450:
 1345              	.LBB445:
 284:../../lpc11cx4-library/lpc_chip_11cxx_lib/inc/ssp_11xx.h **** }
 1346              		.loc 2 284 0
 1347 00a8 C468     		ldr	r4, [r0, #12]	@ D.6897,
 1348              	.LBE445:
 1349              	.LBE450:
 331:../../lpc11cx4-library/lpc_chip_11cxx_lib/src/ssp_11xx.c **** 				*rdata16 = Chip_SSP_ReceiveFrame(pSSP);
 1350              		.loc 1 331 0
 1351 00aa 2542     		tst	r5, r4	@ tmp209, D.6897
 1352 00ac F3D0     		beq	.L132	@,
 1353              	.L171:
 1354 00ae 9342     		cmp	r3, r2	@ rx_cnt, buffer_len
 1355 00b0 F1D2     		bcs	.L132	@,
 1356              	.LVL98:
 1357              	.LBB451:
 1358              	.LBB452:
 366:../../lpc11cx4-library/lpc_chip_11cxx_lib/inc/ssp_11xx.h **** }
 1359              		.loc 2 366 0
 1360 00b2 8468     		ldr	r4, [r0, #8]	@ D.6897, pSSP_25(D)->DR
 1361              	.LBE452:
 1362              	.LBE451:
 334:../../lpc11cx4-library/lpc_chip_11cxx_lib/src/ssp_11xx.c **** 			}
 1363              		.loc 1 334 0
 1364 00b4 0233     		add	r3, r3, #2	@ rx_cnt,
 1365              	.LVL99:
 1366              	.LBB454:
 1367              	.LBB453:
 366:../../lpc11cx4-library/lpc_chip_11cxx_lib/inc/ssp_11xx.h **** }
 1368              		.loc 2 366 0
 1369 00b6 0C80     		strh	r4, [r1]	@ D.6897, MEM[base: buffer_73, offset: 0B]
 1370              	.LBE453:
 1371              	.LBE454:
 1372              	.LBB455:
 1373              	.LBB446:
 284:../../lpc11cx4-library/lpc_chip_11cxx_lib/inc/ssp_11xx.h **** }
 1374              		.loc 2 284 0
 1375 00b8 C468     		ldr	r4, [r0, #12]	@ D.6897,
 1376              	.LBE446:
 1377              	.LBE455:
 333:../../lpc11cx4-library/lpc_chip_11cxx_lib/src/ssp_11xx.c **** 				rx_cnt += 2;
 1378              		.loc 1 333 0
 1379 00ba 0231     		add	r1, r1, #2	@ buffer,
 1380              	.LVL100:
 331:../../lpc11cx4-library/lpc_chip_11cxx_lib/src/ssp_11xx.c **** 				*rdata16 = Chip_SSP_ReceiveFrame(pSSP);
 1381              		.loc 1 331 0
 1382 00bc 2542     		tst	r5, r4	@ tmp209, D.6897
 1383 00be F6D1     		bne	.L171	@,
 318:../../lpc11cx4-library/lpc_chip_11cxx_lib/src/ssp_11xx.c **** 			/* write data to buffer */
 1384              		.loc 1 318 0
 1385 00c0 9642     		cmp	r6, r2	@ tx_cnt, buffer_len
 1386 00c2 EAD2     		bcs	.L178	@,
 1387              	.LVL101:
 1388              	.L137:
 320:../../lpc11cx4-library/lpc_chip_11cxx_lib/src/ssp_11xx.c **** 				Chip_SSP_SendFrame(pSSP, 0xFFFF);	/* just send dummy data */
 1389              		.loc 1 320 0
ARM GAS  /tmp/ccjsfSlY.s 			page 41


 1390 00c4 6746     		mov	r7, ip	@ tmp206, tmp206
 1391              	.LBB456:
 1392              	.LBB432:
 284:../../lpc11cx4-library/lpc_chip_11cxx_lib/inc/ssp_11xx.h **** }
 1393              		.loc 2 284 0
 1394 00c6 C468     		ldr	r4, [r0, #12]	@ D.6897, pSSP_25(D)->SR
 1395              	.LBE432:
 1396              	.LBE456:
 320:../../lpc11cx4-library/lpc_chip_11cxx_lib/src/ssp_11xx.c **** 				Chip_SSP_SendFrame(pSSP, 0xFFFF);	/* just send dummy data */
 1397              		.loc 1 320 0
 1398 00c8 2742     		tst	r7, r4	@ tmp206, D.6897
 1399 00ca E9D0     		beq	.L145	@,
 1400              	.LVL102:
 1401              	.LBB457:
 1402              	.LBB436:
 1403              		.loc 2 377 0
 1404 00cc 4446     		mov	r4, r8	@ tmp207, tmp207
 1405              	.LBE436:
 1406              	.LBE457:
 322:../../lpc11cx4-library/lpc_chip_11cxx_lib/src/ssp_11xx.c **** 			}
 1407              		.loc 1 322 0
 1408 00ce 0236     		add	r6, r6, #2	@ tx_cnt,
 1409              	.LVL103:
 1410              	.LBB458:
 1411              	.LBB437:
 1412              		.loc 2 377 0
 1413 00d0 8460     		str	r4, [r0, #8]	@ tmp207, pSSP_25(D)->DR
 1414 00d2 E5E7     		b	.L145	@
 1415              	.LVL104:
 1416              	.L173:
 1417              	.LBE437:
 1418              	.LBE458:
 1419              	.LBE460:
 1420              	.LBB461:
 1421 00d4 181C     		mov	r0, r3	@ D.6896, rx_cnt
 1422              	.LVL105:
 1423 00d6 D2E7     		b	.L170	@
 1424              	.L180:
 1425              		.align	2
 1426              	.L179:
 1427 00d8 FFFF0000 		.word	65535
 1428              	.LBE461:
 1429              		.cfi_endproc
 1430              	.LFE209:
 1431              		.size	Chip_SSP_ReadFrames_Blocking, .-Chip_SSP_ReadFrames_Blocking
 1432              		.section	.text.Chip_SSP_Int_FlushData,"ax",%progbits
 1433              		.align	2
 1434              		.global	Chip_SSP_Int_FlushData
 1435              		.code	16
 1436              		.thumb_func
 1437              		.type	Chip_SSP_Int_FlushData, %function
 1438              	Chip_SSP_Int_FlushData:
 1439              	.LFB210:
 367:../../lpc11cx4-library/lpc_chip_11cxx_lib/src/ssp_11xx.c **** 
 368:../../lpc11cx4-library/lpc_chip_11cxx_lib/src/ssp_11xx.c **** /* Clean all data in RX FIFO of SSP */
 369:../../lpc11cx4-library/lpc_chip_11cxx_lib/src/ssp_11xx.c **** void Chip_SSP_Int_FlushData(LPC_SSP_T *pSSP)
 370:../../lpc11cx4-library/lpc_chip_11cxx_lib/src/ssp_11xx.c **** {
ARM GAS  /tmp/ccjsfSlY.s 			page 42


 1440              		.loc 1 370 0
 1441              		.cfi_startproc
 1442              	.LVL106:
 1443              	.LBB462:
 1444              	.LBB463:
 284:../../lpc11cx4-library/lpc_chip_11cxx_lib/inc/ssp_11xx.h **** }
 1445              		.loc 2 284 0
 1446 0000 C368     		ldr	r3, [r0, #12]	@ D.6903, pSSP_4(D)->SR
 1447              	.LBE463:
 1448              	.LBE462:
 371:../../lpc11cx4-library/lpc_chip_11cxx_lib/src/ssp_11xx.c **** 	if (Chip_SSP_GetStatus(pSSP, SSP_STAT_BSY)) {
 1449              		.loc 1 371 0
 1450 0002 DB06     		lsl	r3, r3, #27	@ tmp131, D.6903,
 1451 0004 03D5     		bpl	.L185	@,
 1452              	.LBB464:
 1453              	.LBB465:
 284:../../lpc11cx4-library/lpc_chip_11cxx_lib/inc/ssp_11xx.h **** }
 1454              		.loc 2 284 0 discriminator 1
 1455 0006 1022     		mov	r2, #16	@ tmp130,
 1456              	.L187:
 1457              	.LVL107:
 1458 0008 C368     		ldr	r3, [r0, #12]	@ D.6903, pSSP_4(D)->SR
 1459              	.LBE465:
 1460              	.LBE464:
 372:../../lpc11cx4-library/lpc_chip_11cxx_lib/src/ssp_11xx.c **** 		while (Chip_SSP_GetStatus(pSSP, SSP_STAT_BSY)) {}
 1461              		.loc 1 372 0 discriminator 1
 1462 000a 1A42     		tst	r2, r3	@ tmp130, D.6903
 1463 000c FCD1     		bne	.L187	@,
 1464              	.LVL108:
 1465              	.L185:
 1466              	.LBB466:
 1467              	.LBB467:
 284:../../lpc11cx4-library/lpc_chip_11cxx_lib/inc/ssp_11xx.h **** }
 1468              		.loc 2 284 0
 1469 000e C368     		ldr	r3, [r0, #12]	@ D.6903, pSSP_4(D)->SR
 1470 0010 0422     		mov	r2, #4	@ tmp129,
 1471              	.LBE467:
 1472              	.LBE466:
 373:../../lpc11cx4-library/lpc_chip_11cxx_lib/src/ssp_11xx.c **** 	}
 374:../../lpc11cx4-library/lpc_chip_11cxx_lib/src/ssp_11xx.c **** 
 375:../../lpc11cx4-library/lpc_chip_11cxx_lib/src/ssp_11xx.c **** 	/* Clear all remaining frames in RX FIFO */
 376:../../lpc11cx4-library/lpc_chip_11cxx_lib/src/ssp_11xx.c **** 	while (Chip_SSP_GetStatus(pSSP, SSP_STAT_RNE)) {
 1473              		.loc 1 376 0
 1474 0012 5B07     		lsl	r3, r3, #29	@ tmp132, D.6903,
 1475 0014 03D5     		bpl	.L184	@,
 1476              	.L186:
 1477              	.LVL109:
 1478              	.LBB469:
 1479              	.LBB470:
 366:../../lpc11cx4-library/lpc_chip_11cxx_lib/inc/ssp_11xx.h **** }
 1480              		.loc 2 366 0
 1481 0016 8368     		ldr	r3, [r0, #8]	@ D.6903, pSSP_4(D)->DR
 1482              	.LBE470:
 1483              	.LBE469:
 1484              	.LBB471:
 1485              	.LBB468:
 284:../../lpc11cx4-library/lpc_chip_11cxx_lib/inc/ssp_11xx.h **** }
ARM GAS  /tmp/ccjsfSlY.s 			page 43


 1486              		.loc 2 284 0
 1487 0018 C368     		ldr	r3, [r0, #12]	@ D.6903, pSSP_4(D)->SR
 1488              	.LBE468:
 1489              	.LBE471:
 1490              		.loc 1 376 0
 1491 001a 1A42     		tst	r2, r3	@ tmp129, D.6903
 1492 001c FBD1     		bne	.L186	@,
 1493              	.LVL110:
 1494              	.L184:
 1495              	.LBB472:
 1496              	.LBB473:
 336:../../lpc11cx4-library/lpc_chip_11cxx_lib/inc/ssp_11xx.h **** }
 1497              		.loc 2 336 0
 1498 001e 0323     		mov	r3, #3	@ tmp128,
 1499              	.LBE473:
 1500              	.LBE472:
 377:../../lpc11cx4-library/lpc_chip_11cxx_lib/src/ssp_11xx.c **** 		Chip_SSP_ReceiveFrame(pSSP);
 378:../../lpc11cx4-library/lpc_chip_11cxx_lib/src/ssp_11xx.c **** 	}
 379:../../lpc11cx4-library/lpc_chip_11cxx_lib/src/ssp_11xx.c **** 
 380:../../lpc11cx4-library/lpc_chip_11cxx_lib/src/ssp_11xx.c **** 	/* Clear status */
 381:../../lpc11cx4-library/lpc_chip_11cxx_lib/src/ssp_11xx.c **** 	Chip_SSP_ClearIntPending(pSSP, SSP_INT_CLEAR_BITMASK);
 382:../../lpc11cx4-library/lpc_chip_11cxx_lib/src/ssp_11xx.c **** }
 1501              		.loc 1 382 0
 1502              		@ sp needed	@
 1503              	.LBB475:
 1504              	.LBB474:
 336:../../lpc11cx4-library/lpc_chip_11cxx_lib/inc/ssp_11xx.h **** }
 1505              		.loc 2 336 0
 1506 0020 0362     		str	r3, [r0, #32]	@ tmp128, pSSP_4(D)->ICR
 1507              	.LBE474:
 1508              	.LBE475:
 1509              		.loc 1 382 0
 1510 0022 7047     		bx	lr
 1511              		.cfi_endproc
 1512              	.LFE210:
 1513              		.size	Chip_SSP_Int_FlushData, .-Chip_SSP_Int_FlushData
 1514              		.section	.text.Chip_SSP_Int_RWFrames8Bits,"ax",%progbits
 1515              		.align	2
 1516              		.global	Chip_SSP_Int_RWFrames8Bits
 1517              		.code	16
 1518              		.thumb_func
 1519              		.type	Chip_SSP_Int_RWFrames8Bits, %function
 1520              	Chip_SSP_Int_RWFrames8Bits:
 1521              	.LFB211:
 383:../../lpc11cx4-library/lpc_chip_11cxx_lib/src/ssp_11xx.c **** 
 384:../../lpc11cx4-library/lpc_chip_11cxx_lib/src/ssp_11xx.c **** /* SSP Interrupt Read/Write with 8-bit frame width */
 385:../../lpc11cx4-library/lpc_chip_11cxx_lib/src/ssp_11xx.c **** Status Chip_SSP_Int_RWFrames8Bits(LPC_SSP_T *pSSP, Chip_SSP_DATA_SETUP_T *xf_setup)
 386:../../lpc11cx4-library/lpc_chip_11cxx_lib/src/ssp_11xx.c **** {
 1522              		.loc 1 386 0
 1523              		.cfi_startproc
 1524              	.LVL111:
 1525 0000 F0B5     		push	{r4, r5, r6, r7, lr}	@
 1526              		.cfi_def_cfa_offset 20
 1527              		.cfi_offset 4, -20
 1528              		.cfi_offset 5, -16
 1529              		.cfi_offset 6, -12
 1530              		.cfi_offset 7, -8
ARM GAS  /tmp/ccjsfSlY.s 			page 44


 1531              		.cfi_offset 14, -4
 1532 0002 4746     		mov	r7, r8	@,
 1533              	.LBB476:
 1534              	.LBB477:
 311:../../lpc11cx4-library/lpc_chip_11cxx_lib/inc/ssp_11xx.h **** }
 1535              		.loc 2 311 0
 1536 0004 8369     		ldr	r3, [r0, #24]	@ D.6907, pSSP_5(D)->RIS
 1537              	.LBE477:
 1538              	.LBE476:
 1539              		.loc 1 386 0
 1540 0006 80B4     		push	{r7}	@
 1541              		.cfi_def_cfa_offset 24
 1542              		.cfi_offset 8, -24
 387:../../lpc11cx4-library/lpc_chip_11cxx_lib/src/ssp_11xx.c **** 	/* Check overrun error in RIS register */
 388:../../lpc11cx4-library/lpc_chip_11cxx_lib/src/ssp_11xx.c **** 	if (Chip_SSP_GetRawIntStatus(pSSP, SSP_RORRIS) == SET) {
 1543              		.loc 1 388 0
 1544 0008 DB07     		lsl	r3, r3, #31	@ tmp157, D.6907,
 1545 000a 31D4     		bmi	.L194	@,
 389:../../lpc11cx4-library/lpc_chip_11cxx_lib/src/ssp_11xx.c **** 		return ERROR;
 390:../../lpc11cx4-library/lpc_chip_11cxx_lib/src/ssp_11xx.c **** 	}
 391:../../lpc11cx4-library/lpc_chip_11cxx_lib/src/ssp_11xx.c **** 
 392:../../lpc11cx4-library/lpc_chip_11cxx_lib/src/ssp_11xx.c **** 	if ((xf_setup->tx_cnt != xf_setup->length) || (xf_setup->rx_cnt != xf_setup->length)) {
 1546              		.loc 1 392 0
 1547 000c 4B68     		ldr	r3, [r1, #4]	@ D.6907, xf_setup_6(D)->tx_cnt
 1548 000e 0A69     		ldr	r2, [r1, #16]	@ tmp159, xf_setup_6(D)->length
 1549 0010 9342     		cmp	r3, r2	@ D.6907, tmp159
 1550 0012 31D0     		beq	.L207	@,
 1551              	.L193:
 1552 0014 051C     		mov	r5, r0	@ pSSP, pSSP
 1553 0016 0C1C     		mov	r4, r1	@ xf_setup, xf_setup
 393:../../lpc11cx4-library/lpc_chip_11cxx_lib/src/ssp_11xx.c **** 		/* check if RX FIFO contains data */
 394:../../lpc11cx4-library/lpc_chip_11cxx_lib/src/ssp_11xx.c **** 		SSP_Read1BFifo(pSSP, xf_setup);
 1554              		.loc 1 394 0
 1555 0018 FFF7FEFF 		bl	SSP_Read1BFifo	@
 1556              	.LVL112:
 1557              	.LBB478:
 1558              	.LBB479:
 284:../../lpc11cx4-library/lpc_chip_11cxx_lib/inc/ssp_11xx.h **** }
 1559              		.loc 2 284 0
 1560 001c EB68     		ldr	r3, [r5, #12]	@ D.6907, pSSP_5(D)->SR
 1561              	.LBE479:
 1562              	.LBE478:
 395:../../lpc11cx4-library/lpc_chip_11cxx_lib/src/ssp_11xx.c **** 
 396:../../lpc11cx4-library/lpc_chip_11cxx_lib/src/ssp_11xx.c **** 		while ((Chip_SSP_GetStatus(pSSP, SSP_STAT_TNF)) && (xf_setup->tx_cnt != xf_setup->length)) {
 1563              		.loc 1 396 0
 1564 001e 9B07     		lsl	r3, r3, #30	@ tmp158, D.6907,
 1565 0020 2ED5     		bpl	.L196	@,
 1566 0022 6368     		ldr	r3, [r4, #4]	@ D.6907, xf_setup_6(D)->tx_cnt
 1567 0024 2269     		ldr	r2, [r4, #16]	@ tmp163, xf_setup_6(D)->length
 1568 0026 9342     		cmp	r3, r2	@ D.6907, tmp163
 1569 0028 2AD0     		beq	.L196	@,
 1570              	.LBB482:
 1571              	.LBB483:
 1572              	.LBB484:
 1573              	.LBB485:
 1574              		.loc 2 377 0
 1575 002a FF22     		mov	r2, #255	@ tmp152,
ARM GAS  /tmp/ccjsfSlY.s 			page 45


 1576              	.LBE485:
 1577              	.LBE484:
 1578              	.LBE483:
 1579              	.LBE482:
 1580              	.LBB495:
 1581              	.LBB496:
 311:../../lpc11cx4-library/lpc_chip_11cxx_lib/inc/ssp_11xx.h **** }
 1582              		.loc 2 311 0
 1583 002c 0126     		mov	r6, #1	@ tmp153,
 1584              	.LBE496:
 1585              	.LBE495:
 1586              	.LBB499:
 1587              	.LBB492:
 1588              	.LBB488:
 1589              	.LBB486:
 1590              		.loc 2 377 0
 1591 002e 9046     		mov	r8, r2	@ tmp152, tmp152
 1592              	.LBE486:
 1593              	.LBE488:
 1594              	.LBE492:
 1595              	.LBE499:
 1596              	.LBB500:
 1597              	.LBB480:
 284:../../lpc11cx4-library/lpc_chip_11cxx_lib/inc/ssp_11xx.h **** }
 1598              		.loc 2 284 0
 1599 0030 0227     		mov	r7, #2	@ tmp154,
 1600 0032 12E0     		b	.L199	@
 1601              	.LVL113:
 1602              	.L208:
 1603              	.LBE480:
 1604              	.LBE500:
 1605              	.LBB501:
 1606              	.LBB493:
 1607              	.LBB489:
 1608              	.LBB490:
 1609              		.loc 2 377 0
 1610 0034 D35C     		ldrb	r3, [r2, r3]	@ D.6907, *_24
 1611              	.LVL114:
 1612 0036 AB60     		str	r3, [r5, #8]	@ D.6907,
 1613              	.LBE490:
 1614              	.LBE489:
  69:../../lpc11cx4-library/lpc_chip_11cxx_lib/src/ssp_11xx.c **** }
 1615              		.loc 1 69 0
 1616 0038 6368     		ldr	r3, [r4, #4]	@ tmp167, MEM[(uint32_t *)xf_setup_6(D) + 4B]
 1617              	.LVL115:
 1618 003a 0133     		add	r3, r3, #1	@ D.6907,
 1619 003c 6360     		str	r3, [r4, #4]	@ D.6907, MEM[(uint32_t *)xf_setup_6(D) + 4B]
 1620              	.LVL116:
 1621              	.LBE493:
 1622              	.LBE501:
 1623              	.LBB502:
 1624              	.LBB497:
 311:../../lpc11cx4-library/lpc_chip_11cxx_lib/inc/ssp_11xx.h **** }
 1625              		.loc 2 311 0
 1626 003e AB69     		ldr	r3, [r5, #24]	@ D.6907, pSSP_5(D)->RIS
 1627              	.LBE497:
 1628              	.LBE502:
ARM GAS  /tmp/ccjsfSlY.s 			page 46


 397:../../lpc11cx4-library/lpc_chip_11cxx_lib/src/ssp_11xx.c **** 			/* Write data to buffer */
 398:../../lpc11cx4-library/lpc_chip_11cxx_lib/src/ssp_11xx.c **** 			SSP_Write1BFifo(pSSP, xf_setup);
 399:../../lpc11cx4-library/lpc_chip_11cxx_lib/src/ssp_11xx.c **** 
 400:../../lpc11cx4-library/lpc_chip_11cxx_lib/src/ssp_11xx.c **** 			/* Check overrun error in RIS register */
 401:../../lpc11cx4-library/lpc_chip_11cxx_lib/src/ssp_11xx.c **** 			if (Chip_SSP_GetRawIntStatus(pSSP, SSP_RORRIS) == SET) {
 1629              		.loc 1 401 0
 1630 0040 1E42     		tst	r6, r3	@ tmp153, D.6907
 1631 0042 15D1     		bne	.L194	@,
 1632              	.LVL117:
 1633              	.L209:
 402:../../lpc11cx4-library/lpc_chip_11cxx_lib/src/ssp_11xx.c **** 				return ERROR;
 403:../../lpc11cx4-library/lpc_chip_11cxx_lib/src/ssp_11xx.c **** 			}
 404:../../lpc11cx4-library/lpc_chip_11cxx_lib/src/ssp_11xx.c **** 
 405:../../lpc11cx4-library/lpc_chip_11cxx_lib/src/ssp_11xx.c **** 			/*  Check for any data available in RX FIFO */
 406:../../lpc11cx4-library/lpc_chip_11cxx_lib/src/ssp_11xx.c **** 			SSP_Read1BFifo(pSSP, xf_setup);
 1634              		.loc 1 406 0
 1635 0044 281C     		mov	r0, r5	@, pSSP
 1636 0046 211C     		mov	r1, r4	@, xf_setup
 1637 0048 FFF7FEFF 		bl	SSP_Read1BFifo	@
 1638              	.LVL118:
 1639              	.LBB503:
 1640              	.LBB481:
 284:../../lpc11cx4-library/lpc_chip_11cxx_lib/inc/ssp_11xx.h **** }
 1641              		.loc 2 284 0
 1642 004c EB68     		ldr	r3, [r5, #12]	@ D.6907, pSSP_5(D)->SR
 1643              	.LBE481:
 1644              	.LBE503:
 396:../../lpc11cx4-library/lpc_chip_11cxx_lib/src/ssp_11xx.c **** 			/* Write data to buffer */
 1645              		.loc 1 396 0
 1646 004e 1F42     		tst	r7, r3	@ tmp154, D.6907
 1647 0050 16D0     		beq	.L196	@,
 396:../../lpc11cx4-library/lpc_chip_11cxx_lib/src/ssp_11xx.c **** 			/* Write data to buffer */
 1648              		.loc 1 396 0 is_stmt 0 discriminator 1
 1649 0052 6368     		ldr	r3, [r4, #4]	@ D.6907, xf_setup_6(D)->tx_cnt
 1650 0054 2269     		ldr	r2, [r4, #16]	@ tmp168, xf_setup_6(D)->length
 1651 0056 9342     		cmp	r3, r2	@ D.6907, tmp168
 1652 0058 12D0     		beq	.L196	@,
 1653              	.LVL119:
 1654              	.L199:
 1655 005a 2268     		ldr	r2, [r4]	@ D.6908, MEM[(void * *)xf_setup_6(D)]
 1656              	.LVL120:
 1657              	.LBB504:
 1658              	.LBB494:
  62:../../lpc11cx4-library/lpc_chip_11cxx_lib/src/ssp_11xx.c **** 		Chip_SSP_SendFrame(pSSP, (*(uint8_t *) ((uint32_t) xf_setup->tx_data + xf_setup->tx_cnt)));
 1659              		.loc 1 62 0 is_stmt 1
 1660 005c 002A     		cmp	r2, #0	@ D.6908,
 1661 005e E9D1     		bne	.L208	@,
 1662              	.LVL121:
 1663              	.LBB491:
 1664              	.LBB487:
 1665              		.loc 2 377 0
 1666 0060 4346     		mov	r3, r8	@ tmp152, tmp152
 1667 0062 AB60     		str	r3, [r5, #8]	@ tmp152,
 1668              	.LBE487:
 1669              	.LBE491:
  69:../../lpc11cx4-library/lpc_chip_11cxx_lib/src/ssp_11xx.c **** }
 1670              		.loc 1 69 0
ARM GAS  /tmp/ccjsfSlY.s 			page 47


 1671 0064 6368     		ldr	r3, [r4, #4]	@ tmp167, MEM[(uint32_t *)xf_setup_6(D) + 4B]
 1672 0066 0133     		add	r3, r3, #1	@ D.6907,
 1673 0068 6360     		str	r3, [r4, #4]	@ D.6907, MEM[(uint32_t *)xf_setup_6(D) + 4B]
 1674              	.LVL122:
 1675              	.LBE494:
 1676              	.LBE504:
 1677              	.LBB505:
 1678              	.LBB498:
 311:../../lpc11cx4-library/lpc_chip_11cxx_lib/inc/ssp_11xx.h **** }
 1679              		.loc 2 311 0
 1680 006a AB69     		ldr	r3, [r5, #24]	@ D.6907, pSSP_5(D)->RIS
 1681              	.LBE498:
 1682              	.LBE505:
 401:../../lpc11cx4-library/lpc_chip_11cxx_lib/src/ssp_11xx.c **** 				return ERROR;
 1683              		.loc 1 401 0
 1684 006c 1E42     		tst	r6, r3	@ tmp153, D.6907
 1685 006e E9D0     		beq	.L209	@,
 1686              	.LVL123:
 1687              	.L194:
 389:../../lpc11cx4-library/lpc_chip_11cxx_lib/src/ssp_11xx.c **** 	}
 1688              		.loc 1 389 0
 1689 0070 0020     		mov	r0, #0	@ D.6906,
 1690              	.L192:
 407:../../lpc11cx4-library/lpc_chip_11cxx_lib/src/ssp_11xx.c **** 		}
 408:../../lpc11cx4-library/lpc_chip_11cxx_lib/src/ssp_11xx.c **** 
 409:../../lpc11cx4-library/lpc_chip_11cxx_lib/src/ssp_11xx.c **** 		return SUCCESS;
 410:../../lpc11cx4-library/lpc_chip_11cxx_lib/src/ssp_11xx.c **** 	}
 411:../../lpc11cx4-library/lpc_chip_11cxx_lib/src/ssp_11xx.c **** 
 412:../../lpc11cx4-library/lpc_chip_11cxx_lib/src/ssp_11xx.c **** 	return ERROR;
 413:../../lpc11cx4-library/lpc_chip_11cxx_lib/src/ssp_11xx.c **** }
 1691              		.loc 1 413 0
 1692              		@ sp needed	@
 1693 0072 04BC     		pop	{r2}
 1694 0074 9046     		mov	r8, r2
 1695 0076 F0BD     		pop	{r4, r5, r6, r7, pc}
 1696              	.LVL124:
 1697              	.L207:
 392:../../lpc11cx4-library/lpc_chip_11cxx_lib/src/ssp_11xx.c **** 		/* check if RX FIFO contains data */
 1698              		.loc 1 392 0 discriminator 1
 1699 0078 CA68     		ldr	r2, [r1, #12]	@ tmp161, xf_setup_6(D)->rx_cnt
 1700 007a 9342     		cmp	r3, r2	@ D.6907, tmp161
 1701 007c CAD1     		bne	.L193	@,
 1702 007e F7E7     		b	.L194	@
 1703              	.LVL125:
 1704              	.L196:
 409:../../lpc11cx4-library/lpc_chip_11cxx_lib/src/ssp_11xx.c **** 	}
 1705              		.loc 1 409 0
 1706 0080 0120     		mov	r0, #1	@ D.6906,
 1707 0082 F6E7     		b	.L192	@
 1708              		.cfi_endproc
 1709              	.LFE211:
 1710              		.size	Chip_SSP_Int_RWFrames8Bits, .-Chip_SSP_Int_RWFrames8Bits
 1711              		.section	.text.Chip_SSP_Int_RWFrames16Bits,"ax",%progbits
 1712              		.align	2
 1713              		.global	Chip_SSP_Int_RWFrames16Bits
 1714              		.code	16
 1715              		.thumb_func
ARM GAS  /tmp/ccjsfSlY.s 			page 48


 1716              		.type	Chip_SSP_Int_RWFrames16Bits, %function
 1717              	Chip_SSP_Int_RWFrames16Bits:
 1718              	.LFB212:
 414:../../lpc11cx4-library/lpc_chip_11cxx_lib/src/ssp_11xx.c **** 
 415:../../lpc11cx4-library/lpc_chip_11cxx_lib/src/ssp_11xx.c **** /* SSP Interrupt Read/Write with 16-bit frame width */
 416:../../lpc11cx4-library/lpc_chip_11cxx_lib/src/ssp_11xx.c **** Status Chip_SSP_Int_RWFrames16Bits(LPC_SSP_T *pSSP, Chip_SSP_DATA_SETUP_T *xf_setup)
 417:../../lpc11cx4-library/lpc_chip_11cxx_lib/src/ssp_11xx.c **** {
 1719              		.loc 1 417 0
 1720              		.cfi_startproc
 1721              	.LVL126:
 1722 0000 F0B5     		push	{r4, r5, r6, r7, lr}	@
 1723              		.cfi_def_cfa_offset 20
 1724              		.cfi_offset 4, -20
 1725              		.cfi_offset 5, -16
 1726              		.cfi_offset 6, -12
 1727              		.cfi_offset 7, -8
 1728              		.cfi_offset 14, -4
 1729 0002 4746     		mov	r7, r8	@,
 1730              	.LBB506:
 1731              	.LBB507:
 311:../../lpc11cx4-library/lpc_chip_11cxx_lib/inc/ssp_11xx.h **** }
 1732              		.loc 2 311 0
 1733 0004 8369     		ldr	r3, [r0, #24]	@ D.6926, pSSP_5(D)->RIS
 1734              	.LBE507:
 1735              	.LBE506:
 1736              		.loc 1 417 0
 1737 0006 80B4     		push	{r7}	@
 1738              		.cfi_def_cfa_offset 24
 1739              		.cfi_offset 8, -24
 418:../../lpc11cx4-library/lpc_chip_11cxx_lib/src/ssp_11xx.c **** 	/* Check overrun error in RIS register */
 419:../../lpc11cx4-library/lpc_chip_11cxx_lib/src/ssp_11xx.c **** 	if (Chip_SSP_GetRawIntStatus(pSSP, SSP_RORRIS) == SET) {
 1740              		.loc 1 419 0
 1741 0008 DB07     		lsl	r3, r3, #31	@ tmp179, D.6926,
 1742 000a 54D4     		bmi	.L214	@,
 420:../../lpc11cx4-library/lpc_chip_11cxx_lib/src/ssp_11xx.c **** 		return ERROR;
 421:../../lpc11cx4-library/lpc_chip_11cxx_lib/src/ssp_11xx.c **** 	}
 422:../../lpc11cx4-library/lpc_chip_11cxx_lib/src/ssp_11xx.c **** 
 423:../../lpc11cx4-library/lpc_chip_11cxx_lib/src/ssp_11xx.c **** 	if ((xf_setup->tx_cnt != xf_setup->length) || (xf_setup->rx_cnt != xf_setup->length)) {
 1743              		.loc 1 423 0
 1744 000c 0D69     		ldr	r5, [r1, #16]	@ D.6926, xf_setup_7(D)->length
 1745 000e 4B68     		ldr	r3, [r1, #4]	@ tmp181, xf_setup_7(D)->tx_cnt
 1746 0010 AB42     		cmp	r3, r5	@ tmp181, D.6926
 1747 0012 52D0     		beq	.L244	@,
 1748              	.L213:
 1749              	.LVL127:
 1750              	.LBB508:
 1751              	.LBB509:
 1752              	.LBB510:
 1753              	.LBB511:
 284:../../lpc11cx4-library/lpc_chip_11cxx_lib/inc/ssp_11xx.h **** }
 1754              		.loc 2 284 0
 1755 0014 C368     		ldr	r3, [r0, #12]	@ D.6926, pSSP_5(D)->SR
 1756              	.LBE511:
 1757              	.LBE510:
  77:../../lpc11cx4-library/lpc_chip_11cxx_lib/src/ssp_11xx.c **** 		   (xf_setup->rx_cnt < xf_setup->length)) {
 1758              		.loc 1 77 0
 1759 0016 5B07     		lsl	r3, r3, #29	@ tmp180, D.6926,
ARM GAS  /tmp/ccjsfSlY.s 			page 49


 1760 0018 11D5     		bpl	.L217	@,
  78:../../lpc11cx4-library/lpc_chip_11cxx_lib/src/ssp_11xx.c **** 		rDat = Chip_SSP_ReceiveFrame(pSSP);
 1761              		.loc 1 78 0
 1762 001a CB68     		ldr	r3, [r1, #12]	@ D.6926, xf_setup_7(D)->rx_cnt
  77:../../lpc11cx4-library/lpc_chip_11cxx_lib/src/ssp_11xx.c **** 		   (xf_setup->rx_cnt < xf_setup->length)) {
 1763              		.loc 1 77 0
 1764 001c 9D42     		cmp	r5, r3	@ D.6926, D.6926
 1765 001e 0ED9     		bls	.L217	@,
 1766 0020 8C68     		ldr	r4, [r1, #8]	@ D.6927, xf_setup_7(D)->rx_data
 1767              	.LBB514:
 1768              	.LBB512:
 284:../../lpc11cx4-library/lpc_chip_11cxx_lib/inc/ssp_11xx.h **** }
 1769              		.loc 2 284 0
 1770 0022 0426     		mov	r6, #4	@ tmp176,
 1771 0024 01E0     		b	.L220	@
 1772              	.LVL128:
 1773              	.L245:
 1774              	.LBE512:
 1775              	.LBE514:
  77:../../lpc11cx4-library/lpc_chip_11cxx_lib/src/ssp_11xx.c **** 		   (xf_setup->rx_cnt < xf_setup->length)) {
 1776              		.loc 1 77 0
 1777 0026 9D42     		cmp	r5, r3	@ D.6926, D.6926
 1778 0028 08D9     		bls	.L241	@,
 1779              	.LVL129:
 1780              	.L220:
 1781              	.LBB515:
 1782              	.LBB516:
 366:../../lpc11cx4-library/lpc_chip_11cxx_lib/inc/ssp_11xx.h **** }
 1783              		.loc 2 366 0
 1784 002a 8268     		ldr	r2, [r0, #8]	@ D.6926, pSSP_5(D)->DR
 1785 002c 92B2     		uxth	r2, r2	@ D.6928, D.6926
 1786              	.LBE516:
 1787              	.LBE515:
  80:../../lpc11cx4-library/lpc_chip_11cxx_lib/src/ssp_11xx.c **** 			*(uint16_t *) ((uint32_t) xf_setup->rx_data + xf_setup->rx_cnt) = rDat;
 1788              		.loc 1 80 0
 1789 002e 002C     		cmp	r4, #0	@ D.6927,
 1790 0030 00D0     		beq	.L218	@,
  81:../../lpc11cx4-library/lpc_chip_11cxx_lib/src/ssp_11xx.c **** 		}
 1791              		.loc 1 81 0
 1792 0032 E252     		strh	r2, [r4, r3]	@ D.6928, MEM[base: _86, index: _73, offset: 0B]
 1793              	.L218:
 1794              	.LBB517:
 1795              	.LBB513:
 284:../../lpc11cx4-library/lpc_chip_11cxx_lib/inc/ssp_11xx.h **** }
 1796              		.loc 2 284 0
 1797 0034 C268     		ldr	r2, [r0, #12]	@ D.6926, pSSP_5(D)->SR
 1798              	.LBE513:
 1799              	.LBE517:
  84:../../lpc11cx4-library/lpc_chip_11cxx_lib/src/ssp_11xx.c **** 	}
 1800              		.loc 1 84 0
 1801 0036 0233     		add	r3, r3, #2	@ D.6926,
  77:../../lpc11cx4-library/lpc_chip_11cxx_lib/src/ssp_11xx.c **** 		   (xf_setup->rx_cnt < xf_setup->length)) {
 1802              		.loc 1 77 0
 1803 0038 1642     		tst	r6, r2	@ tmp176, D.6926
 1804 003a F4D1     		bne	.L245	@,
 1805              	.L241:
 1806 003c CB60     		str	r3, [r1, #12]	@ D.6926, xf_setup_7(D)->rx_cnt
ARM GAS  /tmp/ccjsfSlY.s 			page 50


 1807              	.LVL130:
 1808              	.L217:
 1809              	.LBE509:
 1810              	.LBE508:
 1811              	.LBB518:
 1812              	.LBB519:
 1813              	.LBB520:
 1814              	.LBB521:
 1815              		.loc 2 377 0
 1816 003e 214B     		ldr	r3, .L249	@ tmp173,
 1817              	.LBE521:
 1818              	.LBE520:
 1819              	.LBE519:
 1820              	.LBE518:
 1821              	.LBB537:
 1822              	.LBB538:
 284:../../lpc11cx4-library/lpc_chip_11cxx_lib/inc/ssp_11xx.h **** }
 1823              		.loc 2 284 0
 1824 0040 0227     		mov	r7, #2	@ tmp172,
 1825              	.LBE538:
 1826              	.LBE537:
 1827              	.LBB541:
 1828              	.LBB532:
 1829              	.LBB525:
 1830              	.LBB522:
 1831              		.loc 2 377 0
 1832 0042 9846     		mov	r8, r3	@ tmp173, tmp173
 1833              	.LBE522:
 1834              	.LBE525:
 1835              	.LBE532:
 1836              	.LBE541:
 1837              	.LBB542:
 1838              	.LBB543:
 311:../../lpc11cx4-library/lpc_chip_11cxx_lib/inc/ssp_11xx.h **** }
 1839              		.loc 2 311 0
 1840 0044 0123     		mov	r3, #1	@ tmp174,
 1841              	.LBE543:
 1842              	.LBE542:
 1843              	.LBB547:
 1844              	.LBB548:
 1845              	.LBB549:
 1846              	.LBB550:
 284:../../lpc11cx4-library/lpc_chip_11cxx_lib/inc/ssp_11xx.h **** }
 1847              		.loc 2 284 0
 1848 0046 0426     		mov	r6, #4	@ tmp175,
 1849              	.LBE550:
 1850              	.LBE549:
 1851              	.LBE548:
 1852              	.LBE547:
 1853              	.LBB558:
 1854              	.LBB544:
 311:../../lpc11cx4-library/lpc_chip_11cxx_lib/inc/ssp_11xx.h **** }
 1855              		.loc 2 311 0
 1856 0048 9C46     		mov	ip, r3	@ tmp174, tmp174
 1857              	.L216:
 1858              	.LVL131:
 1859              	.LBE544:
ARM GAS  /tmp/ccjsfSlY.s 			page 51


 1860              	.LBE558:
 1861              	.LBB559:
 1862              	.LBB539:
 284:../../lpc11cx4-library/lpc_chip_11cxx_lib/inc/ssp_11xx.h **** }
 1863              		.loc 2 284 0
 1864 004a C368     		ldr	r3, [r0, #12]	@ D.6926, pSSP_5(D)->SR
 1865              	.LBE539:
 1866              	.LBE559:
 424:../../lpc11cx4-library/lpc_chip_11cxx_lib/src/ssp_11xx.c **** 		/* check if RX FIFO contains data */
 425:../../lpc11cx4-library/lpc_chip_11cxx_lib/src/ssp_11xx.c **** 		SSP_Read2BFifo(pSSP, xf_setup);
 426:../../lpc11cx4-library/lpc_chip_11cxx_lib/src/ssp_11xx.c **** 
 427:../../lpc11cx4-library/lpc_chip_11cxx_lib/src/ssp_11xx.c **** 		while ((Chip_SSP_GetStatus(pSSP, SSP_STAT_TNF)) && (xf_setup->tx_cnt != xf_setup->length)) {
 1867              		.loc 1 427 0
 1868 004c 1F42     		tst	r7, r3	@ tmp172, D.6926
 1869 004e 25D0     		beq	.L229	@,
 1870              	.L247:
 1871              		.loc 1 427 0 is_stmt 0 discriminator 1
 1872 0050 4B68     		ldr	r3, [r1, #4]	@ D.6926, xf_setup_7(D)->tx_cnt
 1873 0052 9D42     		cmp	r5, r3	@ D.6926, D.6926
 1874 0054 22D0     		beq	.L229	@,
 1875 0056 0A68     		ldr	r2, [r1]	@ D.6927, MEM[(void * *)xf_setup_7(D)]
 1876              	.LVL132:
 1877              	.LBB560:
 1878              	.LBB533:
  48:../../lpc11cx4-library/lpc_chip_11cxx_lib/src/ssp_11xx.c **** 		Chip_SSP_SendFrame(pSSP, (*(uint16_t *) ((uint32_t) xf_setup->tx_data +
 1879              		.loc 1 48 0 is_stmt 1
 1880 0058 002A     		cmp	r2, #0	@ D.6927,
 1881 005a 23D0     		beq	.L221	@,
 1882              	.LVL133:
 1883              	.LBB526:
 1884              	.LBB527:
 1885              		.loc 2 377 0
 1886 005c D35A     		ldrh	r3, [r2, r3]	@ D.6926, *_37
 1887              	.LVL134:
 1888              	.LBE527:
 1889              	.LBE526:
 1890              	.LBE533:
 1891              	.LBE560:
 428:../../lpc11cx4-library/lpc_chip_11cxx_lib/src/ssp_11xx.c **** 			/* Write data to buffer */
 429:../../lpc11cx4-library/lpc_chip_11cxx_lib/src/ssp_11xx.c **** 			SSP_Write2BFifo(pSSP, xf_setup);
 430:../../lpc11cx4-library/lpc_chip_11cxx_lib/src/ssp_11xx.c **** 
 431:../../lpc11cx4-library/lpc_chip_11cxx_lib/src/ssp_11xx.c **** 			/* Check overrun error in RIS register */
 432:../../lpc11cx4-library/lpc_chip_11cxx_lib/src/ssp_11xx.c **** 			if (Chip_SSP_GetRawIntStatus(pSSP, SSP_RORRIS) == SET) {
 1892              		.loc 1 432 0
 1893 005e 6246     		mov	r2, ip	@ tmp174, tmp174
 1894              	.LVL135:
 1895              	.LBB561:
 1896              	.LBB534:
 1897              	.LBB529:
 1898              	.LBB528:
 1899              		.loc 2 377 0
 1900 0060 8360     		str	r3, [r0, #8]	@ D.6926,
 1901              	.LVL136:
 1902              	.LBE528:
 1903              	.LBE529:
  56:../../lpc11cx4-library/lpc_chip_11cxx_lib/src/ssp_11xx.c **** }
 1904              		.loc 1 56 0
ARM GAS  /tmp/ccjsfSlY.s 			page 52


 1905 0062 4B68     		ldr	r3, [r1, #4]	@ tmp188, MEM[(uint32_t *)xf_setup_7(D) + 4B]
 1906              	.LVL137:
 1907 0064 0233     		add	r3, r3, #2	@ D.6926,
 1908 0066 4B60     		str	r3, [r1, #4]	@ D.6926, MEM[(uint32_t *)xf_setup_7(D) + 4B]
 1909              	.LVL138:
 1910              	.LBE534:
 1911              	.LBE561:
 1912              	.LBB562:
 1913              	.LBB545:
 311:../../lpc11cx4-library/lpc_chip_11cxx_lib/inc/ssp_11xx.h **** }
 1914              		.loc 2 311 0
 1915 0068 8369     		ldr	r3, [r0, #24]	@ D.6926, pSSP_5(D)->RIS
 1916              	.LBE545:
 1917              	.LBE562:
 1918              		.loc 1 432 0
 1919 006a 1A42     		tst	r2, r3	@ tmp174, D.6926
 1920 006c 23D1     		bne	.L214	@,
 1921              	.LVL139:
 1922              	.L248:
 1923              	.LBB563:
 1924              	.LBB557:
 1925              	.LBB553:
 1926              	.LBB551:
 284:../../lpc11cx4-library/lpc_chip_11cxx_lib/inc/ssp_11xx.h **** }
 1927              		.loc 2 284 0
 1928 006e C368     		ldr	r3, [r0, #12]	@ D.6926, pSSP_5(D)->SR
 1929              	.LBE551:
 1930              	.LBE553:
  77:../../lpc11cx4-library/lpc_chip_11cxx_lib/src/ssp_11xx.c **** 		   (xf_setup->rx_cnt < xf_setup->length)) {
 1931              		.loc 1 77 0
 1932 0070 1E42     		tst	r6, r3	@ tmp175, D.6926
 1933 0072 EAD0     		beq	.L216	@,
  78:../../lpc11cx4-library/lpc_chip_11cxx_lib/src/ssp_11xx.c **** 		rDat = Chip_SSP_ReceiveFrame(pSSP);
 1934              		.loc 1 78 0
 1935 0074 CB68     		ldr	r3, [r1, #12]	@ D.6926, xf_setup_7(D)->rx_cnt
  77:../../lpc11cx4-library/lpc_chip_11cxx_lib/src/ssp_11xx.c **** 		   (xf_setup->rx_cnt < xf_setup->length)) {
 1936              		.loc 1 77 0
 1937 0076 9D42     		cmp	r5, r3	@ D.6926, D.6926
 1938 0078 E7D9     		bls	.L216	@,
 1939 007a 8C68     		ldr	r4, [r1, #8]	@ D.6927, xf_setup_7(D)->rx_data
 1940 007c 01E0     		b	.L227	@
 1941              	.LVL140:
 1942              	.L246:
 1943 007e 9D42     		cmp	r5, r3	@ D.6926, D.6926
 1944 0080 08D9     		bls	.L242	@,
 1945              	.LVL141:
 1946              	.L227:
 1947              	.LBB554:
 1948              	.LBB555:
 366:../../lpc11cx4-library/lpc_chip_11cxx_lib/inc/ssp_11xx.h **** }
 1949              		.loc 2 366 0
 1950 0082 8268     		ldr	r2, [r0, #8]	@ D.6926, pSSP_5(D)->DR
 1951 0084 92B2     		uxth	r2, r2	@ D.6928, D.6926
 1952              	.LBE555:
 1953              	.LBE554:
  80:../../lpc11cx4-library/lpc_chip_11cxx_lib/src/ssp_11xx.c **** 			*(uint16_t *) ((uint32_t) xf_setup->rx_data + xf_setup->rx_cnt) = rDat;
 1954              		.loc 1 80 0
ARM GAS  /tmp/ccjsfSlY.s 			page 53


 1955 0086 002C     		cmp	r4, #0	@ D.6927,
 1956 0088 00D0     		beq	.L225	@,
  81:../../lpc11cx4-library/lpc_chip_11cxx_lib/src/ssp_11xx.c **** 		}
 1957              		.loc 1 81 0
 1958 008a E252     		strh	r2, [r4, r3]	@ D.6928, MEM[base: _58, index: _72, offset: 0B]
 1959              	.L225:
 1960              	.LBB556:
 1961              	.LBB552:
 284:../../lpc11cx4-library/lpc_chip_11cxx_lib/inc/ssp_11xx.h **** }
 1962              		.loc 2 284 0
 1963 008c C268     		ldr	r2, [r0, #12]	@ D.6926, pSSP_5(D)->SR
 1964              	.LBE552:
 1965              	.LBE556:
  84:../../lpc11cx4-library/lpc_chip_11cxx_lib/src/ssp_11xx.c **** 	}
 1966              		.loc 1 84 0
 1967 008e 0233     		add	r3, r3, #2	@ D.6926,
  77:../../lpc11cx4-library/lpc_chip_11cxx_lib/src/ssp_11xx.c **** 		   (xf_setup->rx_cnt < xf_setup->length)) {
 1968              		.loc 1 77 0
 1969 0090 1642     		tst	r6, r2	@ tmp175, D.6926
 1970 0092 F4D1     		bne	.L246	@,
 1971              	.L242:
 1972 0094 CB60     		str	r3, [r1, #12]	@ D.6926, xf_setup_7(D)->rx_cnt
 1973              	.LBE557:
 1974              	.LBE563:
 1975              	.LBB564:
 1976              	.LBB540:
 284:../../lpc11cx4-library/lpc_chip_11cxx_lib/inc/ssp_11xx.h **** }
 1977              		.loc 2 284 0
 1978 0096 C368     		ldr	r3, [r0, #12]	@ D.6926, pSSP_5(D)->SR
 1979              	.LBE540:
 1980              	.LBE564:
 427:../../lpc11cx4-library/lpc_chip_11cxx_lib/src/ssp_11xx.c **** 			/* Write data to buffer */
 1981              		.loc 1 427 0
 1982 0098 1F42     		tst	r7, r3	@ tmp172, D.6926
 1983 009a D9D1     		bne	.L247	@,
 1984              	.LVL142:
 1985              	.L229:
 433:../../lpc11cx4-library/lpc_chip_11cxx_lib/src/ssp_11xx.c **** 				return ERROR;
 434:../../lpc11cx4-library/lpc_chip_11cxx_lib/src/ssp_11xx.c **** 			}
 435:../../lpc11cx4-library/lpc_chip_11cxx_lib/src/ssp_11xx.c **** 
 436:../../lpc11cx4-library/lpc_chip_11cxx_lib/src/ssp_11xx.c **** 			/*  Check for any data available in RX FIFO			 */
 437:../../lpc11cx4-library/lpc_chip_11cxx_lib/src/ssp_11xx.c **** 			SSP_Read2BFifo(pSSP, xf_setup);
 438:../../lpc11cx4-library/lpc_chip_11cxx_lib/src/ssp_11xx.c **** 		}
 439:../../lpc11cx4-library/lpc_chip_11cxx_lib/src/ssp_11xx.c **** 
 440:../../lpc11cx4-library/lpc_chip_11cxx_lib/src/ssp_11xx.c **** 		return SUCCESS;
 1986              		.loc 1 440 0
 1987 009c 0120     		mov	r0, #1	@ D.6925,
 1988              	.LVL143:
 1989              	.L212:
 441:../../lpc11cx4-library/lpc_chip_11cxx_lib/src/ssp_11xx.c **** 	}
 442:../../lpc11cx4-library/lpc_chip_11cxx_lib/src/ssp_11xx.c **** 
 443:../../lpc11cx4-library/lpc_chip_11cxx_lib/src/ssp_11xx.c **** 	return ERROR;
 444:../../lpc11cx4-library/lpc_chip_11cxx_lib/src/ssp_11xx.c **** }
 1990              		.loc 1 444 0
 1991              		@ sp needed	@
 1992 009e 04BC     		pop	{r2}
 1993 00a0 9046     		mov	r8, r2
ARM GAS  /tmp/ccjsfSlY.s 			page 54


 1994 00a2 F0BD     		pop	{r4, r5, r6, r7, pc}
 1995              	.LVL144:
 1996              	.L221:
 1997              	.LBB565:
 1998              	.LBB535:
 1999              	.LBB530:
 2000              	.LBB523:
 2001              		.loc 2 377 0
 2002 00a4 4346     		mov	r3, r8	@ tmp173, tmp173
 2003              	.LBE523:
 2004              	.LBE530:
 2005              	.LBE535:
 2006              	.LBE565:
 432:../../lpc11cx4-library/lpc_chip_11cxx_lib/src/ssp_11xx.c **** 				return ERROR;
 2007              		.loc 1 432 0
 2008 00a6 6246     		mov	r2, ip	@ tmp174, tmp174
 2009              	.LBB566:
 2010              	.LBB536:
 2011              	.LBB531:
 2012              	.LBB524:
 2013              		.loc 2 377 0
 2014 00a8 8360     		str	r3, [r0, #8]	@ tmp173,
 2015              	.LBE524:
 2016              	.LBE531:
  56:../../lpc11cx4-library/lpc_chip_11cxx_lib/src/ssp_11xx.c **** }
 2017              		.loc 1 56 0
 2018 00aa 4B68     		ldr	r3, [r1, #4]	@ tmp188, MEM[(uint32_t *)xf_setup_7(D) + 4B]
 2019 00ac 0233     		add	r3, r3, #2	@ D.6926,
 2020 00ae 4B60     		str	r3, [r1, #4]	@ D.6926, MEM[(uint32_t *)xf_setup_7(D) + 4B]
 2021              	.LVL145:
 2022              	.LBE536:
 2023              	.LBE566:
 2024              	.LBB567:
 2025              	.LBB546:
 311:../../lpc11cx4-library/lpc_chip_11cxx_lib/inc/ssp_11xx.h **** }
 2026              		.loc 2 311 0
 2027 00b0 8369     		ldr	r3, [r0, #24]	@ D.6926, pSSP_5(D)->RIS
 2028              	.LBE546:
 2029              	.LBE567:
 432:../../lpc11cx4-library/lpc_chip_11cxx_lib/src/ssp_11xx.c **** 				return ERROR;
 2030              		.loc 1 432 0
 2031 00b2 1A42     		tst	r2, r3	@ tmp174, D.6926
 2032 00b4 DBD0     		beq	.L248	@,
 2033              	.LVL146:
 2034              	.L214:
 420:../../lpc11cx4-library/lpc_chip_11cxx_lib/src/ssp_11xx.c **** 	}
 2035              		.loc 1 420 0
 2036 00b6 0020     		mov	r0, #0	@ D.6925,
 2037              	.LVL147:
 2038 00b8 F1E7     		b	.L212	@
 2039              	.LVL148:
 2040              	.L244:
 423:../../lpc11cx4-library/lpc_chip_11cxx_lib/src/ssp_11xx.c **** 		/* check if RX FIFO contains data */
 2041              		.loc 1 423 0 discriminator 1
 2042 00ba CB68     		ldr	r3, [r1, #12]	@ tmp183, xf_setup_7(D)->rx_cnt
 2043 00bc 9D42     		cmp	r5, r3	@ D.6926, tmp183
 2044 00be A9D1     		bne	.L213	@,
ARM GAS  /tmp/ccjsfSlY.s 			page 55


 420:../../lpc11cx4-library/lpc_chip_11cxx_lib/src/ssp_11xx.c **** 	}
 2045              		.loc 1 420 0
 2046 00c0 0020     		mov	r0, #0	@ D.6925,
 2047              	.LVL149:
 2048 00c2 ECE7     		b	.L212	@
 2049              	.L250:
 2050              		.align	2
 2051              	.L249:
 2052 00c4 FFFF0000 		.word	65535
 2053              		.cfi_endproc
 2054              	.LFE212:
 2055              		.size	Chip_SSP_Int_RWFrames16Bits, .-Chip_SSP_Int_RWFrames16Bits
 2056              		.section	.text.Chip_SSP_SetMaster,"ax",%progbits
 2057              		.align	2
 2058              		.global	Chip_SSP_SetMaster
 2059              		.code	16
 2060              		.thumb_func
 2061              		.type	Chip_SSP_SetMaster, %function
 2062              	Chip_SSP_SetMaster:
 2063              	.LFB213:
 445:../../lpc11cx4-library/lpc_chip_11cxx_lib/src/ssp_11xx.c **** 
 446:../../lpc11cx4-library/lpc_chip_11cxx_lib/src/ssp_11xx.c **** /* Set the SSP operating modes, master or slave */
 447:../../lpc11cx4-library/lpc_chip_11cxx_lib/src/ssp_11xx.c **** void Chip_SSP_SetMaster(LPC_SSP_T *pSSP, bool master)
 448:../../lpc11cx4-library/lpc_chip_11cxx_lib/src/ssp_11xx.c **** {
 2064              		.loc 1 448 0
 2065              		.cfi_startproc
 2066              	.LVL150:
 449:../../lpc11cx4-library/lpc_chip_11cxx_lib/src/ssp_11xx.c **** 	if (master) {
 2067              		.loc 1 449 0
 2068 0000 0029     		cmp	r1, #0	@ master,
 2069 0002 04D1     		bne	.L254	@,
 2070              	.LVL151:
 2071              	.LBB568:
 2072              	.LBB569:
 378:../../lpc11cx4-library/lpc_chip_11cxx_lib/inc/ssp_11xx.h **** }
 379:../../lpc11cx4-library/lpc_chip_11cxx_lib/inc/ssp_11xx.h **** 
 380:../../lpc11cx4-library/lpc_chip_11cxx_lib/inc/ssp_11xx.h **** /**
 381:../../lpc11cx4-library/lpc_chip_11cxx_lib/inc/ssp_11xx.h ****  * @brief	Set up output clocks per bit for SSP bus
 382:../../lpc11cx4-library/lpc_chip_11cxx_lib/inc/ssp_11xx.h ****  * @param	pSSP		: The base of SSP peripheral on the chip
 383:../../lpc11cx4-library/lpc_chip_11cxx_lib/inc/ssp_11xx.h ****  * @param	clk_rate	fs: The number of prescaler-output clocks per bit on the bus, minus one
 384:../../lpc11cx4-library/lpc_chip_11cxx_lib/inc/ssp_11xx.h ****  * @param	prescale	: The factor by which the Prescaler divides the SSP peripheral clock PCLK
 385:../../lpc11cx4-library/lpc_chip_11cxx_lib/inc/ssp_11xx.h ****  * @return	 Nothing
 386:../../lpc11cx4-library/lpc_chip_11cxx_lib/inc/ssp_11xx.h ****  * @note	The bit frequency is PCLK / (prescale x[clk_rate+1])
 387:../../lpc11cx4-library/lpc_chip_11cxx_lib/inc/ssp_11xx.h ****  */
 388:../../lpc11cx4-library/lpc_chip_11cxx_lib/inc/ssp_11xx.h **** void Chip_SSP_SetClockRate(LPC_SSP_T *pSSP, uint32_t clk_rate, uint32_t prescale);
 389:../../lpc11cx4-library/lpc_chip_11cxx_lib/inc/ssp_11xx.h **** 
 390:../../lpc11cx4-library/lpc_chip_11cxx_lib/inc/ssp_11xx.h **** /**
 391:../../lpc11cx4-library/lpc_chip_11cxx_lib/inc/ssp_11xx.h ****  * @brief	Set up the SSP frame format
 392:../../lpc11cx4-library/lpc_chip_11cxx_lib/inc/ssp_11xx.h ****  * @param	pSSP		: The base of SSP peripheral on the chip
 393:../../lpc11cx4-library/lpc_chip_11cxx_lib/inc/ssp_11xx.h ****  * @param	bits		: The number of bits transferred in each frame, should be SSP_BITS_4 to SSP_BITS_16
 394:../../lpc11cx4-library/lpc_chip_11cxx_lib/inc/ssp_11xx.h ****  * @param	frameFormat	: Frame format, should be :
 395:../../lpc11cx4-library/lpc_chip_11cxx_lib/inc/ssp_11xx.h ****  *							- SSP_FRAMEFORMAT_SPI
 396:../../lpc11cx4-library/lpc_chip_11cxx_lib/inc/ssp_11xx.h ****  *							- SSP_FRAME_FORMAT_TI
 397:../../lpc11cx4-library/lpc_chip_11cxx_lib/inc/ssp_11xx.h ****  *							- SSP_FRAMEFORMAT_MICROWIRE
 398:../../lpc11cx4-library/lpc_chip_11cxx_lib/inc/ssp_11xx.h ****  * @param	clockMode	: Select Clock polarity and Clock phase, should be :
 399:../../lpc11cx4-library/lpc_chip_11cxx_lib/inc/ssp_11xx.h ****  *							- SSP_CLOCK_CPHA0_CPOL0
 400:../../lpc11cx4-library/lpc_chip_11cxx_lib/inc/ssp_11xx.h ****  *							- SSP_CLOCK_CPHA0_CPOL1
ARM GAS  /tmp/ccjsfSlY.s 			page 56


 401:../../lpc11cx4-library/lpc_chip_11cxx_lib/inc/ssp_11xx.h ****  *							- SSP_CLOCK_CPHA1_CPOL0
 402:../../lpc11cx4-library/lpc_chip_11cxx_lib/inc/ssp_11xx.h ****  *							- SSP_CLOCK_CPHA1_CPOL1
 403:../../lpc11cx4-library/lpc_chip_11cxx_lib/inc/ssp_11xx.h ****  * @return	 Nothing
 404:../../lpc11cx4-library/lpc_chip_11cxx_lib/inc/ssp_11xx.h ****  * @note	Note: The clockFormat is only used in SPI mode
 405:../../lpc11cx4-library/lpc_chip_11cxx_lib/inc/ssp_11xx.h ****  */
 406:../../lpc11cx4-library/lpc_chip_11cxx_lib/inc/ssp_11xx.h **** STATIC INLINE void Chip_SSP_SetFormat(LPC_SSP_T *pSSP, uint32_t bits, uint32_t frameFormat, uint32_
 407:../../lpc11cx4-library/lpc_chip_11cxx_lib/inc/ssp_11xx.h **** {
 408:../../lpc11cx4-library/lpc_chip_11cxx_lib/inc/ssp_11xx.h **** 	pSSP->CR0 = (pSSP->CR0 & ~0xFF) | bits | frameFormat | clockMode;
 409:../../lpc11cx4-library/lpc_chip_11cxx_lib/inc/ssp_11xx.h **** }
 410:../../lpc11cx4-library/lpc_chip_11cxx_lib/inc/ssp_11xx.h **** 
 411:../../lpc11cx4-library/lpc_chip_11cxx_lib/inc/ssp_11xx.h **** /**
 412:../../lpc11cx4-library/lpc_chip_11cxx_lib/inc/ssp_11xx.h ****  * @brief	Set the SSP working as master or slave mode
 413:../../lpc11cx4-library/lpc_chip_11cxx_lib/inc/ssp_11xx.h ****  * @param	pSSP	: The base of SSP peripheral on the chip
 414:../../lpc11cx4-library/lpc_chip_11cxx_lib/inc/ssp_11xx.h ****  * @param	mode	: Operating mode, should be
 415:../../lpc11cx4-library/lpc_chip_11cxx_lib/inc/ssp_11xx.h ****  *						- SSP_MODE_MASTER
 416:../../lpc11cx4-library/lpc_chip_11cxx_lib/inc/ssp_11xx.h ****  *						- SSP_MODE_SLAVE
 417:../../lpc11cx4-library/lpc_chip_11cxx_lib/inc/ssp_11xx.h ****  * @return	 Nothing
 418:../../lpc11cx4-library/lpc_chip_11cxx_lib/inc/ssp_11xx.h ****  */
 419:../../lpc11cx4-library/lpc_chip_11cxx_lib/inc/ssp_11xx.h **** STATIC INLINE void Chip_SSP_Set_Mode(LPC_SSP_T *pSSP, uint32_t mode)
 420:../../lpc11cx4-library/lpc_chip_11cxx_lib/inc/ssp_11xx.h **** {
 421:../../lpc11cx4-library/lpc_chip_11cxx_lib/inc/ssp_11xx.h **** 	pSSP->CR1 = (pSSP->CR1 & ~(1 << 2)) | mode;
 2073              		.loc 2 421 0
 2074 0004 0423     		mov	r3, #4	@ D.6933,
 2075 0006 4268     		ldr	r2, [r0, #4]	@ D.6933, pSSP_4(D)->CR1
 2076 0008 1343     		orr	r3, r2	@ D.6933, D.6933
 2077 000a 4360     		str	r3, [r0, #4]	@ D.6933,
 2078              	.LVL152:
 2079              	.L251:
 2080              	.LBE569:
 2081              	.LBE568:
 450:../../lpc11cx4-library/lpc_chip_11cxx_lib/src/ssp_11xx.c **** 		Chip_SSP_Set_Mode(pSSP, SSP_MODE_MASTER);
 451:../../lpc11cx4-library/lpc_chip_11cxx_lib/src/ssp_11xx.c **** 	}
 452:../../lpc11cx4-library/lpc_chip_11cxx_lib/src/ssp_11xx.c **** 	else {
 453:../../lpc11cx4-library/lpc_chip_11cxx_lib/src/ssp_11xx.c **** 		Chip_SSP_Set_Mode(pSSP, SSP_MODE_SLAVE);
 454:../../lpc11cx4-library/lpc_chip_11cxx_lib/src/ssp_11xx.c **** 	}
 455:../../lpc11cx4-library/lpc_chip_11cxx_lib/src/ssp_11xx.c **** }
 2082              		.loc 1 455 0
 2083              		@ sp needed	@
 2084 000c 7047     		bx	lr
 2085              	.L254:
 2086              	.LVL153:
 2087              	.LBB570:
 2088              	.LBB571:
 2089              		.loc 2 421 0
 2090 000e 0422     		mov	r2, #4	@ tmp117,
 2091 0010 4368     		ldr	r3, [r0, #4]	@ D.6933, pSSP_4(D)->CR1
 2092 0012 9343     		bic	r3, r2	@ D.6933, tmp117
 2093 0014 4360     		str	r3, [r0, #4]	@ D.6933,
 2094 0016 F9E7     		b	.L251	@
 2095              	.LBE571:
 2096              	.LBE570:
 2097              		.cfi_endproc
 2098              	.LFE213:
 2099              		.size	Chip_SSP_SetMaster, .-Chip_SSP_SetMaster
 2100              		.global	__aeabi_uidiv
 2101              		.section	.text.Chip_SSP_SetBitRate,"ax",%progbits
 2102              		.align	2
ARM GAS  /tmp/ccjsfSlY.s 			page 57


 2103              		.global	Chip_SSP_SetBitRate
 2104              		.code	16
 2105              		.thumb_func
 2106              		.type	Chip_SSP_SetBitRate, %function
 2107              	Chip_SSP_SetBitRate:
 2108              	.LFB214:
 456:../../lpc11cx4-library/lpc_chip_11cxx_lib/src/ssp_11xx.c **** 
 457:../../lpc11cx4-library/lpc_chip_11cxx_lib/src/ssp_11xx.c **** /* Set the clock frequency for SSP interface */
 458:../../lpc11cx4-library/lpc_chip_11cxx_lib/src/ssp_11xx.c **** void Chip_SSP_SetBitRate(LPC_SSP_T *pSSP, uint32_t bitRate)
 459:../../lpc11cx4-library/lpc_chip_11cxx_lib/src/ssp_11xx.c **** {
 2109              		.loc 1 459 0
 2110              		.cfi_startproc
 2111              	.LVL154:
 2112 0000 F8B5     		push	{r3, r4, r5, r6, r7, lr}	@
 2113              		.cfi_def_cfa_offset 24
 2114              		.cfi_offset 3, -24
 2115              		.cfi_offset 4, -20
 2116              		.cfi_offset 5, -16
 2117              		.cfi_offset 6, -12
 2118              		.cfi_offset 7, -8
 2119              		.cfi_offset 14, -4
 2120 0002 4F46     		mov	r7, r9	@,
 2121 0004 4646     		mov	r6, r8	@,
 2122 0006 C0B4     		push	{r6, r7}	@
 2123              		.cfi_def_cfa_offset 32
 2124              		.cfi_offset 8, -32
 2125              		.cfi_offset 9, -28
 2126              		.loc 1 459 0
 2127 0008 8846     		mov	r8, r1	@ bitRate, bitRate
 2128 000a 071C     		mov	r7, r0	@ pSSP, pSSP
 2129              	.LVL155:
 2130              	.LBB572:
 2131              	.LBB573:
 152:../../lpc11cx4-library/lpc_chip_11cxx_lib/src/ssp_11xx.c **** 
 2132              		.loc 1 152 0
 2133 000c FFF7FEFF 		bl	Chip_Clock_GetMainClockRate	@
 2134              	.LVL156:
 154:../../lpc11cx4-library/lpc_chip_11cxx_lib/src/ssp_11xx.c **** 		sspCLK /= Chip_Clock_GetSSP0ClockDiv();
 2135              		.loc 1 154 0
 2136 0010 1C4B     		ldr	r3, .L266	@ tmp126,
 2137 0012 9F42     		cmp	r7, r3	@ pSSP, tmp126
 2138 0014 2BD0     		beq	.L264	@,
 2139              	.LBB574:
 2140              	.LBB575:
 2141              		.file 3 "../../lpc11cx4-library/lpc_chip_11cxx_lib/inc/clock_11xx.h"
   1:../../lpc11cx4-library/lpc_chip_11cxx_lib/inc/clock_11xx.h **** /*
   2:../../lpc11cx4-library/lpc_chip_11cxx_lib/inc/clock_11xx.h ****  * @brief LPC11XX Clock control functions
   3:../../lpc11cx4-library/lpc_chip_11cxx_lib/inc/clock_11xx.h ****  *
   4:../../lpc11cx4-library/lpc_chip_11cxx_lib/inc/clock_11xx.h ****  * @note
   5:../../lpc11cx4-library/lpc_chip_11cxx_lib/inc/clock_11xx.h ****  * Copyright(C) NXP Semiconductors, 2012
   6:../../lpc11cx4-library/lpc_chip_11cxx_lib/inc/clock_11xx.h ****  * All rights reserved.
   7:../../lpc11cx4-library/lpc_chip_11cxx_lib/inc/clock_11xx.h ****  *
   8:../../lpc11cx4-library/lpc_chip_11cxx_lib/inc/clock_11xx.h ****  * @par
   9:../../lpc11cx4-library/lpc_chip_11cxx_lib/inc/clock_11xx.h ****  * Software that is described herein is for illustrative purposes only
  10:../../lpc11cx4-library/lpc_chip_11cxx_lib/inc/clock_11xx.h ****  * which provides customers with programming information regarding the
  11:../../lpc11cx4-library/lpc_chip_11cxx_lib/inc/clock_11xx.h ****  * LPC products.  This software is supplied "AS IS" without any warranties of
  12:../../lpc11cx4-library/lpc_chip_11cxx_lib/inc/clock_11xx.h ****  * any kind, and NXP Semiconductors and its licensor disclaim any and
ARM GAS  /tmp/ccjsfSlY.s 			page 58


  13:../../lpc11cx4-library/lpc_chip_11cxx_lib/inc/clock_11xx.h ****  * all warranties, express or implied, including all implied warranties of
  14:../../lpc11cx4-library/lpc_chip_11cxx_lib/inc/clock_11xx.h ****  * merchantability, fitness for a particular purpose and non-infringement of
  15:../../lpc11cx4-library/lpc_chip_11cxx_lib/inc/clock_11xx.h ****  * intellectual property rights.  NXP Semiconductors assumes no responsibility
  16:../../lpc11cx4-library/lpc_chip_11cxx_lib/inc/clock_11xx.h ****  * or liability for the use of the software, conveys no license or rights under any
  17:../../lpc11cx4-library/lpc_chip_11cxx_lib/inc/clock_11xx.h ****  * patent, copyright, mask work right, or any other intellectual property rights in
  18:../../lpc11cx4-library/lpc_chip_11cxx_lib/inc/clock_11xx.h ****  * or to any products. NXP Semiconductors reserves the right to make changes
  19:../../lpc11cx4-library/lpc_chip_11cxx_lib/inc/clock_11xx.h ****  * in the software without notification. NXP Semiconductors also makes no
  20:../../lpc11cx4-library/lpc_chip_11cxx_lib/inc/clock_11xx.h ****  * representation or warranty that such application will be suitable for the
  21:../../lpc11cx4-library/lpc_chip_11cxx_lib/inc/clock_11xx.h ****  * specified use without further testing or modification.
  22:../../lpc11cx4-library/lpc_chip_11cxx_lib/inc/clock_11xx.h ****  *
  23:../../lpc11cx4-library/lpc_chip_11cxx_lib/inc/clock_11xx.h ****  * @par
  24:../../lpc11cx4-library/lpc_chip_11cxx_lib/inc/clock_11xx.h ****  * Permission to use, copy, modify, and distribute this software and its
  25:../../lpc11cx4-library/lpc_chip_11cxx_lib/inc/clock_11xx.h ****  * documentation is hereby granted, under NXP Semiconductors' and its
  26:../../lpc11cx4-library/lpc_chip_11cxx_lib/inc/clock_11xx.h ****  * licensor's relevant copyrights in the software, without fee, provided that it
  27:../../lpc11cx4-library/lpc_chip_11cxx_lib/inc/clock_11xx.h ****  * is used in conjunction with NXP Semiconductors microcontrollers.  This
  28:../../lpc11cx4-library/lpc_chip_11cxx_lib/inc/clock_11xx.h ****  * copyright, permission, and disclaimer notice must appear in all copies of
  29:../../lpc11cx4-library/lpc_chip_11cxx_lib/inc/clock_11xx.h ****  * this code.
  30:../../lpc11cx4-library/lpc_chip_11cxx_lib/inc/clock_11xx.h ****  */
  31:../../lpc11cx4-library/lpc_chip_11cxx_lib/inc/clock_11xx.h **** 
  32:../../lpc11cx4-library/lpc_chip_11cxx_lib/inc/clock_11xx.h **** #ifndef __CLOCK_11XX_H_
  33:../../lpc11cx4-library/lpc_chip_11cxx_lib/inc/clock_11xx.h **** #define __CLOCK_11XX_H_
  34:../../lpc11cx4-library/lpc_chip_11cxx_lib/inc/clock_11xx.h **** 
  35:../../lpc11cx4-library/lpc_chip_11cxx_lib/inc/clock_11xx.h **** #ifdef __cplusplus
  36:../../lpc11cx4-library/lpc_chip_11cxx_lib/inc/clock_11xx.h **** extern "C" {
  37:../../lpc11cx4-library/lpc_chip_11cxx_lib/inc/clock_11xx.h **** #endif
  38:../../lpc11cx4-library/lpc_chip_11cxx_lib/inc/clock_11xx.h **** 
  39:../../lpc11cx4-library/lpc_chip_11cxx_lib/inc/clock_11xx.h **** /** @defgroup CLOCK_11XX CHIP: LPC11xx Clock Control block driver
  40:../../lpc11cx4-library/lpc_chip_11cxx_lib/inc/clock_11xx.h ****  * @ingroup CHIP_11XX_Drivers
  41:../../lpc11cx4-library/lpc_chip_11cxx_lib/inc/clock_11xx.h ****  * @{
  42:../../lpc11cx4-library/lpc_chip_11cxx_lib/inc/clock_11xx.h ****  */
  43:../../lpc11cx4-library/lpc_chip_11cxx_lib/inc/clock_11xx.h **** 
  44:../../lpc11cx4-library/lpc_chip_11cxx_lib/inc/clock_11xx.h **** /** Internal oscillator frequency */
  45:../../lpc11cx4-library/lpc_chip_11cxx_lib/inc/clock_11xx.h **** #define SYSCTL_IRC_FREQ (12000000)
  46:../../lpc11cx4-library/lpc_chip_11cxx_lib/inc/clock_11xx.h **** 
  47:../../lpc11cx4-library/lpc_chip_11cxx_lib/inc/clock_11xx.h **** /**
  48:../../lpc11cx4-library/lpc_chip_11cxx_lib/inc/clock_11xx.h ****  * @brief	Set System PLL divider values
  49:../../lpc11cx4-library/lpc_chip_11cxx_lib/inc/clock_11xx.h ****  * @param	msel    : PLL feedback divider value. M = msel + 1.
  50:../../lpc11cx4-library/lpc_chip_11cxx_lib/inc/clock_11xx.h ****  * @param	psel    : PLL post divider value. P =  (1<<psel).
  51:../../lpc11cx4-library/lpc_chip_11cxx_lib/inc/clock_11xx.h ****  * @return	Nothing
  52:../../lpc11cx4-library/lpc_chip_11cxx_lib/inc/clock_11xx.h ****  * @note	See the user manual for how to setup the PLL.
  53:../../lpc11cx4-library/lpc_chip_11cxx_lib/inc/clock_11xx.h ****  */
  54:../../lpc11cx4-library/lpc_chip_11cxx_lib/inc/clock_11xx.h **** STATIC INLINE void Chip_Clock_SetupSystemPLL(uint8_t msel, uint8_t psel)
  55:../../lpc11cx4-library/lpc_chip_11cxx_lib/inc/clock_11xx.h **** {
  56:../../lpc11cx4-library/lpc_chip_11cxx_lib/inc/clock_11xx.h **** 	LPC_SYSCTL->SYSPLLCTRL = (msel & 0x1F) | ((psel & 0x3) << 5);
  57:../../lpc11cx4-library/lpc_chip_11cxx_lib/inc/clock_11xx.h **** }
  58:../../lpc11cx4-library/lpc_chip_11cxx_lib/inc/clock_11xx.h **** 
  59:../../lpc11cx4-library/lpc_chip_11cxx_lib/inc/clock_11xx.h **** /**
  60:../../lpc11cx4-library/lpc_chip_11cxx_lib/inc/clock_11xx.h ****  * @brief	Read System PLL lock status
  61:../../lpc11cx4-library/lpc_chip_11cxx_lib/inc/clock_11xx.h ****  * @return	true of the PLL is locked. false if not locked
  62:../../lpc11cx4-library/lpc_chip_11cxx_lib/inc/clock_11xx.h ****  */
  63:../../lpc11cx4-library/lpc_chip_11cxx_lib/inc/clock_11xx.h **** STATIC INLINE bool Chip_Clock_IsSystemPLLLocked(void)
  64:../../lpc11cx4-library/lpc_chip_11cxx_lib/inc/clock_11xx.h **** {
  65:../../lpc11cx4-library/lpc_chip_11cxx_lib/inc/clock_11xx.h **** 	return (bool) ((LPC_SYSCTL->SYSPLLSTAT & 1) != 0);
  66:../../lpc11cx4-library/lpc_chip_11cxx_lib/inc/clock_11xx.h **** }
  67:../../lpc11cx4-library/lpc_chip_11cxx_lib/inc/clock_11xx.h **** 
  68:../../lpc11cx4-library/lpc_chip_11cxx_lib/inc/clock_11xx.h **** /**
  69:../../lpc11cx4-library/lpc_chip_11cxx_lib/inc/clock_11xx.h ****  * Clock sources for system and USB PLLs
ARM GAS  /tmp/ccjsfSlY.s 			page 59


  70:../../lpc11cx4-library/lpc_chip_11cxx_lib/inc/clock_11xx.h ****  */
  71:../../lpc11cx4-library/lpc_chip_11cxx_lib/inc/clock_11xx.h **** typedef enum CHIP_SYSCTL_PLLCLKSRC {
  72:../../lpc11cx4-library/lpc_chip_11cxx_lib/inc/clock_11xx.h **** 	SYSCTL_PLLCLKSRC_IRC = 0,		/*!< Internal oscillator in */
  73:../../lpc11cx4-library/lpc_chip_11cxx_lib/inc/clock_11xx.h **** 	SYSCTL_PLLCLKSRC_MAINOSC,		/*!< Crystal (main) oscillator in */
  74:../../lpc11cx4-library/lpc_chip_11cxx_lib/inc/clock_11xx.h **** #if defined(CHIP_LPC11AXX)
  75:../../lpc11cx4-library/lpc_chip_11cxx_lib/inc/clock_11xx.h **** 	SYSCTL_PLLCLKSRC_EXT_CLKIN,	/*!< External clock in (11Axx only) */
  76:../../lpc11cx4-library/lpc_chip_11cxx_lib/inc/clock_11xx.h **** #else
  77:../../lpc11cx4-library/lpc_chip_11cxx_lib/inc/clock_11xx.h **** 	SYSCTL_PLLCLKSRC_RESERVED1,	/*!< Reserved */
  78:../../lpc11cx4-library/lpc_chip_11cxx_lib/inc/clock_11xx.h **** #endif
  79:../../lpc11cx4-library/lpc_chip_11cxx_lib/inc/clock_11xx.h **** 	SYSCTL_PLLCLKSRC_RESERVED2,	/*!< Reserved */
  80:../../lpc11cx4-library/lpc_chip_11cxx_lib/inc/clock_11xx.h **** } CHIP_SYSCTL_PLLCLKSRC_T;
  81:../../lpc11cx4-library/lpc_chip_11cxx_lib/inc/clock_11xx.h **** 
  82:../../lpc11cx4-library/lpc_chip_11cxx_lib/inc/clock_11xx.h **** /**
  83:../../lpc11cx4-library/lpc_chip_11cxx_lib/inc/clock_11xx.h ****  * @brief	Set System PLL clock source
  84:../../lpc11cx4-library/lpc_chip_11cxx_lib/inc/clock_11xx.h ****  * @param	src	: Clock source for system PLL
  85:../../lpc11cx4-library/lpc_chip_11cxx_lib/inc/clock_11xx.h ****  * @return	Nothing
  86:../../lpc11cx4-library/lpc_chip_11cxx_lib/inc/clock_11xx.h ****  * @note	This function will also toggle the clock source update register
  87:../../lpc11cx4-library/lpc_chip_11cxx_lib/inc/clock_11xx.h ****  * to update the clock source.
  88:../../lpc11cx4-library/lpc_chip_11cxx_lib/inc/clock_11xx.h ****  */
  89:../../lpc11cx4-library/lpc_chip_11cxx_lib/inc/clock_11xx.h **** void Chip_Clock_SetSystemPLLSource(CHIP_SYSCTL_PLLCLKSRC_T src);
  90:../../lpc11cx4-library/lpc_chip_11cxx_lib/inc/clock_11xx.h **** 
  91:../../lpc11cx4-library/lpc_chip_11cxx_lib/inc/clock_11xx.h **** #if defined(CHIP_LPC11UXX)
  92:../../lpc11cx4-library/lpc_chip_11cxx_lib/inc/clock_11xx.h **** /**
  93:../../lpc11cx4-library/lpc_chip_11cxx_lib/inc/clock_11xx.h ****  * @brief	Set USB PLL divider values
  94:../../lpc11cx4-library/lpc_chip_11cxx_lib/inc/clock_11xx.h ****  * @param	msel    : PLL feedback divider value. M = msel + 1.
  95:../../lpc11cx4-library/lpc_chip_11cxx_lib/inc/clock_11xx.h ****  * @param	psel    : PLL post divider value. P = (1<<psel).
  96:../../lpc11cx4-library/lpc_chip_11cxx_lib/inc/clock_11xx.h ****  * @return	Nothing
  97:../../lpc11cx4-library/lpc_chip_11cxx_lib/inc/clock_11xx.h ****  * @note	See the user manual for how to setup the PLL.
  98:../../lpc11cx4-library/lpc_chip_11cxx_lib/inc/clock_11xx.h ****  */
  99:../../lpc11cx4-library/lpc_chip_11cxx_lib/inc/clock_11xx.h **** STATIC INLINE void Chip_Clock_SetupUSBPLL(uint8_t msel, uint8_t psel)
 100:../../lpc11cx4-library/lpc_chip_11cxx_lib/inc/clock_11xx.h **** {
 101:../../lpc11cx4-library/lpc_chip_11cxx_lib/inc/clock_11xx.h **** 	LPC_SYSCTL->USBPLLCTRL = (msel & 0x1F) | ((psel & 0x3) << 5);
 102:../../lpc11cx4-library/lpc_chip_11cxx_lib/inc/clock_11xx.h **** }
 103:../../lpc11cx4-library/lpc_chip_11cxx_lib/inc/clock_11xx.h **** 
 104:../../lpc11cx4-library/lpc_chip_11cxx_lib/inc/clock_11xx.h **** /**
 105:../../lpc11cx4-library/lpc_chip_11cxx_lib/inc/clock_11xx.h ****  * @brief	Read USB PLL lock status
 106:../../lpc11cx4-library/lpc_chip_11cxx_lib/inc/clock_11xx.h ****  * @return	true of the PLL is locked. false if not locked
 107:../../lpc11cx4-library/lpc_chip_11cxx_lib/inc/clock_11xx.h ****  */
 108:../../lpc11cx4-library/lpc_chip_11cxx_lib/inc/clock_11xx.h **** STATIC INLINE bool Chip_Clock_IsUSBPLLLocked(void)
 109:../../lpc11cx4-library/lpc_chip_11cxx_lib/inc/clock_11xx.h **** {
 110:../../lpc11cx4-library/lpc_chip_11cxx_lib/inc/clock_11xx.h **** 	return (bool) ((LPC_SYSCTL->USBPLLSTAT & 1) != 0);
 111:../../lpc11cx4-library/lpc_chip_11cxx_lib/inc/clock_11xx.h **** }
 112:../../lpc11cx4-library/lpc_chip_11cxx_lib/inc/clock_11xx.h **** 
 113:../../lpc11cx4-library/lpc_chip_11cxx_lib/inc/clock_11xx.h **** /**
 114:../../lpc11cx4-library/lpc_chip_11cxx_lib/inc/clock_11xx.h ****  * @brief	Set USB PLL clock source
 115:../../lpc11cx4-library/lpc_chip_11cxx_lib/inc/clock_11xx.h ****  * @param	src	: Clock source for USB PLL
 116:../../lpc11cx4-library/lpc_chip_11cxx_lib/inc/clock_11xx.h ****  * @return	Nothing
 117:../../lpc11cx4-library/lpc_chip_11cxx_lib/inc/clock_11xx.h ****  * @note	This function will also toggle the clock source update register
 118:../../lpc11cx4-library/lpc_chip_11cxx_lib/inc/clock_11xx.h ****  * to update the clock source.
 119:../../lpc11cx4-library/lpc_chip_11cxx_lib/inc/clock_11xx.h ****  */
 120:../../lpc11cx4-library/lpc_chip_11cxx_lib/inc/clock_11xx.h **** void Chip_Clock_SetUSBPLLSource(CHIP_SYSCTL_PLLCLKSRC_T src);
 121:../../lpc11cx4-library/lpc_chip_11cxx_lib/inc/clock_11xx.h **** 
 122:../../lpc11cx4-library/lpc_chip_11cxx_lib/inc/clock_11xx.h **** #endif /*defined(CHIP_LPC11UXX)*/
 123:../../lpc11cx4-library/lpc_chip_11cxx_lib/inc/clock_11xx.h **** 
 124:../../lpc11cx4-library/lpc_chip_11cxx_lib/inc/clock_11xx.h **** /**
 125:../../lpc11cx4-library/lpc_chip_11cxx_lib/inc/clock_11xx.h ****  * @brief	Bypass System Oscillator and set oscillator frequency range
 126:../../lpc11cx4-library/lpc_chip_11cxx_lib/inc/clock_11xx.h ****  * @param	bypass	: Flag to bypass oscillator
ARM GAS  /tmp/ccjsfSlY.s 			page 60


 127:../../lpc11cx4-library/lpc_chip_11cxx_lib/inc/clock_11xx.h ****  * @param	highfr	: Flag to set oscillator range from 15-25 MHz
 128:../../lpc11cx4-library/lpc_chip_11cxx_lib/inc/clock_11xx.h ****  * @return	Nothing
 129:../../lpc11cx4-library/lpc_chip_11cxx_lib/inc/clock_11xx.h ****  * @note	Sets the PLL input to bypass the oscillator. This would be
 130:../../lpc11cx4-library/lpc_chip_11cxx_lib/inc/clock_11xx.h ****  * used if an external clock that is not an oscillator is attached
 131:../../lpc11cx4-library/lpc_chip_11cxx_lib/inc/clock_11xx.h ****  * to the XTALIN pin.
 132:../../lpc11cx4-library/lpc_chip_11cxx_lib/inc/clock_11xx.h ****  */
 133:../../lpc11cx4-library/lpc_chip_11cxx_lib/inc/clock_11xx.h **** void Chip_Clock_SetPLLBypass(bool bypass, bool highfr);
 134:../../lpc11cx4-library/lpc_chip_11cxx_lib/inc/clock_11xx.h **** 
 135:../../lpc11cx4-library/lpc_chip_11cxx_lib/inc/clock_11xx.h **** /**
 136:../../lpc11cx4-library/lpc_chip_11cxx_lib/inc/clock_11xx.h ****  * Watchdog and low frequency oscillator frequencies plus or minus 40%
 137:../../lpc11cx4-library/lpc_chip_11cxx_lib/inc/clock_11xx.h ****  */
 138:../../lpc11cx4-library/lpc_chip_11cxx_lib/inc/clock_11xx.h **** typedef enum CHIP_WDTLFO_OSC {
 139:../../lpc11cx4-library/lpc_chip_11cxx_lib/inc/clock_11xx.h **** 	WDTLFO_OSC_ILLEGAL,
 140:../../lpc11cx4-library/lpc_chip_11cxx_lib/inc/clock_11xx.h **** 	WDTLFO_OSC_0_60,	/*!< 0.6 MHz watchdog/LFO rate */
 141:../../lpc11cx4-library/lpc_chip_11cxx_lib/inc/clock_11xx.h **** 	WDTLFO_OSC_1_05,	/*!< 1.05 MHz watchdog/LFO rate */
 142:../../lpc11cx4-library/lpc_chip_11cxx_lib/inc/clock_11xx.h **** 	WDTLFO_OSC_1_40,	/*!< 1.4 MHz watchdog/LFO rate */
 143:../../lpc11cx4-library/lpc_chip_11cxx_lib/inc/clock_11xx.h **** 	WDTLFO_OSC_1_75,	/*!< 1.75 MHz watchdog/LFO rate */
 144:../../lpc11cx4-library/lpc_chip_11cxx_lib/inc/clock_11xx.h **** 	WDTLFO_OSC_2_10,	/*!< 2.1 MHz watchdog/LFO rate */
 145:../../lpc11cx4-library/lpc_chip_11cxx_lib/inc/clock_11xx.h **** 	WDTLFO_OSC_2_40,	/*!< 2.4 MHz watchdog/LFO rate */
 146:../../lpc11cx4-library/lpc_chip_11cxx_lib/inc/clock_11xx.h **** 	WDTLFO_OSC_2_70,	/*!< 2.7 MHz watchdog/LFO rate */
 147:../../lpc11cx4-library/lpc_chip_11cxx_lib/inc/clock_11xx.h **** 	WDTLFO_OSC_3_00,	/*!< 3.0 MHz watchdog/LFO rate */
 148:../../lpc11cx4-library/lpc_chip_11cxx_lib/inc/clock_11xx.h **** 	WDTLFO_OSC_3_25,	/*!< 3.25 MHz watchdog/LFO rate */
 149:../../lpc11cx4-library/lpc_chip_11cxx_lib/inc/clock_11xx.h **** 	WDTLFO_OSC_3_50,	/*!< 3.5 MHz watchdog/LFO rate */
 150:../../lpc11cx4-library/lpc_chip_11cxx_lib/inc/clock_11xx.h **** 	WDTLFO_OSC_3_75,	/*!< 3.75 MHz watchdog/LFO rate */
 151:../../lpc11cx4-library/lpc_chip_11cxx_lib/inc/clock_11xx.h **** 	WDTLFO_OSC_4_00,	/*!< 4.0 MHz watchdog/LFO rate */
 152:../../lpc11cx4-library/lpc_chip_11cxx_lib/inc/clock_11xx.h **** 	WDTLFO_OSC_4_20,	/*!< 4.2 MHz watchdog/LFO rate */
 153:../../lpc11cx4-library/lpc_chip_11cxx_lib/inc/clock_11xx.h **** 	WDTLFO_OSC_4_40,	/*!< 4.4 MHz watchdog/LFO rate */
 154:../../lpc11cx4-library/lpc_chip_11cxx_lib/inc/clock_11xx.h **** 	WDTLFO_OSC_4_60		/*!< 4.6 MHz watchdog/LFO rate */
 155:../../lpc11cx4-library/lpc_chip_11cxx_lib/inc/clock_11xx.h **** } CHIP_WDTLFO_OSC_T;
 156:../../lpc11cx4-library/lpc_chip_11cxx_lib/inc/clock_11xx.h **** 
 157:../../lpc11cx4-library/lpc_chip_11cxx_lib/inc/clock_11xx.h **** /**
 158:../../lpc11cx4-library/lpc_chip_11cxx_lib/inc/clock_11xx.h ****  * @brief	Setup Watchdog oscillator rate and divider
 159:../../lpc11cx4-library/lpc_chip_11cxx_lib/inc/clock_11xx.h ****  * @param	wdtclk	: Selected watchdog clock rate
 160:../../lpc11cx4-library/lpc_chip_11cxx_lib/inc/clock_11xx.h ****  * @param	div		: Watchdog divider value, even value between 2 and 64
 161:../../lpc11cx4-library/lpc_chip_11cxx_lib/inc/clock_11xx.h ****  * @return	Nothing
 162:../../lpc11cx4-library/lpc_chip_11cxx_lib/inc/clock_11xx.h ****  * @note	Watchdog rate = selected rate divided by divider rate
 163:../../lpc11cx4-library/lpc_chip_11cxx_lib/inc/clock_11xx.h ****  */
 164:../../lpc11cx4-library/lpc_chip_11cxx_lib/inc/clock_11xx.h **** STATIC INLINE void Chip_Clock_SetWDTOSC(CHIP_WDTLFO_OSC_T wdtclk, uint8_t div)
 165:../../lpc11cx4-library/lpc_chip_11cxx_lib/inc/clock_11xx.h **** {
 166:../../lpc11cx4-library/lpc_chip_11cxx_lib/inc/clock_11xx.h **** 	LPC_SYSCTL->WDTOSCCTRL  = (((uint32_t) wdtclk) << 5) | ((div >> 1) - 1);
 167:../../lpc11cx4-library/lpc_chip_11cxx_lib/inc/clock_11xx.h **** }
 168:../../lpc11cx4-library/lpc_chip_11cxx_lib/inc/clock_11xx.h **** 
 169:../../lpc11cx4-library/lpc_chip_11cxx_lib/inc/clock_11xx.h **** #if defined(CHIP_LPC11AXX)
 170:../../lpc11cx4-library/lpc_chip_11cxx_lib/inc/clock_11xx.h **** /**
 171:../../lpc11cx4-library/lpc_chip_11cxx_lib/inc/clock_11xx.h ****  * @brief	Setup low frequency oscillator rate and divider
 172:../../lpc11cx4-library/lpc_chip_11cxx_lib/inc/clock_11xx.h ****  * @param	lfoclk	: Selected low frequency clock rate
 173:../../lpc11cx4-library/lpc_chip_11cxx_lib/inc/clock_11xx.h ****  * @param	div		: Low frequency divider value, even value between 2 and 64
 174:../../lpc11cx4-library/lpc_chip_11cxx_lib/inc/clock_11xx.h ****  * @return	Nothing
 175:../../lpc11cx4-library/lpc_chip_11cxx_lib/inc/clock_11xx.h ****  * @note	Low frequency oscillator rate = selected rate divided by divider rate
 176:../../lpc11cx4-library/lpc_chip_11cxx_lib/inc/clock_11xx.h ****  */
 177:../../lpc11cx4-library/lpc_chip_11cxx_lib/inc/clock_11xx.h **** STATIC INLINE void Chip_Clock_SetLFOSC(CHIP_WDTLFO_OSC_T lfoclk, uint8_t div)
 178:../../lpc11cx4-library/lpc_chip_11cxx_lib/inc/clock_11xx.h **** {
 179:../../lpc11cx4-library/lpc_chip_11cxx_lib/inc/clock_11xx.h **** 	LPC_SYSCTL->LFOSCCTRL  = (((uint32_t) lfoclk) << 5) | ((div >> 1) - 1);
 180:../../lpc11cx4-library/lpc_chip_11cxx_lib/inc/clock_11xx.h **** }
 181:../../lpc11cx4-library/lpc_chip_11cxx_lib/inc/clock_11xx.h **** 
 182:../../lpc11cx4-library/lpc_chip_11cxx_lib/inc/clock_11xx.h **** #endif /*CHIP_LPC11AXX*/
 183:../../lpc11cx4-library/lpc_chip_11cxx_lib/inc/clock_11xx.h **** 
ARM GAS  /tmp/ccjsfSlY.s 			page 61


 184:../../lpc11cx4-library/lpc_chip_11cxx_lib/inc/clock_11xx.h **** /**
 185:../../lpc11cx4-library/lpc_chip_11cxx_lib/inc/clock_11xx.h ****  * Clock sources for main system clock
 186:../../lpc11cx4-library/lpc_chip_11cxx_lib/inc/clock_11xx.h ****  */
 187:../../lpc11cx4-library/lpc_chip_11cxx_lib/inc/clock_11xx.h **** typedef enum CHIP_SYSCTL_MAINCLKSRC {
 188:../../lpc11cx4-library/lpc_chip_11cxx_lib/inc/clock_11xx.h **** 	SYSCTL_MAINCLKSRC_IRC = 0,		/*!< Internal oscillator */
 189:../../lpc11cx4-library/lpc_chip_11cxx_lib/inc/clock_11xx.h **** 	SYSCTL_MAINCLKSRC_PLLIN,		/*!< System PLL input */
 190:../../lpc11cx4-library/lpc_chip_11cxx_lib/inc/clock_11xx.h **** 	SYSCTL_MAINCLKSRC_LFOSC,		/*!< LF oscillator rate (11Axx only) */
 191:../../lpc11cx4-library/lpc_chip_11cxx_lib/inc/clock_11xx.h **** 	SYSCTL_MAINCLKSRC_WDTOSC = SYSCTL_MAINCLKSRC_LFOSC,	/*!< Watchdog oscillator rate */
 192:../../lpc11cx4-library/lpc_chip_11cxx_lib/inc/clock_11xx.h **** 	SYSCTL_MAINCLKSRC_PLLOUT,		/*!< System PLL output */
 193:../../lpc11cx4-library/lpc_chip_11cxx_lib/inc/clock_11xx.h **** } CHIP_SYSCTL_MAINCLKSRC_T;
 194:../../lpc11cx4-library/lpc_chip_11cxx_lib/inc/clock_11xx.h **** 
 195:../../lpc11cx4-library/lpc_chip_11cxx_lib/inc/clock_11xx.h **** /**
 196:../../lpc11cx4-library/lpc_chip_11cxx_lib/inc/clock_11xx.h ****  * @brief	Set main system clock source
 197:../../lpc11cx4-library/lpc_chip_11cxx_lib/inc/clock_11xx.h ****  * @param	src	: Clock source for main system
 198:../../lpc11cx4-library/lpc_chip_11cxx_lib/inc/clock_11xx.h ****  * @return	Nothing
 199:../../lpc11cx4-library/lpc_chip_11cxx_lib/inc/clock_11xx.h ****  * @note	This function will also toggle the clock source update register
 200:../../lpc11cx4-library/lpc_chip_11cxx_lib/inc/clock_11xx.h ****  * to update the clock source.
 201:../../lpc11cx4-library/lpc_chip_11cxx_lib/inc/clock_11xx.h ****  */
 202:../../lpc11cx4-library/lpc_chip_11cxx_lib/inc/clock_11xx.h **** void Chip_Clock_SetMainClockSource(CHIP_SYSCTL_MAINCLKSRC_T src);
 203:../../lpc11cx4-library/lpc_chip_11cxx_lib/inc/clock_11xx.h **** 
 204:../../lpc11cx4-library/lpc_chip_11cxx_lib/inc/clock_11xx.h **** /**
 205:../../lpc11cx4-library/lpc_chip_11cxx_lib/inc/clock_11xx.h ****  * @brief   Returns the main clock source
 206:../../lpc11cx4-library/lpc_chip_11cxx_lib/inc/clock_11xx.h ****  * @return	Which clock is used for the core clock source?
 207:../../lpc11cx4-library/lpc_chip_11cxx_lib/inc/clock_11xx.h ****  */
 208:../../lpc11cx4-library/lpc_chip_11cxx_lib/inc/clock_11xx.h **** STATIC INLINE CHIP_SYSCTL_MAINCLKSRC_T Chip_Clock_GetMainClockSource(void)
 209:../../lpc11cx4-library/lpc_chip_11cxx_lib/inc/clock_11xx.h **** {
 210:../../lpc11cx4-library/lpc_chip_11cxx_lib/inc/clock_11xx.h **** 	return (CHIP_SYSCTL_MAINCLKSRC_T) (LPC_SYSCTL->MAINCLKSEL);
 211:../../lpc11cx4-library/lpc_chip_11cxx_lib/inc/clock_11xx.h **** }
 212:../../lpc11cx4-library/lpc_chip_11cxx_lib/inc/clock_11xx.h **** 
 213:../../lpc11cx4-library/lpc_chip_11cxx_lib/inc/clock_11xx.h **** /**
 214:../../lpc11cx4-library/lpc_chip_11cxx_lib/inc/clock_11xx.h ****  * @brief	Set system clock divider
 215:../../lpc11cx4-library/lpc_chip_11cxx_lib/inc/clock_11xx.h ****  * @param	div	: divider for system clock
 216:../../lpc11cx4-library/lpc_chip_11cxx_lib/inc/clock_11xx.h ****  * @return	Nothing
 217:../../lpc11cx4-library/lpc_chip_11cxx_lib/inc/clock_11xx.h ****  * @note	Use 0 to disable, or a divider value of 1 to 255. The system clock
 218:../../lpc11cx4-library/lpc_chip_11cxx_lib/inc/clock_11xx.h ****  * rate is the main system clock divided by this value.
 219:../../lpc11cx4-library/lpc_chip_11cxx_lib/inc/clock_11xx.h ****  */
 220:../../lpc11cx4-library/lpc_chip_11cxx_lib/inc/clock_11xx.h **** STATIC INLINE void Chip_Clock_SetSysClockDiv(uint32_t div)
 221:../../lpc11cx4-library/lpc_chip_11cxx_lib/inc/clock_11xx.h **** {
 222:../../lpc11cx4-library/lpc_chip_11cxx_lib/inc/clock_11xx.h **** 	LPC_SYSCTL->SYSAHBCLKDIV  = div;
 223:../../lpc11cx4-library/lpc_chip_11cxx_lib/inc/clock_11xx.h **** }
 224:../../lpc11cx4-library/lpc_chip_11cxx_lib/inc/clock_11xx.h **** 
 225:../../lpc11cx4-library/lpc_chip_11cxx_lib/inc/clock_11xx.h **** /**
 226:../../lpc11cx4-library/lpc_chip_11cxx_lib/inc/clock_11xx.h ****  * System and peripheral clocks
 227:../../lpc11cx4-library/lpc_chip_11cxx_lib/inc/clock_11xx.h ****  */
 228:../../lpc11cx4-library/lpc_chip_11cxx_lib/inc/clock_11xx.h **** typedef enum CHIP_SYSCTL_CLOCK {
 229:../../lpc11cx4-library/lpc_chip_11cxx_lib/inc/clock_11xx.h **** 	SYSCTL_CLOCK_SYS = 0,				/*!< 0: System clock */
 230:../../lpc11cx4-library/lpc_chip_11cxx_lib/inc/clock_11xx.h **** 	SYSCTL_CLOCK_ROM,					/*!<1:  ROM clock */
 231:../../lpc11cx4-library/lpc_chip_11cxx_lib/inc/clock_11xx.h **** 	SYSCTL_CLOCK_RAM,					/*!< 2: RAM clock */
 232:../../lpc11cx4-library/lpc_chip_11cxx_lib/inc/clock_11xx.h **** 	SYSCTL_CLOCK_FLASHREG,				/*!< 3: FLASH register interface clock */
 233:../../lpc11cx4-library/lpc_chip_11cxx_lib/inc/clock_11xx.h **** 	SYSCTL_CLOCK_FLASHARRAY,			/*!< 4: FLASH array access clock */
 234:../../lpc11cx4-library/lpc_chip_11cxx_lib/inc/clock_11xx.h **** #if defined(CHIP_LPC110X)
 235:../../lpc11cx4-library/lpc_chip_11cxx_lib/inc/clock_11xx.h **** 	SYSCTL_CLOCK_RESERVED5,				/*!< 5: Reserved */
 236:../../lpc11cx4-library/lpc_chip_11cxx_lib/inc/clock_11xx.h **** #else
 237:../../lpc11cx4-library/lpc_chip_11cxx_lib/inc/clock_11xx.h **** 	SYSCTL_CLOCK_I2C,					/*!< 5: I2C clock, not on LPC110x */
 238:../../lpc11cx4-library/lpc_chip_11cxx_lib/inc/clock_11xx.h **** #endif
 239:../../lpc11cx4-library/lpc_chip_11cxx_lib/inc/clock_11xx.h **** 	SYSCTL_CLOCK_GPIO,					/*!< 6: GPIO clock */
 240:../../lpc11cx4-library/lpc_chip_11cxx_lib/inc/clock_11xx.h **** 	SYSCTL_CLOCK_CT16B0,				/*!< 7: 16-bit Counter/timer 0 clock */
ARM GAS  /tmp/ccjsfSlY.s 			page 62


 241:../../lpc11cx4-library/lpc_chip_11cxx_lib/inc/clock_11xx.h **** 	SYSCTL_CLOCK_CT16B1,				/*!< 8: 16-bit Counter/timer 1 clock */
 242:../../lpc11cx4-library/lpc_chip_11cxx_lib/inc/clock_11xx.h **** 	SYSCTL_CLOCK_CT32B0,				/*!< 9: 32-bit Counter/timer 0 clock */
 243:../../lpc11cx4-library/lpc_chip_11cxx_lib/inc/clock_11xx.h **** 	SYSCTL_CLOCK_CT32B1,				/*!< 10: 32-bit Counter/timer 1 clock */
 244:../../lpc11cx4-library/lpc_chip_11cxx_lib/inc/clock_11xx.h **** 	SYSCTL_CLOCK_SSP0,					/*!< 11: SSP0 clock */
 245:../../lpc11cx4-library/lpc_chip_11cxx_lib/inc/clock_11xx.h **** 	SYSCTL_CLOCK_UART0,					/*!< 12: UART0 clock */
 246:../../lpc11cx4-library/lpc_chip_11cxx_lib/inc/clock_11xx.h **** 	SYSCTL_CLOCK_ADC,					/*!< 13: ADC clock */
 247:../../lpc11cx4-library/lpc_chip_11cxx_lib/inc/clock_11xx.h **** #if defined(CHIP_LPC11UXX)
 248:../../lpc11cx4-library/lpc_chip_11cxx_lib/inc/clock_11xx.h **** 	SYSCTL_CLOCK_USB,					/*!< 14: USB clock, LPC11Uxx only */
 249:../../lpc11cx4-library/lpc_chip_11cxx_lib/inc/clock_11xx.h **** #else
 250:../../lpc11cx4-library/lpc_chip_11cxx_lib/inc/clock_11xx.h **** 	SYSCTL_CLOCK_RESERVED14,			/*!< 14: Reserved */
 251:../../lpc11cx4-library/lpc_chip_11cxx_lib/inc/clock_11xx.h **** #endif
 252:../../lpc11cx4-library/lpc_chip_11cxx_lib/inc/clock_11xx.h **** 	SYSCTL_CLOCK_WDT,					/*!< 15: Watchdog timer clock */
 253:../../lpc11cx4-library/lpc_chip_11cxx_lib/inc/clock_11xx.h **** 	SYSCTL_CLOCK_IOCON,					/*!< 16: IOCON block clock */
 254:../../lpc11cx4-library/lpc_chip_11cxx_lib/inc/clock_11xx.h **** #if defined(CHIP_LPC11CXX)
 255:../../lpc11cx4-library/lpc_chip_11cxx_lib/inc/clock_11xx.h **** 	SYSCTL_CLOCK_CAN,					/*!< 17: CAN clock, LPC11Cxx only */
 256:../../lpc11cx4-library/lpc_chip_11cxx_lib/inc/clock_11xx.h **** #else
 257:../../lpc11cx4-library/lpc_chip_11cxx_lib/inc/clock_11xx.h **** 	SYSCTL_CLOCK_RESERVED17,			/*!< 17: Reserved */
 258:../../lpc11cx4-library/lpc_chip_11cxx_lib/inc/clock_11xx.h **** #endif
 259:../../lpc11cx4-library/lpc_chip_11cxx_lib/inc/clock_11xx.h **** #if !(defined(CHIP_LPC110X) || defined(CHIP_LPC11XXLV))  
 260:../../lpc11cx4-library/lpc_chip_11cxx_lib/inc/clock_11xx.h **** 	SYSCTL_CLOCK_SSP1,					/*!< 18: SSP1 clock, LPC11A/C/E/Uxx//1125 only */
 261:../../lpc11cx4-library/lpc_chip_11cxx_lib/inc/clock_11xx.h **** #if !defined(CHIP_LPC11CXX)
 262:../../lpc11cx4-library/lpc_chip_11cxx_lib/inc/clock_11xx.h **** 	SYSCTL_CLOCK_PINT,					/*!< 19: GPIO Pin int register interface clock, LPC11A/E/Uxx only */
 263:../../lpc11cx4-library/lpc_chip_11cxx_lib/inc/clock_11xx.h **** #if defined(CHIP_LPC11AXX)
 264:../../lpc11cx4-library/lpc_chip_11cxx_lib/inc/clock_11xx.h **** 	SYSCTL_CLOCK_ACOMP,					/*!< 20: Analog comparator clock, LPC11Axx only */
 265:../../lpc11cx4-library/lpc_chip_11cxx_lib/inc/clock_11xx.h **** 	SYSCTL_CLOCK_DAC,					/*!< 21: DAC clock, LPC11Axx only */
 266:../../lpc11cx4-library/lpc_chip_11cxx_lib/inc/clock_11xx.h **** #else
 267:../../lpc11cx4-library/lpc_chip_11cxx_lib/inc/clock_11xx.h **** 	SYSCTL_CLOCK_RESERVED20,			/*!< 20: Reserved */
 268:../../lpc11cx4-library/lpc_chip_11cxx_lib/inc/clock_11xx.h **** 	SYSCTL_CLOCK_RESERVED21,			/*!< 21: Reserved */
 269:../../lpc11cx4-library/lpc_chip_11cxx_lib/inc/clock_11xx.h **** #endif
 270:../../lpc11cx4-library/lpc_chip_11cxx_lib/inc/clock_11xx.h **** 	SYSCTL_CLOCK_RESERVED22,			/*!< 22: Reserved */
 271:../../lpc11cx4-library/lpc_chip_11cxx_lib/inc/clock_11xx.h **** 	SYSCTL_CLOCK_P0INT,					/*!< 23: GPIO GROUP1 interrupt register clock, LPC11Axx only */
 272:../../lpc11cx4-library/lpc_chip_11cxx_lib/inc/clock_11xx.h **** 	SYSCTL_CLOCK_GROUP0INT = SYSCTL_CLOCK_P0INT,/*!< 23: GPIO GROUP0 interrupt register interface cloc
 273:../../lpc11cx4-library/lpc_chip_11cxx_lib/inc/clock_11xx.h **** 	SYSCTL_CLOCK_P1INT,					/*!< 24: GPIO GROUP1 interrupt register clock, LPC11Axx only */
 274:../../lpc11cx4-library/lpc_chip_11cxx_lib/inc/clock_11xx.h **** 	SYSCTL_CLOCK_GROUP1INT = SYSCTL_CLOCK_P1INT,/*!< 24: GPIO GROUP1 interrupt register interface cloc
 275:../../lpc11cx4-library/lpc_chip_11cxx_lib/inc/clock_11xx.h **** 	SYSCTL_CLOCK_RESERVED25,			/*!< 25: Reserved */
 276:../../lpc11cx4-library/lpc_chip_11cxx_lib/inc/clock_11xx.h **** #if defined(CHIP_LPC11EXX)  || defined(CHIP_LPC11UXX)
 277:../../lpc11cx4-library/lpc_chip_11cxx_lib/inc/clock_11xx.h **** 	SYSCTL_CLOCK_RAM1,					/*!< 26: SRAM block (0x20000000) clock, LPC11E/Uxx only */
 278:../../lpc11cx4-library/lpc_chip_11cxx_lib/inc/clock_11xx.h **** #else
 279:../../lpc11cx4-library/lpc_chip_11cxx_lib/inc/clock_11xx.h **** 	SYSCTL_CLOCK_RESERVED26,			/*!< 26: Reserved */
 280:../../lpc11cx4-library/lpc_chip_11cxx_lib/inc/clock_11xx.h **** #endif
 281:../../lpc11cx4-library/lpc_chip_11cxx_lib/inc/clock_11xx.h **** #if defined(CHIP_LPC11UXX)
 282:../../lpc11cx4-library/lpc_chip_11cxx_lib/inc/clock_11xx.h **** 	SYSCTL_CLOCK_USBRAM,				/*!< 27: USB SRAM block clock, LPC11Uxx only */
 283:../../lpc11cx4-library/lpc_chip_11cxx_lib/inc/clock_11xx.h **** #else
 284:../../lpc11cx4-library/lpc_chip_11cxx_lib/inc/clock_11xx.h **** 	SYSCTL_CLOCK_RESERVED27,			/*!< 27: Reserved */
 285:../../lpc11cx4-library/lpc_chip_11cxx_lib/inc/clock_11xx.h **** #endif
 286:../../lpc11cx4-library/lpc_chip_11cxx_lib/inc/clock_11xx.h **** #endif /* !defined(CHIP_LPC11CXX) */
 287:../../lpc11cx4-library/lpc_chip_11cxx_lib/inc/clock_11xx.h **** #endif /* !(defined(CHIP_LPC110X) || defined(CHIP_LPC11XXLV)) */
 288:../../lpc11cx4-library/lpc_chip_11cxx_lib/inc/clock_11xx.h **** } CHIP_SYSCTL_CLOCK_T;
 289:../../lpc11cx4-library/lpc_chip_11cxx_lib/inc/clock_11xx.h **** 
 290:../../lpc11cx4-library/lpc_chip_11cxx_lib/inc/clock_11xx.h **** /**
 291:../../lpc11cx4-library/lpc_chip_11cxx_lib/inc/clock_11xx.h ****  * @brief	Enable a system or peripheral clock
 292:../../lpc11cx4-library/lpc_chip_11cxx_lib/inc/clock_11xx.h ****  * @param	clk	: Clock to enable
 293:../../lpc11cx4-library/lpc_chip_11cxx_lib/inc/clock_11xx.h ****  * @return	Nothing
 294:../../lpc11cx4-library/lpc_chip_11cxx_lib/inc/clock_11xx.h ****  */
 295:../../lpc11cx4-library/lpc_chip_11cxx_lib/inc/clock_11xx.h **** STATIC INLINE void Chip_Clock_EnablePeriphClock(CHIP_SYSCTL_CLOCK_T clk)
 296:../../lpc11cx4-library/lpc_chip_11cxx_lib/inc/clock_11xx.h **** {
 297:../../lpc11cx4-library/lpc_chip_11cxx_lib/inc/clock_11xx.h **** 	LPC_SYSCTL->SYSAHBCLKCTRL |= (1 << clk);
ARM GAS  /tmp/ccjsfSlY.s 			page 63


 298:../../lpc11cx4-library/lpc_chip_11cxx_lib/inc/clock_11xx.h **** }
 299:../../lpc11cx4-library/lpc_chip_11cxx_lib/inc/clock_11xx.h **** 
 300:../../lpc11cx4-library/lpc_chip_11cxx_lib/inc/clock_11xx.h **** /**
 301:../../lpc11cx4-library/lpc_chip_11cxx_lib/inc/clock_11xx.h ****  * @brief	Disable a system or peripheral clock
 302:../../lpc11cx4-library/lpc_chip_11cxx_lib/inc/clock_11xx.h ****  * @param	clk	: Clock to disable
 303:../../lpc11cx4-library/lpc_chip_11cxx_lib/inc/clock_11xx.h ****  * @return	Nothing
 304:../../lpc11cx4-library/lpc_chip_11cxx_lib/inc/clock_11xx.h ****  */
 305:../../lpc11cx4-library/lpc_chip_11cxx_lib/inc/clock_11xx.h **** STATIC INLINE void Chip_Clock_DisablePeriphClock(CHIP_SYSCTL_CLOCK_T clk)
 306:../../lpc11cx4-library/lpc_chip_11cxx_lib/inc/clock_11xx.h **** {
 307:../../lpc11cx4-library/lpc_chip_11cxx_lib/inc/clock_11xx.h **** 	LPC_SYSCTL->SYSAHBCLKCTRL &= ~(1 << clk);
 308:../../lpc11cx4-library/lpc_chip_11cxx_lib/inc/clock_11xx.h **** }
 309:../../lpc11cx4-library/lpc_chip_11cxx_lib/inc/clock_11xx.h **** 
 310:../../lpc11cx4-library/lpc_chip_11cxx_lib/inc/clock_11xx.h **** /**
 311:../../lpc11cx4-library/lpc_chip_11cxx_lib/inc/clock_11xx.h ****  * @brief	Set SSP0 divider
 312:../../lpc11cx4-library/lpc_chip_11cxx_lib/inc/clock_11xx.h ****  * @param	div	: divider for SSP0 clock
 313:../../lpc11cx4-library/lpc_chip_11cxx_lib/inc/clock_11xx.h ****  * @return	Nothing
 314:../../lpc11cx4-library/lpc_chip_11cxx_lib/inc/clock_11xx.h ****  * @note	Use 0 to disable, or a divider value of 1 to 255. The SSP0 clock
 315:../../lpc11cx4-library/lpc_chip_11cxx_lib/inc/clock_11xx.h ****  * rate is the main system clock divided by this value.
 316:../../lpc11cx4-library/lpc_chip_11cxx_lib/inc/clock_11xx.h ****  */
 317:../../lpc11cx4-library/lpc_chip_11cxx_lib/inc/clock_11xx.h **** STATIC INLINE void Chip_Clock_SetSSP0ClockDiv(uint32_t div)
 318:../../lpc11cx4-library/lpc_chip_11cxx_lib/inc/clock_11xx.h **** {
 319:../../lpc11cx4-library/lpc_chip_11cxx_lib/inc/clock_11xx.h **** 	LPC_SYSCTL->SSP0CLKDIV  = div;
 320:../../lpc11cx4-library/lpc_chip_11cxx_lib/inc/clock_11xx.h **** }
 321:../../lpc11cx4-library/lpc_chip_11cxx_lib/inc/clock_11xx.h **** 
 322:../../lpc11cx4-library/lpc_chip_11cxx_lib/inc/clock_11xx.h **** /**
 323:../../lpc11cx4-library/lpc_chip_11cxx_lib/inc/clock_11xx.h ****  * @brief	Return SSP0 divider
 324:../../lpc11cx4-library/lpc_chip_11cxx_lib/inc/clock_11xx.h ****  * @return	divider for SSP0 clock
 325:../../lpc11cx4-library/lpc_chip_11cxx_lib/inc/clock_11xx.h ****  * @note	A value of 0 means the clock is disabled.
 326:../../lpc11cx4-library/lpc_chip_11cxx_lib/inc/clock_11xx.h ****  */
 327:../../lpc11cx4-library/lpc_chip_11cxx_lib/inc/clock_11xx.h **** STATIC INLINE uint32_t Chip_Clock_GetSSP0ClockDiv(void)
 328:../../lpc11cx4-library/lpc_chip_11cxx_lib/inc/clock_11xx.h **** {
 329:../../lpc11cx4-library/lpc_chip_11cxx_lib/inc/clock_11xx.h **** 	return LPC_SYSCTL->SSP0CLKDIV;
 330:../../lpc11cx4-library/lpc_chip_11cxx_lib/inc/clock_11xx.h **** }
 331:../../lpc11cx4-library/lpc_chip_11cxx_lib/inc/clock_11xx.h **** 
 332:../../lpc11cx4-library/lpc_chip_11cxx_lib/inc/clock_11xx.h **** /**
 333:../../lpc11cx4-library/lpc_chip_11cxx_lib/inc/clock_11xx.h ****  * @brief	Set UART divider clock
 334:../../lpc11cx4-library/lpc_chip_11cxx_lib/inc/clock_11xx.h ****  * @param	div	: divider for UART clock
 335:../../lpc11cx4-library/lpc_chip_11cxx_lib/inc/clock_11xx.h ****  * @return	Nothing
 336:../../lpc11cx4-library/lpc_chip_11cxx_lib/inc/clock_11xx.h ****  * @note	Use 0 to disable, or a divider value of 1 to 255. The UART clock
 337:../../lpc11cx4-library/lpc_chip_11cxx_lib/inc/clock_11xx.h ****  * rate is the main system clock divided by this value.
 338:../../lpc11cx4-library/lpc_chip_11cxx_lib/inc/clock_11xx.h ****  */
 339:../../lpc11cx4-library/lpc_chip_11cxx_lib/inc/clock_11xx.h **** STATIC INLINE void Chip_Clock_SetUARTClockDiv(uint32_t div)
 340:../../lpc11cx4-library/lpc_chip_11cxx_lib/inc/clock_11xx.h **** {
 341:../../lpc11cx4-library/lpc_chip_11cxx_lib/inc/clock_11xx.h **** 	LPC_SYSCTL->USARTCLKDIV  = div;
 342:../../lpc11cx4-library/lpc_chip_11cxx_lib/inc/clock_11xx.h **** }
 343:../../lpc11cx4-library/lpc_chip_11cxx_lib/inc/clock_11xx.h **** 
 344:../../lpc11cx4-library/lpc_chip_11cxx_lib/inc/clock_11xx.h **** /**
 345:../../lpc11cx4-library/lpc_chip_11cxx_lib/inc/clock_11xx.h ****  * @brief	Return UART divider
 346:../../lpc11cx4-library/lpc_chip_11cxx_lib/inc/clock_11xx.h ****  * @return	divider for UART clock
 347:../../lpc11cx4-library/lpc_chip_11cxx_lib/inc/clock_11xx.h ****  * @note	A value of 0 means the clock is disabled.
 348:../../lpc11cx4-library/lpc_chip_11cxx_lib/inc/clock_11xx.h ****  */
 349:../../lpc11cx4-library/lpc_chip_11cxx_lib/inc/clock_11xx.h **** STATIC INLINE uint32_t Chip_Clock_GetUARTClockDiv(void)
 350:../../lpc11cx4-library/lpc_chip_11cxx_lib/inc/clock_11xx.h **** {
 351:../../lpc11cx4-library/lpc_chip_11cxx_lib/inc/clock_11xx.h **** 	return LPC_SYSCTL->USARTCLKDIV;
 352:../../lpc11cx4-library/lpc_chip_11cxx_lib/inc/clock_11xx.h **** }
 353:../../lpc11cx4-library/lpc_chip_11cxx_lib/inc/clock_11xx.h **** 
 354:../../lpc11cx4-library/lpc_chip_11cxx_lib/inc/clock_11xx.h **** #if defined(CHIP_LPC11CXX) || defined(CHIP_LPC11EXX) || defined(CHIP_LPC11AXX) || defined(CHIP_LPC1
ARM GAS  /tmp/ccjsfSlY.s 			page 64


 355:../../lpc11cx4-library/lpc_chip_11cxx_lib/inc/clock_11xx.h **** /**
 356:../../lpc11cx4-library/lpc_chip_11cxx_lib/inc/clock_11xx.h ****  * @brief	Set SSP1 divider clock
 357:../../lpc11cx4-library/lpc_chip_11cxx_lib/inc/clock_11xx.h ****  * @param	div	: divider for SSP1 clock
 358:../../lpc11cx4-library/lpc_chip_11cxx_lib/inc/clock_11xx.h ****  * @return	Nothing
 359:../../lpc11cx4-library/lpc_chip_11cxx_lib/inc/clock_11xx.h ****  * @note	Use 0 to disable, or a divider value of 1 to 255. The SSP1 clock
 360:../../lpc11cx4-library/lpc_chip_11cxx_lib/inc/clock_11xx.h ****  * rate is the main system clock divided by this value.
 361:../../lpc11cx4-library/lpc_chip_11cxx_lib/inc/clock_11xx.h ****  */
 362:../../lpc11cx4-library/lpc_chip_11cxx_lib/inc/clock_11xx.h **** STATIC INLINE void Chip_Clock_SetSSP1ClockDiv(uint32_t div)
 363:../../lpc11cx4-library/lpc_chip_11cxx_lib/inc/clock_11xx.h **** {
 364:../../lpc11cx4-library/lpc_chip_11cxx_lib/inc/clock_11xx.h **** 	LPC_SYSCTL->SSP1CLKDIV  = div;
 365:../../lpc11cx4-library/lpc_chip_11cxx_lib/inc/clock_11xx.h **** }
 366:../../lpc11cx4-library/lpc_chip_11cxx_lib/inc/clock_11xx.h **** 
 367:../../lpc11cx4-library/lpc_chip_11cxx_lib/inc/clock_11xx.h **** /**
 368:../../lpc11cx4-library/lpc_chip_11cxx_lib/inc/clock_11xx.h ****  * @brief	Return SSP1 divider
 369:../../lpc11cx4-library/lpc_chip_11cxx_lib/inc/clock_11xx.h ****  * @return	divider for SSP1 clock
 370:../../lpc11cx4-library/lpc_chip_11cxx_lib/inc/clock_11xx.h ****  * @note	A value of 0 means the clock is disabled.
 371:../../lpc11cx4-library/lpc_chip_11cxx_lib/inc/clock_11xx.h ****  */
 372:../../lpc11cx4-library/lpc_chip_11cxx_lib/inc/clock_11xx.h **** STATIC INLINE uint32_t Chip_Clock_GetSSP1ClockDiv(void)
 373:../../lpc11cx4-library/lpc_chip_11cxx_lib/inc/clock_11xx.h **** {
 374:../../lpc11cx4-library/lpc_chip_11cxx_lib/inc/clock_11xx.h **** 	return LPC_SYSCTL->SSP1CLKDIV;
 2142              		.loc 3 374 0
 2143 0016 9C23     		mov	r3, #156	@ tmp133,
 2144 0018 1B4A     		ldr	r2, .L266+4	@ tmp132,
 2145 001a D158     		ldr	r1, [r2, r3]	@ D.6937,
 2146              	.LBE575:
 2147              	.LBE574:
 159:../../lpc11cx4-library/lpc_chip_11cxx_lib/src/ssp_11xx.c **** 	}
 2148              		.loc 1 159 0
 2149 001c FFF7FEFF 		bl	__aeabi_uidiv	@
 2150              	.LVL157:
 2151 0020 8146     		mov	r9, r0	@ ssp_clk,
 2152              	.LVL158:
 2153              	.L257:
 2154              	.LBE573:
 2155              	.LBE572:
 460:../../lpc11cx4-library/lpc_chip_11cxx_lib/src/ssp_11xx.c **** 	uint32_t ssp_clk, cr0_div, cmp_clk, prescale;
 461:../../lpc11cx4-library/lpc_chip_11cxx_lib/src/ssp_11xx.c **** 
 462:../../lpc11cx4-library/lpc_chip_11cxx_lib/src/ssp_11xx.c **** 	ssp_clk = Chip_SSP_GetPCLKkRate(pSSP);
 463:../../lpc11cx4-library/lpc_chip_11cxx_lib/src/ssp_11xx.c **** 
 464:../../lpc11cx4-library/lpc_chip_11cxx_lib/src/ssp_11xx.c **** 	cr0_div = 0;
 465:../../lpc11cx4-library/lpc_chip_11cxx_lib/src/ssp_11xx.c **** 	cmp_clk = 0xFFFFFFFF;
 466:../../lpc11cx4-library/lpc_chip_11cxx_lib/src/ssp_11xx.c **** 	prescale = 2;
 467:../../lpc11cx4-library/lpc_chip_11cxx_lib/src/ssp_11xx.c **** 
 468:../../lpc11cx4-library/lpc_chip_11cxx_lib/src/ssp_11xx.c **** 	while (cmp_clk > bitRate) {
 2156              		.loc 1 468 0
 2157 0022 4346     		mov	r3, r8	@ bitRate, bitRate
 2158 0024 0133     		add	r3, r3, #1	@ tmp147, bitRate,
 2159 0026 29D0     		beq	.L262	@,
 2160 0028 0226     		mov	r6, #2	@ prescale,
 2161 002a 0024     		mov	r4, #0	@ cr0_div,
 2162              	.LVL159:
 469:../../lpc11cx4-library/lpc_chip_11cxx_lib/src/ssp_11xx.c **** 		cmp_clk = ssp_clk / ((cr0_div + 1) * prescale);
 2163              		.loc 1 469 0
 2164 002c 311C     		mov	r1, r6	@ D.6936, prescale
 2165 002e 651C     		add	r5, r4, #1	@ cr0_div, cr0_div,
 2166              	.LVL160:
 2167 0030 6943     		mul	r1, r5	@ D.6936, cr0_div
ARM GAS  /tmp/ccjsfSlY.s 			page 65


 2168 0032 4846     		mov	r0, r9	@, ssp_clk
 2169 0034 FFF7FEFF 		bl	__aeabi_uidiv	@
 2170              	.LVL161:
 470:../../lpc11cx4-library/lpc_chip_11cxx_lib/src/ssp_11xx.c **** 		if (cmp_clk > bitRate) {
 2171              		.loc 1 470 0
 2172 0038 8045     		cmp	r8, r0	@ bitRate, cmp_clk
 2173 003a 0CD2     		bcs	.L259	@,
 2174              	.LVL162:
 2175              	.L265:
 471:../../lpc11cx4-library/lpc_chip_11cxx_lib/src/ssp_11xx.c **** 			cr0_div++;
 472:../../lpc11cx4-library/lpc_chip_11cxx_lib/src/ssp_11xx.c **** 			if (cr0_div > 0xFF) {
 2176              		.loc 1 472 0
 2177 003c FF2D     		cmp	r5, #255	@ cr0_div,
 2178 003e 01D9     		bls	.L260	@,
 2179              	.LVL163:
 473:../../lpc11cx4-library/lpc_chip_11cxx_lib/src/ssp_11xx.c **** 				cr0_div = 0;
 2180              		.loc 1 473 0
 2181 0040 0025     		mov	r5, #0	@ cr0_div,
 474:../../lpc11cx4-library/lpc_chip_11cxx_lib/src/ssp_11xx.c **** 				prescale += 2;
 2182              		.loc 1 474 0
 2183 0042 0236     		add	r6, r6, #2	@ prescale,
 2184              	.LVL164:
 2185              	.L260:
 468:../../lpc11cx4-library/lpc_chip_11cxx_lib/src/ssp_11xx.c **** 		cmp_clk = ssp_clk / ((cr0_div + 1) * prescale);
 2186              		.loc 1 468 0
 2187 0044 2C1C     		mov	r4, r5	@ cr0_div, cr0_div
 2188              	.LVL165:
 469:../../lpc11cx4-library/lpc_chip_11cxx_lib/src/ssp_11xx.c **** 		if (cmp_clk > bitRate) {
 2189              		.loc 1 469 0
 2190 0046 311C     		mov	r1, r6	@ D.6936, prescale
 2191 0048 651C     		add	r5, r4, #1	@ cr0_div, cr0_div,
 2192              	.LVL166:
 2193 004a 6943     		mul	r1, r5	@ D.6936, cr0_div
 2194 004c 4846     		mov	r0, r9	@, ssp_clk
 2195 004e FFF7FEFF 		bl	__aeabi_uidiv	@
 2196              	.LVL167:
 470:../../lpc11cx4-library/lpc_chip_11cxx_lib/src/ssp_11xx.c **** 			cr0_div++;
 2197              		.loc 1 470 0
 2198 0052 8045     		cmp	r8, r0	@ bitRate, cmp_clk
 2199 0054 F2D3     		bcc	.L265	@,
 2200              	.LVL168:
 2201              	.L259:
 2202 0056 2406     		lsl	r4, r4, #24	@ tmp145, cr0_div,
 2203              	.LVL169:
 2204 0058 240C     		lsr	r4, r4, #16	@ D.6936, tmp145,
 2205              	.LVL170:
 2206              	.L258:
 2207              	.LBB579:
 2208              	.LBB580:
 174:../../lpc11cx4-library/lpc_chip_11cxx_lib/src/ssp_11xx.c **** 	pSSP->CR0 = temp | (SSP_CR0_SCR(clk_rate));
 2209              		.loc 1 174 0
 2210 005a 3A68     		ldr	r2, [r7]	@ D.6936, pSSP_5(D)->CR0
 2211              	.LVL171:
 2212 005c 0B4B     		ldr	r3, .L266+8	@ tmp143,
 2213              	.LBE580:
 2214              	.LBE579:
 475:../../lpc11cx4-library/lpc_chip_11cxx_lib/src/ssp_11xx.c **** 			}
ARM GAS  /tmp/ccjsfSlY.s 			page 66


 476:../../lpc11cx4-library/lpc_chip_11cxx_lib/src/ssp_11xx.c **** 		}
 477:../../lpc11cx4-library/lpc_chip_11cxx_lib/src/ssp_11xx.c **** 	}
 478:../../lpc11cx4-library/lpc_chip_11cxx_lib/src/ssp_11xx.c **** 
 479:../../lpc11cx4-library/lpc_chip_11cxx_lib/src/ssp_11xx.c **** 	Chip_SSP_SetClockRate(pSSP, cr0_div, prescale);
 480:../../lpc11cx4-library/lpc_chip_11cxx_lib/src/ssp_11xx.c **** }
 2215              		.loc 1 480 0
 2216              		@ sp needed	@
 2217              	.LBB582:
 2218              	.LBB581:
 174:../../lpc11cx4-library/lpc_chip_11cxx_lib/src/ssp_11xx.c **** 	pSSP->CR0 = temp | (SSP_CR0_SCR(clk_rate));
 2219              		.loc 1 174 0
 2220 005e 1340     		and	r3, r2	@ temp, D.6936
 2221              	.LVL172:
 175:../../lpc11cx4-library/lpc_chip_11cxx_lib/src/ssp_11xx.c **** 	pSSP->CPSR = prescale;
 2222              		.loc 1 175 0
 2223 0060 1C43     		orr	r4, r3	@ D.6936, temp
 2224 0062 3C60     		str	r4, [r7]	@ D.6936, pSSP_5(D)->CR0
 176:../../lpc11cx4-library/lpc_chip_11cxx_lib/src/ssp_11xx.c **** }
 2225              		.loc 1 176 0
 2226 0064 3E61     		str	r6, [r7, #16]	@ prescale, pSSP_5(D)->CPSR
 2227              	.LVL173:
 2228              	.LVL174:
 2229              	.LVL175:
 2230              	.LVL176:
 2231              	.LBE581:
 2232              	.LBE582:
 2233              		.loc 1 480 0
 2234 0066 0CBC     		pop	{r2, r3}
 2235 0068 9046     		mov	r8, r2
 2236 006a 9946     		mov	r9, r3
 2237 006c F8BD     		pop	{r3, r4, r5, r6, r7, pc}
 2238              	.LVL177:
 2239              	.L264:
 2240              	.LBB583:
 2241              	.LBB578:
 2242              	.LBB576:
 2243              	.LBB577:
 329:../../lpc11cx4-library/lpc_chip_11cxx_lib/inc/clock_11xx.h **** }
 2244              		.loc 3 329 0
 2245 006e 9423     		mov	r3, #148	@ tmp128,
 2246 0070 054A     		ldr	r2, .L266+4	@ tmp127,
 2247 0072 D158     		ldr	r1, [r2, r3]	@ D.6937,
 2248              	.LBE577:
 2249              	.LBE576:
 155:../../lpc11cx4-library/lpc_chip_11cxx_lib/src/ssp_11xx.c **** 	}
 2250              		.loc 1 155 0
 2251 0074 FFF7FEFF 		bl	__aeabi_uidiv	@
 2252              	.LVL178:
 2253 0078 8146     		mov	r9, r0	@ ssp_clk,
 2254              	.LVL179:
 2255 007a D2E7     		b	.L257	@
 2256              	.LVL180:
 2257              	.L262:
 2258              	.LBE578:
 2259              	.LBE583:
 468:../../lpc11cx4-library/lpc_chip_11cxx_lib/src/ssp_11xx.c **** 		cmp_clk = ssp_clk / ((cr0_div + 1) * prescale);
 2260              		.loc 1 468 0
ARM GAS  /tmp/ccjsfSlY.s 			page 67


 2261 007c 0024     		mov	r4, #0	@ D.6936,
 466:../../lpc11cx4-library/lpc_chip_11cxx_lib/src/ssp_11xx.c **** 
 2262              		.loc 1 466 0
 2263 007e 0226     		mov	r6, #2	@ prescale,
 2264 0080 EBE7     		b	.L258	@
 2265              	.L267:
 2266 0082 C046     		.align	2
 2267              	.L266:
 2268 0084 00000440 		.word	1074003968
 2269 0088 00800440 		.word	1074036736
 2270 008c FF00FFFF 		.word	-65281
 2271              		.cfi_endproc
 2272              	.LFE214:
 2273              		.size	Chip_SSP_SetBitRate, .-Chip_SSP_SetBitRate
 2274              		.section	.text.Chip_SSP_Init,"ax",%progbits
 2275              		.align	2
 2276              		.global	Chip_SSP_Init
 2277              		.code	16
 2278              		.thumb_func
 2279              		.type	Chip_SSP_Init, %function
 2280              	Chip_SSP_Init:
 2281              	.LFB215:
 481:../../lpc11cx4-library/lpc_chip_11cxx_lib/src/ssp_11xx.c **** 
 482:../../lpc11cx4-library/lpc_chip_11cxx_lib/src/ssp_11xx.c **** /* Initialize the SSP */
 483:../../lpc11cx4-library/lpc_chip_11cxx_lib/src/ssp_11xx.c **** void Chip_SSP_Init(LPC_SSP_T *pSSP)
 484:../../lpc11cx4-library/lpc_chip_11cxx_lib/src/ssp_11xx.c **** {
 2282              		.loc 1 484 0
 2283              		.cfi_startproc
 2284              	.LVL181:
 2285              	.LBB584:
 2286              	.LBB585:
 109:../../lpc11cx4-library/lpc_chip_11cxx_lib/src/ssp_11xx.c **** 		clkSSP = SYSCTL_CLOCK_SSP0;
 2287              		.loc 1 109 0
 2288 0000 184B     		ldr	r3, .L276	@ tmp126,
 2289              	.LBE585:
 2290              	.LBE584:
 2291              		.loc 1 484 0
 2292 0002 10B5     		push	{r4, lr}	@
 2293              		.cfi_def_cfa_offset 8
 2294              		.cfi_offset 4, -8
 2295              		.cfi_offset 14, -4
 2296              	.LBB587:
 2297              	.LBB586:
 109:../../lpc11cx4-library/lpc_chip_11cxx_lib/src/ssp_11xx.c **** 		clkSSP = SYSCTL_CLOCK_SSP0;
 2298              		.loc 1 109 0
 2299 0004 9842     		cmp	r0, r3	@ pSSP, tmp126
 2300 0006 20D0     		beq	.L275	@,
 2301              	.LVL182:
 2302              	.LBE586:
 2303              	.LBE587:
 2304              	.LBB588:
 2305              	.LBB589:
 297:../../lpc11cx4-library/lpc_chip_11cxx_lib/inc/clock_11xx.h **** }
 2306              		.loc 3 297 0
 2307 0008 8021     		mov	r1, #128	@ tmp145,
 2308 000a 8024     		mov	r4, #128	@ tmp146,
 2309 000c 164B     		ldr	r3, .L276+4	@ tmp144,
ARM GAS  /tmp/ccjsfSlY.s 			page 68


 2310 000e E402     		lsl	r4, r4, #11	@ tmp146, tmp146,
 2311 0010 5A58     		ldr	r2, [r3, r1]	@ D.6940, MEM[(struct LPC_SYSCTL_T *)1074036736B].SYSAHBCLKCTRL
 2312 0012 2243     		orr	r2, r4	@ D.6940, tmp146
 2313 0014 5A50     		str	r2, [r3, r1]	@ D.6940, MEM[(struct LPC_SYSCTL_T *)1074036736B].SYSAHBCLKCTRL
 2314              	.LVL183:
 2315              	.LBE589:
 2316              	.LBE588:
 2317              	.LBB591:
 2318              	.LBB592:
 2319              	.LBB593:
 364:../../lpc11cx4-library/lpc_chip_11cxx_lib/inc/clock_11xx.h **** }
 2320              		.loc 3 364 0
 2321 0016 9C22     		mov	r2, #156	@ tmp150,
 2322 0018 7F39     		sub	r1, r1, #127	@ tmp151,
 2323 001a 9950     		str	r1, [r3, r2]	@ tmp151, MEM[(struct LPC_SYSCTL_T *)1074036736B].SSP1CLKDIV
 2324              	.LVL184:
 2325 001c 0331     		add	r1, r1, #3	@ D.6940,
 2326 001e A13A     		sub	r2, r2, #161	@ D.6940,
 2327              	.LVL185:
 2328              	.L271:
 2329              	.LBE593:
 2330              	.LBE592:
 2331              	.LBE591:
 2332              	.LBB596:
 2333              	.LBB597:
 2334              	.LBB598:
 2335              		.file 4 "../../lpc11cx4-library/lpc_chip_11cxx_lib/inc/sysctl_11xx.h"
   1:../../lpc11cx4-library/lpc_chip_11cxx_lib/inc/sysctl_11xx.h **** /*
   2:../../lpc11cx4-library/lpc_chip_11cxx_lib/inc/sysctl_11xx.h ****  * @brief LPC11XX System Control registers and control functions
   3:../../lpc11cx4-library/lpc_chip_11cxx_lib/inc/sysctl_11xx.h ****  *
   4:../../lpc11cx4-library/lpc_chip_11cxx_lib/inc/sysctl_11xx.h ****  * @note
   5:../../lpc11cx4-library/lpc_chip_11cxx_lib/inc/sysctl_11xx.h ****  * Copyright(C) NXP Semiconductors, 2012
   6:../../lpc11cx4-library/lpc_chip_11cxx_lib/inc/sysctl_11xx.h ****  * All rights reserved.
   7:../../lpc11cx4-library/lpc_chip_11cxx_lib/inc/sysctl_11xx.h ****  *
   8:../../lpc11cx4-library/lpc_chip_11cxx_lib/inc/sysctl_11xx.h ****  * @par
   9:../../lpc11cx4-library/lpc_chip_11cxx_lib/inc/sysctl_11xx.h ****  * Software that is described herein is for illustrative purposes only
  10:../../lpc11cx4-library/lpc_chip_11cxx_lib/inc/sysctl_11xx.h ****  * which provides customers with programming information regarding the
  11:../../lpc11cx4-library/lpc_chip_11cxx_lib/inc/sysctl_11xx.h ****  * LPC products.  This software is supplied "AS IS" without any warranties of
  12:../../lpc11cx4-library/lpc_chip_11cxx_lib/inc/sysctl_11xx.h ****  * any kind, and NXP Semiconductors and its licensor disclaim any and
  13:../../lpc11cx4-library/lpc_chip_11cxx_lib/inc/sysctl_11xx.h ****  * all warranties, express or implied, including all implied warranties of
  14:../../lpc11cx4-library/lpc_chip_11cxx_lib/inc/sysctl_11xx.h ****  * merchantability, fitness for a particular purpose and non-infringement of
  15:../../lpc11cx4-library/lpc_chip_11cxx_lib/inc/sysctl_11xx.h ****  * intellectual property rights.  NXP Semiconductors assumes no responsibility
  16:../../lpc11cx4-library/lpc_chip_11cxx_lib/inc/sysctl_11xx.h ****  * or liability for the use of the software, conveys no license or rights under any
  17:../../lpc11cx4-library/lpc_chip_11cxx_lib/inc/sysctl_11xx.h ****  * patent, copyright, mask work right, or any other intellectual property rights in
  18:../../lpc11cx4-library/lpc_chip_11cxx_lib/inc/sysctl_11xx.h ****  * or to any products. NXP Semiconductors reserves the right to make changes
  19:../../lpc11cx4-library/lpc_chip_11cxx_lib/inc/sysctl_11xx.h ****  * in the software without notification. NXP Semiconductors also makes no
  20:../../lpc11cx4-library/lpc_chip_11cxx_lib/inc/sysctl_11xx.h ****  * representation or warranty that such application will be suitable for the
  21:../../lpc11cx4-library/lpc_chip_11cxx_lib/inc/sysctl_11xx.h ****  * specified use without further testing or modification.
  22:../../lpc11cx4-library/lpc_chip_11cxx_lib/inc/sysctl_11xx.h ****  *
  23:../../lpc11cx4-library/lpc_chip_11cxx_lib/inc/sysctl_11xx.h ****  * @par
  24:../../lpc11cx4-library/lpc_chip_11cxx_lib/inc/sysctl_11xx.h ****  * Permission to use, copy, modify, and distribute this software and its
  25:../../lpc11cx4-library/lpc_chip_11cxx_lib/inc/sysctl_11xx.h ****  * documentation is hereby granted, under NXP Semiconductors' and its
  26:../../lpc11cx4-library/lpc_chip_11cxx_lib/inc/sysctl_11xx.h ****  * licensor's relevant copyrights in the software, without fee, provided that it
  27:../../lpc11cx4-library/lpc_chip_11cxx_lib/inc/sysctl_11xx.h ****  * is used in conjunction with NXP Semiconductors microcontrollers.  This
  28:../../lpc11cx4-library/lpc_chip_11cxx_lib/inc/sysctl_11xx.h ****  * copyright, permission, and disclaimer notice must appear in all copies of
  29:../../lpc11cx4-library/lpc_chip_11cxx_lib/inc/sysctl_11xx.h ****  * this code.
  30:../../lpc11cx4-library/lpc_chip_11cxx_lib/inc/sysctl_11xx.h ****  */
ARM GAS  /tmp/ccjsfSlY.s 			page 69


  31:../../lpc11cx4-library/lpc_chip_11cxx_lib/inc/sysctl_11xx.h **** 
  32:../../lpc11cx4-library/lpc_chip_11cxx_lib/inc/sysctl_11xx.h **** #ifndef __SYSCTL_11XX_H_
  33:../../lpc11cx4-library/lpc_chip_11cxx_lib/inc/sysctl_11xx.h **** #define __SYSCTL_11XX_H_
  34:../../lpc11cx4-library/lpc_chip_11cxx_lib/inc/sysctl_11xx.h **** 
  35:../../lpc11cx4-library/lpc_chip_11cxx_lib/inc/sysctl_11xx.h **** #ifdef __cplusplus
  36:../../lpc11cx4-library/lpc_chip_11cxx_lib/inc/sysctl_11xx.h **** extern "C" {
  37:../../lpc11cx4-library/lpc_chip_11cxx_lib/inc/sysctl_11xx.h **** #endif
  38:../../lpc11cx4-library/lpc_chip_11cxx_lib/inc/sysctl_11xx.h **** 
  39:../../lpc11cx4-library/lpc_chip_11cxx_lib/inc/sysctl_11xx.h **** /** @defgroup SYSCTL_11XX CHIP: LPC11xx System Control block driver
  40:../../lpc11cx4-library/lpc_chip_11cxx_lib/inc/sysctl_11xx.h ****  * @ingroup CHIP_11XX_Drivers
  41:../../lpc11cx4-library/lpc_chip_11cxx_lib/inc/sysctl_11xx.h ****  * @{
  42:../../lpc11cx4-library/lpc_chip_11cxx_lib/inc/sysctl_11xx.h ****  */
  43:../../lpc11cx4-library/lpc_chip_11cxx_lib/inc/sysctl_11xx.h **** 
  44:../../lpc11cx4-library/lpc_chip_11cxx_lib/inc/sysctl_11xx.h **** /**
  45:../../lpc11cx4-library/lpc_chip_11cxx_lib/inc/sysctl_11xx.h ****  * @brief LPC11XX System Control block structure
  46:../../lpc11cx4-library/lpc_chip_11cxx_lib/inc/sysctl_11xx.h ****  */
  47:../../lpc11cx4-library/lpc_chip_11cxx_lib/inc/sysctl_11xx.h **** typedef struct {			/*!< SYSCTL Structure */
  48:../../lpc11cx4-library/lpc_chip_11cxx_lib/inc/sysctl_11xx.h **** 	__IO uint32_t  SYSMEMREMAP;		/*!< System Memory remap register */
  49:../../lpc11cx4-library/lpc_chip_11cxx_lib/inc/sysctl_11xx.h **** 	__IO uint32_t  PRESETCTRL;		/*!< Peripheral reset Control register */
  50:../../lpc11cx4-library/lpc_chip_11cxx_lib/inc/sysctl_11xx.h **** 	__IO uint32_t  SYSPLLCTRL;		/*!< System PLL control register */
  51:../../lpc11cx4-library/lpc_chip_11cxx_lib/inc/sysctl_11xx.h **** 	__I  uint32_t  SYSPLLSTAT;		/*!< System PLL status register */
  52:../../lpc11cx4-library/lpc_chip_11cxx_lib/inc/sysctl_11xx.h **** 	__IO uint32_t  USBPLLCTRL;		/*!< USB PLL control register, LPC11UXX only*/
  53:../../lpc11cx4-library/lpc_chip_11cxx_lib/inc/sysctl_11xx.h **** 	__I  uint32_t  USBPLLSTAT;		/*!< USB PLL status register, LPC11UXX only */
  54:../../lpc11cx4-library/lpc_chip_11cxx_lib/inc/sysctl_11xx.h **** 	__I  uint32_t  RESERVED1[2];
  55:../../lpc11cx4-library/lpc_chip_11cxx_lib/inc/sysctl_11xx.h **** 	__IO uint32_t  SYSOSCCTRL;		/*!< System Oscillator control register */
  56:../../lpc11cx4-library/lpc_chip_11cxx_lib/inc/sysctl_11xx.h **** 	__IO uint32_t  WDTOSCCTRL;		/*!< Watchdog Oscillator control register */
  57:../../lpc11cx4-library/lpc_chip_11cxx_lib/inc/sysctl_11xx.h **** 	__IO uint32_t  IRCCTRL;			/*!< IRC control register, not on LPC11UXX and LPC11EXX */
  58:../../lpc11cx4-library/lpc_chip_11cxx_lib/inc/sysctl_11xx.h **** 	__IO uint32_t  LFOSCCTRL;		/*!< LF oscillator control, LPC11AXX only */
  59:../../lpc11cx4-library/lpc_chip_11cxx_lib/inc/sysctl_11xx.h **** 	__IO uint32_t  SYSRSTSTAT;		/*!< System Reset Status register           */
  60:../../lpc11cx4-library/lpc_chip_11cxx_lib/inc/sysctl_11xx.h **** 	__I  uint32_t  RESERVED2[3];
  61:../../lpc11cx4-library/lpc_chip_11cxx_lib/inc/sysctl_11xx.h **** 	__IO uint32_t  SYSPLLCLKSEL;	/*!< System PLL clock source select register */
  62:../../lpc11cx4-library/lpc_chip_11cxx_lib/inc/sysctl_11xx.h **** 	__IO uint32_t  SYSPLLCLKUEN;	/*!< System PLL clock source update enable register*/
  63:../../lpc11cx4-library/lpc_chip_11cxx_lib/inc/sysctl_11xx.h **** 	__IO uint32_t  USBPLLCLKSEL;	/*!< USB PLL clock source select register, LPC11UXX only */
  64:../../lpc11cx4-library/lpc_chip_11cxx_lib/inc/sysctl_11xx.h **** 	__IO uint32_t  USBPLLCLKUEN;	/*!< USB PLL clock source update enable register, LPC11UXX only */
  65:../../lpc11cx4-library/lpc_chip_11cxx_lib/inc/sysctl_11xx.h **** 	__I  uint32_t  RESERVED3[8];
  66:../../lpc11cx4-library/lpc_chip_11cxx_lib/inc/sysctl_11xx.h **** 	__IO uint32_t  MAINCLKSEL;	/*!< Main clock source select register		*/
  67:../../lpc11cx4-library/lpc_chip_11cxx_lib/inc/sysctl_11xx.h **** 	__IO uint32_t  MAINCLKUEN;	/*!< Main clock source update enable register	*/
  68:../../lpc11cx4-library/lpc_chip_11cxx_lib/inc/sysctl_11xx.h **** 	__IO uint32_t  SYSAHBCLKDIV;	/*!< System Clock divider register */
  69:../../lpc11cx4-library/lpc_chip_11cxx_lib/inc/sysctl_11xx.h **** 	__I  uint32_t  RESERVED4;
  70:../../lpc11cx4-library/lpc_chip_11cxx_lib/inc/sysctl_11xx.h **** 	__IO uint32_t  SYSAHBCLKCTRL;	/*!< System clock control register */
  71:../../lpc11cx4-library/lpc_chip_11cxx_lib/inc/sysctl_11xx.h **** 	__I  uint32_t  RESERVED5[4];
  72:../../lpc11cx4-library/lpc_chip_11cxx_lib/inc/sysctl_11xx.h **** 	__IO uint32_t  SSP0CLKDIV;	/*!< SSP0 clock divider register   */
  73:../../lpc11cx4-library/lpc_chip_11cxx_lib/inc/sysctl_11xx.h **** 	__IO uint32_t  USARTCLKDIV;	/*!< UART clock divider register   */
  74:../../lpc11cx4-library/lpc_chip_11cxx_lib/inc/sysctl_11xx.h **** 	__IO uint32_t  SSP1CLKDIV;	/*!< SSP1 clock divider register, not on CHIP_LPC110X, CHIP_LPC11XXLV *
  75:../../lpc11cx4-library/lpc_chip_11cxx_lib/inc/sysctl_11xx.h **** 	__I  uint32_t  RESERVED6[8];
  76:../../lpc11cx4-library/lpc_chip_11cxx_lib/inc/sysctl_11xx.h **** 	__IO uint32_t  USBCLKSEL;	/*!< USB clock source select register, LPC11UXX only */
  77:../../lpc11cx4-library/lpc_chip_11cxx_lib/inc/sysctl_11xx.h **** 	__IO uint32_t  USBCLKUEN;	/*!< USB clock source update enable register, LPC11UXX only */
  78:../../lpc11cx4-library/lpc_chip_11cxx_lib/inc/sysctl_11xx.h **** 	__IO uint32_t  USBCLKDIV;	/*!< USB clock source divider register, LPC11UXX only */
  79:../../lpc11cx4-library/lpc_chip_11cxx_lib/inc/sysctl_11xx.h **** 	__I  uint32_t  RESERVED7;
  80:../../lpc11cx4-library/lpc_chip_11cxx_lib/inc/sysctl_11xx.h **** 	__IO uint32_t  WDTCLKSEL;	/*!< WDT clock source select register, some parts only */
  81:../../lpc11cx4-library/lpc_chip_11cxx_lib/inc/sysctl_11xx.h **** 	__IO uint32_t  WDTCLKUEN;	/*!< WDT clock source update enable register, some parts only */
  82:../../lpc11cx4-library/lpc_chip_11cxx_lib/inc/sysctl_11xx.h **** 	__IO uint32_t  WDTCLKDIV;	/*!< WDT clock divider register, some parts only */
  83:../../lpc11cx4-library/lpc_chip_11cxx_lib/inc/sysctl_11xx.h **** 	__I  uint32_t  RESERVED8;
  84:../../lpc11cx4-library/lpc_chip_11cxx_lib/inc/sysctl_11xx.h **** 	__IO uint32_t  CLKOUTSEL;	/*!< Clock out source select register, not on LPC1102/04 */
  85:../../lpc11cx4-library/lpc_chip_11cxx_lib/inc/sysctl_11xx.h **** 	__IO uint32_t  CLKOUTUEN;	/*!< Clock out source update enable register, not on LPC1102/04 */
  86:../../lpc11cx4-library/lpc_chip_11cxx_lib/inc/sysctl_11xx.h **** 	__IO uint32_t  CLKOUTDIV;	/*!< Clock out divider register, not on LPC1102/04 */
  87:../../lpc11cx4-library/lpc_chip_11cxx_lib/inc/sysctl_11xx.h **** 	__I  uint32_t  RESERVED9[5];
ARM GAS  /tmp/ccjsfSlY.s 			page 70


  88:../../lpc11cx4-library/lpc_chip_11cxx_lib/inc/sysctl_11xx.h **** 	__I  uint32_t  PIOPORCAP[2];/*!< POR captured PIO status registers, index 1 on LPC1102/04 */
  89:../../lpc11cx4-library/lpc_chip_11cxx_lib/inc/sysctl_11xx.h **** 	__I  uint32_t  RESERVED10[18];
  90:../../lpc11cx4-library/lpc_chip_11cxx_lib/inc/sysctl_11xx.h **** 	__IO uint32_t  BODCTRL;		/*!< Brown Out Detect register */
  91:../../lpc11cx4-library/lpc_chip_11cxx_lib/inc/sysctl_11xx.h **** 	__IO uint32_t  SYSTCKCAL;	/*!< System tick counter calibration register */
  92:../../lpc11cx4-library/lpc_chip_11cxx_lib/inc/sysctl_11xx.h **** 	__I  uint32_t  RESERVED11[6];
  93:../../lpc11cx4-library/lpc_chip_11cxx_lib/inc/sysctl_11xx.h **** 	__IO uint32_t  IRQLATENCY;	/*!< IRQ delay register, on LPC11UXX and LPC11EXX only */
  94:../../lpc11cx4-library/lpc_chip_11cxx_lib/inc/sysctl_11xx.h **** 	__IO uint32_t  NMISRC;		/*!< NMI source control register,some parts only */
  95:../../lpc11cx4-library/lpc_chip_11cxx_lib/inc/sysctl_11xx.h **** 	__IO uint32_t  PINTSEL[8];	/*!< GPIO pin interrupt select register 0-7, not on CHIP_LPC110X, CHIP_
  96:../../lpc11cx4-library/lpc_chip_11cxx_lib/inc/sysctl_11xx.h **** 	__IO uint32_t  USBCLKCTRL;	/*!< USB clock control register, LPC11UXX only */
  97:../../lpc11cx4-library/lpc_chip_11cxx_lib/inc/sysctl_11xx.h **** 	__I  uint32_t  USBCLKST;	/*!< USB clock status register, LPC11UXX only */
  98:../../lpc11cx4-library/lpc_chip_11cxx_lib/inc/sysctl_11xx.h **** 	__I  uint32_t  RESERVED12[24];
  99:../../lpc11cx4-library/lpc_chip_11cxx_lib/inc/sysctl_11xx.h **** 	__IO uint32_t  STARTAPRP0;	/*!< Start loigc 0 interrupt wake up enable register 0, on CHIP_LPC110X
 100:../../lpc11cx4-library/lpc_chip_11cxx_lib/inc/sysctl_11xx.h **** 	__IO uint32_t  STARTERP0;	/*!< Start loigc signal enable register 0, not on LPC11AXX */
 101:../../lpc11cx4-library/lpc_chip_11cxx_lib/inc/sysctl_11xx.h **** 	__IO uint32_t  STARTRSRP0CLR;	/*!< Start loigc reset register 0, on CHIP_LPC110X, CHIP_LPC11XXLV, 
 102:../../lpc11cx4-library/lpc_chip_11cxx_lib/inc/sysctl_11xx.h **** 	__IO uint32_t  STARTSRP0;		/*!< Start loigc status register 0, on CHIP_LPC110X, CHIP_LPC11XXLV, CH
 103:../../lpc11cx4-library/lpc_chip_11cxx_lib/inc/sysctl_11xx.h **** 	__I  uint32_t  RESERVED13;
 104:../../lpc11cx4-library/lpc_chip_11cxx_lib/inc/sysctl_11xx.h **** 	__IO uint32_t  STARTERP1;	/*!< Start logic 1 interrupt wake up enable register 1, on LPC11UXX and 
 105:../../lpc11cx4-library/lpc_chip_11cxx_lib/inc/sysctl_11xx.h **** 	__I  uint32_t  RESERVED14[6];
 106:../../lpc11cx4-library/lpc_chip_11cxx_lib/inc/sysctl_11xx.h **** 	__IO uint32_t  PDSLEEPCFG;	/*!< Power down states in deep sleep mode register, not on LPC11AXX */
 107:../../lpc11cx4-library/lpc_chip_11cxx_lib/inc/sysctl_11xx.h **** 	__IO uint32_t  PDWAKECFG;	/*!< Power down states in wake up from deep sleep register, not on LPC11
 108:../../lpc11cx4-library/lpc_chip_11cxx_lib/inc/sysctl_11xx.h **** 	__IO uint32_t  PDRUNCFG;	/*!< Power configuration register*/
 109:../../lpc11cx4-library/lpc_chip_11cxx_lib/inc/sysctl_11xx.h **** 	__I  uint32_t  RESERVED15[110];
 110:../../lpc11cx4-library/lpc_chip_11cxx_lib/inc/sysctl_11xx.h **** 	__I  uint32_t  DEVICEID;	/*!< Device ID register */
 111:../../lpc11cx4-library/lpc_chip_11cxx_lib/inc/sysctl_11xx.h **** } LPC_SYSCTL_T;
 112:../../lpc11cx4-library/lpc_chip_11cxx_lib/inc/sysctl_11xx.h **** 
 113:../../lpc11cx4-library/lpc_chip_11cxx_lib/inc/sysctl_11xx.h **** /**
 114:../../lpc11cx4-library/lpc_chip_11cxx_lib/inc/sysctl_11xx.h ****  * System memory remap modes used to remap interrupt vectors
 115:../../lpc11cx4-library/lpc_chip_11cxx_lib/inc/sysctl_11xx.h ****  */
 116:../../lpc11cx4-library/lpc_chip_11cxx_lib/inc/sysctl_11xx.h **** typedef enum CHIP_SYSCTL_BOOT_MODE_REMAP {
 117:../../lpc11cx4-library/lpc_chip_11cxx_lib/inc/sysctl_11xx.h **** 	REMAP_BOOT_LOADER_MODE,	/*!< Interrupt vectors are re-mapped to Boot ROM */
 118:../../lpc11cx4-library/lpc_chip_11cxx_lib/inc/sysctl_11xx.h **** 	REMAP_USER_RAM_MODE,	/*!< Interrupt vectors are re-mapped to Static RAM */
 119:../../lpc11cx4-library/lpc_chip_11cxx_lib/inc/sysctl_11xx.h **** 	REMAP_USER_FLASH_MODE	/*!< Interrupt vectors are not re-mapped and reside in Flash */
 120:../../lpc11cx4-library/lpc_chip_11cxx_lib/inc/sysctl_11xx.h **** } CHIP_SYSCTL_BOOT_MODE_REMAP_T;
 121:../../lpc11cx4-library/lpc_chip_11cxx_lib/inc/sysctl_11xx.h **** 
 122:../../lpc11cx4-library/lpc_chip_11cxx_lib/inc/sysctl_11xx.h **** /**
 123:../../lpc11cx4-library/lpc_chip_11cxx_lib/inc/sysctl_11xx.h ****  * @brief	Re-map interrupt vectors
 124:../../lpc11cx4-library/lpc_chip_11cxx_lib/inc/sysctl_11xx.h ****  * @param	remap	: system memory map value
 125:../../lpc11cx4-library/lpc_chip_11cxx_lib/inc/sysctl_11xx.h ****  * @return	Nothing
 126:../../lpc11cx4-library/lpc_chip_11cxx_lib/inc/sysctl_11xx.h ****  */
 127:../../lpc11cx4-library/lpc_chip_11cxx_lib/inc/sysctl_11xx.h **** STATIC INLINE void Chip_SYSCTL_Map(CHIP_SYSCTL_BOOT_MODE_REMAP_T remap)
 128:../../lpc11cx4-library/lpc_chip_11cxx_lib/inc/sysctl_11xx.h **** {
 129:../../lpc11cx4-library/lpc_chip_11cxx_lib/inc/sysctl_11xx.h **** 	LPC_SYSCTL->SYSMEMREMAP = (uint32_t) remap;
 130:../../lpc11cx4-library/lpc_chip_11cxx_lib/inc/sysctl_11xx.h **** }
 131:../../lpc11cx4-library/lpc_chip_11cxx_lib/inc/sysctl_11xx.h **** 
 132:../../lpc11cx4-library/lpc_chip_11cxx_lib/inc/sysctl_11xx.h **** /**
 133:../../lpc11cx4-library/lpc_chip_11cxx_lib/inc/sysctl_11xx.h ****  * Peripheral reset identifiers, not available on all devices
 134:../../lpc11cx4-library/lpc_chip_11cxx_lib/inc/sysctl_11xx.h ****  */
 135:../../lpc11cx4-library/lpc_chip_11cxx_lib/inc/sysctl_11xx.h **** typedef enum {
 136:../../lpc11cx4-library/lpc_chip_11cxx_lib/inc/sysctl_11xx.h **** 	RESET_SSP0,			/*!< SSP0 reset control */
 137:../../lpc11cx4-library/lpc_chip_11cxx_lib/inc/sysctl_11xx.h **** 	RESET_I2C0,			/*!< I2C0 reset control */
 138:../../lpc11cx4-library/lpc_chip_11cxx_lib/inc/sysctl_11xx.h **** 	RESET_SSP1,			/*!< SSP1 reset control */
 139:../../lpc11cx4-library/lpc_chip_11cxx_lib/inc/sysctl_11xx.h **** #if !defined(CHIP_LPC1125)
 140:../../lpc11cx4-library/lpc_chip_11cxx_lib/inc/sysctl_11xx.h **** 	RESET_CAN0,			/*!< CAN0 reset control */
 141:../../lpc11cx4-library/lpc_chip_11cxx_lib/inc/sysctl_11xx.h **** 	RESET_UART0,		/*!< UART0 reset control */
 142:../../lpc11cx4-library/lpc_chip_11cxx_lib/inc/sysctl_11xx.h **** 	RESET_TIMER0_16,	/*!< 16-bit Timer 0 reset control */
 143:../../lpc11cx4-library/lpc_chip_11cxx_lib/inc/sysctl_11xx.h **** 	RESET_TIMER1_16,	/*!< 16-bit Timer 1 reset control */
 144:../../lpc11cx4-library/lpc_chip_11cxx_lib/inc/sysctl_11xx.h **** 	RESET_TIMER0_32,	/*!< 32-bit Timer 0 reset control */
ARM GAS  /tmp/ccjsfSlY.s 			page 71


 145:../../lpc11cx4-library/lpc_chip_11cxx_lib/inc/sysctl_11xx.h **** 	RESET_TIMER1_32,	/*!< 32-bit Timer 1 reset control */
 146:../../lpc11cx4-library/lpc_chip_11cxx_lib/inc/sysctl_11xx.h **** 	RESET_ACMP,			/*!< Analog comparator reset control */
 147:../../lpc11cx4-library/lpc_chip_11cxx_lib/inc/sysctl_11xx.h **** 	RESET_DAC0,			/*!< DAC reset control */
 148:../../lpc11cx4-library/lpc_chip_11cxx_lib/inc/sysctl_11xx.h **** 	RESET_ADC0			/*!< ADC reset control */
 149:../../lpc11cx4-library/lpc_chip_11cxx_lib/inc/sysctl_11xx.h **** #endif
 150:../../lpc11cx4-library/lpc_chip_11cxx_lib/inc/sysctl_11xx.h **** } CHIP_SYSCTL_PERIPH_RESET_T;
 151:../../lpc11cx4-library/lpc_chip_11cxx_lib/inc/sysctl_11xx.h **** 
 152:../../lpc11cx4-library/lpc_chip_11cxx_lib/inc/sysctl_11xx.h **** /**
 153:../../lpc11cx4-library/lpc_chip_11cxx_lib/inc/sysctl_11xx.h ****  * @brief	Assert reset for a peripheral
 154:../../lpc11cx4-library/lpc_chip_11cxx_lib/inc/sysctl_11xx.h ****  * @param	periph	: Peripheral to assert reset for
 155:../../lpc11cx4-library/lpc_chip_11cxx_lib/inc/sysctl_11xx.h ****  * @return	Nothing
 156:../../lpc11cx4-library/lpc_chip_11cxx_lib/inc/sysctl_11xx.h ****  * @note	The peripheral will stay in reset until reset is de-asserted. Call
 157:../../lpc11cx4-library/lpc_chip_11cxx_lib/inc/sysctl_11xx.h ****  * Chip_SYSCTL_DeassertPeriphReset() to de-assert the reset.
 158:../../lpc11cx4-library/lpc_chip_11cxx_lib/inc/sysctl_11xx.h ****  */
 159:../../lpc11cx4-library/lpc_chip_11cxx_lib/inc/sysctl_11xx.h **** STATIC INLINE void Chip_SYSCTL_AssertPeriphReset(CHIP_SYSCTL_PERIPH_RESET_T periph)
 160:../../lpc11cx4-library/lpc_chip_11cxx_lib/inc/sysctl_11xx.h **** {
 161:../../lpc11cx4-library/lpc_chip_11cxx_lib/inc/sysctl_11xx.h **** 	LPC_SYSCTL->PRESETCTRL &= ~(1 << (uint32_t) periph);
 2336              		.loc 4 161 0
 2337 0020 114B     		ldr	r3, .L276+4	@ tmp127,
 2338              	.LBE598:
 2339              	.LBE597:
 2340              	.LBE596:
 485:../../lpc11cx4-library/lpc_chip_11cxx_lib/src/ssp_11xx.c **** 	Chip_Clock_EnablePeriphClock(Chip_SSP_GetClockIndex(pSSP));
 486:../../lpc11cx4-library/lpc_chip_11cxx_lib/src/ssp_11xx.c **** 	Chip_SSP_SetSSPClkDivider(pSSP, 1);
 487:../../lpc11cx4-library/lpc_chip_11cxx_lib/src/ssp_11xx.c **** 	Chip_SYSCTL_PeriphReset(Chip_SSP_GetResetIndex(pSSP));
 488:../../lpc11cx4-library/lpc_chip_11cxx_lib/src/ssp_11xx.c **** 
 489:../../lpc11cx4-library/lpc_chip_11cxx_lib/src/ssp_11xx.c **** 	Chip_SSP_Set_Mode(pSSP, SSP_MODE_MASTER);
 490:../../lpc11cx4-library/lpc_chip_11cxx_lib/src/ssp_11xx.c **** 	Chip_SSP_SetFormat(pSSP, SSP_BITS_8, SSP_FRAMEFORMAT_SPI, SSP_CLOCK_CPHA0_CPOL0);
 491:../../lpc11cx4-library/lpc_chip_11cxx_lib/src/ssp_11xx.c **** 	Chip_SSP_SetBitRate(pSSP, 100000);
 492:../../lpc11cx4-library/lpc_chip_11cxx_lib/src/ssp_11xx.c **** }
 2341              		.loc 1 492 0
 2342              		@ sp needed	@
 2343              	.LBB603:
 2344              	.LBB600:
 2345              	.LBB599:
 2346              		.loc 4 161 0
 2347 0022 5C68     		ldr	r4, [r3, #4]	@ D.6940, MEM[(struct LPC_SYSCTL_T *)1074036736B].PRESETCTRL
 2348 0024 2240     		and	r2, r4	@ D.6940, D.6940
 2349 0026 5A60     		str	r2, [r3, #4]	@ D.6940, MEM[(struct LPC_SYSCTL_T *)1074036736B].PRESETCTRL
 2350              	.LBE599:
 2351              	.LBE600:
 2352              	.LBB601:
 2353              	.LBB602:
 162:../../lpc11cx4-library/lpc_chip_11cxx_lib/inc/sysctl_11xx.h **** }
 163:../../lpc11cx4-library/lpc_chip_11cxx_lib/inc/sysctl_11xx.h **** 
 164:../../lpc11cx4-library/lpc_chip_11cxx_lib/inc/sysctl_11xx.h **** /**
 165:../../lpc11cx4-library/lpc_chip_11cxx_lib/inc/sysctl_11xx.h ****  * @brief	De-assert reset for a peripheral
 166:../../lpc11cx4-library/lpc_chip_11cxx_lib/inc/sysctl_11xx.h ****  * @param	periph	: Peripheral to de-assert reset for
 167:../../lpc11cx4-library/lpc_chip_11cxx_lib/inc/sysctl_11xx.h ****  * @return	Nothing
 168:../../lpc11cx4-library/lpc_chip_11cxx_lib/inc/sysctl_11xx.h ****  */
 169:../../lpc11cx4-library/lpc_chip_11cxx_lib/inc/sysctl_11xx.h **** STATIC INLINE void Chip_SYSCTL_DeassertPeriphReset(CHIP_SYSCTL_PERIPH_RESET_T periph)
 170:../../lpc11cx4-library/lpc_chip_11cxx_lib/inc/sysctl_11xx.h **** {
 171:../../lpc11cx4-library/lpc_chip_11cxx_lib/inc/sysctl_11xx.h **** 	LPC_SYSCTL->PRESETCTRL |= (1 << (uint32_t) periph);
 2354              		.loc 4 171 0
 2355 0028 5A68     		ldr	r2, [r3, #4]	@ D.6940, MEM[(struct LPC_SYSCTL_T *)1074036736B].PRESETCTRL
 2356 002a 0A43     		orr	r2, r1	@ D.6940, D.6940
 2357 002c 5A60     		str	r2, [r3, #4]	@ D.6940, MEM[(struct LPC_SYSCTL_T *)1074036736B].PRESETCTRL
ARM GAS  /tmp/ccjsfSlY.s 			page 72


 2358              	.LVL186:
 2359              	.LBE602:
 2360              	.LBE601:
 2361              	.LBE603:
 2362              	.LBB604:
 2363              	.LBB605:
 2364              		.loc 2 421 0
 2365 002e 0422     		mov	r2, #4	@ tmp131,
 2366 0030 4368     		ldr	r3, [r0, #4]	@ D.6940, pSSP_1(D)->CR1
 2367              	.LBE605:
 2368              	.LBE604:
 491:../../lpc11cx4-library/lpc_chip_11cxx_lib/src/ssp_11xx.c **** }
 2369              		.loc 1 491 0
 2370 0032 0E49     		ldr	r1, .L276+8	@,
 2371              	.LBB607:
 2372              	.LBB606:
 2373              		.loc 2 421 0
 2374 0034 9343     		bic	r3, r2	@ D.6940, tmp131
 2375 0036 4360     		str	r3, [r0, #4]	@ D.6940, pSSP_1(D)->CR1
 2376              	.LVL187:
 2377              	.LBE606:
 2378              	.LBE607:
 2379              	.LBB608:
 2380              	.LBB609:
 408:../../lpc11cx4-library/lpc_chip_11cxx_lib/inc/ssp_11xx.h **** }
 2381              		.loc 2 408 0
 2382 0038 0368     		ldr	r3, [r0]	@ D.6940, pSSP_1(D)->CR0
 2383 003a FB32     		add	r2, r2, #251	@ tmp133,
 2384 003c 9343     		bic	r3, r2	@ D.6940, tmp133
 2385 003e F83A     		sub	r2, r2, #248	@ tmp134,
 2386 0040 1343     		orr	r3, r2	@ D.6940, tmp134
 2387 0042 0360     		str	r3, [r0]	@ D.6940, pSSP_1(D)->CR0
 2388              	.LBE609:
 2389              	.LBE608:
 491:../../lpc11cx4-library/lpc_chip_11cxx_lib/src/ssp_11xx.c **** }
 2390              		.loc 1 491 0
 2391 0044 FFF7FEFF 		bl	Chip_SSP_SetBitRate	@
 2392              	.LVL188:
 2393              		.loc 1 492 0
 2394 0048 10BD     		pop	{r4, pc}
 2395              	.LVL189:
 2396              	.L275:
 2397              	.LBB610:
 2398              	.LBB590:
 297:../../lpc11cx4-library/lpc_chip_11cxx_lib/inc/clock_11xx.h **** }
 2399              		.loc 3 297 0
 2400 004a 8021     		mov	r1, #128	@ tmp137,
 2401 004c 8024     		mov	r4, #128	@ tmp138,
 2402 004e 064B     		ldr	r3, .L276+4	@ tmp136,
 2403 0050 2401     		lsl	r4, r4, #4	@ tmp138, tmp138,
 2404 0052 5A58     		ldr	r2, [r3, r1]	@ D.6940, MEM[(struct LPC_SYSCTL_T *)1074036736B].SYSAHBCLKCTRL
 2405 0054 2243     		orr	r2, r4	@ D.6940, tmp138
 2406 0056 5A50     		str	r2, [r3, r1]	@ D.6940, MEM[(struct LPC_SYSCTL_T *)1074036736B].SYSAHBCLKCTRL
 2407              	.LVL190:
 2408              	.LBE590:
 2409              	.LBE610:
 2410              	.LBB611:
ARM GAS  /tmp/ccjsfSlY.s 			page 73


 2411              	.LBB594:
 2412              	.LBB595:
 319:../../lpc11cx4-library/lpc_chip_11cxx_lib/inc/clock_11xx.h **** }
 2413              		.loc 3 319 0
 2414 0058 9422     		mov	r2, #148	@ tmp142,
 2415 005a 7F39     		sub	r1, r1, #127	@ tmp143,
 2416 005c 9950     		str	r1, [r3, r2]	@ tmp143, MEM[(struct LPC_SYSCTL_T *)1074036736B].SSP0CLKDIV
 2417              	.LVL191:
 2418 005e 963A     		sub	r2, r2, #150	@ D.6940,
 2419 0060 DEE7     		b	.L271	@
 2420              	.L277:
 2421 0062 C046     		.align	2
 2422              	.L276:
 2423 0064 00000440 		.word	1074003968
 2424 0068 00800440 		.word	1074036736
 2425 006c A0860100 		.word	100000
 2426              	.LBE595:
 2427              	.LBE594:
 2428              	.LBE611:
 2429              		.cfi_endproc
 2430              	.LFE215:
 2431              		.size	Chip_SSP_Init, .-Chip_SSP_Init
 2432              		.section	.text.Chip_SSP_DeInit,"ax",%progbits
 2433              		.align	2
 2434              		.global	Chip_SSP_DeInit
 2435              		.code	16
 2436              		.thumb_func
 2437              		.type	Chip_SSP_DeInit, %function
 2438              	Chip_SSP_DeInit:
 2439              	.LFB216:
 493:../../lpc11cx4-library/lpc_chip_11cxx_lib/src/ssp_11xx.c **** 
 494:../../lpc11cx4-library/lpc_chip_11cxx_lib/src/ssp_11xx.c **** /* De-initializes the SSP peripheral */
 495:../../lpc11cx4-library/lpc_chip_11cxx_lib/src/ssp_11xx.c **** void Chip_SSP_DeInit(LPC_SSP_T *pSSP)
 496:../../lpc11cx4-library/lpc_chip_11cxx_lib/src/ssp_11xx.c **** {
 2440              		.loc 1 496 0
 2441              		.cfi_startproc
 2442              	.LVL192:
 2443              	.LBB612:
 2444              	.LBB613:
 244:../../lpc11cx4-library/lpc_chip_11cxx_lib/inc/ssp_11xx.h **** }
 2445              		.loc 2 244 0
 2446 0000 0D22     		mov	r2, #13	@ tmp117,
 2447 0002 4368     		ldr	r3, [r0, #4]	@ D.6943, pSSP_2(D)->CR1
 2448 0004 1340     		and	r3, r2	@ D.6943, tmp117
 2449 0006 4360     		str	r3, [r0, #4]	@ D.6943, pSSP_2(D)->CR1
 2450              	.LVL193:
 2451              	.LBE613:
 2452              	.LBE612:
 2453              	.LBB614:
 2454              	.LBB615:
 109:../../lpc11cx4-library/lpc_chip_11cxx_lib/src/ssp_11xx.c **** 		clkSSP = SYSCTL_CLOCK_SSP0;
 2455              		.loc 1 109 0
 2456 0008 0B4B     		ldr	r3, .L284	@ tmp118,
 2457 000a 9842     		cmp	r0, r3	@ pSSP, tmp118
 2458 000c 09D0     		beq	.L283	@,
 2459              	.LVL194:
 2460              	.LBE615:
ARM GAS  /tmp/ccjsfSlY.s 			page 74


 2461              	.LBE614:
 2462              	.LBB616:
 2463              	.LBB617:
 307:../../lpc11cx4-library/lpc_chip_11cxx_lib/inc/clock_11xx.h **** }
 2464              		.loc 3 307 0
 2465 000e 8021     		mov	r1, #128	@ tmp128,
 2466 0010 0A4B     		ldr	r3, .L284+4	@ tmp127,
 2467 0012 0B4A     		ldr	r2, .L284+8	@ tmp129,
 2468 0014 5858     		ldr	r0, [r3, r1]	@ D.6943,
 2469              	.LVL195:
 2470 0016 0240     		and	r2, r0	@ D.6943, D.6943
 2471 0018 5A50     		str	r2, [r3, r1]	@ D.6943, MEM[(struct LPC_SYSCTL_T *)1074036736B].SYSAHBCLKCTRL
 2472              	.LVL196:
 2473              	.LBE617:
 2474              	.LBE616:
 2475              	.LBB619:
 2476              	.LBB620:
 2477              	.LBB621:
 364:../../lpc11cx4-library/lpc_chip_11cxx_lib/inc/clock_11xx.h **** }
 2478              		.loc 3 364 0
 2479 001a 0021     		mov	r1, #0	@ tmp134,
 2480 001c 9C22     		mov	r2, #156	@ tmp133,
 2481 001e 9950     		str	r1, [r3, r2]	@ tmp134,
 2482              	.LVL197:
 2483              	.L278:
 2484              	.LBE621:
 2485              	.LBE620:
 2486              	.LBE619:
 497:../../lpc11cx4-library/lpc_chip_11cxx_lib/src/ssp_11xx.c **** 	Chip_SSP_Disable(pSSP);
 498:../../lpc11cx4-library/lpc_chip_11cxx_lib/src/ssp_11xx.c **** 
 499:../../lpc11cx4-library/lpc_chip_11cxx_lib/src/ssp_11xx.c **** 	Chip_Clock_DisablePeriphClock(Chip_SSP_GetClockIndex(pSSP));
 500:../../lpc11cx4-library/lpc_chip_11cxx_lib/src/ssp_11xx.c **** 	Chip_SSP_SetSSPClkDivider(pSSP, 0);
 501:../../lpc11cx4-library/lpc_chip_11cxx_lib/src/ssp_11xx.c **** }
 2487              		.loc 1 501 0
 2488              		@ sp needed	@
 2489 0020 7047     		bx	lr
 2490              	.LVL198:
 2491              	.L283:
 2492              	.LBB624:
 2493              	.LBB618:
 307:../../lpc11cx4-library/lpc_chip_11cxx_lib/inc/clock_11xx.h **** }
 2494              		.loc 3 307 0
 2495 0022 8021     		mov	r1, #128	@ tmp120,
 2496 0024 054B     		ldr	r3, .L284+4	@ tmp119,
 2497 0026 074A     		ldr	r2, .L284+12	@ tmp121,
 2498 0028 5858     		ldr	r0, [r3, r1]	@ D.6943,
 2499              	.LVL199:
 2500 002a 0240     		and	r2, r0	@ D.6943, D.6943
 2501 002c 5A50     		str	r2, [r3, r1]	@ D.6943, MEM[(struct LPC_SYSCTL_T *)1074036736B].SYSAHBCLKCTRL
 2502              	.LVL200:
 2503              	.LBE618:
 2504              	.LBE624:
 2505              	.LBB625:
 2506              	.LBB622:
 2507              	.LBB623:
 319:../../lpc11cx4-library/lpc_chip_11cxx_lib/inc/clock_11xx.h **** }
 2508              		.loc 3 319 0
ARM GAS  /tmp/ccjsfSlY.s 			page 75


 2509 002e 0021     		mov	r1, #0	@ tmp126,
 2510 0030 9422     		mov	r2, #148	@ tmp125,
 2511 0032 9950     		str	r1, [r3, r2]	@ tmp126,
 2512 0034 F4E7     		b	.L278	@
 2513              	.L285:
 2514 0036 C046     		.align	2
 2515              	.L284:
 2516 0038 00000440 		.word	1074003968
 2517 003c 00800440 		.word	1074036736
 2518 0040 FFFFFBFF 		.word	-262145
 2519 0044 FFF7FFFF 		.word	-2049
 2520              	.LBE623:
 2521              	.LBE622:
 2522              	.LBE625:
 2523              		.cfi_endproc
 2524              	.LFE216:
 2525              		.size	Chip_SSP_DeInit, .-Chip_SSP_DeInit
 2526              		.text
 2527              	.Letext0:
 2528              		.file 5 "/usr/arm-none-eabi/include/machine/_default_types.h"
 2529              		.file 6 "/usr/arm-none-eabi/include/sys/_stdint.h"
 2530              		.file 7 "../../lpc11cx4-library/lpc_chip_11cxx_lib/inc/lpc_types.h"
 2531              		.file 8 "../../lpc11cx4-library/lpc_chip_11cxx_lib/inc/chip.h"
 2532              		.section	.debug_info,"",%progbits
 2533              	.Ldebug_info0:
 2534 0000 761C0000 		.4byte	0x1c76
 2535 0004 0400     		.2byte	0x4
 2536 0006 00000000 		.4byte	.Ldebug_abbrev0
 2537 000a 04       		.byte	0x4
 2538 000b 01       		.uleb128 0x1
 2539 000c 25700000 		.4byte	.LASF1264
 2540 0010 01       		.byte	0x1
 2541 0011 7B520000 		.4byte	.LASF1265
 2542 0015 327A0000 		.4byte	.LASF1266
 2543 0019 70070000 		.4byte	.Ldebug_ranges0+0x770
 2544 001d 00000000 		.4byte	0
 2545 0021 00000000 		.4byte	.Ldebug_line0
 2546 0025 00000000 		.4byte	.Ldebug_macro0
 2547 0029 02       		.uleb128 0x2
 2548 002a 04       		.byte	0x4
 2549 002b 07       		.byte	0x7
 2550 002c 1F490000 		.4byte	.LASF1022
 2551 0030 02       		.uleb128 0x2
 2552 0031 01       		.byte	0x1
 2553 0032 06       		.byte	0x6
 2554 0033 3D1B0000 		.4byte	.LASF1023
 2555 0037 03       		.uleb128 0x3
 2556 0038 A10F0000 		.4byte	.LASF1026
 2557 003c 05       		.byte	0x5
 2558 003d 1D       		.byte	0x1d
 2559 003e 42000000 		.4byte	0x42
 2560 0042 02       		.uleb128 0x2
 2561 0043 01       		.byte	0x1
 2562 0044 08       		.byte	0x8
 2563 0045 241E0000 		.4byte	.LASF1024
 2564 0049 02       		.uleb128 0x2
 2565 004a 02       		.byte	0x2
ARM GAS  /tmp/ccjsfSlY.s 			page 76


 2566 004b 05       		.byte	0x5
 2567 004c E4680000 		.4byte	.LASF1025
 2568 0050 03       		.uleb128 0x3
 2569 0051 8A260000 		.4byte	.LASF1027
 2570 0055 05       		.byte	0x5
 2571 0056 2B       		.byte	0x2b
 2572 0057 5B000000 		.4byte	0x5b
 2573 005b 02       		.uleb128 0x2
 2574 005c 02       		.byte	0x2
 2575 005d 07       		.byte	0x7
 2576 005e ED760000 		.4byte	.LASF1028
 2577 0062 02       		.uleb128 0x2
 2578 0063 04       		.byte	0x4
 2579 0064 05       		.byte	0x5
 2580 0065 AC130000 		.4byte	.LASF1029
 2581 0069 03       		.uleb128 0x3
 2582 006a AD400000 		.4byte	.LASF1030
 2583 006e 05       		.byte	0x5
 2584 006f 41       		.byte	0x41
 2585 0070 74000000 		.4byte	0x74
 2586 0074 02       		.uleb128 0x2
 2587 0075 04       		.byte	0x4
 2588 0076 07       		.byte	0x7
 2589 0077 A4370000 		.4byte	.LASF1031
 2590 007b 02       		.uleb128 0x2
 2591 007c 08       		.byte	0x8
 2592 007d 05       		.byte	0x5
 2593 007e 0F410000 		.4byte	.LASF1032
 2594 0082 02       		.uleb128 0x2
 2595 0083 08       		.byte	0x8
 2596 0084 07       		.byte	0x7
 2597 0085 B5590000 		.4byte	.LASF1033
 2598 0089 04       		.uleb128 0x4
 2599 008a 04       		.byte	0x4
 2600 008b 05       		.byte	0x5
 2601 008c 696E7400 		.ascii	"int\000"
 2602 0090 03       		.uleb128 0x3
 2603 0091 761B0000 		.4byte	.LASF1034
 2604 0095 06       		.byte	0x6
 2605 0096 14       		.byte	0x14
 2606 0097 37000000 		.4byte	0x37
 2607 009b 03       		.uleb128 0x3
 2608 009c A65A0000 		.4byte	.LASF1035
 2609 00a0 06       		.byte	0x6
 2610 00a1 1A       		.byte	0x1a
 2611 00a2 50000000 		.4byte	0x50
 2612 00a6 03       		.uleb128 0x3
 2613 00a7 D8730000 		.4byte	.LASF1036
 2614 00ab 06       		.byte	0x6
 2615 00ac 20       		.byte	0x20
 2616 00ad 69000000 		.4byte	0x69
 2617 00b1 05       		.uleb128 0x5
 2618 00b2 01       		.byte	0x1
 2619 00b3 07       		.byte	0x7
 2620 00b4 3E       		.byte	0x3e
 2621 00b5 C6000000 		.4byte	0xc6
 2622 00b9 06       		.uleb128 0x6
ARM GAS  /tmp/ccjsfSlY.s 			page 77


 2623 00ba 95600000 		.4byte	.LASF1037
 2624 00be 00       		.sleb128 0
 2625 00bf 07       		.uleb128 0x7
 2626 00c0 53455400 		.ascii	"SET\000"
 2627 00c4 01       		.sleb128 1
 2628 00c5 00       		.byte	0
 2629 00c6 03       		.uleb128 0x3
 2630 00c7 2C630000 		.4byte	.LASF1038
 2631 00cb 07       		.byte	0x7
 2632 00cc 3E       		.byte	0x3e
 2633 00cd B1000000 		.4byte	0xb1
 2634 00d1 03       		.uleb128 0x3
 2635 00d2 0D780000 		.4byte	.LASF1039
 2636 00d6 07       		.byte	0x7
 2637 00d7 3E       		.byte	0x3e
 2638 00d8 B1000000 		.4byte	0xb1
 2639 00dc 05       		.uleb128 0x5
 2640 00dd 01       		.byte	0x1
 2641 00de 07       		.byte	0x7
 2642 00df 4A       		.byte	0x4a
 2643 00e0 F1000000 		.4byte	0xf1
 2644 00e4 06       		.uleb128 0x6
 2645 00e5 7E3C0000 		.4byte	.LASF1040
 2646 00e9 00       		.sleb128 0
 2647 00ea 06       		.uleb128 0x6
 2648 00eb 9D5E0000 		.4byte	.LASF1041
 2649 00ef 01       		.sleb128 1
 2650 00f0 00       		.byte	0
 2651 00f1 03       		.uleb128 0x3
 2652 00f2 F43F0000 		.4byte	.LASF1042
 2653 00f6 07       		.byte	0x7
 2654 00f7 4A       		.byte	0x4a
 2655 00f8 DC000000 		.4byte	0xdc
 2656 00fc 02       		.uleb128 0x2
 2657 00fd 01       		.byte	0x1
 2658 00fe 08       		.byte	0x8
 2659 00ff 80230000 		.4byte	.LASF372
 2660 0103 02       		.uleb128 0x2
 2661 0104 01       		.byte	0x1
 2662 0105 02       		.byte	0x2
 2663 0106 02220000 		.4byte	.LASF1043
 2664 010a 02       		.uleb128 0x2
 2665 010b 04       		.byte	0x4
 2666 010c 07       		.byte	0x7
 2667 010d 96010000 		.4byte	.LASF1044
 2668 0111 08       		.uleb128 0x8
 2669 0112 A6000000 		.4byte	0xa6
 2670 0116 21010000 		.4byte	0x121
 2671 011a 09       		.uleb128 0x9
 2672 011b 0A010000 		.4byte	0x10a
 2673 011f 07       		.byte	0x7
 2674 0120 00       		.byte	0
 2675 0121 0A       		.uleb128 0xa
 2676 0122 26010000 		.4byte	0x126
 2677 0126 0B       		.uleb128 0xb
 2678 0127 A6000000 		.4byte	0xa6
 2679 012b 08       		.uleb128 0x8
ARM GAS  /tmp/ccjsfSlY.s 			page 78


 2680 012c A6000000 		.4byte	0xa6
 2681 0130 3B010000 		.4byte	0x13b
 2682 0134 09       		.uleb128 0x9
 2683 0135 0A010000 		.4byte	0x10a
 2684 0139 01       		.byte	0x1
 2685 013a 00       		.byte	0
 2686 013b 08       		.uleb128 0x8
 2687 013c A6000000 		.4byte	0xa6
 2688 0140 4B010000 		.4byte	0x14b
 2689 0144 09       		.uleb128 0x9
 2690 0145 0A010000 		.4byte	0x10a
 2691 0149 03       		.byte	0x3
 2692 014a 00       		.byte	0
 2693 014b 08       		.uleb128 0x8
 2694 014c A6000000 		.4byte	0xa6
 2695 0150 5B010000 		.4byte	0x15b
 2696 0154 09       		.uleb128 0x9
 2697 0155 0A010000 		.4byte	0x10a
 2698 0159 02       		.byte	0x2
 2699 015a 00       		.byte	0
 2700 015b 0C       		.uleb128 0xc
 2701 015c F803     		.2byte	0x3f8
 2702 015e 04       		.byte	0x4
 2703 015f 2F       		.byte	0x2f
 2704 0160 70040000 		.4byte	0x470
 2705 0164 0D       		.uleb128 0xd
 2706 0165 4B2F0000 		.4byte	.LASF1045
 2707 0169 04       		.byte	0x4
 2708 016a 30       		.byte	0x30
 2709 016b 26010000 		.4byte	0x126
 2710 016f 00       		.byte	0
 2711 0170 0D       		.uleb128 0xd
 2712 0171 F65E0000 		.4byte	.LASF1046
 2713 0175 04       		.byte	0x4
 2714 0176 31       		.byte	0x31
 2715 0177 26010000 		.4byte	0x126
 2716 017b 04       		.byte	0x4
 2717 017c 0D       		.uleb128 0xd
 2718 017d C62E0000 		.4byte	.LASF1047
 2719 0181 04       		.byte	0x4
 2720 0182 32       		.byte	0x32
 2721 0183 26010000 		.4byte	0x126
 2722 0187 08       		.byte	0x8
 2723 0188 0D       		.uleb128 0xd
 2724 0189 C96F0000 		.4byte	.LASF1048
 2725 018d 04       		.byte	0x4
 2726 018e 33       		.byte	0x33
 2727 018f 21010000 		.4byte	0x121
 2728 0193 0C       		.byte	0xc
 2729 0194 0D       		.uleb128 0xd
 2730 0195 B06F0000 		.4byte	.LASF1049
 2731 0199 04       		.byte	0x4
 2732 019a 34       		.byte	0x34
 2733 019b 26010000 		.4byte	0x126
 2734 019f 10       		.byte	0x10
 2735 01a0 0D       		.uleb128 0xd
 2736 01a1 3C350000 		.4byte	.LASF1050
ARM GAS  /tmp/ccjsfSlY.s 			page 79


 2737 01a5 04       		.byte	0x4
 2738 01a6 35       		.byte	0x35
 2739 01a7 21010000 		.4byte	0x121
 2740 01ab 14       		.byte	0x14
 2741 01ac 0D       		.uleb128 0xd
 2742 01ad 1A1E0000 		.4byte	.LASF1051
 2743 01b1 04       		.byte	0x4
 2744 01b2 36       		.byte	0x36
 2745 01b3 70040000 		.4byte	0x470
 2746 01b7 18       		.byte	0x18
 2747 01b8 0D       		.uleb128 0xd
 2748 01b9 00550000 		.4byte	.LASF1052
 2749 01bd 04       		.byte	0x4
 2750 01be 37       		.byte	0x37
 2751 01bf 26010000 		.4byte	0x126
 2752 01c3 20       		.byte	0x20
 2753 01c4 0D       		.uleb128 0xd
 2754 01c5 B7750000 		.4byte	.LASF1053
 2755 01c9 04       		.byte	0x4
 2756 01ca 38       		.byte	0x38
 2757 01cb 26010000 		.4byte	0x126
 2758 01cf 24       		.byte	0x24
 2759 01d0 0D       		.uleb128 0xd
 2760 01d1 235E0000 		.4byte	.LASF1054
 2761 01d5 04       		.byte	0x4
 2762 01d6 39       		.byte	0x39
 2763 01d7 26010000 		.4byte	0x126
 2764 01db 28       		.byte	0x28
 2765 01dc 0D       		.uleb128 0xd
 2766 01dd AC660000 		.4byte	.LASF1055
 2767 01e1 04       		.byte	0x4
 2768 01e2 3A       		.byte	0x3a
 2769 01e3 26010000 		.4byte	0x126
 2770 01e7 2C       		.byte	0x2c
 2771 01e8 0D       		.uleb128 0xd
 2772 01e9 46430000 		.4byte	.LASF1056
 2773 01ed 04       		.byte	0x4
 2774 01ee 3B       		.byte	0x3b
 2775 01ef 26010000 		.4byte	0x126
 2776 01f3 30       		.byte	0x30
 2777 01f4 0D       		.uleb128 0xd
 2778 01f5 CE220000 		.4byte	.LASF1057
 2779 01f9 04       		.byte	0x4
 2780 01fa 3C       		.byte	0x3c
 2781 01fb 7A040000 		.4byte	0x47a
 2782 01ff 34       		.byte	0x34
 2783 0200 0D       		.uleb128 0xd
 2784 0201 34150000 		.4byte	.LASF1058
 2785 0205 04       		.byte	0x4
 2786 0206 3D       		.byte	0x3d
 2787 0207 26010000 		.4byte	0x126
 2788 020b 40       		.byte	0x40
 2789 020c 0D       		.uleb128 0xd
 2790 020d 61490000 		.4byte	.LASF1059
 2791 0211 04       		.byte	0x4
 2792 0212 3E       		.byte	0x3e
 2793 0213 26010000 		.4byte	0x126
ARM GAS  /tmp/ccjsfSlY.s 			page 80


 2794 0217 44       		.byte	0x44
 2795 0218 0D       		.uleb128 0xd
 2796 0219 A11B0000 		.4byte	.LASF1060
 2797 021d 04       		.byte	0x4
 2798 021e 3F       		.byte	0x3f
 2799 021f 26010000 		.4byte	0x126
 2800 0223 48       		.byte	0x48
 2801 0224 0D       		.uleb128 0xd
 2802 0225 AD4F0000 		.4byte	.LASF1061
 2803 0229 04       		.byte	0x4
 2804 022a 40       		.byte	0x40
 2805 022b 26010000 		.4byte	0x126
 2806 022f 4C       		.byte	0x4c
 2807 0230 0D       		.uleb128 0xd
 2808 0231 321E0000 		.4byte	.LASF1062
 2809 0235 04       		.byte	0x4
 2810 0236 41       		.byte	0x41
 2811 0237 84040000 		.4byte	0x484
 2812 023b 50       		.byte	0x50
 2813 023c 0D       		.uleb128 0xd
 2814 023d A01E0000 		.4byte	.LASF1063
 2815 0241 04       		.byte	0x4
 2816 0242 42       		.byte	0x42
 2817 0243 26010000 		.4byte	0x126
 2818 0247 70       		.byte	0x70
 2819 0248 0D       		.uleb128 0xd
 2820 0249 8B530000 		.4byte	.LASF1064
 2821 024d 04       		.byte	0x4
 2822 024e 43       		.byte	0x43
 2823 024f 26010000 		.4byte	0x126
 2824 0253 74       		.byte	0x74
 2825 0254 0D       		.uleb128 0xd
 2826 0255 6A4C0000 		.4byte	.LASF1065
 2827 0259 04       		.byte	0x4
 2828 025a 44       		.byte	0x44
 2829 025b 26010000 		.4byte	0x126
 2830 025f 78       		.byte	0x78
 2831 0260 0D       		.uleb128 0xd
 2832 0261 3C1E0000 		.4byte	.LASF1066
 2833 0265 04       		.byte	0x4
 2834 0266 45       		.byte	0x45
 2835 0267 21010000 		.4byte	0x121
 2836 026b 7C       		.byte	0x7c
 2837 026c 0D       		.uleb128 0xd
 2838 026d DD5D0000 		.4byte	.LASF1067
 2839 0271 04       		.byte	0x4
 2840 0272 46       		.byte	0x46
 2841 0273 26010000 		.4byte	0x126
 2842 0277 80       		.byte	0x80
 2843 0278 0D       		.uleb128 0xd
 2844 0279 461E0000 		.4byte	.LASF1068
 2845 027d 04       		.byte	0x4
 2846 027e 47       		.byte	0x47
 2847 027f 8E040000 		.4byte	0x48e
 2848 0283 84       		.byte	0x84
 2849 0284 0D       		.uleb128 0xd
 2850 0285 F9700000 		.4byte	.LASF1069
ARM GAS  /tmp/ccjsfSlY.s 			page 81


 2851 0289 04       		.byte	0x4
 2852 028a 48       		.byte	0x48
 2853 028b 26010000 		.4byte	0x126
 2854 028f 94       		.byte	0x94
 2855 0290 0D       		.uleb128 0xd
 2856 0291 16240000 		.4byte	.LASF1070
 2857 0295 04       		.byte	0x4
 2858 0296 49       		.byte	0x49
 2859 0297 26010000 		.4byte	0x126
 2860 029b 98       		.byte	0x98
 2861 029c 0D       		.uleb128 0xd
 2862 029d 94760000 		.4byte	.LASF1071
 2863 02a1 04       		.byte	0x4
 2864 02a2 4A       		.byte	0x4a
 2865 02a3 26010000 		.4byte	0x126
 2866 02a7 9C       		.byte	0x9c
 2867 02a8 0D       		.uleb128 0xd
 2868 02a9 501E0000 		.4byte	.LASF1072
 2869 02ad 04       		.byte	0x4
 2870 02ae 4B       		.byte	0x4b
 2871 02af 98040000 		.4byte	0x498
 2872 02b3 A0       		.byte	0xa0
 2873 02b4 0D       		.uleb128 0xd
 2874 02b5 1A6A0000 		.4byte	.LASF1073
 2875 02b9 04       		.byte	0x4
 2876 02ba 4C       		.byte	0x4c
 2877 02bb 26010000 		.4byte	0x126
 2878 02bf C0       		.byte	0xc0
 2879 02c0 0D       		.uleb128 0xd
 2880 02c1 F6300000 		.4byte	.LASF1074
 2881 02c5 04       		.byte	0x4
 2882 02c6 4D       		.byte	0x4d
 2883 02c7 26010000 		.4byte	0x126
 2884 02cb C4       		.byte	0xc4
 2885 02cc 0D       		.uleb128 0xd
 2886 02cd 310A0000 		.4byte	.LASF1075
 2887 02d1 04       		.byte	0x4
 2888 02d2 4E       		.byte	0x4e
 2889 02d3 26010000 		.4byte	0x126
 2890 02d7 C8       		.byte	0xc8
 2891 02d8 0D       		.uleb128 0xd
 2892 02d9 5A1E0000 		.4byte	.LASF1076
 2893 02dd 04       		.byte	0x4
 2894 02de 4F       		.byte	0x4f
 2895 02df 21010000 		.4byte	0x121
 2896 02e3 CC       		.byte	0xcc
 2897 02e4 0D       		.uleb128 0xd
 2898 02e5 0E610000 		.4byte	.LASF1077
 2899 02e9 04       		.byte	0x4
 2900 02ea 50       		.byte	0x50
 2901 02eb 26010000 		.4byte	0x126
 2902 02ef D0       		.byte	0xd0
 2903 02f0 0D       		.uleb128 0xd
 2904 02f1 51150000 		.4byte	.LASF1078
 2905 02f5 04       		.byte	0x4
 2906 02f6 51       		.byte	0x51
 2907 02f7 26010000 		.4byte	0x126
ARM GAS  /tmp/ccjsfSlY.s 			page 82


 2908 02fb D4       		.byte	0xd4
 2909 02fc 0D       		.uleb128 0xd
 2910 02fd F86E0000 		.4byte	.LASF1079
 2911 0301 04       		.byte	0x4
 2912 0302 52       		.byte	0x52
 2913 0303 26010000 		.4byte	0x126
 2914 0307 D8       		.byte	0xd8
 2915 0308 0D       		.uleb128 0xd
 2916 0309 641E0000 		.4byte	.LASF1080
 2917 030d 04       		.byte	0x4
 2918 030e 53       		.byte	0x53
 2919 030f 21010000 		.4byte	0x121
 2920 0313 DC       		.byte	0xdc
 2921 0314 0D       		.uleb128 0xd
 2922 0315 4D680000 		.4byte	.LASF1081
 2923 0319 04       		.byte	0x4
 2924 031a 54       		.byte	0x54
 2925 031b 26010000 		.4byte	0x126
 2926 031f E0       		.byte	0xe0
 2927 0320 0D       		.uleb128 0xd
 2928 0321 401C0000 		.4byte	.LASF1082
 2929 0325 04       		.byte	0x4
 2930 0326 55       		.byte	0x55
 2931 0327 26010000 		.4byte	0x126
 2932 032b E4       		.byte	0xe4
 2933 032c 0D       		.uleb128 0xd
 2934 032d F7750000 		.4byte	.LASF1083
 2935 0331 04       		.byte	0x4
 2936 0332 56       		.byte	0x56
 2937 0333 26010000 		.4byte	0x126
 2938 0337 E8       		.byte	0xe8
 2939 0338 0D       		.uleb128 0xd
 2940 0339 6E1E0000 		.4byte	.LASF1084
 2941 033d 04       		.byte	0x4
 2942 033e 57       		.byte	0x57
 2943 033f B2040000 		.4byte	0x4b2
 2944 0343 EC       		.byte	0xec
 2945 0344 0E       		.uleb128 0xe
 2946 0345 A4140000 		.4byte	.LASF1085
 2947 0349 04       		.byte	0x4
 2948 034a 58       		.byte	0x58
 2949 034b BC040000 		.4byte	0x4bc
 2950 034f 0001     		.2byte	0x100
 2951 0351 0E       		.uleb128 0xe
 2952 0352 415C0000 		.4byte	.LASF1086
 2953 0356 04       		.byte	0x4
 2954 0357 59       		.byte	0x59
 2955 0358 D6040000 		.4byte	0x4d6
 2956 035c 0801     		.2byte	0x108
 2957 035e 0E       		.uleb128 0xe
 2958 035f 78060000 		.4byte	.LASF1087
 2959 0363 04       		.byte	0x4
 2960 0364 5A       		.byte	0x5a
 2961 0365 26010000 		.4byte	0x126
 2962 0369 5001     		.2byte	0x150
 2963 036b 0E       		.uleb128 0xe
 2964 036c A2790000 		.4byte	.LASF1088
ARM GAS  /tmp/ccjsfSlY.s 			page 83


 2965 0370 04       		.byte	0x4
 2966 0371 5B       		.byte	0x5b
 2967 0372 26010000 		.4byte	0x126
 2968 0376 5401     		.2byte	0x154
 2969 0378 0E       		.uleb128 0xe
 2970 0379 4C5C0000 		.4byte	.LASF1089
 2971 037d 04       		.byte	0x4
 2972 037e 5C       		.byte	0x5c
 2973 037f F0040000 		.4byte	0x4f0
 2974 0383 5801     		.2byte	0x158
 2975 0385 0E       		.uleb128 0xe
 2976 0386 A1340000 		.4byte	.LASF1090
 2977 038a 04       		.byte	0x4
 2978 038b 5D       		.byte	0x5d
 2979 038c 26010000 		.4byte	0x126
 2980 0390 7001     		.2byte	0x170
 2981 0392 0E       		.uleb128 0xe
 2982 0393 996D0000 		.4byte	.LASF1091
 2983 0397 04       		.byte	0x4
 2984 0398 5E       		.byte	0x5e
 2985 0399 26010000 		.4byte	0x126
 2986 039d 7401     		.2byte	0x174
 2987 039f 0E       		.uleb128 0xe
 2988 03a0 83110000 		.4byte	.LASF1092
 2989 03a4 04       		.byte	0x4
 2990 03a5 5F       		.byte	0x5f
 2991 03a6 FA040000 		.4byte	0x4fa
 2992 03aa 7801     		.2byte	0x178
 2993 03ac 0E       		.uleb128 0xe
 2994 03ad 17320000 		.4byte	.LASF1093
 2995 03b1 04       		.byte	0x4
 2996 03b2 60       		.byte	0x60
 2997 03b3 26010000 		.4byte	0x126
 2998 03b7 9801     		.2byte	0x198
 2999 03b9 0E       		.uleb128 0xe
 3000 03ba ED5E0000 		.4byte	.LASF1094
 3001 03be 04       		.byte	0x4
 3002 03bf 61       		.byte	0x61
 3003 03c0 21010000 		.4byte	0x121
 3004 03c4 9C01     		.2byte	0x19c
 3005 03c6 0E       		.uleb128 0xe
 3006 03c7 575C0000 		.4byte	.LASF1095
 3007 03cb 04       		.byte	0x4
 3008 03cc 62       		.byte	0x62
 3009 03cd 0F050000 		.4byte	0x50f
 3010 03d1 A001     		.2byte	0x1a0
 3011 03d3 0E       		.uleb128 0xe
 3012 03d4 8B4E0000 		.4byte	.LASF1096
 3013 03d8 04       		.byte	0x4
 3014 03d9 63       		.byte	0x63
 3015 03da 26010000 		.4byte	0x126
 3016 03de 0002     		.2byte	0x200
 3017 03e0 0E       		.uleb128 0xe
 3018 03e1 3B6B0000 		.4byte	.LASF1097
 3019 03e5 04       		.byte	0x4
 3020 03e6 64       		.byte	0x64
 3021 03e7 26010000 		.4byte	0x126
ARM GAS  /tmp/ccjsfSlY.s 			page 84


 3022 03eb 0402     		.2byte	0x204
 3023 03ed 0E       		.uleb128 0xe
 3024 03ee BB6F0000 		.4byte	.LASF1098
 3025 03f2 04       		.byte	0x4
 3026 03f3 65       		.byte	0x65
 3027 03f4 26010000 		.4byte	0x126
 3028 03f8 0802     		.2byte	0x208
 3029 03fa 0E       		.uleb128 0xe
 3030 03fb 1F740000 		.4byte	.LASF1099
 3031 03ff 04       		.byte	0x4
 3032 0400 66       		.byte	0x66
 3033 0401 26010000 		.4byte	0x126
 3034 0405 0C02     		.2byte	0x20c
 3035 0407 0E       		.uleb128 0xe
 3036 0408 625C0000 		.4byte	.LASF1100
 3037 040c 04       		.byte	0x4
 3038 040d 67       		.byte	0x67
 3039 040e 21010000 		.4byte	0x121
 3040 0412 1002     		.2byte	0x210
 3041 0414 0E       		.uleb128 0xe
 3042 0415 456B0000 		.4byte	.LASF1101
 3043 0419 04       		.byte	0x4
 3044 041a 68       		.byte	0x68
 3045 041b 26010000 		.4byte	0x126
 3046 041f 1402     		.2byte	0x214
 3047 0421 0E       		.uleb128 0xe
 3048 0422 6D5C0000 		.4byte	.LASF1102
 3049 0426 04       		.byte	0x4
 3050 0427 69       		.byte	0x69
 3051 0428 19050000 		.4byte	0x519
 3052 042c 1802     		.2byte	0x218
 3053 042e 0E       		.uleb128 0xe
 3054 042f FF4C0000 		.4byte	.LASF1103
 3055 0433 04       		.byte	0x4
 3056 0434 6A       		.byte	0x6a
 3057 0435 26010000 		.4byte	0x126
 3058 0439 3002     		.2byte	0x230
 3059 043b 0E       		.uleb128 0xe
 3060 043c D55E0000 		.4byte	.LASF1104
 3061 0440 04       		.byte	0x4
 3062 0441 6B       		.byte	0x6b
 3063 0442 26010000 		.4byte	0x126
 3064 0446 3402     		.2byte	0x234
 3065 0448 0E       		.uleb128 0xe
 3066 0449 FD190000 		.4byte	.LASF1105
 3067 044d 04       		.byte	0x4
 3068 044e 6C       		.byte	0x6c
 3069 044f 26010000 		.4byte	0x126
 3070 0453 3802     		.2byte	0x238
 3071 0455 0E       		.uleb128 0xe
 3072 0456 785C0000 		.4byte	.LASF1106
 3073 045a 04       		.byte	0x4
 3074 045b 6D       		.byte	0x6d
 3075 045c 33050000 		.4byte	0x533
 3076 0460 3C02     		.2byte	0x23c
 3077 0462 0E       		.uleb128 0xe
 3078 0463 B7670000 		.4byte	.LASF1107
ARM GAS  /tmp/ccjsfSlY.s 			page 85


 3079 0467 04       		.byte	0x4
 3080 0468 6E       		.byte	0x6e
 3081 0469 21010000 		.4byte	0x121
 3082 046d F403     		.2byte	0x3f4
 3083 046f 00       		.byte	0
 3084 0470 0A       		.uleb128 0xa
 3085 0471 75040000 		.4byte	0x475
 3086 0475 0B       		.uleb128 0xb
 3087 0476 2B010000 		.4byte	0x12b
 3088 047a 0A       		.uleb128 0xa
 3089 047b 7F040000 		.4byte	0x47f
 3090 047f 0B       		.uleb128 0xb
 3091 0480 4B010000 		.4byte	0x14b
 3092 0484 0A       		.uleb128 0xa
 3093 0485 89040000 		.4byte	0x489
 3094 0489 0B       		.uleb128 0xb
 3095 048a 11010000 		.4byte	0x111
 3096 048e 0A       		.uleb128 0xa
 3097 048f 93040000 		.4byte	0x493
 3098 0493 0B       		.uleb128 0xb
 3099 0494 3B010000 		.4byte	0x13b
 3100 0498 0A       		.uleb128 0xa
 3101 0499 9D040000 		.4byte	0x49d
 3102 049d 0B       		.uleb128 0xb
 3103 049e 11010000 		.4byte	0x111
 3104 04a2 08       		.uleb128 0x8
 3105 04a3 A6000000 		.4byte	0xa6
 3106 04a7 B2040000 		.4byte	0x4b2
 3107 04ab 09       		.uleb128 0x9
 3108 04ac 0A010000 		.4byte	0x10a
 3109 04b0 04       		.byte	0x4
 3110 04b1 00       		.byte	0
 3111 04b2 0A       		.uleb128 0xa
 3112 04b3 B7040000 		.4byte	0x4b7
 3113 04b7 0B       		.uleb128 0xb
 3114 04b8 A2040000 		.4byte	0x4a2
 3115 04bc 0A       		.uleb128 0xa
 3116 04bd C1040000 		.4byte	0x4c1
 3117 04c1 0B       		.uleb128 0xb
 3118 04c2 2B010000 		.4byte	0x12b
 3119 04c6 08       		.uleb128 0x8
 3120 04c7 A6000000 		.4byte	0xa6
 3121 04cb D6040000 		.4byte	0x4d6
 3122 04cf 09       		.uleb128 0x9
 3123 04d0 0A010000 		.4byte	0x10a
 3124 04d4 11       		.byte	0x11
 3125 04d5 00       		.byte	0
 3126 04d6 0A       		.uleb128 0xa
 3127 04d7 DB040000 		.4byte	0x4db
 3128 04db 0B       		.uleb128 0xb
 3129 04dc C6040000 		.4byte	0x4c6
 3130 04e0 08       		.uleb128 0x8
 3131 04e1 A6000000 		.4byte	0xa6
 3132 04e5 F0040000 		.4byte	0x4f0
 3133 04e9 09       		.uleb128 0x9
 3134 04ea 0A010000 		.4byte	0x10a
 3135 04ee 05       		.byte	0x5
ARM GAS  /tmp/ccjsfSlY.s 			page 86


 3136 04ef 00       		.byte	0
 3137 04f0 0A       		.uleb128 0xa
 3138 04f1 F5040000 		.4byte	0x4f5
 3139 04f5 0B       		.uleb128 0xb
 3140 04f6 E0040000 		.4byte	0x4e0
 3141 04fa 0B       		.uleb128 0xb
 3142 04fb 11010000 		.4byte	0x111
 3143 04ff 08       		.uleb128 0x8
 3144 0500 A6000000 		.4byte	0xa6
 3145 0504 0F050000 		.4byte	0x50f
 3146 0508 09       		.uleb128 0x9
 3147 0509 0A010000 		.4byte	0x10a
 3148 050d 17       		.byte	0x17
 3149 050e 00       		.byte	0
 3150 050f 0A       		.uleb128 0xa
 3151 0510 14050000 		.4byte	0x514
 3152 0514 0B       		.uleb128 0xb
 3153 0515 FF040000 		.4byte	0x4ff
 3154 0519 0A       		.uleb128 0xa
 3155 051a 1E050000 		.4byte	0x51e
 3156 051e 0B       		.uleb128 0xb
 3157 051f E0040000 		.4byte	0x4e0
 3158 0523 08       		.uleb128 0x8
 3159 0524 A6000000 		.4byte	0xa6
 3160 0528 33050000 		.4byte	0x533
 3161 052c 09       		.uleb128 0x9
 3162 052d 0A010000 		.4byte	0x10a
 3163 0531 6D       		.byte	0x6d
 3164 0532 00       		.byte	0
 3165 0533 0A       		.uleb128 0xa
 3166 0534 38050000 		.4byte	0x538
 3167 0538 0B       		.uleb128 0xb
 3168 0539 23050000 		.4byte	0x523
 3169 053d 03       		.uleb128 0x3
 3170 053e FB0F0000 		.4byte	.LASF1108
 3171 0542 04       		.byte	0x4
 3172 0543 6F       		.byte	0x6f
 3173 0544 5B010000 		.4byte	0x15b
 3174 0548 05       		.uleb128 0x5
 3175 0549 01       		.byte	0x1
 3176 054a 04       		.byte	0x4
 3177 054b 87       		.byte	0x87
 3178 054c 99050000 		.4byte	0x599
 3179 0550 06       		.uleb128 0x6
 3180 0551 A77C0000 		.4byte	.LASF1109
 3181 0555 00       		.sleb128 0
 3182 0556 06       		.uleb128 0x6
 3183 0557 786D0000 		.4byte	.LASF1110
 3184 055b 01       		.sleb128 1
 3185 055c 06       		.uleb128 0x6
 3186 055d B27C0000 		.4byte	.LASF1111
 3187 0561 02       		.sleb128 2
 3188 0562 06       		.uleb128 0x6
 3189 0563 8F090000 		.4byte	.LASF1112
 3190 0567 03       		.sleb128 3
 3191 0568 06       		.uleb128 0x6
 3192 0569 4D0E0000 		.4byte	.LASF1113
ARM GAS  /tmp/ccjsfSlY.s 			page 87


 3193 056d 04       		.sleb128 4
 3194 056e 06       		.uleb128 0x6
 3195 056f E1730000 		.4byte	.LASF1114
 3196 0573 05       		.sleb128 5
 3197 0574 06       		.uleb128 0x6
 3198 0575 86360000 		.4byte	.LASF1115
 3199 0579 06       		.sleb128 6
 3200 057a 06       		.uleb128 0x6
 3201 057b 3C7B0000 		.4byte	.LASF1116
 3202 057f 07       		.sleb128 7
 3203 0580 06       		.uleb128 0x6
 3204 0581 6E3E0000 		.4byte	.LASF1117
 3205 0585 08       		.sleb128 8
 3206 0586 06       		.uleb128 0x6
 3207 0587 F04B0000 		.4byte	.LASF1118
 3208 058b 09       		.sleb128 9
 3209 058c 06       		.uleb128 0x6
 3210 058d 572F0000 		.4byte	.LASF1119
 3211 0591 0A       		.sleb128 10
 3212 0592 06       		.uleb128 0x6
 3213 0593 D43A0000 		.4byte	.LASF1120
 3214 0597 0B       		.sleb128 11
 3215 0598 00       		.byte	0
 3216 0599 03       		.uleb128 0x3
 3217 059a C0480000 		.4byte	.LASF1121
 3218 059e 04       		.byte	0x4
 3219 059f 96       		.byte	0x96
 3220 05a0 48050000 		.4byte	0x548
 3221 05a4 0F       		.uleb128 0xf
 3222 05a5 6C3C0000 		.4byte	.LASF1145
 3223 05a9 01       		.byte	0x1
 3224 05aa 03       		.byte	0x3
 3225 05ab E4       		.byte	0xe4
 3226 05ac 23060000 		.4byte	0x623
 3227 05b0 06       		.uleb128 0x6
 3228 05b1 7C000000 		.4byte	.LASF1122
 3229 05b5 00       		.sleb128 0
 3230 05b6 06       		.uleb128 0x6
 3231 05b7 5D3E0000 		.4byte	.LASF1123
 3232 05bb 01       		.sleb128 1
 3233 05bc 06       		.uleb128 0x6
 3234 05bd 73010000 		.4byte	.LASF1124
 3235 05c1 02       		.sleb128 2
 3236 05c2 06       		.uleb128 0x6
 3237 05c3 E1560000 		.4byte	.LASF1125
 3238 05c7 03       		.sleb128 3
 3239 05c8 06       		.uleb128 0x6
 3240 05c9 00340000 		.4byte	.LASF1126
 3241 05cd 04       		.sleb128 4
 3242 05ce 06       		.uleb128 0x6
 3243 05cf D15A0000 		.4byte	.LASF1127
 3244 05d3 05       		.sleb128 5
 3245 05d4 06       		.uleb128 0x6
 3246 05d5 8F340000 		.4byte	.LASF1128
 3247 05d9 06       		.sleb128 6
 3248 05da 06       		.uleb128 0x6
 3249 05db C4730000 		.4byte	.LASF1129
ARM GAS  /tmp/ccjsfSlY.s 			page 88


 3250 05df 07       		.sleb128 7
 3251 05e0 06       		.uleb128 0x6
 3252 05e1 4D070000 		.4byte	.LASF1130
 3253 05e5 08       		.sleb128 8
 3254 05e6 06       		.uleb128 0x6
 3255 05e7 DB0D0000 		.4byte	.LASF1131
 3256 05eb 09       		.sleb128 9
 3257 05ec 06       		.uleb128 0x6
 3258 05ed EF0D0000 		.4byte	.LASF1132
 3259 05f1 0A       		.sleb128 10
 3260 05f2 06       		.uleb128 0x6
 3261 05f3 65240000 		.4byte	.LASF1133
 3262 05f7 0B       		.sleb128 11
 3263 05f8 06       		.uleb128 0x6
 3264 05f9 BE5A0000 		.4byte	.LASF1134
 3265 05fd 0C       		.sleb128 12
 3266 05fe 06       		.uleb128 0x6
 3267 05ff 80580000 		.4byte	.LASF1135
 3268 0603 0D       		.sleb128 13
 3269 0604 06       		.uleb128 0x6
 3270 0605 2C5A0000 		.4byte	.LASF1136
 3271 0609 0E       		.sleb128 14
 3272 060a 06       		.uleb128 0x6
 3273 060b 600F0000 		.4byte	.LASF1137
 3274 060f 0F       		.sleb128 15
 3275 0610 06       		.uleb128 0x6
 3276 0611 9C3C0000 		.4byte	.LASF1138
 3277 0615 10       		.sleb128 16
 3278 0616 06       		.uleb128 0x6
 3279 0617 1D7D0000 		.4byte	.LASF1139
 3280 061b 11       		.sleb128 17
 3281 061c 06       		.uleb128 0x6
 3282 061d 77240000 		.4byte	.LASF1140
 3283 0621 12       		.sleb128 18
 3284 0622 00       		.byte	0
 3285 0623 10       		.uleb128 0x10
 3286 0624 4E060000 		.4byte	.LASF1141
 3287 0628 03       		.byte	0x3
 3288 0629 2001     		.2byte	0x120
 3289 062b A4050000 		.4byte	0x5a4
 3290 062f 11       		.uleb128 0x11
 3291 0630 04       		.byte	0x4
 3292 0631 12       		.uleb128 0x12
 3293 0632 24       		.byte	0x24
 3294 0633 02       		.byte	0x2
 3295 0634 2F       		.byte	0x2f
 3296 0635 A4060000 		.4byte	0x6a4
 3297 0639 13       		.uleb128 0x13
 3298 063a 43523000 		.ascii	"CR0\000"
 3299 063e 02       		.byte	0x2
 3300 063f 30       		.byte	0x30
 3301 0640 26010000 		.4byte	0x126
 3302 0644 00       		.byte	0
 3303 0645 13       		.uleb128 0x13
 3304 0646 43523100 		.ascii	"CR1\000"
 3305 064a 02       		.byte	0x2
 3306 064b 31       		.byte	0x31
ARM GAS  /tmp/ccjsfSlY.s 			page 89


 3307 064c 26010000 		.4byte	0x126
 3308 0650 04       		.byte	0x4
 3309 0651 13       		.uleb128 0x13
 3310 0652 445200   		.ascii	"DR\000"
 3311 0655 02       		.byte	0x2
 3312 0656 32       		.byte	0x32
 3313 0657 26010000 		.4byte	0x126
 3314 065b 08       		.byte	0x8
 3315 065c 13       		.uleb128 0x13
 3316 065d 535200   		.ascii	"SR\000"
 3317 0660 02       		.byte	0x2
 3318 0661 33       		.byte	0x33
 3319 0662 21010000 		.4byte	0x121
 3320 0666 0C       		.byte	0xc
 3321 0667 0D       		.uleb128 0xd
 3322 0668 20650000 		.4byte	.LASF1142
 3323 066c 02       		.byte	0x2
 3324 066d 34       		.byte	0x34
 3325 066e 26010000 		.4byte	0x126
 3326 0672 10       		.byte	0x10
 3327 0673 0D       		.uleb128 0xd
 3328 0674 BD1B0000 		.4byte	.LASF1143
 3329 0678 02       		.byte	0x2
 3330 0679 35       		.byte	0x35
 3331 067a 26010000 		.4byte	0x126
 3332 067e 14       		.byte	0x14
 3333 067f 13       		.uleb128 0x13
 3334 0680 52495300 		.ascii	"RIS\000"
 3335 0684 02       		.byte	0x2
 3336 0685 36       		.byte	0x36
 3337 0686 21010000 		.4byte	0x121
 3338 068a 18       		.byte	0x18
 3339 068b 13       		.uleb128 0x13
 3340 068c 4D495300 		.ascii	"MIS\000"
 3341 0690 02       		.byte	0x2
 3342 0691 37       		.byte	0x37
 3343 0692 21010000 		.4byte	0x121
 3344 0696 1C       		.byte	0x1c
 3345 0697 13       		.uleb128 0x13
 3346 0698 49435200 		.ascii	"ICR\000"
 3347 069c 02       		.byte	0x2
 3348 069d 38       		.byte	0x38
 3349 069e 26010000 		.4byte	0x126
 3350 06a2 20       		.byte	0x20
 3351 06a3 00       		.byte	0
 3352 06a4 03       		.uleb128 0x3
 3353 06a5 A40B0000 		.4byte	.LASF1144
 3354 06a9 02       		.byte	0x2
 3355 06aa 39       		.byte	0x39
 3356 06ab 31060000 		.4byte	0x631
 3357 06af 0F       		.uleb128 0xf
 3358 06b0 55210000 		.4byte	.LASF1146
 3359 06b4 01       		.byte	0x1
 3360 06b5 02       		.byte	0x2
 3361 06b6 81       		.byte	0x81
 3362 06b7 DA060000 		.4byte	0x6da
 3363 06bb 06       		.uleb128 0x6
ARM GAS  /tmp/ccjsfSlY.s 			page 90


 3364 06bc 836D0000 		.4byte	.LASF1147
 3365 06c0 01       		.sleb128 1
 3366 06c1 06       		.uleb128 0x6
 3367 06c2 A60E0000 		.4byte	.LASF1148
 3368 06c6 02       		.sleb128 2
 3369 06c7 06       		.uleb128 0x6
 3370 06c8 965C0000 		.4byte	.LASF1149
 3371 06cc 04       		.sleb128 4
 3372 06cd 06       		.uleb128 0x6
 3373 06ce FC3B0000 		.4byte	.LASF1150
 3374 06d2 08       		.sleb128 8
 3375 06d3 06       		.uleb128 0x6
 3376 06d4 B8560000 		.4byte	.LASF1151
 3377 06d8 10       		.sleb128 16
 3378 06d9 00       		.byte	0
 3379 06da 03       		.uleb128 0x3
 3380 06db 61390000 		.4byte	.LASF1152
 3381 06df 02       		.byte	0x2
 3382 06e0 87       		.byte	0x87
 3383 06e1 AF060000 		.4byte	0x6af
 3384 06e5 0F       		.uleb128 0xf
 3385 06e6 367E0000 		.4byte	.LASF1153
 3386 06ea 01       		.byte	0x1
 3387 06eb 02       		.byte	0x2
 3388 06ec A2       		.byte	0xa2
 3389 06ed 10070000 		.4byte	0x710
 3390 06f1 06       		.uleb128 0x6
 3391 06f2 00500000 		.4byte	.LASF1154
 3392 06f6 01       		.sleb128 1
 3393 06f7 06       		.uleb128 0x6
 3394 06f8 40200000 		.4byte	.LASF1155
 3395 06fc 02       		.sleb128 2
 3396 06fd 06       		.uleb128 0x6
 3397 06fe D8220000 		.4byte	.LASF1156
 3398 0702 04       		.sleb128 4
 3399 0703 06       		.uleb128 0x6
 3400 0704 4F790000 		.4byte	.LASF1157
 3401 0708 08       		.sleb128 8
 3402 0709 06       		.uleb128 0x6
 3403 070a E4180000 		.4byte	.LASF1158
 3404 070e 0F       		.sleb128 15
 3405 070f 00       		.byte	0
 3406 0710 03       		.uleb128 0x3
 3407 0711 BB570000 		.4byte	.LASF1159
 3408 0715 02       		.byte	0x2
 3409 0716 A8       		.byte	0xa8
 3410 0717 E5060000 		.4byte	0x6e5
 3411 071b 0F       		.uleb128 0xf
 3412 071c CC210000 		.4byte	.LASF1160
 3413 0720 01       		.byte	0x1
 3414 0721 02       		.byte	0x2
 3415 0722 AA       		.byte	0xaa
 3416 0723 3A070000 		.4byte	0x73a
 3417 0727 06       		.uleb128 0x6
 3418 0728 B4440000 		.4byte	.LASF1161
 3419 072c 00       		.sleb128 0
 3420 072d 06       		.uleb128 0x6
ARM GAS  /tmp/ccjsfSlY.s 			page 91


 3421 072e EF6E0000 		.4byte	.LASF1162
 3422 0732 01       		.sleb128 1
 3423 0733 06       		.uleb128 0x6
 3424 0734 13180000 		.4byte	.LASF1163
 3425 0738 03       		.sleb128 3
 3426 0739 00       		.byte	0
 3427 073a 03       		.uleb128 0x3
 3428 073b 11760000 		.4byte	.LASF1164
 3429 073f 02       		.byte	0x2
 3430 0740 AE       		.byte	0xae
 3431 0741 1B070000 		.4byte	0x71b
 3432 0745 0F       		.uleb128 0xf
 3433 0746 A72B0000 		.4byte	.LASF1165
 3434 074a 01       		.byte	0x1
 3435 074b 02       		.byte	0x2
 3436 074c B3       		.byte	0xb3
 3437 074d 88070000 		.4byte	0x788
 3438 0751 06       		.uleb128 0x6
 3439 0752 F32D0000 		.4byte	.LASF1166
 3440 0756 00       		.sleb128 0
 3441 0757 06       		.uleb128 0x6
 3442 0758 092E0000 		.4byte	.LASF1167
 3443 075c C000     		.sleb128 64
 3444 075e 06       		.uleb128 0x6
 3445 075f F64A0000 		.4byte	.LASF1168
 3446 0763 8001     		.sleb128 128
 3447 0765 06       		.uleb128 0x6
 3448 0766 0C4B0000 		.4byte	.LASF1169
 3449 076a C001     		.sleb128 192
 3450 076c 06       		.uleb128 0x6
 3451 076d A62E0000 		.4byte	.LASF1170
 3452 0771 00       		.sleb128 0
 3453 0772 06       		.uleb128 0x6
 3454 0773 B62E0000 		.4byte	.LASF1171
 3455 0777 8001     		.sleb128 128
 3456 0779 06       		.uleb128 0x6
 3457 077a BD050000 		.4byte	.LASF1172
 3458 077e C000     		.sleb128 64
 3459 0780 06       		.uleb128 0x6
 3460 0781 D12E0000 		.4byte	.LASF1173
 3461 0785 C001     		.sleb128 192
 3462 0787 00       		.byte	0
 3463 0788 0F       		.uleb128 0xf
 3464 0789 26090000 		.4byte	.LASF1174
 3465 078d 01       		.byte	0x1
 3466 078e 02       		.byte	0x2
 3467 078f C1       		.byte	0xc1
 3468 0790 A7070000 		.4byte	0x7a7
 3469 0794 06       		.uleb128 0x6
 3470 0795 C95D0000 		.4byte	.LASF1175
 3471 0799 00       		.sleb128 0
 3472 079a 06       		.uleb128 0x6
 3473 079b 432E0000 		.4byte	.LASF1176
 3474 079f 10       		.sleb128 16
 3475 07a0 06       		.uleb128 0x6
 3476 07a1 06640000 		.4byte	.LASF1177
 3477 07a5 20       		.sleb128 32
ARM GAS  /tmp/ccjsfSlY.s 			page 92


 3478 07a6 00       		.byte	0
 3479 07a7 0F       		.uleb128 0xf
 3480 07a8 29790000 		.4byte	.LASF1178
 3481 07ac 01       		.byte	0x1
 3482 07ad 02       		.byte	0x2
 3483 07ae CA       		.byte	0xca
 3484 07af 02080000 		.4byte	0x802
 3485 07b3 06       		.uleb128 0x6
 3486 07b4 2B7E0000 		.4byte	.LASF1179
 3487 07b8 03       		.sleb128 3
 3488 07b9 06       		.uleb128 0x6
 3489 07ba AB1E0000 		.4byte	.LASF1180
 3490 07be 04       		.sleb128 4
 3491 07bf 06       		.uleb128 0x6
 3492 07c0 487E0000 		.4byte	.LASF1181
 3493 07c4 05       		.sleb128 5
 3494 07c5 06       		.uleb128 0x6
 3495 07c6 537E0000 		.4byte	.LASF1182
 3496 07ca 06       		.sleb128 6
 3497 07cb 06       		.uleb128 0x6
 3498 07cc 5E7E0000 		.4byte	.LASF1183
 3499 07d0 07       		.sleb128 7
 3500 07d1 06       		.uleb128 0x6
 3501 07d2 697E0000 		.4byte	.LASF1184
 3502 07d6 08       		.sleb128 8
 3503 07d7 06       		.uleb128 0x6
 3504 07d8 EE630000 		.4byte	.LASF1185
 3505 07dc 09       		.sleb128 9
 3506 07dd 06       		.uleb128 0x6
 3507 07de FA630000 		.4byte	.LASF1186
 3508 07e2 0A       		.sleb128 10
 3509 07e3 06       		.uleb128 0x6
 3510 07e4 40030000 		.4byte	.LASF1187
 3511 07e8 0B       		.sleb128 11
 3512 07e9 06       		.uleb128 0x6
 3513 07ea 20640000 		.4byte	.LASF1188
 3514 07ee 0C       		.sleb128 12
 3515 07ef 06       		.uleb128 0x6
 3516 07f0 2C640000 		.4byte	.LASF1189
 3517 07f4 0D       		.sleb128 13
 3518 07f5 06       		.uleb128 0x6
 3519 07f6 38640000 		.4byte	.LASF1190
 3520 07fa 0E       		.sleb128 14
 3521 07fb 06       		.uleb128 0x6
 3522 07fc 44640000 		.4byte	.LASF1191
 3523 0800 0F       		.sleb128 15
 3524 0801 00       		.byte	0
 3525 0802 14       		.uleb128 0x14
 3526 0803 29180000 		.4byte	.LASF1192
 3527 0807 01       		.byte	0x1
 3528 0808 02       		.byte	0x2
 3529 0809 AB01     		.2byte	0x1ab
 3530 080b 1C080000 		.4byte	0x81c
 3531 080f 06       		.uleb128 0x6
 3532 0810 0E140000 		.4byte	.LASF1193
 3533 0814 00       		.sleb128 0
 3534 0815 06       		.uleb128 0x6
ARM GAS  /tmp/ccjsfSlY.s 			page 93


 3535 0816 557D0000 		.4byte	.LASF1194
 3536 081a 04       		.sleb128 4
 3537 081b 00       		.byte	0
 3538 081c 15       		.uleb128 0x15
 3539 081d 14       		.byte	0x14
 3540 081e 02       		.byte	0x2
 3541 081f BB01     		.2byte	0x1bb
 3542 0821 67080000 		.4byte	0x867
 3543 0825 16       		.uleb128 0x16
 3544 0826 F5190000 		.4byte	.LASF1195
 3545 082a 02       		.byte	0x2
 3546 082b BC01     		.2byte	0x1bc
 3547 082d 2F060000 		.4byte	0x62f
 3548 0831 00       		.byte	0
 3549 0832 16       		.uleb128 0x16
 3550 0833 FD600000 		.4byte	.LASF1196
 3551 0837 02       		.byte	0x2
 3552 0838 BD01     		.2byte	0x1bd
 3553 083a A6000000 		.4byte	0xa6
 3554 083e 04       		.byte	0x4
 3555 083f 16       		.uleb128 0x16
 3556 0840 0B0D0000 		.4byte	.LASF1197
 3557 0844 02       		.byte	0x2
 3558 0845 BE01     		.2byte	0x1be
 3559 0847 2F060000 		.4byte	0x62f
 3560 084b 08       		.byte	0x8
 3561 084c 16       		.uleb128 0x16
 3562 084d D1430000 		.4byte	.LASF1198
 3563 0851 02       		.byte	0x2
 3564 0852 BF01     		.2byte	0x1bf
 3565 0854 A6000000 		.4byte	0xa6
 3566 0858 0C       		.byte	0xc
 3567 0859 16       		.uleb128 0x16
 3568 085a 9F5A0000 		.4byte	.LASF1199
 3569 085e 02       		.byte	0x2
 3570 085f C001     		.2byte	0x1c0
 3571 0861 A6000000 		.4byte	0xa6
 3572 0865 10       		.byte	0x10
 3573 0866 00       		.byte	0
 3574 0867 10       		.uleb128 0x10
 3575 0868 11550000 		.4byte	.LASF1200
 3576 086c 02       		.byte	0x2
 3577 086d C101     		.2byte	0x1c1
 3578 086f 1C080000 		.4byte	0x81c
 3579 0873 0A       		.uleb128 0xa
 3580 0874 A6000000 		.4byte	0xa6
 3581 0878 17       		.uleb128 0x17
 3582 0879 04       		.byte	0x4
 3583 087a 90000000 		.4byte	0x90
 3584 087e 18       		.uleb128 0x18
 3585 087f 491B0000 		.4byte	.LASF1201
 3586 0883 04       		.byte	0x4
 3587 0884 9F       		.byte	0x9f
 3588 0885 03       		.byte	0x3
 3589 0886 96080000 		.4byte	0x896
 3590 088a 19       		.uleb128 0x19
 3591 088b 90630000 		.4byte	.LASF1203
ARM GAS  /tmp/ccjsfSlY.s 			page 94


 3592 088f 04       		.byte	0x4
 3593 0890 9F       		.byte	0x9f
 3594 0891 99050000 		.4byte	0x599
 3595 0895 00       		.byte	0
 3596 0896 18       		.uleb128 0x18
 3597 0897 4A4C0000 		.4byte	.LASF1202
 3598 089b 04       		.byte	0x4
 3599 089c A9       		.byte	0xa9
 3600 089d 03       		.byte	0x3
 3601 089e AE080000 		.4byte	0x8ae
 3602 08a2 19       		.uleb128 0x19
 3603 08a3 90630000 		.4byte	.LASF1203
 3604 08a7 04       		.byte	0x4
 3605 08a8 A9       		.byte	0xa9
 3606 08a9 99050000 		.4byte	0x599
 3607 08ad 00       		.byte	0
 3608 08ae 1A       		.uleb128 0x1a
 3609 08af 47510000 		.4byte	.LASF1204
 3610 08b3 02       		.byte	0x2
 3611 08b4 7701     		.2byte	0x177
 3612 08b6 03       		.byte	0x3
 3613 08b7 D4080000 		.4byte	0x8d4
 3614 08bb 1B       		.uleb128 0x1b
 3615 08bc E20F0000 		.4byte	.LASF1205
 3616 08c0 02       		.byte	0x2
 3617 08c1 7701     		.2byte	0x177
 3618 08c3 D4080000 		.4byte	0x8d4
 3619 08c7 1B       		.uleb128 0x1b
 3620 08c8 F5190000 		.4byte	.LASF1195
 3621 08cc 02       		.byte	0x2
 3622 08cd 7701     		.2byte	0x177
 3623 08cf 9B000000 		.4byte	0x9b
 3624 08d3 00       		.byte	0
 3625 08d4 17       		.uleb128 0x17
 3626 08d5 04       		.byte	0x4
 3627 08d6 A4060000 		.4byte	0x6a4
 3628 08da 18       		.uleb128 0x18
 3629 08db E6300000 		.4byte	.LASF1206
 3630 08df 01       		.byte	0x1
 3631 08e0 2E       		.byte	0x2e
 3632 08e1 01       		.byte	0x1
 3633 08e2 FD080000 		.4byte	0x8fd
 3634 08e6 19       		.uleb128 0x19
 3635 08e7 E20F0000 		.4byte	.LASF1205
 3636 08eb 01       		.byte	0x1
 3637 08ec 2E       		.byte	0x2e
 3638 08ed D4080000 		.4byte	0x8d4
 3639 08f1 19       		.uleb128 0x19
 3640 08f2 F7200000 		.4byte	.LASF1207
 3641 08f6 01       		.byte	0x1
 3642 08f7 2E       		.byte	0x2e
 3643 08f8 FD080000 		.4byte	0x8fd
 3644 08fc 00       		.byte	0
 3645 08fd 17       		.uleb128 0x17
 3646 08fe 04       		.byte	0x4
 3647 08ff 67080000 		.4byte	0x867
 3648 0903 18       		.uleb128 0x18
ARM GAS  /tmp/ccjsfSlY.s 			page 95


 3649 0904 0E390000 		.4byte	.LASF1208
 3650 0908 01       		.byte	0x1
 3651 0909 3C       		.byte	0x3c
 3652 090a 01       		.byte	0x1
 3653 090b 26090000 		.4byte	0x926
 3654 090f 19       		.uleb128 0x19
 3655 0910 E20F0000 		.4byte	.LASF1205
 3656 0914 01       		.byte	0x1
 3657 0915 3C       		.byte	0x3c
 3658 0916 D4080000 		.4byte	0x8d4
 3659 091a 19       		.uleb128 0x19
 3660 091b F7200000 		.4byte	.LASF1207
 3661 091f 01       		.byte	0x1
 3662 0920 3C       		.byte	0x3c
 3663 0921 FD080000 		.4byte	0x8fd
 3664 0925 00       		.byte	0
 3665 0926 1C       		.uleb128 0x1c
 3666 0927 1C470000 		.4byte	.LASF1209
 3667 092b 02       		.byte	0x2
 3668 092c 6C01     		.2byte	0x16c
 3669 092e 9B000000 		.4byte	0x9b
 3670 0932 03       		.byte	0x3
 3671 0933 44090000 		.4byte	0x944
 3672 0937 1B       		.uleb128 0x1b
 3673 0938 E20F0000 		.4byte	.LASF1205
 3674 093c 02       		.byte	0x2
 3675 093d 6C01     		.2byte	0x16c
 3676 093f D4080000 		.4byte	0x8d4
 3677 0943 00       		.byte	0
 3678 0944 1C       		.uleb128 0x1c
 3679 0945 C3710000 		.4byte	.LASF1210
 3680 0949 02       		.byte	0x2
 3681 094a 1A01     		.2byte	0x11a
 3682 094c C6000000 		.4byte	0xc6
 3683 0950 03       		.byte	0x3
 3684 0951 6E090000 		.4byte	0x96e
 3685 0955 1B       		.uleb128 0x1b
 3686 0956 E20F0000 		.4byte	.LASF1205
 3687 095a 02       		.byte	0x2
 3688 095b 1A01     		.2byte	0x11a
 3689 095d D4080000 		.4byte	0x8d4
 3690 0961 1B       		.uleb128 0x1b
 3691 0962 0A4F0000 		.4byte	.LASF1211
 3692 0966 02       		.byte	0x2
 3693 0967 1A01     		.2byte	0x11a
 3694 0969 DA060000 		.4byte	0x6da
 3695 096d 00       		.byte	0
 3696 096e 1A       		.uleb128 0x1a
 3697 096f 78280000 		.4byte	.LASF1212
 3698 0973 03       		.byte	0x3
 3699 0974 3D01     		.2byte	0x13d
 3700 0976 03       		.byte	0x3
 3701 0977 88090000 		.4byte	0x988
 3702 097b 1D       		.uleb128 0x1d
 3703 097c 64697600 		.ascii	"div\000"
 3704 0980 03       		.byte	0x3
 3705 0981 3D01     		.2byte	0x13d
ARM GAS  /tmp/ccjsfSlY.s 			page 96


 3706 0983 A6000000 		.4byte	0xa6
 3707 0987 00       		.byte	0
 3708 0988 1A       		.uleb128 0x1a
 3709 0989 F5430000 		.4byte	.LASF1213
 3710 098d 03       		.byte	0x3
 3711 098e 6A01     		.2byte	0x16a
 3712 0990 03       		.byte	0x3
 3713 0991 A2090000 		.4byte	0x9a2
 3714 0995 1D       		.uleb128 0x1d
 3715 0996 64697600 		.ascii	"div\000"
 3716 099a 03       		.byte	0x3
 3717 099b 6A01     		.2byte	0x16a
 3718 099d A6000000 		.4byte	0xa6
 3719 09a1 00       		.byte	0
 3720 09a2 1E       		.uleb128 0x1e
 3721 09a3 08370000 		.4byte	.LASF1214
 3722 09a7 03       		.byte	0x3
 3723 09a8 4701     		.2byte	0x147
 3724 09aa A6000000 		.4byte	0xa6
 3725 09ae 03       		.byte	0x3
 3726 09af 1E       		.uleb128 0x1e
 3727 09b0 50530000 		.4byte	.LASF1215
 3728 09b4 03       		.byte	0x3
 3729 09b5 7401     		.2byte	0x174
 3730 09b7 A6000000 		.4byte	0xa6
 3731 09bb 03       		.byte	0x3
 3732 09bc 1A       		.uleb128 0x1a
 3733 09bd 79150000 		.4byte	.LASF1216
 3734 09c1 02       		.byte	0x2
 3735 09c2 4E01     		.2byte	0x14e
 3736 09c4 03       		.byte	0x3
 3737 09c5 E2090000 		.4byte	0x9e2
 3738 09c9 1B       		.uleb128 0x1b
 3739 09ca E20F0000 		.4byte	.LASF1205
 3740 09ce 02       		.byte	0x2
 3741 09cf 4E01     		.2byte	0x14e
 3742 09d1 D4080000 		.4byte	0x8d4
 3743 09d5 1B       		.uleb128 0x1b
 3744 09d6 DC260000 		.4byte	.LASF1217
 3745 09da 02       		.byte	0x2
 3746 09db 4E01     		.2byte	0x14e
 3747 09dd 3A070000 		.4byte	0x73a
 3748 09e1 00       		.byte	0
 3749 09e2 1C       		.uleb128 0x1c
 3750 09e3 20360000 		.4byte	.LASF1218
 3751 09e7 02       		.byte	0x2
 3752 09e8 4001     		.2byte	0x140
 3753 09ea 90000000 		.4byte	0x90
 3754 09ee 03       		.byte	0x3
 3755 09ef 000A0000 		.4byte	0xa00
 3756 09f3 1B       		.uleb128 0x1b
 3757 09f4 E20F0000 		.4byte	.LASF1205
 3758 09f8 02       		.byte	0x2
 3759 09f9 4001     		.2byte	0x140
 3760 09fb D4080000 		.4byte	0x8d4
 3761 09ff 00       		.byte	0
 3762 0a00 1C       		.uleb128 0x1c
ARM GAS  /tmp/ccjsfSlY.s 			page 97


 3763 0a01 24520000 		.4byte	.LASF1219
 3764 0a05 02       		.byte	0x2
 3765 0a06 3501     		.2byte	0x135
 3766 0a08 D1000000 		.4byte	0xd1
 3767 0a0c 03       		.byte	0x3
 3768 0a0d 2A0A0000 		.4byte	0xa2a
 3769 0a11 1B       		.uleb128 0x1b
 3770 0a12 E20F0000 		.4byte	.LASF1205
 3771 0a16 02       		.byte	0x2
 3772 0a17 3501     		.2byte	0x135
 3773 0a19 D4080000 		.4byte	0x8d4
 3774 0a1d 1B       		.uleb128 0x1b
 3775 0a1e 67030000 		.4byte	.LASF1220
 3776 0a22 02       		.byte	0x2
 3777 0a23 3501     		.2byte	0x135
 3778 0a25 10070000 		.4byte	0x710
 3779 0a29 00       		.byte	0
 3780 0a2a 18       		.uleb128 0x18
 3781 0a2b 4D470000 		.4byte	.LASF1221
 3782 0a2f 01       		.byte	0x1
 3783 0a30 49       		.byte	0x49
 3784 0a31 01       		.byte	0x1
 3785 0a32 580A0000 		.4byte	0xa58
 3786 0a36 19       		.uleb128 0x19
 3787 0a37 E20F0000 		.4byte	.LASF1205
 3788 0a3b 01       		.byte	0x1
 3789 0a3c 49       		.byte	0x49
 3790 0a3d D4080000 		.4byte	0x8d4
 3791 0a41 19       		.uleb128 0x19
 3792 0a42 F7200000 		.4byte	.LASF1207
 3793 0a46 01       		.byte	0x1
 3794 0a47 49       		.byte	0x49
 3795 0a48 FD080000 		.4byte	0x8fd
 3796 0a4c 1F       		.uleb128 0x1f
 3797 0a4d D3740000 		.4byte	.LASF1225
 3798 0a51 01       		.byte	0x1
 3799 0a52 4B       		.byte	0x4b
 3800 0a53 9B000000 		.4byte	0x9b
 3801 0a57 00       		.byte	0
 3802 0a58 1A       		.uleb128 0x1a
 3803 0a59 04710000 		.4byte	.LASF1222
 3804 0a5d 02       		.byte	0x2
 3805 0a5e A301     		.2byte	0x1a3
 3806 0a60 03       		.byte	0x3
 3807 0a61 7E0A0000 		.4byte	0xa7e
 3808 0a65 1B       		.uleb128 0x1b
 3809 0a66 E20F0000 		.4byte	.LASF1205
 3810 0a6a 02       		.byte	0x2
 3811 0a6b A301     		.2byte	0x1a3
 3812 0a6d D4080000 		.4byte	0x8d4
 3813 0a71 1B       		.uleb128 0x1b
 3814 0a72 CC690000 		.4byte	.LASF1223
 3815 0a76 02       		.byte	0x2
 3816 0a77 A301     		.2byte	0x1a3
 3817 0a79 A6000000 		.4byte	0xa6
 3818 0a7d 00       		.byte	0
 3819 0a7e 20       		.uleb128 0x20
ARM GAS  /tmp/ccjsfSlY.s 			page 98


 3820 0a7f D4240000 		.4byte	.LASF1224
 3821 0a83 01       		.byte	0x1
 3822 0a84 96       		.byte	0x96
 3823 0a85 A6000000 		.4byte	0xa6
 3824 0a89 01       		.byte	0x1
 3825 0a8a A50A0000 		.4byte	0xaa5
 3826 0a8e 19       		.uleb128 0x19
 3827 0a8f E20F0000 		.4byte	.LASF1205
 3828 0a93 01       		.byte	0x1
 3829 0a94 96       		.byte	0x96
 3830 0a95 D4080000 		.4byte	0x8d4
 3831 0a99 1F       		.uleb128 0x1f
 3832 0a9a EB740000 		.4byte	.LASF1226
 3833 0a9e 01       		.byte	0x1
 3834 0a9f 98       		.byte	0x98
 3835 0aa0 A6000000 		.4byte	0xa6
 3836 0aa4 00       		.byte	0
 3837 0aa5 21       		.uleb128 0x21
 3838 0aa6 F2350000 		.4byte	.LASF1267
 3839 0aaa 01       		.byte	0x1
 3840 0aab AB       		.byte	0xab
 3841 0aac 01       		.byte	0x1
 3842 0aad DE0A0000 		.4byte	0xade
 3843 0ab1 19       		.uleb128 0x19
 3844 0ab2 E20F0000 		.4byte	.LASF1205
 3845 0ab6 01       		.byte	0x1
 3846 0ab7 AB       		.byte	0xab
 3847 0ab8 D4080000 		.4byte	0x8d4
 3848 0abc 19       		.uleb128 0x19
 3849 0abd E0010000 		.4byte	.LASF1227
 3850 0ac1 01       		.byte	0x1
 3851 0ac2 AB       		.byte	0xab
 3852 0ac3 A6000000 		.4byte	0xa6
 3853 0ac7 19       		.uleb128 0x19
 3854 0ac8 77790000 		.4byte	.LASF1228
 3855 0acc 01       		.byte	0x1
 3856 0acd AB       		.byte	0xab
 3857 0ace A6000000 		.4byte	0xa6
 3858 0ad2 1F       		.uleb128 0x1f
 3859 0ad3 E67A0000 		.4byte	.LASF1229
 3860 0ad7 01       		.byte	0x1
 3861 0ad8 AD       		.byte	0xad
 3862 0ad9 A6000000 		.4byte	0xa6
 3863 0add 00       		.byte	0
 3864 0ade 20       		.uleb128 0x20
 3865 0adf 9A2C0000 		.4byte	.LASF1230
 3866 0ae3 01       		.byte	0x1
 3867 0ae4 69       		.byte	0x69
 3868 0ae5 23060000 		.4byte	0x623
 3869 0ae9 01       		.byte	0x1
 3870 0aea 050B0000 		.4byte	0xb05
 3871 0aee 19       		.uleb128 0x19
 3872 0aef E20F0000 		.4byte	.LASF1205
 3873 0af3 01       		.byte	0x1
 3874 0af4 69       		.byte	0x69
 3875 0af5 D4080000 		.4byte	0x8d4
 3876 0af9 1F       		.uleb128 0x1f
ARM GAS  /tmp/ccjsfSlY.s 			page 99


 3877 0afa 683F0000 		.4byte	.LASF1231
 3878 0afe 01       		.byte	0x1
 3879 0aff 6B       		.byte	0x6b
 3880 0b00 23060000 		.4byte	0x623
 3881 0b04 00       		.byte	0
 3882 0b05 1A       		.uleb128 0x1a
 3883 0b06 5A5A0000 		.4byte	.LASF1232
 3884 0b0a 03       		.byte	0x3
 3885 0b0b 2701     		.2byte	0x127
 3886 0b0d 03       		.byte	0x3
 3887 0b0e 1F0B0000 		.4byte	0xb1f
 3888 0b12 1D       		.uleb128 0x1d
 3889 0b13 636C6B00 		.ascii	"clk\000"
 3890 0b17 03       		.byte	0x3
 3891 0b18 2701     		.2byte	0x127
 3892 0b1a 23060000 		.4byte	0x623
 3893 0b1e 00       		.byte	0
 3894 0b1f 18       		.uleb128 0x18
 3895 0b20 FF650000 		.4byte	.LASF1233
 3896 0b24 01       		.byte	0x1
 3897 0b25 89       		.byte	0x89
 3898 0b26 01       		.byte	0x1
 3899 0b27 420B0000 		.4byte	0xb42
 3900 0b2b 19       		.uleb128 0x19
 3901 0b2c E20F0000 		.4byte	.LASF1205
 3902 0b30 01       		.byte	0x1
 3903 0b31 89       		.byte	0x89
 3904 0b32 D4080000 		.4byte	0x8d4
 3905 0b36 22       		.uleb128 0x22
 3906 0b37 64697600 		.ascii	"div\000"
 3907 0b3b 01       		.byte	0x1
 3908 0b3c 89       		.byte	0x89
 3909 0b3d A6000000 		.4byte	0xa6
 3910 0b41 00       		.byte	0
 3911 0b42 20       		.uleb128 0x20
 3912 0b43 F2740000 		.4byte	.LASF1234
 3913 0b47 01       		.byte	0x1
 3914 0b48 7A       		.byte	0x7a
 3915 0b49 99050000 		.4byte	0x599
 3916 0b4d 01       		.byte	0x1
 3917 0b4e 690B0000 		.4byte	0xb69
 3918 0b52 19       		.uleb128 0x19
 3919 0b53 E20F0000 		.4byte	.LASF1205
 3920 0b57 01       		.byte	0x1
 3921 0b58 7A       		.byte	0x7a
 3922 0b59 D4080000 		.4byte	0x8d4
 3923 0b5d 1F       		.uleb128 0x1f
 3924 0b5e E0720000 		.4byte	.LASF1235
 3925 0b62 01       		.byte	0x1
 3926 0b63 7C       		.byte	0x7c
 3927 0b64 99050000 		.4byte	0x599
 3928 0b68 00       		.byte	0
 3929 0b69 18       		.uleb128 0x18
 3930 0b6a AF160000 		.4byte	.LASF1236
 3931 0b6e 04       		.byte	0x4
 3932 0b6f B3       		.byte	0xb3
 3933 0b70 03       		.byte	0x3
ARM GAS  /tmp/ccjsfSlY.s 			page 100


 3934 0b71 810B0000 		.4byte	0xb81
 3935 0b75 19       		.uleb128 0x19
 3936 0b76 90630000 		.4byte	.LASF1203
 3937 0b7a 04       		.byte	0x4
 3938 0b7b B3       		.byte	0xb3
 3939 0b7c 99050000 		.4byte	0x599
 3940 0b80 00       		.byte	0
 3941 0b81 1A       		.uleb128 0x1a
 3942 0b82 E2450000 		.4byte	.LASF1237
 3943 0b86 02       		.byte	0x2
 3944 0b87 9601     		.2byte	0x196
 3945 0b89 03       		.byte	0x3
 3946 0b8a BF0B0000 		.4byte	0xbbf
 3947 0b8e 1B       		.uleb128 0x1b
 3948 0b8f E20F0000 		.4byte	.LASF1205
 3949 0b93 02       		.byte	0x2
 3950 0b94 9601     		.2byte	0x196
 3951 0b96 D4080000 		.4byte	0x8d4
 3952 0b9a 1B       		.uleb128 0x1b
 3953 0b9b EF4C0000 		.4byte	.LASF1238
 3954 0b9f 02       		.byte	0x2
 3955 0ba0 9601     		.2byte	0x196
 3956 0ba2 A6000000 		.4byte	0xa6
 3957 0ba6 1B       		.uleb128 0x1b
 3958 0ba7 C21D0000 		.4byte	.LASF1239
 3959 0bab 02       		.byte	0x2
 3960 0bac 9601     		.2byte	0x196
 3961 0bae A6000000 		.4byte	0xa6
 3962 0bb2 1B       		.uleb128 0x1b
 3963 0bb3 767B0000 		.4byte	.LASF1240
 3964 0bb7 02       		.byte	0x2
 3965 0bb8 9601     		.2byte	0x196
 3966 0bba A6000000 		.4byte	0xa6
 3967 0bbe 00       		.byte	0
 3968 0bbf 18       		.uleb128 0x18
 3969 0bc0 C4040000 		.4byte	.LASF1241
 3970 0bc4 02       		.byte	0x2
 3971 0bc5 F2       		.byte	0xf2
 3972 0bc6 03       		.byte	0x3
 3973 0bc7 D70B0000 		.4byte	0xbd7
 3974 0bcb 19       		.uleb128 0x19
 3975 0bcc E20F0000 		.4byte	.LASF1205
 3976 0bd0 02       		.byte	0x2
 3977 0bd1 F2       		.byte	0xf2
 3978 0bd2 D4080000 		.4byte	0x8d4
 3979 0bd6 00       		.byte	0
 3980 0bd7 1A       		.uleb128 0x1a
 3981 0bd8 DB340000 		.4byte	.LASF1242
 3982 0bdc 03       		.byte	0x3
 3983 0bdd 3101     		.2byte	0x131
 3984 0bdf 03       		.byte	0x3
 3985 0be0 F10B0000 		.4byte	0xbf1
 3986 0be4 1D       		.uleb128 0x1d
 3987 0be5 636C6B00 		.ascii	"clk\000"
 3988 0be9 03       		.byte	0x3
 3989 0bea 3101     		.2byte	0x131
 3990 0bec 23060000 		.4byte	0x623
ARM GAS  /tmp/ccjsfSlY.s 			page 101


 3991 0bf0 00       		.byte	0
 3992 0bf1 23       		.uleb128 0x23
 3993 0bf2 BD680000 		.4byte	.LASF1268
 3994 0bf6 01       		.byte	0x1
 3995 0bf7 59       		.byte	0x59
 3996 0bf8 00000000 		.4byte	.LFB201
 3997 0bfc 32000000 		.4byte	.LFE201-.LFB201
 3998 0c00 01       		.uleb128 0x1
 3999 0c01 9C       		.byte	0x9c
 4000 0c02 660C0000 		.4byte	0xc66
 4001 0c06 24       		.uleb128 0x24
 4002 0c07 E20F0000 		.4byte	.LASF1205
 4003 0c0b 01       		.byte	0x1
 4004 0c0c 59       		.byte	0x59
 4005 0c0d D4080000 		.4byte	0x8d4
 4006 0c11 01       		.uleb128 0x1
 4007 0c12 50       		.byte	0x50
 4008 0c13 24       		.uleb128 0x24
 4009 0c14 F7200000 		.4byte	.LASF1207
 4010 0c18 01       		.byte	0x1
 4011 0c19 59       		.byte	0x59
 4012 0c1a FD080000 		.4byte	0x8fd
 4013 0c1e 01       		.uleb128 0x1
 4014 0c1f 51       		.byte	0x51
 4015 0c20 1F       		.uleb128 0x1f
 4016 0c21 D3740000 		.4byte	.LASF1225
 4017 0c25 01       		.byte	0x1
 4018 0c26 5B       		.byte	0x5b
 4019 0c27 9B000000 		.4byte	0x9b
 4020 0c2b 25       		.uleb128 0x25
 4021 0c2c 44090000 		.4byte	0x944
 4022 0c30 00000000 		.4byte	.LBB224
 4023 0c34 00000000 		.4byte	.Ldebug_ranges0+0
 4024 0c38 01       		.byte	0x1
 4025 0c39 5D       		.byte	0x5d
 4026 0c3a 4C0C0000 		.4byte	0xc4c
 4027 0c3e 26       		.uleb128 0x26
 4028 0c3f 61090000 		.4byte	0x961
 4029 0c43 04       		.byte	0x4
 4030 0c44 27       		.uleb128 0x27
 4031 0c45 55090000 		.4byte	0x955
 4032 0c49 01       		.uleb128 0x1
 4033 0c4a 50       		.byte	0x50
 4034 0c4b 00       		.byte	0
 4035 0c4c 28       		.uleb128 0x28
 4036 0c4d 26090000 		.4byte	0x926
 4037 0c51 1C000000 		.4byte	.LBB229
 4038 0c55 02000000 		.4byte	.LBE229-.LBB229
 4039 0c59 01       		.byte	0x1
 4040 0c5a 5F       		.byte	0x5f
 4041 0c5b 29       		.uleb128 0x29
 4042 0c5c 37090000 		.4byte	0x937
 4043 0c60 00000000 		.4byte	.LLST0
 4044 0c64 00       		.byte	0
 4045 0c65 00       		.byte	0
 4046 0c66 2A       		.uleb128 0x2a
 4047 0c67 A50A0000 		.4byte	0xaa5
ARM GAS  /tmp/ccjsfSlY.s 			page 102


 4048 0c6b 00000000 		.4byte	.LFB206
 4049 0c6f 18000000 		.4byte	.LFE206-.LFB206
 4050 0c73 01       		.uleb128 0x1
 4051 0c74 9C       		.byte	0x9c
 4052 0c75 9A0C0000 		.4byte	0xc9a
 4053 0c79 27       		.uleb128 0x27
 4054 0c7a B10A0000 		.4byte	0xab1
 4055 0c7e 01       		.uleb128 0x1
 4056 0c7f 50       		.byte	0x50
 4057 0c80 29       		.uleb128 0x29
 4058 0c81 BC0A0000 		.4byte	0xabc
 4059 0c85 13000000 		.4byte	.LLST1
 4060 0c89 27       		.uleb128 0x27
 4061 0c8a C70A0000 		.4byte	0xac7
 4062 0c8e 01       		.uleb128 0x1
 4063 0c8f 52       		.byte	0x52
 4064 0c90 2B       		.uleb128 0x2b
 4065 0c91 D20A0000 		.4byte	0xad2
 4066 0c95 34000000 		.4byte	.LLST2
 4067 0c99 00       		.byte	0
 4068 0c9a 2C       		.uleb128 0x2c
 4069 0c9b A0740000 		.4byte	.LASF1243
 4070 0c9f 01       		.byte	0x1
 4071 0ca0 B4       		.byte	0xb4
 4072 0ca1 A6000000 		.4byte	0xa6
 4073 0ca5 00000000 		.4byte	.LFB207
 4074 0ca9 18010000 		.4byte	.LFE207-.LFB207
 4075 0cad 01       		.uleb128 0x1
 4076 0cae 9C       		.byte	0x9c
 4077 0caf 510F0000 		.4byte	0xf51
 4078 0cb3 2D       		.uleb128 0x2d
 4079 0cb4 E20F0000 		.4byte	.LASF1205
 4080 0cb8 01       		.byte	0x1
 4081 0cb9 B4       		.byte	0xb4
 4082 0cba D4080000 		.4byte	0x8d4
 4083 0cbe 59000000 		.4byte	.LLST3
 4084 0cc2 2D       		.uleb128 0x2d
 4085 0cc3 F7200000 		.4byte	.LASF1207
 4086 0cc7 01       		.byte	0x1
 4087 0cc8 B4       		.byte	0xb4
 4088 0cc9 FD080000 		.4byte	0x8fd
 4089 0ccd 9B000000 		.4byte	.LLST4
 4090 0cd1 25       		.uleb128 0x25
 4091 0cd2 44090000 		.4byte	0x944
 4092 0cd6 04000000 		.4byte	.LBB232
 4093 0cda 20000000 		.4byte	.Ldebug_ranges0+0x20
 4094 0cde 01       		.byte	0x1
 4095 0cdf B7       		.byte	0xb7
 4096 0ce0 F40C0000 		.4byte	0xcf4
 4097 0ce4 26       		.uleb128 0x26
 4098 0ce5 61090000 		.4byte	0x961
 4099 0ce9 04       		.byte	0x4
 4100 0cea 29       		.uleb128 0x29
 4101 0ceb 55090000 		.4byte	0x955
 4102 0cef 59000000 		.4byte	.LLST3
 4103 0cf3 00       		.byte	0
 4104 0cf4 2E       		.uleb128 0x2e
ARM GAS  /tmp/ccjsfSlY.s 			page 103


 4105 0cf5 26090000 		.4byte	0x926
 4106 0cf9 12000000 		.4byte	.LBB237
 4107 0cfd 02000000 		.4byte	.LBE237-.LBB237
 4108 0d01 01       		.byte	0x1
 4109 0d02 B8       		.byte	0xb8
 4110 0d03 110D0000 		.4byte	0xd11
 4111 0d07 29       		.uleb128 0x29
 4112 0d08 37090000 		.4byte	0x937
 4113 0d0c DD000000 		.4byte	.LLST6
 4114 0d10 00       		.byte	0
 4115 0d11 25       		.uleb128 0x25
 4116 0d12 BC090000 		.4byte	0x9bc
 4117 0d16 1A000000 		.4byte	.LBB240
 4118 0d1a 40000000 		.4byte	.Ldebug_ranges0+0x40
 4119 0d1e 01       		.byte	0x1
 4120 0d1f BC       		.byte	0xbc
 4121 0d20 340D0000 		.4byte	0xd34
 4122 0d24 26       		.uleb128 0x26
 4123 0d25 D5090000 		.4byte	0x9d5
 4124 0d29 03       		.byte	0x3
 4125 0d2a 29       		.uleb128 0x29
 4126 0d2b C9090000 		.4byte	0x9c9
 4127 0d2f F0000000 		.4byte	.LLST7
 4128 0d33 00       		.byte	0
 4129 0d34 2E       		.uleb128 0x2e
 4130 0d35 E2090000 		.4byte	0x9e2
 4131 0d39 20000000 		.4byte	.LBB244
 4132 0d3d 02000000 		.4byte	.LBE244-.LBB244
 4133 0d41 01       		.byte	0x1
 4134 0d42 BE       		.byte	0xbe
 4135 0d43 510D0000 		.4byte	0xd51
 4136 0d47 29       		.uleb128 0x29
 4137 0d48 F3090000 		.4byte	0x9f3
 4138 0d4c 32010000 		.4byte	.LLST8
 4139 0d50 00       		.byte	0
 4140 0d51 25       		.uleb128 0x25
 4141 0d52 DA080000 		.4byte	0x8da
 4142 0d56 28000000 		.4byte	.LBB246
 4143 0d5a 58000000 		.4byte	.Ldebug_ranges0+0x58
 4144 0d5e 01       		.byte	0x1
 4145 0d5f C2       		.byte	0xc2
 4146 0d60 C80D0000 		.4byte	0xdc8
 4147 0d64 29       		.uleb128 0x29
 4148 0d65 F1080000 		.4byte	0x8f1
 4149 0d69 74010000 		.4byte	.LLST9
 4150 0d6d 29       		.uleb128 0x29
 4151 0d6e F1080000 		.4byte	0x8f1
 4152 0d72 74010000 		.4byte	.LLST9
 4153 0d76 29       		.uleb128 0x29
 4154 0d77 E6080000 		.4byte	0x8e6
 4155 0d7b 92010000 		.4byte	.LLST11
 4156 0d7f 25       		.uleb128 0x25
 4157 0d80 AE080000 		.4byte	0x8ae
 4158 0d84 28000000 		.4byte	.LBB248
 4159 0d88 88000000 		.4byte	.Ldebug_ranges0+0x88
 4160 0d8c 01       		.byte	0x1
 4161 0d8d 35       		.byte	0x35
ARM GAS  /tmp/ccjsfSlY.s 			page 104


 4162 0d8e A50D0000 		.4byte	0xda5
 4163 0d92 29       		.uleb128 0x29
 4164 0d93 C7080000 		.4byte	0x8c7
 4165 0d97 B0010000 		.4byte	.LLST12
 4166 0d9b 29       		.uleb128 0x29
 4167 0d9c BB080000 		.4byte	0x8bb
 4168 0da0 C5010000 		.4byte	.LLST13
 4169 0da4 00       		.byte	0
 4170 0da5 28       		.uleb128 0x28
 4171 0da6 AE080000 		.4byte	0x8ae
 4172 0daa 8E000000 		.4byte	.LBB253
 4173 0dae 04000000 		.4byte	.LBE253-.LBB253
 4174 0db2 01       		.byte	0x1
 4175 0db3 31       		.byte	0x31
 4176 0db4 29       		.uleb128 0x29
 4177 0db5 C7080000 		.4byte	0x8c7
 4178 0db9 D8010000 		.4byte	.LLST14
 4179 0dbd 29       		.uleb128 0x29
 4180 0dbe BB080000 		.4byte	0x8bb
 4181 0dc2 FA010000 		.4byte	.LLST15
 4182 0dc6 00       		.byte	0
 4183 0dc7 00       		.byte	0
 4184 0dc8 25       		.uleb128 0x25
 4185 0dc9 44090000 		.4byte	0x944
 4186 0dcd 2A000000 		.4byte	.LBB260
 4187 0dd1 A8000000 		.4byte	.Ldebug_ranges0+0xa8
 4188 0dd5 01       		.byte	0x1
 4189 0dd6 C1       		.byte	0xc1
 4190 0dd7 EE0D0000 		.4byte	0xdee
 4191 0ddb 29       		.uleb128 0x29
 4192 0ddc 61090000 		.4byte	0x961
 4193 0de0 0D020000 		.4byte	.LLST16
 4194 0de4 29       		.uleb128 0x29
 4195 0de5 55090000 		.4byte	0x955
 4196 0de9 2D020000 		.4byte	.LLST17
 4197 0ded 00       		.byte	0
 4198 0dee 25       		.uleb128 0x25
 4199 0def 000A0000 		.4byte	0xa00
 4200 0df3 2E000000 		.4byte	.LBB265
 4201 0df7 C8000000 		.4byte	.Ldebug_ranges0+0xc8
 4202 0dfb 01       		.byte	0x1
 4203 0dfc C6       		.byte	0xc6
 4204 0dfd 140E0000 		.4byte	0xe14
 4205 0e01 29       		.uleb128 0x29
 4206 0e02 1D0A0000 		.4byte	0xa1d
 4207 0e06 4B020000 		.4byte	.LLST18
 4208 0e0a 29       		.uleb128 0x29
 4209 0e0b 110A0000 		.4byte	0xa11
 4210 0e0f 6B020000 		.4byte	.LLST19
 4211 0e13 00       		.byte	0
 4212 0e14 25       		.uleb128 0x25
 4213 0e15 2A0A0000 		.4byte	0xa2a
 4214 0e19 30000000 		.4byte	.LBB270
 4215 0e1d F0000000 		.4byte	.Ldebug_ranges0+0xf0
 4216 0e21 01       		.byte	0x1
 4217 0e22 CB       		.byte	0xcb
 4218 0e23 7C0E0000 		.4byte	0xe7c
ARM GAS  /tmp/ccjsfSlY.s 			page 105


 4219 0e27 2F       		.uleb128 0x2f
 4220 0e28 410A0000 		.4byte	0xa41
 4221 0e2c 2F       		.uleb128 0x2f
 4222 0e2d 360A0000 		.4byte	0xa36
 4223 0e31 30       		.uleb128 0x30
 4224 0e32 F0000000 		.4byte	.Ldebug_ranges0+0xf0
 4225 0e36 31       		.uleb128 0x31
 4226 0e37 4C0A0000 		.4byte	0xa4c
 4227 0e3b 25       		.uleb128 0x25
 4228 0e3c 44090000 		.4byte	0x944
 4229 0e40 30000000 		.4byte	.LBB272
 4230 0e44 08010000 		.4byte	.Ldebug_ranges0+0x108
 4231 0e48 01       		.byte	0x1
 4232 0e49 4D       		.byte	0x4d
 4233 0e4a 610E0000 		.4byte	0xe61
 4234 0e4e 29       		.uleb128 0x29
 4235 0e4f 61090000 		.4byte	0x961
 4236 0e53 89020000 		.4byte	.LLST20
 4237 0e57 29       		.uleb128 0x29
 4238 0e58 55090000 		.4byte	0x955
 4239 0e5c 9D020000 		.4byte	.LLST21
 4240 0e60 00       		.byte	0
 4241 0e61 28       		.uleb128 0x28
 4242 0e62 26090000 		.4byte	0x926
 4243 0e66 64000000 		.4byte	.LBB277
 4244 0e6a 04000000 		.4byte	.LBE277-.LBB277
 4245 0e6e 01       		.byte	0x1
 4246 0e6f 4F       		.byte	0x4f
 4247 0e70 29       		.uleb128 0x29
 4248 0e71 37090000 		.4byte	0x937
 4249 0e75 B0020000 		.4byte	.LLST22
 4250 0e79 00       		.byte	0
 4251 0e7a 00       		.byte	0
 4252 0e7b 00       		.byte	0
 4253 0e7c 25       		.uleb128 0x25
 4254 0e7d 03090000 		.4byte	0x903
 4255 0e81 A8000000 		.4byte	.LBB289
 4256 0e85 28010000 		.4byte	.Ldebug_ranges0+0x128
 4257 0e89 01       		.byte	0x1
 4258 0e8a D2       		.byte	0xd2
 4259 0e8b EE0E0000 		.4byte	0xeee
 4260 0e8f 29       		.uleb128 0x29
 4261 0e90 1A090000 		.4byte	0x91a
 4262 0e94 C3020000 		.4byte	.LLST23
 4263 0e98 29       		.uleb128 0x29
 4264 0e99 1A090000 		.4byte	0x91a
 4265 0e9d C3020000 		.4byte	.LLST23
 4266 0ea1 29       		.uleb128 0x29
 4267 0ea2 0F090000 		.4byte	0x90f
 4268 0ea6 E1020000 		.4byte	.LLST25
 4269 0eaa 25       		.uleb128 0x25
 4270 0eab AE080000 		.4byte	0x8ae
 4271 0eaf A8000000 		.4byte	.LBB291
 4272 0eb3 50010000 		.4byte	.Ldebug_ranges0+0x150
 4273 0eb7 01       		.byte	0x1
 4274 0eb8 42       		.byte	0x42
 4275 0eb9 CB0E0000 		.4byte	0xecb
ARM GAS  /tmp/ccjsfSlY.s 			page 106


 4276 0ebd 26       		.uleb128 0x26
 4277 0ebe C7080000 		.4byte	0x8c7
 4278 0ec2 FF       		.byte	0xff
 4279 0ec3 27       		.uleb128 0x27
 4280 0ec4 BB080000 		.4byte	0x8bb
 4281 0ec8 01       		.uleb128 0x1
 4282 0ec9 54       		.byte	0x54
 4283 0eca 00       		.byte	0
 4284 0ecb 28       		.uleb128 0x28
 4285 0ecc AE080000 		.4byte	0x8ae
 4286 0ed0 E8000000 		.4byte	.LBB296
 4287 0ed4 04000000 		.4byte	.LBE296-.LBB296
 4288 0ed8 01       		.byte	0x1
 4289 0ed9 3F       		.byte	0x3f
 4290 0eda 29       		.uleb128 0x29
 4291 0edb C7080000 		.4byte	0x8c7
 4292 0edf FF020000 		.4byte	.LLST26
 4293 0ee3 29       		.uleb128 0x29
 4294 0ee4 BB080000 		.4byte	0x8bb
 4295 0ee8 32030000 		.4byte	.LLST27
 4296 0eec 00       		.byte	0
 4297 0eed 00       		.byte	0
 4298 0eee 25       		.uleb128 0x25
 4299 0eef 44090000 		.4byte	0x944
 4300 0ef3 AA000000 		.4byte	.LBB302
 4301 0ef7 70010000 		.4byte	.Ldebug_ranges0+0x170
 4302 0efb 01       		.byte	0x1
 4303 0efc D1       		.byte	0xd1
 4304 0efd 140F0000 		.4byte	0xf14
 4305 0f01 29       		.uleb128 0x29
 4306 0f02 61090000 		.4byte	0x961
 4307 0f06 45030000 		.4byte	.LLST28
 4308 0f0a 29       		.uleb128 0x29
 4309 0f0b 55090000 		.4byte	0x955
 4310 0f0f 71030000 		.4byte	.LLST29
 4311 0f13 00       		.byte	0
 4312 0f14 25       		.uleb128 0x25
 4313 0f15 000A0000 		.4byte	0xa00
 4314 0f19 AE000000 		.4byte	.LBB307
 4315 0f1d 90010000 		.4byte	.Ldebug_ranges0+0x190
 4316 0f21 01       		.byte	0x1
 4317 0f22 D6       		.byte	0xd6
 4318 0f23 3A0F0000 		.4byte	0xf3a
 4319 0f27 29       		.uleb128 0x29
 4320 0f28 1D0A0000 		.4byte	0xa1d
 4321 0f2c 9A030000 		.4byte	.LLST30
 4322 0f30 29       		.uleb128 0x29
 4323 0f31 110A0000 		.4byte	0xa11
 4324 0f35 AE030000 		.4byte	.LLST31
 4325 0f39 00       		.byte	0
 4326 0f3a 32       		.uleb128 0x32
 4327 0f3b CE000000 		.4byte	.LVL32
 4328 0f3f F10B0000 		.4byte	0xbf1
 4329 0f43 33       		.uleb128 0x33
 4330 0f44 01       		.uleb128 0x1
 4331 0f45 51       		.byte	0x51
 4332 0f46 02       		.uleb128 0x2
ARM GAS  /tmp/ccjsfSlY.s 			page 107


 4333 0f47 76       		.byte	0x76
 4334 0f48 00       		.sleb128 0
 4335 0f49 33       		.uleb128 0x33
 4336 0f4a 01       		.uleb128 0x1
 4337 0f4b 50       		.byte	0x50
 4338 0f4c 02       		.uleb128 0x2
 4339 0f4d 74       		.byte	0x74
 4340 0f4e 00       		.sleb128 0
 4341 0f4f 00       		.byte	0
 4342 0f50 00       		.byte	0
 4343 0f51 2C       		.uleb128 0x2c
 4344 0f52 90780000 		.4byte	.LASF1244
 4345 0f56 01       		.byte	0x1
 4346 0f57 E9       		.byte	0xe9
 4347 0f58 A6000000 		.4byte	0xa6
 4348 0f5c 00000000 		.4byte	.LFB208
 4349 0f60 C6000000 		.4byte	.LFE208-.LFB208
 4350 0f64 01       		.uleb128 0x1
 4351 0f65 9C       		.byte	0x9c
 4352 0f66 CD110000 		.4byte	0x11cd
 4353 0f6a 2D       		.uleb128 0x2d
 4354 0f6b E20F0000 		.4byte	.LASF1205
 4355 0f6f 01       		.byte	0x1
 4356 0f70 E9       		.byte	0xe9
 4357 0f71 D4080000 		.4byte	0x8d4
 4358 0f75 C1030000 		.4byte	.LLST32
 4359 0f79 2D       		.uleb128 0x2d
 4360 0f7a 3E300000 		.4byte	.LASF1245
 4361 0f7e 01       		.byte	0x1
 4362 0f7f E9       		.byte	0xe9
 4363 0f80 78080000 		.4byte	0x878
 4364 0f84 FB030000 		.4byte	.LLST33
 4365 0f88 24       		.uleb128 0x24
 4366 0f89 4E330000 		.4byte	.LASF1246
 4367 0f8d 01       		.byte	0x1
 4368 0f8e E9       		.byte	0xe9
 4369 0f8f A6000000 		.4byte	0xa6
 4370 0f93 01       		.uleb128 0x1
 4371 0f94 52       		.byte	0x52
 4372 0f95 34       		.uleb128 0x34
 4373 0f96 FD600000 		.4byte	.LASF1196
 4374 0f9a 01       		.byte	0x1
 4375 0f9b EB       		.byte	0xeb
 4376 0f9c A6000000 		.4byte	0xa6
 4377 0fa0 4B040000 		.4byte	.LLST34
 4378 0fa4 34       		.uleb128 0x34
 4379 0fa5 D1430000 		.4byte	.LASF1198
 4380 0fa9 01       		.byte	0x1
 4381 0faa EB       		.byte	0xeb
 4382 0fab A6000000 		.4byte	0xa6
 4383 0faf 81040000 		.4byte	.LLST35
 4384 0fb3 25       		.uleb128 0x25
 4385 0fb4 44090000 		.4byte	0x944
 4386 0fb8 06000000 		.4byte	.LBB316
 4387 0fbc A8010000 		.4byte	.Ldebug_ranges0+0x1a8
 4388 0fc0 01       		.byte	0x1
 4389 0fc1 EE       		.byte	0xee
ARM GAS  /tmp/ccjsfSlY.s 			page 108


 4390 0fc2 D60F0000 		.4byte	0xfd6
 4391 0fc6 26       		.uleb128 0x26
 4392 0fc7 61090000 		.4byte	0x961
 4393 0fcb 04       		.byte	0x4
 4394 0fcc 29       		.uleb128 0x29
 4395 0fcd 55090000 		.4byte	0x955
 4396 0fd1 C1030000 		.4byte	.LLST32
 4397 0fd5 00       		.byte	0
 4398 0fd6 2E       		.uleb128 0x2e
 4399 0fd7 26090000 		.4byte	0x926
 4400 0fdb 12000000 		.4byte	.LBB321
 4401 0fdf 02000000 		.4byte	.LBE321-.LBB321
 4402 0fe3 01       		.byte	0x1
 4403 0fe4 EF       		.byte	0xef
 4404 0fe5 F30F0000 		.4byte	0xff3
 4405 0fe9 29       		.uleb128 0x29
 4406 0fea 37090000 		.4byte	0x937
 4407 0fee CF040000 		.4byte	.LLST37
 4408 0ff2 00       		.byte	0
 4409 0ff3 25       		.uleb128 0x25
 4410 0ff4 BC090000 		.4byte	0x9bc
 4411 0ff8 1A000000 		.4byte	.LBB324
 4412 0ffc C8010000 		.4byte	.Ldebug_ranges0+0x1c8
 4413 1000 01       		.byte	0x1
 4414 1001 F3       		.byte	0xf3
 4415 1002 16100000 		.4byte	0x1016
 4416 1006 26       		.uleb128 0x26
 4417 1007 D5090000 		.4byte	0x9d5
 4418 100b 03       		.byte	0x3
 4419 100c 29       		.uleb128 0x29
 4420 100d C9090000 		.4byte	0x9c9
 4421 1011 E2040000 		.4byte	.LLST38
 4422 1015 00       		.byte	0
 4423 1016 2E       		.uleb128 0x2e
 4424 1017 E2090000 		.4byte	0x9e2
 4425 101b 20000000 		.4byte	.LBB328
 4426 101f 02000000 		.4byte	.LBE328-.LBB328
 4427 1023 01       		.byte	0x1
 4428 1024 F5       		.byte	0xf5
 4429 1025 33100000 		.4byte	0x1033
 4430 1029 29       		.uleb128 0x29
 4431 102a F3090000 		.4byte	0x9f3
 4432 102e 1C050000 		.4byte	.LLST39
 4433 1032 00       		.byte	0
 4434 1033 35       		.uleb128 0x35
 4435 1034 E0010000 		.4byte	.Ldebug_ranges0+0x1e0
 4436 1038 03110000 		.4byte	0x1103
 4437 103c 36       		.uleb128 0x36
 4438 103d 64000000 		.4byte	.LASF1247
 4439 1041 01       		.byte	0x1
 4440 1042 0F01     		.2byte	0x10f
 4441 1044 78080000 		.4byte	0x878
 4442 1048 56050000 		.4byte	.LLST40
 4443 104c 37       		.uleb128 0x37
 4444 104d 44090000 		.4byte	0x944
 4445 1051 28000000 		.4byte	.LBB331
 4446 1055 00020000 		.4byte	.Ldebug_ranges0+0x200
ARM GAS  /tmp/ccjsfSlY.s 			page 109


 4447 1059 01       		.byte	0x1
 4448 105a 1501     		.2byte	0x115
 4449 105c 73100000 		.4byte	0x1073
 4450 1060 29       		.uleb128 0x29
 4451 1061 61090000 		.4byte	0x961
 4452 1065 69050000 		.4byte	.LLST41
 4453 1069 29       		.uleb128 0x29
 4454 106a 55090000 		.4byte	0x955
 4455 106e 7D050000 		.4byte	.LLST42
 4456 1072 00       		.byte	0
 4457 1073 37       		.uleb128 0x37
 4458 1074 000A0000 		.4byte	0xa00
 4459 1078 30000000 		.4byte	.LBB337
 4460 107c 28020000 		.4byte	.Ldebug_ranges0+0x228
 4461 1080 01       		.byte	0x1
 4462 1081 1C01     		.2byte	0x11c
 4463 1083 9A100000 		.4byte	0x109a
 4464 1087 29       		.uleb128 0x29
 4465 1088 1D0A0000 		.4byte	0xa1d
 4466 108c 90050000 		.4byte	.LLST43
 4467 1090 29       		.uleb128 0x29
 4468 1091 110A0000 		.4byte	0xa11
 4469 1095 B0050000 		.4byte	.LLST44
 4470 1099 00       		.byte	0
 4471 109a 37       		.uleb128 0x37
 4472 109b 44090000 		.4byte	0x944
 4473 109f 32000000 		.4byte	.LBB341
 4474 10a3 48020000 		.4byte	.Ldebug_ranges0+0x248
 4475 10a7 01       		.byte	0x1
 4476 10a8 2101     		.2byte	0x121
 4477 10aa C1100000 		.4byte	0x10c1
 4478 10ae 29       		.uleb128 0x29
 4479 10af 61090000 		.4byte	0x961
 4480 10b3 CE050000 		.4byte	.LLST45
 4481 10b7 29       		.uleb128 0x29
 4482 10b8 55090000 		.4byte	0x955
 4483 10bc E2050000 		.4byte	.LLST46
 4484 10c0 00       		.byte	0
 4485 10c1 38       		.uleb128 0x38
 4486 10c2 26090000 		.4byte	0x926
 4487 10c6 4E000000 		.4byte	.LBB348
 4488 10ca 02000000 		.4byte	.LBE348-.LBB348
 4489 10ce 01       		.byte	0x1
 4490 10cf 2201     		.2byte	0x122
 4491 10d1 DF100000 		.4byte	0x10df
 4492 10d5 29       		.uleb128 0x29
 4493 10d6 37090000 		.4byte	0x937
 4494 10da F5050000 		.4byte	.LLST47
 4495 10de 00       		.byte	0
 4496 10df 39       		.uleb128 0x39
 4497 10e0 AE080000 		.4byte	0x8ae
 4498 10e4 64000000 		.4byte	.LBB352
 4499 10e8 68020000 		.4byte	.Ldebug_ranges0+0x268
 4500 10ec 01       		.byte	0x1
 4501 10ed 1601     		.2byte	0x116
 4502 10ef 29       		.uleb128 0x29
 4503 10f0 C7080000 		.4byte	0x8c7
ARM GAS  /tmp/ccjsfSlY.s 			page 110


 4504 10f4 08060000 		.4byte	.LLST48
 4505 10f8 29       		.uleb128 0x29
 4506 10f9 BB080000 		.4byte	0x8bb
 4507 10fd 43060000 		.4byte	.LLST49
 4508 1101 00       		.byte	0
 4509 1102 00       		.byte	0
 4510 1103 30       		.uleb128 0x30
 4511 1104 80020000 		.4byte	.Ldebug_ranges0+0x280
 4512 1108 34       		.uleb128 0x34
 4513 1109 28540000 		.4byte	.LASF1248
 4514 110d 01       		.byte	0x1
 4515 110e F6       		.byte	0xf6
 4516 110f CD110000 		.4byte	0x11cd
 4517 1113 56060000 		.4byte	.LLST50
 4518 1117 25       		.uleb128 0x25
 4519 1118 44090000 		.4byte	0x944
 4520 111c 82000000 		.4byte	.LBB359
 4521 1120 A0020000 		.4byte	.Ldebug_ranges0+0x2a0
 4522 1124 01       		.byte	0x1
 4523 1125 FC       		.byte	0xfc
 4524 1126 3D110000 		.4byte	0x113d
 4525 112a 29       		.uleb128 0x29
 4526 112b 61090000 		.4byte	0x961
 4527 112f 69060000 		.4byte	.LLST51
 4528 1133 29       		.uleb128 0x29
 4529 1134 55090000 		.4byte	0x955
 4530 1138 7D060000 		.4byte	.LLST52
 4531 113c 00       		.byte	0
 4532 113d 37       		.uleb128 0x37
 4533 113e 000A0000 		.4byte	0xa00
 4534 1142 8A000000 		.4byte	.LBB365
 4535 1146 C8020000 		.4byte	.Ldebug_ranges0+0x2c8
 4536 114a 01       		.byte	0x1
 4537 114b 0301     		.2byte	0x103
 4538 114d 64110000 		.4byte	0x1164
 4539 1151 29       		.uleb128 0x29
 4540 1152 1D0A0000 		.4byte	0xa1d
 4541 1156 90060000 		.4byte	.LLST53
 4542 115a 29       		.uleb128 0x29
 4543 115b 110A0000 		.4byte	0xa11
 4544 115f A4060000 		.4byte	.LLST54
 4545 1163 00       		.byte	0
 4546 1164 37       		.uleb128 0x37
 4547 1165 44090000 		.4byte	0x944
 4548 1169 8C000000 		.4byte	.LBB368
 4549 116d E0020000 		.4byte	.Ldebug_ranges0+0x2e0
 4550 1171 01       		.byte	0x1
 4551 1172 0801     		.2byte	0x108
 4552 1174 8B110000 		.4byte	0x118b
 4553 1178 29       		.uleb128 0x29
 4554 1179 61090000 		.4byte	0x961
 4555 117d B7060000 		.4byte	.LLST55
 4556 1181 29       		.uleb128 0x29
 4557 1182 55090000 		.4byte	0x955
 4558 1186 CB060000 		.4byte	.LLST56
 4559 118a 00       		.byte	0
 4560 118b 38       		.uleb128 0x38
ARM GAS  /tmp/ccjsfSlY.s 			page 111


 4561 118c 26090000 		.4byte	0x926
 4562 1190 A4000000 		.4byte	.LBB374
 4563 1194 02000000 		.4byte	.LBE374-.LBB374
 4564 1198 01       		.byte	0x1
 4565 1199 0901     		.2byte	0x109
 4566 119b A9110000 		.4byte	0x11a9
 4567 119f 29       		.uleb128 0x29
 4568 11a0 37090000 		.4byte	0x937
 4569 11a4 DE060000 		.4byte	.LLST57
 4570 11a8 00       		.byte	0
 4571 11a9 3A       		.uleb128 0x3a
 4572 11aa AE080000 		.4byte	0x8ae
 4573 11ae B2000000 		.4byte	.LBB377
 4574 11b2 F8020000 		.4byte	.Ldebug_ranges0+0x2f8
 4575 11b6 01       		.byte	0x1
 4576 11b7 FD       		.byte	0xfd
 4577 11b8 29       		.uleb128 0x29
 4578 11b9 C7080000 		.4byte	0x8c7
 4579 11bd F1060000 		.4byte	.LLST58
 4580 11c1 29       		.uleb128 0x29
 4581 11c2 BB080000 		.4byte	0x8bb
 4582 11c6 10070000 		.4byte	.LLST59
 4583 11ca 00       		.byte	0
 4584 11cb 00       		.byte	0
 4585 11cc 00       		.byte	0
 4586 11cd 17       		.uleb128 0x17
 4587 11ce 04       		.byte	0x4
 4588 11cf 9B000000 		.4byte	0x9b
 4589 11d3 3B       		.uleb128 0x3b
 4590 11d4 67450000 		.4byte	.LASF1249
 4591 11d8 01       		.byte	0x1
 4592 11d9 2D01     		.2byte	0x12d
 4593 11db A6000000 		.4byte	0xa6
 4594 11df 00000000 		.4byte	.LFB209
 4595 11e3 DC000000 		.4byte	.LFE209-.LFB209
 4596 11e7 01       		.uleb128 0x1
 4597 11e8 9C       		.byte	0x9c
 4598 11e9 5C140000 		.4byte	0x145c
 4599 11ed 3C       		.uleb128 0x3c
 4600 11ee E20F0000 		.4byte	.LASF1205
 4601 11f2 01       		.byte	0x1
 4602 11f3 2D01     		.2byte	0x12d
 4603 11f5 D4080000 		.4byte	0x8d4
 4604 11f9 23070000 		.4byte	.LLST60
 4605 11fd 3C       		.uleb128 0x3c
 4606 11fe 3E300000 		.4byte	.LASF1245
 4607 1202 01       		.byte	0x1
 4608 1203 2D01     		.2byte	0x12d
 4609 1205 78080000 		.4byte	0x878
 4610 1209 5D070000 		.4byte	.LLST61
 4611 120d 3D       		.uleb128 0x3d
 4612 120e 4E330000 		.4byte	.LASF1246
 4613 1212 01       		.byte	0x1
 4614 1213 2D01     		.2byte	0x12d
 4615 1215 A6000000 		.4byte	0xa6
 4616 1219 01       		.uleb128 0x1
 4617 121a 52       		.byte	0x52
ARM GAS  /tmp/ccjsfSlY.s 			page 112


 4618 121b 36       		.uleb128 0x36
 4619 121c D1430000 		.4byte	.LASF1198
 4620 1220 01       		.byte	0x1
 4621 1221 2F01     		.2byte	0x12f
 4622 1223 A6000000 		.4byte	0xa6
 4623 1227 97070000 		.4byte	.LLST62
 4624 122b 36       		.uleb128 0x36
 4625 122c FD600000 		.4byte	.LASF1196
 4626 1230 01       		.byte	0x1
 4627 1231 2F01     		.2byte	0x12f
 4628 1233 A6000000 		.4byte	0xa6
 4629 1237 FD070000 		.4byte	.LLST63
 4630 123b 37       		.uleb128 0x37
 4631 123c 44090000 		.4byte	0x944
 4632 1240 06000000 		.4byte	.LBB384
 4633 1244 10030000 		.4byte	.Ldebug_ranges0+0x310
 4634 1248 01       		.byte	0x1
 4635 1249 3201     		.2byte	0x132
 4636 124b 5F120000 		.4byte	0x125f
 4637 124f 26       		.uleb128 0x26
 4638 1250 61090000 		.4byte	0x961
 4639 1254 04       		.byte	0x4
 4640 1255 29       		.uleb128 0x29
 4641 1256 55090000 		.4byte	0x955
 4642 125a 23070000 		.4byte	.LLST60
 4643 125e 00       		.byte	0
 4644 125f 38       		.uleb128 0x38
 4645 1260 26090000 		.4byte	0x926
 4646 1264 10000000 		.4byte	.LBB389
 4647 1268 02000000 		.4byte	.LBE389-.LBB389
 4648 126c 01       		.byte	0x1
 4649 126d 3301     		.2byte	0x133
 4650 126f 7D120000 		.4byte	0x127d
 4651 1273 29       		.uleb128 0x29
 4652 1274 37090000 		.4byte	0x937
 4653 1278 33080000 		.4byte	.LLST65
 4654 127c 00       		.byte	0
 4655 127d 37       		.uleb128 0x37
 4656 127e BC090000 		.4byte	0x9bc
 4657 1282 18000000 		.4byte	.LBB392
 4658 1286 30030000 		.4byte	.Ldebug_ranges0+0x330
 4659 128a 01       		.byte	0x1
 4660 128b 3701     		.2byte	0x137
 4661 128d A1120000 		.4byte	0x12a1
 4662 1291 26       		.uleb128 0x26
 4663 1292 D5090000 		.4byte	0x9d5
 4664 1296 03       		.byte	0x3
 4665 1297 29       		.uleb128 0x29
 4666 1298 C9090000 		.4byte	0x9c9
 4667 129c 46080000 		.4byte	.LLST66
 4668 12a0 00       		.byte	0
 4669 12a1 38       		.uleb128 0x38
 4670 12a2 E2090000 		.4byte	0x9e2
 4671 12a6 1E000000 		.4byte	.LBB396
 4672 12aa 02000000 		.4byte	.LBE396-.LBB396
 4673 12ae 01       		.byte	0x1
 4674 12af 3901     		.2byte	0x139
ARM GAS  /tmp/ccjsfSlY.s 			page 113


 4675 12b1 BF120000 		.4byte	0x12bf
 4676 12b5 29       		.uleb128 0x29
 4677 12b6 F3090000 		.4byte	0x9f3
 4678 12ba 80080000 		.4byte	.LLST67
 4679 12be 00       		.byte	0
 4680 12bf 35       		.uleb128 0x35
 4681 12c0 48030000 		.4byte	.Ldebug_ranges0+0x348
 4682 12c4 8F130000 		.4byte	0x138f
 4683 12c8 36       		.uleb128 0x36
 4684 12c9 604E0000 		.4byte	.LASF1250
 4685 12cd 01       		.byte	0x1
 4686 12ce 5301     		.2byte	0x153
 4687 12d0 78080000 		.4byte	0x878
 4688 12d4 BA080000 		.4byte	.LLST68
 4689 12d8 37       		.uleb128 0x37
 4690 12d9 44090000 		.4byte	0x944
 4691 12dd 28000000 		.4byte	.LBB399
 4692 12e1 68030000 		.4byte	.Ldebug_ranges0+0x368
 4693 12e5 01       		.byte	0x1
 4694 12e6 5901     		.2byte	0x159
 4695 12e8 FF120000 		.4byte	0x12ff
 4696 12ec 29       		.uleb128 0x29
 4697 12ed 61090000 		.4byte	0x961
 4698 12f1 CD080000 		.4byte	.LLST69
 4699 12f5 29       		.uleb128 0x29
 4700 12f6 55090000 		.4byte	0x955
 4701 12fa E1080000 		.4byte	.LLST70
 4702 12fe 00       		.byte	0
 4703 12ff 37       		.uleb128 0x37
 4704 1300 AE080000 		.4byte	0x8ae
 4705 1304 2C000000 		.4byte	.LBB403
 4706 1308 88030000 		.4byte	.Ldebug_ranges0+0x388
 4707 130c 01       		.byte	0x1
 4708 130d 5A01     		.2byte	0x15a
 4709 130f 26130000 		.4byte	0x1326
 4710 1313 29       		.uleb128 0x29
 4711 1314 C7080000 		.4byte	0x8c7
 4712 1318 F4080000 		.4byte	.LLST71
 4713 131c 29       		.uleb128 0x29
 4714 131d BB080000 		.4byte	0x8bb
 4715 1321 09090000 		.4byte	.LLST72
 4716 1325 00       		.byte	0
 4717 1326 37       		.uleb128 0x37
 4718 1327 000A0000 		.4byte	0xa00
 4719 132b 30000000 		.4byte	.LBB407
 4720 132f A8030000 		.4byte	.Ldebug_ranges0+0x3a8
 4721 1333 01       		.byte	0x1
 4722 1334 5F01     		.2byte	0x15f
 4723 1336 4D130000 		.4byte	0x134d
 4724 133a 29       		.uleb128 0x29
 4725 133b 1D0A0000 		.4byte	0xa1d
 4726 133f 1C090000 		.4byte	.LLST73
 4727 1343 29       		.uleb128 0x29
 4728 1344 110A0000 		.4byte	0xa11
 4729 1348 3C090000 		.4byte	.LLST74
 4730 134c 00       		.byte	0
 4731 134d 37       		.uleb128 0x37
ARM GAS  /tmp/ccjsfSlY.s 			page 114


 4732 134e 44090000 		.4byte	0x944
 4733 1352 36000000 		.4byte	.LBB413
 4734 1356 D0030000 		.4byte	.Ldebug_ranges0+0x3d0
 4735 135a 01       		.byte	0x1
 4736 135b 6401     		.2byte	0x164
 4737 135d 74130000 		.4byte	0x1374
 4738 1361 29       		.uleb128 0x29
 4739 1362 61090000 		.4byte	0x961
 4740 1366 5A090000 		.4byte	.LLST75
 4741 136a 29       		.uleb128 0x29
 4742 136b 55090000 		.4byte	0x955
 4743 136f 6E090000 		.4byte	.LLST76
 4744 1373 00       		.byte	0
 4745 1374 3E       		.uleb128 0x3e
 4746 1375 26090000 		.4byte	0x926
 4747 1379 54000000 		.4byte	.LBB420
 4748 137d 02000000 		.4byte	.LBE420-.LBB420
 4749 1381 01       		.byte	0x1
 4750 1382 6501     		.2byte	0x165
 4751 1384 29       		.uleb128 0x29
 4752 1385 37090000 		.4byte	0x937
 4753 1389 81090000 		.4byte	.LLST77
 4754 138d 00       		.byte	0
 4755 138e 00       		.byte	0
 4756 138f 30       		.uleb128 0x30
 4757 1390 F0030000 		.4byte	.Ldebug_ranges0+0x3f0
 4758 1394 36       		.uleb128 0x36
 4759 1395 AA090000 		.4byte	.LASF1251
 4760 1399 01       		.byte	0x1
 4761 139a 3A01     		.2byte	0x13a
 4762 139c CD110000 		.4byte	0x11cd
 4763 13a0 94090000 		.4byte	.LLST78
 4764 13a4 37       		.uleb128 0x37
 4765 13a5 44090000 		.4byte	0x944
 4766 13a9 86000000 		.4byte	.LBB429
 4767 13ad 10040000 		.4byte	.Ldebug_ranges0+0x410
 4768 13b1 01       		.byte	0x1
 4769 13b2 4001     		.2byte	0x140
 4770 13b4 CB130000 		.4byte	0x13cb
 4771 13b8 29       		.uleb128 0x29
 4772 13b9 61090000 		.4byte	0x961
 4773 13bd A7090000 		.4byte	.LLST79
 4774 13c1 29       		.uleb128 0x29
 4775 13c2 55090000 		.4byte	0x955
 4776 13c6 BB090000 		.4byte	.LLST80
 4777 13ca 00       		.byte	0
 4778 13cb 37       		.uleb128 0x37
 4779 13cc AE080000 		.4byte	0x8ae
 4780 13d0 8A000000 		.4byte	.LBB433
 4781 13d4 30040000 		.4byte	.Ldebug_ranges0+0x430
 4782 13d8 01       		.byte	0x1
 4783 13d9 4101     		.2byte	0x141
 4784 13db F2130000 		.4byte	0x13f2
 4785 13df 29       		.uleb128 0x29
 4786 13e0 C7080000 		.4byte	0x8c7
 4787 13e4 CE090000 		.4byte	.LLST81
 4788 13e8 29       		.uleb128 0x29
ARM GAS  /tmp/ccjsfSlY.s 			page 115


 4789 13e9 BB080000 		.4byte	0x8bb
 4790 13ed E3090000 		.4byte	.LLST82
 4791 13f1 00       		.byte	0
 4792 13f2 37       		.uleb128 0x37
 4793 13f3 000A0000 		.4byte	0xa00
 4794 13f7 90000000 		.4byte	.LBB439
 4795 13fb 58040000 		.4byte	.Ldebug_ranges0+0x458
 4796 13ff 01       		.byte	0x1
 4797 1400 4601     		.2byte	0x146
 4798 1402 19140000 		.4byte	0x1419
 4799 1406 29       		.uleb128 0x29
 4800 1407 1D0A0000 		.4byte	0xa1d
 4801 140b F6090000 		.4byte	.LLST83
 4802 140f 29       		.uleb128 0x29
 4803 1410 110A0000 		.4byte	0xa11
 4804 1414 0A0A0000 		.4byte	.LLST84
 4805 1418 00       		.byte	0
 4806 1419 37       		.uleb128 0x37
 4807 141a 44090000 		.4byte	0x944
 4808 141e 92000000 		.4byte	.LBB443
 4809 1422 78040000 		.4byte	.Ldebug_ranges0+0x478
 4810 1426 01       		.byte	0x1
 4811 1427 4B01     		.2byte	0x14b
 4812 1429 40140000 		.4byte	0x1440
 4813 142d 29       		.uleb128 0x29
 4814 142e 61090000 		.4byte	0x961
 4815 1432 1D0A0000 		.4byte	.LLST85
 4816 1436 29       		.uleb128 0x29
 4817 1437 55090000 		.4byte	0x955
 4818 143b 310A0000 		.4byte	.LLST86
 4819 143f 00       		.byte	0
 4820 1440 39       		.uleb128 0x39
 4821 1441 26090000 		.4byte	0x926
 4822 1445 B2000000 		.4byte	.LBB451
 4823 1449 98040000 		.4byte	.Ldebug_ranges0+0x498
 4824 144d 01       		.byte	0x1
 4825 144e 4C01     		.2byte	0x14c
 4826 1450 29       		.uleb128 0x29
 4827 1451 37090000 		.4byte	0x937
 4828 1455 440A0000 		.4byte	.LLST87
 4829 1459 00       		.byte	0
 4830 145a 00       		.byte	0
 4831 145b 00       		.byte	0
 4832 145c 3F       		.uleb128 0x3f
 4833 145d 82310000 		.4byte	.LASF1254
 4834 1461 01       		.byte	0x1
 4835 1462 7101     		.2byte	0x171
 4836 1464 00000000 		.4byte	.LFB210
 4837 1468 24000000 		.4byte	.LFE210-.LFB210
 4838 146c 01       		.uleb128 0x1
 4839 146d 9C       		.byte	0x9c
 4840 146e 28150000 		.4byte	0x1528
 4841 1472 3D       		.uleb128 0x3d
 4842 1473 E20F0000 		.4byte	.LASF1205
 4843 1477 01       		.byte	0x1
 4844 1478 7101     		.2byte	0x171
 4845 147a D4080000 		.4byte	0x8d4
ARM GAS  /tmp/ccjsfSlY.s 			page 116


 4846 147e 01       		.uleb128 0x1
 4847 147f 50       		.byte	0x50
 4848 1480 38       		.uleb128 0x38
 4849 1481 44090000 		.4byte	0x944
 4850 1485 00000000 		.4byte	.LBB462
 4851 1489 02000000 		.4byte	.LBE462-.LBB462
 4852 148d 01       		.byte	0x1
 4853 148e 7301     		.2byte	0x173
 4854 1490 A2140000 		.4byte	0x14a2
 4855 1494 26       		.uleb128 0x26
 4856 1495 61090000 		.4byte	0x961
 4857 1499 10       		.byte	0x10
 4858 149a 27       		.uleb128 0x27
 4859 149b 55090000 		.4byte	0x955
 4860 149f 01       		.uleb128 0x1
 4861 14a0 50       		.byte	0x50
 4862 14a1 00       		.byte	0
 4863 14a2 38       		.uleb128 0x38
 4864 14a3 44090000 		.4byte	0x944
 4865 14a7 06000000 		.4byte	.LBB464
 4866 14ab 04000000 		.4byte	.LBE464-.LBB464
 4867 14af 01       		.byte	0x1
 4868 14b0 7401     		.2byte	0x174
 4869 14b2 C9140000 		.4byte	0x14c9
 4870 14b6 29       		.uleb128 0x29
 4871 14b7 61090000 		.4byte	0x961
 4872 14bb 570A0000 		.4byte	.LLST88
 4873 14bf 29       		.uleb128 0x29
 4874 14c0 55090000 		.4byte	0x955
 4875 14c4 6B0A0000 		.4byte	.LLST89
 4876 14c8 00       		.byte	0
 4877 14c9 37       		.uleb128 0x37
 4878 14ca 44090000 		.4byte	0x944
 4879 14ce 0E000000 		.4byte	.LBB466
 4880 14d2 B0040000 		.4byte	.Ldebug_ranges0+0x4b0
 4881 14d6 01       		.byte	0x1
 4882 14d7 7801     		.2byte	0x178
 4883 14d9 EB140000 		.4byte	0x14eb
 4884 14dd 26       		.uleb128 0x26
 4885 14de 61090000 		.4byte	0x961
 4886 14e2 04       		.byte	0x4
 4887 14e3 27       		.uleb128 0x27
 4888 14e4 55090000 		.4byte	0x955
 4889 14e8 01       		.uleb128 0x1
 4890 14e9 50       		.byte	0x50
 4891 14ea 00       		.byte	0
 4892 14eb 38       		.uleb128 0x38
 4893 14ec 26090000 		.4byte	0x926
 4894 14f0 16000000 		.4byte	.LBB469
 4895 14f4 02000000 		.4byte	.LBE469-.LBB469
 4896 14f8 01       		.byte	0x1
 4897 14f9 7901     		.2byte	0x179
 4898 14fb 09150000 		.4byte	0x1509
 4899 14ff 29       		.uleb128 0x29
 4900 1500 37090000 		.4byte	0x937
 4901 1504 7E0A0000 		.4byte	.LLST90
 4902 1508 00       		.byte	0
ARM GAS  /tmp/ccjsfSlY.s 			page 117


 4903 1509 39       		.uleb128 0x39
 4904 150a BC090000 		.4byte	0x9bc
 4905 150e 1E000000 		.4byte	.LBB472
 4906 1512 C8040000 		.4byte	.Ldebug_ranges0+0x4c8
 4907 1516 01       		.byte	0x1
 4908 1517 7D01     		.2byte	0x17d
 4909 1519 26       		.uleb128 0x26
 4910 151a D5090000 		.4byte	0x9d5
 4911 151e 03       		.byte	0x3
 4912 151f 27       		.uleb128 0x27
 4913 1520 C9090000 		.4byte	0x9c9
 4914 1524 01       		.uleb128 0x1
 4915 1525 50       		.byte	0x50
 4916 1526 00       		.byte	0
 4917 1527 00       		.byte	0
 4918 1528 3B       		.uleb128 0x3b
 4919 1529 2C490000 		.4byte	.LASF1252
 4920 152d 01       		.byte	0x1
 4921 152e 8101     		.2byte	0x181
 4922 1530 F1000000 		.4byte	0xf1
 4923 1534 00000000 		.4byte	.LFB211
 4924 1538 84000000 		.4byte	.LFE211-.LFB211
 4925 153c 01       		.uleb128 0x1
 4926 153d 9C       		.byte	0x9c
 4927 153e 7D160000 		.4byte	0x167d
 4928 1542 3C       		.uleb128 0x3c
 4929 1543 E20F0000 		.4byte	.LASF1205
 4930 1547 01       		.byte	0x1
 4931 1548 8101     		.2byte	0x181
 4932 154a D4080000 		.4byte	0x8d4
 4933 154e 910A0000 		.4byte	.LLST91
 4934 1552 3C       		.uleb128 0x3c
 4935 1553 F7200000 		.4byte	.LASF1207
 4936 1557 01       		.byte	0x1
 4937 1558 8101     		.2byte	0x181
 4938 155a FD080000 		.4byte	0x8fd
 4939 155e D30A0000 		.4byte	.LLST92
 4940 1562 38       		.uleb128 0x38
 4941 1563 000A0000 		.4byte	0xa00
 4942 1567 04000000 		.4byte	.LBB476
 4943 156b 02000000 		.4byte	.LBE476-.LBB476
 4944 156f 01       		.byte	0x1
 4945 1570 8401     		.2byte	0x184
 4946 1572 86150000 		.4byte	0x1586
 4947 1576 26       		.uleb128 0x26
 4948 1577 1D0A0000 		.4byte	0xa1d
 4949 157b 01       		.byte	0x1
 4950 157c 29       		.uleb128 0x29
 4951 157d 110A0000 		.4byte	0xa11
 4952 1581 910A0000 		.4byte	.LLST91
 4953 1585 00       		.byte	0
 4954 1586 37       		.uleb128 0x37
 4955 1587 44090000 		.4byte	0x944
 4956 158b 1C000000 		.4byte	.LBB478
 4957 158f E0040000 		.4byte	.Ldebug_ranges0+0x4e0
 4958 1593 01       		.byte	0x1
 4959 1594 8C01     		.2byte	0x18c
ARM GAS  /tmp/ccjsfSlY.s 			page 118


 4960 1596 AD150000 		.4byte	0x15ad
 4961 159a 29       		.uleb128 0x29
 4962 159b 61090000 		.4byte	0x961
 4963 159f 150B0000 		.4byte	.LLST94
 4964 15a3 29       		.uleb128 0x29
 4965 15a4 55090000 		.4byte	0x955
 4966 15a8 350B0000 		.4byte	.LLST95
 4967 15ac 00       		.byte	0
 4968 15ad 37       		.uleb128 0x37
 4969 15ae 03090000 		.4byte	0x903
 4970 15b2 2A000000 		.4byte	.LBB482
 4971 15b6 00050000 		.4byte	.Ldebug_ranges0+0x500
 4972 15ba 01       		.byte	0x1
 4973 15bb 8E01     		.2byte	0x18e
 4974 15bd 25160000 		.4byte	0x1625
 4975 15c1 29       		.uleb128 0x29
 4976 15c2 1A090000 		.4byte	0x91a
 4977 15c6 530B0000 		.4byte	.LLST96
 4978 15ca 29       		.uleb128 0x29
 4979 15cb 1A090000 		.4byte	0x91a
 4980 15cf 530B0000 		.4byte	.LLST96
 4981 15d3 29       		.uleb128 0x29
 4982 15d4 0F090000 		.4byte	0x90f
 4983 15d8 710B0000 		.4byte	.LLST98
 4984 15dc 25       		.uleb128 0x25
 4985 15dd AE080000 		.4byte	0x8ae
 4986 15e1 2A000000 		.4byte	.LBB484
 4987 15e5 28050000 		.4byte	.Ldebug_ranges0+0x528
 4988 15e9 01       		.byte	0x1
 4989 15ea 42       		.byte	0x42
 4990 15eb 02160000 		.4byte	0x1602
 4991 15ef 29       		.uleb128 0x29
 4992 15f0 C7080000 		.4byte	0x8c7
 4993 15f4 8F0B0000 		.4byte	.LLST99
 4994 15f8 29       		.uleb128 0x29
 4995 15f9 BB080000 		.4byte	0x8bb
 4996 15fd A40B0000 		.4byte	.LLST100
 4997 1601 00       		.byte	0
 4998 1602 28       		.uleb128 0x28
 4999 1603 AE080000 		.4byte	0x8ae
 5000 1607 34000000 		.4byte	.LBB489
 5001 160b 04000000 		.4byte	.LBE489-.LBB489
 5002 160f 01       		.byte	0x1
 5003 1610 3F       		.byte	0x3f
 5004 1611 29       		.uleb128 0x29
 5005 1612 C7080000 		.4byte	0x8c7
 5006 1616 B70B0000 		.4byte	.LLST101
 5007 161a 29       		.uleb128 0x29
 5008 161b BB080000 		.4byte	0x8bb
 5009 161f F50B0000 		.4byte	.LLST102
 5010 1623 00       		.byte	0
 5011 1624 00       		.byte	0
 5012 1625 37       		.uleb128 0x37
 5013 1626 000A0000 		.4byte	0xa00
 5014 162a 2C000000 		.4byte	.LBB495
 5015 162e 48050000 		.4byte	.Ldebug_ranges0+0x548
 5016 1632 01       		.byte	0x1
ARM GAS  /tmp/ccjsfSlY.s 			page 119


 5017 1633 9101     		.2byte	0x191
 5018 1635 4C160000 		.4byte	0x164c
 5019 1639 29       		.uleb128 0x29
 5020 163a 1D0A0000 		.4byte	0xa1d
 5021 163e 080C0000 		.4byte	.LLST103
 5022 1642 29       		.uleb128 0x29
 5023 1643 110A0000 		.4byte	0xa11
 5024 1647 280C0000 		.4byte	.LLST104
 5025 164b 00       		.byte	0
 5026 164c 40       		.uleb128 0x40
 5027 164d 1C000000 		.4byte	.LVL112
 5028 1651 F10B0000 		.4byte	0xbf1
 5029 1655 66160000 		.4byte	0x1666
 5030 1659 33       		.uleb128 0x33
 5031 165a 01       		.uleb128 0x1
 5032 165b 51       		.byte	0x51
 5033 165c 02       		.uleb128 0x2
 5034 165d 74       		.byte	0x74
 5035 165e 00       		.sleb128 0
 5036 165f 33       		.uleb128 0x33
 5037 1660 01       		.uleb128 0x1
 5038 1661 50       		.byte	0x50
 5039 1662 02       		.uleb128 0x2
 5040 1663 75       		.byte	0x75
 5041 1664 00       		.sleb128 0
 5042 1665 00       		.byte	0
 5043 1666 32       		.uleb128 0x32
 5044 1667 4C000000 		.4byte	.LVL118
 5045 166b F10B0000 		.4byte	0xbf1
 5046 166f 33       		.uleb128 0x33
 5047 1670 01       		.uleb128 0x1
 5048 1671 51       		.byte	0x51
 5049 1672 02       		.uleb128 0x2
 5050 1673 74       		.byte	0x74
 5051 1674 00       		.sleb128 0
 5052 1675 33       		.uleb128 0x33
 5053 1676 01       		.uleb128 0x1
 5054 1677 50       		.byte	0x50
 5055 1678 02       		.uleb128 0x2
 5056 1679 75       		.byte	0x75
 5057 167a 00       		.sleb128 0
 5058 167b 00       		.byte	0
 5059 167c 00       		.byte	0
 5060 167d 3B       		.uleb128 0x3b
 5061 167e BF340000 		.4byte	.LASF1253
 5062 1682 01       		.byte	0x1
 5063 1683 A001     		.2byte	0x1a0
 5064 1685 F1000000 		.4byte	0xf1
 5065 1689 00000000 		.4byte	.LFB212
 5066 168d C8000000 		.4byte	.LFE212-.LFB212
 5067 1691 01       		.uleb128 0x1
 5068 1692 9C       		.byte	0x9c
 5069 1693 72180000 		.4byte	0x1872
 5070 1697 3C       		.uleb128 0x3c
 5071 1698 E20F0000 		.4byte	.LASF1205
 5072 169c 01       		.byte	0x1
 5073 169d A001     		.2byte	0x1a0
ARM GAS  /tmp/ccjsfSlY.s 			page 120


 5074 169f D4080000 		.4byte	0x8d4
 5075 16a3 460C0000 		.4byte	.LLST105
 5076 16a7 3D       		.uleb128 0x3d
 5077 16a8 F7200000 		.4byte	.LASF1207
 5078 16ac 01       		.byte	0x1
 5079 16ad A001     		.2byte	0x1a0
 5080 16af FD080000 		.4byte	0x8fd
 5081 16b3 01       		.uleb128 0x1
 5082 16b4 51       		.byte	0x51
 5083 16b5 38       		.uleb128 0x38
 5084 16b6 000A0000 		.4byte	0xa00
 5085 16ba 04000000 		.4byte	.LBB506
 5086 16be 02000000 		.4byte	.LBE506-.LBB506
 5087 16c2 01       		.byte	0x1
 5088 16c3 A301     		.2byte	0x1a3
 5089 16c5 D9160000 		.4byte	0x16d9
 5090 16c9 26       		.uleb128 0x26
 5091 16ca 1D0A0000 		.4byte	0xa1d
 5092 16ce 01       		.byte	0x1
 5093 16cf 29       		.uleb128 0x29
 5094 16d0 110A0000 		.4byte	0xa11
 5095 16d4 460C0000 		.4byte	.LLST105
 5096 16d8 00       		.byte	0
 5097 16d9 38       		.uleb128 0x38
 5098 16da 2A0A0000 		.4byte	0xa2a
 5099 16de 14000000 		.4byte	.LBB508
 5100 16e2 2A000000 		.4byte	.LBE508-.LBB508
 5101 16e6 01       		.byte	0x1
 5102 16e7 A901     		.2byte	0x1a9
 5103 16e9 46170000 		.4byte	0x1746
 5104 16ed 2F       		.uleb128 0x2f
 5105 16ee 410A0000 		.4byte	0xa41
 5106 16f2 2F       		.uleb128 0x2f
 5107 16f3 360A0000 		.4byte	0xa36
 5108 16f7 41       		.uleb128 0x41
 5109 16f8 14000000 		.4byte	.LBB509
 5110 16fc 2A000000 		.4byte	.LBE509-.LBB509
 5111 1700 31       		.uleb128 0x31
 5112 1701 4C0A0000 		.4byte	0xa4c
 5113 1705 25       		.uleb128 0x25
 5114 1706 44090000 		.4byte	0x944
 5115 170a 14000000 		.4byte	.LBB510
 5116 170e 68050000 		.4byte	.Ldebug_ranges0+0x568
 5117 1712 01       		.byte	0x1
 5118 1713 4D       		.byte	0x4d
 5119 1714 2B170000 		.4byte	0x172b
 5120 1718 29       		.uleb128 0x29
 5121 1719 61090000 		.4byte	0x961
 5122 171d 990C0000 		.4byte	.LLST107
 5123 1721 29       		.uleb128 0x29
 5124 1722 55090000 		.4byte	0x955
 5125 1726 B90C0000 		.4byte	.LLST108
 5126 172a 00       		.byte	0
 5127 172b 28       		.uleb128 0x28
 5128 172c 26090000 		.4byte	0x926
 5129 1730 2A000000 		.4byte	.LBB515
 5130 1734 04000000 		.4byte	.LBE515-.LBB515
ARM GAS  /tmp/ccjsfSlY.s 			page 121


 5131 1738 01       		.byte	0x1
 5132 1739 4F       		.byte	0x4f
 5133 173a 29       		.uleb128 0x29
 5134 173b 37090000 		.4byte	0x937
 5135 173f D70C0000 		.4byte	.LLST109
 5136 1743 00       		.byte	0
 5137 1744 00       		.byte	0
 5138 1745 00       		.byte	0
 5139 1746 37       		.uleb128 0x37
 5140 1747 DA080000 		.4byte	0x8da
 5141 174b 3E000000 		.4byte	.LBB518
 5142 174f 88050000 		.4byte	.Ldebug_ranges0+0x588
 5143 1753 01       		.byte	0x1
 5144 1754 AD01     		.2byte	0x1ad
 5145 1756 BE170000 		.4byte	0x17be
 5146 175a 29       		.uleb128 0x29
 5147 175b F1080000 		.4byte	0x8f1
 5148 175f EA0C0000 		.4byte	.LLST110
 5149 1763 29       		.uleb128 0x29
 5150 1764 F1080000 		.4byte	0x8f1
 5151 1768 EA0C0000 		.4byte	.LLST110
 5152 176c 29       		.uleb128 0x29
 5153 176d E6080000 		.4byte	0x8e6
 5154 1771 080D0000 		.4byte	.LLST112
 5155 1775 25       		.uleb128 0x25
 5156 1776 AE080000 		.4byte	0x8ae
 5157 177a 3E000000 		.4byte	.LBB520
 5158 177e C0050000 		.4byte	.Ldebug_ranges0+0x5c0
 5159 1782 01       		.byte	0x1
 5160 1783 35       		.byte	0x35
 5161 1784 9B170000 		.4byte	0x179b
 5162 1788 29       		.uleb128 0x29
 5163 1789 C7080000 		.4byte	0x8c7
 5164 178d 260D0000 		.4byte	.LLST113
 5165 1791 29       		.uleb128 0x29
 5166 1792 BB080000 		.4byte	0x8bb
 5167 1796 3B0D0000 		.4byte	.LLST114
 5168 179a 00       		.byte	0
 5169 179b 3A       		.uleb128 0x3a
 5170 179c AE080000 		.4byte	0x8ae
 5171 17a0 5C000000 		.4byte	.LBB526
 5172 17a4 E8050000 		.4byte	.Ldebug_ranges0+0x5e8
 5173 17a8 01       		.byte	0x1
 5174 17a9 31       		.byte	0x31
 5175 17aa 29       		.uleb128 0x29
 5176 17ab C7080000 		.4byte	0x8c7
 5177 17af 4E0D0000 		.4byte	.LLST115
 5178 17b3 29       		.uleb128 0x29
 5179 17b4 BB080000 		.4byte	0x8bb
 5180 17b8 9F0D0000 		.4byte	.LLST116
 5181 17bc 00       		.byte	0
 5182 17bd 00       		.byte	0
 5183 17be 37       		.uleb128 0x37
 5184 17bf 44090000 		.4byte	0x944
 5185 17c3 40000000 		.4byte	.LBB537
 5186 17c7 00060000 		.4byte	.Ldebug_ranges0+0x600
 5187 17cb 01       		.byte	0x1
ARM GAS  /tmp/ccjsfSlY.s 			page 122


 5188 17cc AB01     		.2byte	0x1ab
 5189 17ce E5170000 		.4byte	0x17e5
 5190 17d2 29       		.uleb128 0x29
 5191 17d3 61090000 		.4byte	0x961
 5192 17d7 B20D0000 		.4byte	.LLST117
 5193 17db 29       		.uleb128 0x29
 5194 17dc 55090000 		.4byte	0x955
 5195 17e0 D20D0000 		.4byte	.LLST118
 5196 17e4 00       		.byte	0
 5197 17e5 37       		.uleb128 0x37
 5198 17e6 000A0000 		.4byte	0xa00
 5199 17ea 44000000 		.4byte	.LBB542
 5200 17ee 20060000 		.4byte	.Ldebug_ranges0+0x620
 5201 17f2 01       		.byte	0x1
 5202 17f3 B001     		.2byte	0x1b0
 5203 17f5 0C180000 		.4byte	0x180c
 5204 17f9 29       		.uleb128 0x29
 5205 17fa 1D0A0000 		.4byte	0xa1d
 5206 17fe F00D0000 		.4byte	.LLST119
 5207 1802 29       		.uleb128 0x29
 5208 1803 110A0000 		.4byte	0xa11
 5209 1807 100E0000 		.4byte	.LLST120
 5210 180b 00       		.byte	0
 5211 180c 39       		.uleb128 0x39
 5212 180d 2A0A0000 		.4byte	0xa2a
 5213 1811 46000000 		.4byte	.LBB547
 5214 1815 48060000 		.4byte	.Ldebug_ranges0+0x648
 5215 1819 01       		.byte	0x1
 5216 181a B501     		.2byte	0x1b5
 5217 181c 2F       		.uleb128 0x2f
 5218 181d 410A0000 		.4byte	0xa41
 5219 1821 2F       		.uleb128 0x2f
 5220 1822 360A0000 		.4byte	0xa36
 5221 1826 30       		.uleb128 0x30
 5222 1827 48060000 		.4byte	.Ldebug_ranges0+0x648
 5223 182b 31       		.uleb128 0x31
 5224 182c 4C0A0000 		.4byte	0xa4c
 5225 1830 25       		.uleb128 0x25
 5226 1831 44090000 		.4byte	0x944
 5227 1835 46000000 		.4byte	.LBB549
 5228 1839 60060000 		.4byte	.Ldebug_ranges0+0x660
 5229 183d 01       		.byte	0x1
 5230 183e 4D       		.byte	0x4d
 5231 183f 56180000 		.4byte	0x1856
 5232 1843 29       		.uleb128 0x29
 5233 1844 61090000 		.4byte	0x961
 5234 1848 2E0E0000 		.4byte	.LLST121
 5235 184c 29       		.uleb128 0x29
 5236 184d 55090000 		.4byte	0x955
 5237 1851 420E0000 		.4byte	.LLST122
 5238 1855 00       		.byte	0
 5239 1856 28       		.uleb128 0x28
 5240 1857 26090000 		.4byte	0x926
 5241 185b 82000000 		.4byte	.LBB554
 5242 185f 04000000 		.4byte	.LBE554-.LBB554
 5243 1863 01       		.byte	0x1
 5244 1864 4F       		.byte	0x4f
ARM GAS  /tmp/ccjsfSlY.s 			page 123


 5245 1865 29       		.uleb128 0x29
 5246 1866 37090000 		.4byte	0x937
 5247 186a 550E0000 		.4byte	.LLST123
 5248 186e 00       		.byte	0
 5249 186f 00       		.byte	0
 5250 1870 00       		.byte	0
 5251 1871 00       		.byte	0
 5252 1872 3F       		.uleb128 0x3f
 5253 1873 835C0000 		.4byte	.LASF1255
 5254 1877 01       		.byte	0x1
 5255 1878 BF01     		.2byte	0x1bf
 5256 187a 00000000 		.4byte	.LFB213
 5257 187e 18000000 		.4byte	.LFE213-.LFB213
 5258 1882 01       		.uleb128 0x1
 5259 1883 9C       		.byte	0x9c
 5260 1884 EA180000 		.4byte	0x18ea
 5261 1888 3D       		.uleb128 0x3d
 5262 1889 E20F0000 		.4byte	.LASF1205
 5263 188d 01       		.byte	0x1
 5264 188e BF01     		.2byte	0x1bf
 5265 1890 D4080000 		.4byte	0x8d4
 5266 1894 01       		.uleb128 0x1
 5267 1895 50       		.byte	0x50
 5268 1896 3D       		.uleb128 0x3d
 5269 1897 514D0000 		.4byte	.LASF1256
 5270 189b 01       		.byte	0x1
 5271 189c BF01     		.2byte	0x1bf
 5272 189e 03010000 		.4byte	0x103
 5273 18a2 01       		.uleb128 0x1
 5274 18a3 51       		.byte	0x51
 5275 18a4 38       		.uleb128 0x38
 5276 18a5 580A0000 		.4byte	0xa58
 5277 18a9 04000000 		.4byte	.LBB568
 5278 18ad 08000000 		.4byte	.LBE568-.LBB568
 5279 18b1 01       		.byte	0x1
 5280 18b2 C501     		.2byte	0x1c5
 5281 18b4 CB180000 		.4byte	0x18cb
 5282 18b8 29       		.uleb128 0x29
 5283 18b9 710A0000 		.4byte	0xa71
 5284 18bd 680E0000 		.4byte	.LLST124
 5285 18c1 29       		.uleb128 0x29
 5286 18c2 650A0000 		.4byte	0xa65
 5287 18c6 7C0E0000 		.4byte	.LLST125
 5288 18ca 00       		.byte	0
 5289 18cb 3E       		.uleb128 0x3e
 5290 18cc 580A0000 		.4byte	0xa58
 5291 18d0 0E000000 		.4byte	.LBB570
 5292 18d4 0A000000 		.4byte	.LBE570-.LBB570
 5293 18d8 01       		.byte	0x1
 5294 18d9 C201     		.2byte	0x1c2
 5295 18db 26       		.uleb128 0x26
 5296 18dc 710A0000 		.4byte	0xa71
 5297 18e0 00       		.byte	0
 5298 18e1 27       		.uleb128 0x27
 5299 18e2 650A0000 		.4byte	0xa65
 5300 18e6 01       		.uleb128 0x1
 5301 18e7 50       		.byte	0x50
ARM GAS  /tmp/ccjsfSlY.s 			page 124


 5302 18e8 00       		.byte	0
 5303 18e9 00       		.byte	0
 5304 18ea 42       		.uleb128 0x42
 5305 18eb 2B100000 		.4byte	.LASF1257
 5306 18ef 01       		.byte	0x1
 5307 18f0 CA01     		.2byte	0x1ca
 5308 18f2 00000000 		.4byte	.LFB214
 5309 18f6 90000000 		.4byte	.LFE214-.LFB214
 5310 18fa 01       		.uleb128 0x1
 5311 18fb 9C       		.byte	0x9c
 5312 18fc EA190000 		.4byte	0x19ea
 5313 1900 3C       		.uleb128 0x3c
 5314 1901 E20F0000 		.4byte	.LASF1205
 5315 1905 01       		.byte	0x1
 5316 1906 CA01     		.2byte	0x1ca
 5317 1908 D4080000 		.4byte	0x8d4
 5318 190c 8F0E0000 		.4byte	.LLST126
 5319 1910 3C       		.uleb128 0x3c
 5320 1911 88630000 		.4byte	.LASF1258
 5321 1915 01       		.byte	0x1
 5322 1916 CA01     		.2byte	0x1ca
 5323 1918 A6000000 		.4byte	0xa6
 5324 191c C60E0000 		.4byte	.LLST127
 5325 1920 43       		.uleb128 0x43
 5326 1921 67360000 		.4byte	.LASF1259
 5327 1925 01       		.byte	0x1
 5328 1926 CC01     		.2byte	0x1cc
 5329 1928 A6000000 		.4byte	0xa6
 5330 192c 01       		.uleb128 0x1
 5331 192d 59       		.byte	0x59
 5332 192e 36       		.uleb128 0x36
 5333 192f 445A0000 		.4byte	.LASF1260
 5334 1933 01       		.byte	0x1
 5335 1934 CC01     		.2byte	0x1cc
 5336 1936 A6000000 		.4byte	0xa6
 5337 193a FD0E0000 		.4byte	.LLST128
 5338 193e 36       		.uleb128 0x36
 5339 193f 54780000 		.4byte	.LASF1261
 5340 1943 01       		.byte	0x1
 5341 1944 CC01     		.2byte	0x1cc
 5342 1946 A6000000 		.4byte	0xa6
 5343 194a 550F0000 		.4byte	.LLST129
 5344 194e 36       		.uleb128 0x36
 5345 194f 77790000 		.4byte	.LASF1228
 5346 1953 01       		.byte	0x1
 5347 1954 CC01     		.2byte	0x1cc
 5348 1956 A6000000 		.4byte	0xa6
 5349 195a CF0F0000 		.4byte	.LLST130
 5350 195e 37       		.uleb128 0x37
 5351 195f 7E0A0000 		.4byte	0xa7e
 5352 1963 0C000000 		.4byte	.LBB572
 5353 1967 80060000 		.4byte	.Ldebug_ranges0+0x680
 5354 196b 01       		.byte	0x1
 5355 196c CE01     		.2byte	0x1ce
 5356 196e B2190000 		.4byte	0x19b2
 5357 1972 29       		.uleb128 0x29
 5358 1973 8E0A0000 		.4byte	0xa8e
ARM GAS  /tmp/ccjsfSlY.s 			page 125


 5359 1977 FA0F0000 		.4byte	.LLST131
 5360 197b 30       		.uleb128 0x30
 5361 197c 80060000 		.4byte	.Ldebug_ranges0+0x680
 5362 1980 2B       		.uleb128 0x2b
 5363 1981 990A0000 		.4byte	0xa99
 5364 1985 31100000 		.4byte	.LLST132
 5365 1989 44       		.uleb128 0x44
 5366 198a AF090000 		.4byte	0x9af
 5367 198e 16000000 		.4byte	.LBB574
 5368 1992 06000000 		.4byte	.LBE574-.LBB574
 5369 1996 01       		.byte	0x1
 5370 1997 9F       		.byte	0x9f
 5371 1998 44       		.uleb128 0x44
 5372 1999 A2090000 		.4byte	0x9a2
 5373 199d 6E000000 		.4byte	.LBB576
 5374 19a1 06000000 		.4byte	.LBE576-.LBB576
 5375 19a5 01       		.byte	0x1
 5376 19a6 9B       		.byte	0x9b
 5377 19a7 45       		.uleb128 0x45
 5378 19a8 10000000 		.4byte	.LVL156
 5379 19ac 6D1C0000 		.4byte	0x1c6d
 5380 19b0 00       		.byte	0
 5381 19b1 00       		.byte	0
 5382 19b2 39       		.uleb128 0x39
 5383 19b3 A50A0000 		.4byte	0xaa5
 5384 19b7 5A000000 		.4byte	.LBB579
 5385 19bb 98060000 		.4byte	.Ldebug_ranges0+0x698
 5386 19bf 01       		.byte	0x1
 5387 19c0 DF01     		.2byte	0x1df
 5388 19c2 29       		.uleb128 0x29
 5389 19c3 C70A0000 		.4byte	0xac7
 5390 19c7 70100000 		.4byte	.LLST133
 5391 19cb 2F       		.uleb128 0x2f
 5392 19cc BC0A0000 		.4byte	0xabc
 5393 19d0 29       		.uleb128 0x29
 5394 19d1 B10A0000 		.4byte	0xab1
 5395 19d5 9E100000 		.4byte	.LLST134
 5396 19d9 30       		.uleb128 0x30
 5397 19da 98060000 		.4byte	.Ldebug_ranges0+0x698
 5398 19de 2B       		.uleb128 0x2b
 5399 19df D20A0000 		.4byte	0xad2
 5400 19e3 BF100000 		.4byte	.LLST135
 5401 19e7 00       		.byte	0
 5402 19e8 00       		.byte	0
 5403 19e9 00       		.byte	0
 5404 19ea 3F       		.uleb128 0x3f
 5405 19eb F2320000 		.4byte	.LASF1262
 5406 19ef 01       		.byte	0x1
 5407 19f0 E301     		.2byte	0x1e3
 5408 19f2 00000000 		.4byte	.LFB215
 5409 19f6 70000000 		.4byte	.LFE215-.LFB215
 5410 19fa 01       		.uleb128 0x1
 5411 19fb 9C       		.byte	0x9c
 5412 19fc 781B0000 		.4byte	0x1b78
 5413 1a00 3C       		.uleb128 0x3c
 5414 1a01 E20F0000 		.4byte	.LASF1205
 5415 1a05 01       		.byte	0x1
ARM GAS  /tmp/ccjsfSlY.s 			page 126


 5416 1a06 E301     		.2byte	0x1e3
 5417 1a08 D4080000 		.4byte	0x8d4
 5418 1a0c E4100000 		.4byte	.LLST136
 5419 1a10 37       		.uleb128 0x37
 5420 1a11 DE0A0000 		.4byte	0xade
 5421 1a15 00000000 		.4byte	.LBB584
 5422 1a19 B0060000 		.4byte	.Ldebug_ranges0+0x6b0
 5423 1a1d 01       		.byte	0x1
 5424 1a1e E501     		.2byte	0x1e5
 5425 1a20 3D1A0000 		.4byte	0x1a3d
 5426 1a24 29       		.uleb128 0x29
 5427 1a25 EE0A0000 		.4byte	0xaee
 5428 1a29 E4100000 		.4byte	.LLST136
 5429 1a2d 30       		.uleb128 0x30
 5430 1a2e B0060000 		.4byte	.Ldebug_ranges0+0x6b0
 5431 1a32 2B       		.uleb128 0x2b
 5432 1a33 F90A0000 		.4byte	0xaf9
 5433 1a37 10110000 		.4byte	.LLST138
 5434 1a3b 00       		.byte	0
 5435 1a3c 00       		.byte	0
 5436 1a3d 37       		.uleb128 0x37
 5437 1a3e 050B0000 		.4byte	0xb05
 5438 1a42 08000000 		.4byte	.LBB588
 5439 1a46 C8060000 		.4byte	.Ldebug_ranges0+0x6c8
 5440 1a4a 01       		.byte	0x1
 5441 1a4b E501     		.2byte	0x1e5
 5442 1a4d 5B1A0000 		.4byte	0x1a5b
 5443 1a51 29       		.uleb128 0x29
 5444 1a52 120B0000 		.4byte	0xb12
 5445 1a56 10110000 		.4byte	.LLST138
 5446 1a5a 00       		.byte	0
 5447 1a5b 37       		.uleb128 0x37
 5448 1a5c 1F0B0000 		.4byte	0xb1f
 5449 1a60 16000000 		.4byte	.LBB591
 5450 1a64 E0060000 		.4byte	.Ldebug_ranges0+0x6e0
 5451 1a68 01       		.byte	0x1
 5452 1a69 E601     		.2byte	0x1e6
 5453 1a6b B51A0000 		.4byte	0x1ab5
 5454 1a6f 29       		.uleb128 0x29
 5455 1a70 360B0000 		.4byte	0xb36
 5456 1a74 30110000 		.4byte	.LLST140
 5457 1a78 29       		.uleb128 0x29
 5458 1a79 2B0B0000 		.4byte	0xb2b
 5459 1a7d 50110000 		.4byte	.LLST141
 5460 1a81 2E       		.uleb128 0x2e
 5461 1a82 88090000 		.4byte	0x988
 5462 1a86 16000000 		.4byte	.LBB592
 5463 1a8a 0A000000 		.4byte	.LBE592-.LBB592
 5464 1a8e 01       		.byte	0x1
 5465 1a8f 90       		.byte	0x90
 5466 1a90 9E1A0000 		.4byte	0x1a9e
 5467 1a94 29       		.uleb128 0x29
 5468 1a95 95090000 		.4byte	0x995
 5469 1a99 73110000 		.4byte	.LLST142
 5470 1a9d 00       		.byte	0
 5471 1a9e 28       		.uleb128 0x28
 5472 1a9f 6E090000 		.4byte	0x96e
ARM GAS  /tmp/ccjsfSlY.s 			page 127


 5473 1aa3 58000000 		.4byte	.LBB594
 5474 1aa7 18000000 		.4byte	.LBE594-.LBB594
 5475 1aab 01       		.byte	0x1
 5476 1aac 8C       		.byte	0x8c
 5477 1aad 26       		.uleb128 0x26
 5478 1aae 7B090000 		.4byte	0x97b
 5479 1ab2 01       		.byte	0x1
 5480 1ab3 00       		.byte	0
 5481 1ab4 00       		.byte	0
 5482 1ab5 37       		.uleb128 0x37
 5483 1ab6 690B0000 		.4byte	0xb69
 5484 1aba 20000000 		.4byte	.LBB596
 5485 1abe F8060000 		.4byte	.Ldebug_ranges0+0x6f8
 5486 1ac2 01       		.byte	0x1
 5487 1ac3 E701     		.2byte	0x1e7
 5488 1ac5 FD1A0000 		.4byte	0x1afd
 5489 1ac9 2F       		.uleb128 0x2f
 5490 1aca 750B0000 		.4byte	0xb75
 5491 1ace 25       		.uleb128 0x25
 5492 1acf 7E080000 		.4byte	0x87e
 5493 1ad3 20000000 		.4byte	.LBB597
 5494 1ad7 10070000 		.4byte	.Ldebug_ranges0+0x710
 5495 1adb 04       		.byte	0x4
 5496 1adc B5       		.byte	0xb5
 5497 1add E71A0000 		.4byte	0x1ae7
 5498 1ae1 2F       		.uleb128 0x2f
 5499 1ae2 8A080000 		.4byte	0x88a
 5500 1ae6 00       		.byte	0
 5501 1ae7 28       		.uleb128 0x28
 5502 1ae8 96080000 		.4byte	0x896
 5503 1aec 28000000 		.4byte	.LBB601
 5504 1af0 06000000 		.4byte	.LBE601-.LBB601
 5505 1af4 04       		.byte	0x4
 5506 1af5 B6       		.byte	0xb6
 5507 1af6 2F       		.uleb128 0x2f
 5508 1af7 A2080000 		.4byte	0x8a2
 5509 1afb 00       		.byte	0
 5510 1afc 00       		.byte	0
 5511 1afd 37       		.uleb128 0x37
 5512 1afe 580A0000 		.4byte	0xa58
 5513 1b02 2E000000 		.4byte	.LBB604
 5514 1b06 28070000 		.4byte	.Ldebug_ranges0+0x728
 5515 1b0a 01       		.byte	0x1
 5516 1b0b E901     		.2byte	0x1e9
 5517 1b0d 241B0000 		.4byte	0x1b24
 5518 1b11 29       		.uleb128 0x29
 5519 1b12 710A0000 		.4byte	0xa71
 5520 1b16 87110000 		.4byte	.LLST143
 5521 1b1a 29       		.uleb128 0x29
 5522 1b1b 650A0000 		.4byte	0xa65
 5523 1b1f 9B110000 		.4byte	.LLST144
 5524 1b23 00       		.byte	0
 5525 1b24 38       		.uleb128 0x38
 5526 1b25 810B0000 		.4byte	0xb81
 5527 1b29 38000000 		.4byte	.LBB608
 5528 1b2d 0C000000 		.4byte	.LBE608-.LBB608
 5529 1b31 01       		.byte	0x1
ARM GAS  /tmp/ccjsfSlY.s 			page 128


 5530 1b32 EA01     		.2byte	0x1ea
 5531 1b34 5D1B0000 		.4byte	0x1b5d
 5532 1b38 29       		.uleb128 0x29
 5533 1b39 B20B0000 		.4byte	0xbb2
 5534 1b3d BC110000 		.4byte	.LLST145
 5535 1b41 29       		.uleb128 0x29
 5536 1b42 A60B0000 		.4byte	0xba6
 5537 1b46 BC110000 		.4byte	.LLST145
 5538 1b4a 29       		.uleb128 0x29
 5539 1b4b 9A0B0000 		.4byte	0xb9a
 5540 1b4f D0110000 		.4byte	.LLST147
 5541 1b53 29       		.uleb128 0x29
 5542 1b54 8E0B0000 		.4byte	0xb8e
 5543 1b58 E4110000 		.4byte	.LLST148
 5544 1b5c 00       		.byte	0
 5545 1b5d 32       		.uleb128 0x32
 5546 1b5e 48000000 		.4byte	.LVL188
 5547 1b62 EA180000 		.4byte	0x18ea
 5548 1b66 33       		.uleb128 0x33
 5549 1b67 01       		.uleb128 0x1
 5550 1b68 51       		.byte	0x51
 5551 1b69 05       		.uleb128 0x5
 5552 1b6a 0C       		.byte	0xc
 5553 1b6b A0860100 		.4byte	0x186a0
 5554 1b6f 33       		.uleb128 0x33
 5555 1b70 01       		.uleb128 0x1
 5556 1b71 50       		.byte	0x50
 5557 1b72 03       		.uleb128 0x3
 5558 1b73 F3       		.byte	0xf3
 5559 1b74 01       		.uleb128 0x1
 5560 1b75 50       		.byte	0x50
 5561 1b76 00       		.byte	0
 5562 1b77 00       		.byte	0
 5563 1b78 3F       		.uleb128 0x3f
 5564 1b79 2F280000 		.4byte	.LASF1263
 5565 1b7d 01       		.byte	0x1
 5566 1b7e EF01     		.2byte	0x1ef
 5567 1b80 00000000 		.4byte	.LFB216
 5568 1b84 48000000 		.4byte	.LFE216-.LFB216
 5569 1b88 01       		.uleb128 0x1
 5570 1b89 9C       		.byte	0x9c
 5571 1b8a 621C0000 		.4byte	0x1c62
 5572 1b8e 3C       		.uleb128 0x3c
 5573 1b8f E20F0000 		.4byte	.LASF1205
 5574 1b93 01       		.byte	0x1
 5575 1b94 EF01     		.2byte	0x1ef
 5576 1b96 D4080000 		.4byte	0x8d4
 5577 1b9a 05120000 		.4byte	.LLST149
 5578 1b9e 38       		.uleb128 0x38
 5579 1b9f BF0B0000 		.4byte	0xbbf
 5580 1ba3 00000000 		.4byte	.LBB612
 5581 1ba7 08000000 		.4byte	.LBE612-.LBB612
 5582 1bab 01       		.byte	0x1
 5583 1bac F101     		.2byte	0x1f1
 5584 1bae BC1B0000 		.4byte	0x1bbc
 5585 1bb2 29       		.uleb128 0x29
 5586 1bb3 CB0B0000 		.4byte	0xbcb
ARM GAS  /tmp/ccjsfSlY.s 			page 129


 5587 1bb7 05120000 		.4byte	.LLST149
 5588 1bbb 00       		.byte	0
 5589 1bbc 38       		.uleb128 0x38
 5590 1bbd DE0A0000 		.4byte	0xade
 5591 1bc1 08000000 		.4byte	.LBB614
 5592 1bc5 06000000 		.4byte	.LBE614-.LBB614
 5593 1bc9 01       		.byte	0x1
 5594 1bca F301     		.2byte	0x1f3
 5595 1bcc ED1B0000 		.4byte	0x1bed
 5596 1bd0 29       		.uleb128 0x29
 5597 1bd1 EE0A0000 		.4byte	0xaee
 5598 1bd5 3F120000 		.4byte	.LLST151
 5599 1bd9 41       		.uleb128 0x41
 5600 1bda 08000000 		.4byte	.LBB615
 5601 1bde 06000000 		.4byte	.LBE615-.LBB615
 5602 1be2 2B       		.uleb128 0x2b
 5603 1be3 F90A0000 		.4byte	0xaf9
 5604 1be7 79120000 		.4byte	.LLST152
 5605 1beb 00       		.byte	0
 5606 1bec 00       		.byte	0
 5607 1bed 37       		.uleb128 0x37
 5608 1bee D70B0000 		.4byte	0xbd7
 5609 1bf2 0E000000 		.4byte	.LBB616
 5610 1bf6 40070000 		.4byte	.Ldebug_ranges0+0x740
 5611 1bfa 01       		.byte	0x1
 5612 1bfb F301     		.2byte	0x1f3
 5613 1bfd 0B1C0000 		.4byte	0x1c0b
 5614 1c01 29       		.uleb128 0x29
 5615 1c02 E40B0000 		.4byte	0xbe4
 5616 1c06 79120000 		.4byte	.LLST152
 5617 1c0a 00       		.byte	0
 5618 1c0b 39       		.uleb128 0x39
 5619 1c0c 1F0B0000 		.4byte	0xb1f
 5620 1c10 1A000000 		.4byte	.LBB619
 5621 1c14 58070000 		.4byte	.Ldebug_ranges0+0x758
 5622 1c18 01       		.byte	0x1
 5623 1c19 F401     		.2byte	0x1f4
 5624 1c1b 29       		.uleb128 0x29
 5625 1c1c 360B0000 		.4byte	0xb36
 5626 1c20 99120000 		.4byte	.LLST154
 5627 1c24 29       		.uleb128 0x29
 5628 1c25 2B0B0000 		.4byte	0xb2b
 5629 1c29 B9120000 		.4byte	.LLST155
 5630 1c2d 2E       		.uleb128 0x2e
 5631 1c2e 88090000 		.4byte	0x988
 5632 1c32 1A000000 		.4byte	.LBB620
 5633 1c36 06000000 		.4byte	.LBE620-.LBB620
 5634 1c3a 01       		.byte	0x1
 5635 1c3b 90       		.byte	0x90
 5636 1c3c 4A1C0000 		.4byte	0x1c4a
 5637 1c40 29       		.uleb128 0x29
 5638 1c41 95090000 		.4byte	0x995
 5639 1c45 DF120000 		.4byte	.LLST156
 5640 1c49 00       		.byte	0
 5641 1c4a 28       		.uleb128 0x28
 5642 1c4b 6E090000 		.4byte	0x96e
 5643 1c4f 2E000000 		.4byte	.LBB622
ARM GAS  /tmp/ccjsfSlY.s 			page 130


 5644 1c53 1A000000 		.4byte	.LBE622-.LBB622
 5645 1c57 01       		.byte	0x1
 5646 1c58 8C       		.byte	0x8c
 5647 1c59 26       		.uleb128 0x26
 5648 1c5a 7B090000 		.4byte	0x97b
 5649 1c5e 00       		.byte	0
 5650 1c5f 00       		.byte	0
 5651 1c60 00       		.byte	0
 5652 1c61 00       		.byte	0
 5653 1c62 46       		.uleb128 0x46
 5654 1c63 53570000 		.4byte	.LASF1269
 5655 1c67 08       		.byte	0x8
 5656 1c68 D4       		.byte	0xd4
 5657 1c69 73080000 		.4byte	0x873
 5658 1c6d 47       		.uleb128 0x47
 5659 1c6e D4420000 		.4byte	.LASF1270
 5660 1c72 03       		.byte	0x3
 5661 1c73 1302     		.2byte	0x213
 5662 1c75 A6000000 		.4byte	0xa6
 5663 1c79 00       		.byte	0
 5664              		.section	.debug_abbrev,"",%progbits
 5665              	.Ldebug_abbrev0:
 5666 0000 01       		.uleb128 0x1
 5667 0001 11       		.uleb128 0x11
 5668 0002 01       		.byte	0x1
 5669 0003 25       		.uleb128 0x25
 5670 0004 0E       		.uleb128 0xe
 5671 0005 13       		.uleb128 0x13
 5672 0006 0B       		.uleb128 0xb
 5673 0007 03       		.uleb128 0x3
 5674 0008 0E       		.uleb128 0xe
 5675 0009 1B       		.uleb128 0x1b
 5676 000a 0E       		.uleb128 0xe
 5677 000b 55       		.uleb128 0x55
 5678 000c 17       		.uleb128 0x17
 5679 000d 11       		.uleb128 0x11
 5680 000e 01       		.uleb128 0x1
 5681 000f 10       		.uleb128 0x10
 5682 0010 17       		.uleb128 0x17
 5683 0011 9942     		.uleb128 0x2119
 5684 0013 17       		.uleb128 0x17
 5685 0014 00       		.byte	0
 5686 0015 00       		.byte	0
 5687 0016 02       		.uleb128 0x2
 5688 0017 24       		.uleb128 0x24
 5689 0018 00       		.byte	0
 5690 0019 0B       		.uleb128 0xb
 5691 001a 0B       		.uleb128 0xb
 5692 001b 3E       		.uleb128 0x3e
 5693 001c 0B       		.uleb128 0xb
 5694 001d 03       		.uleb128 0x3
 5695 001e 0E       		.uleb128 0xe
 5696 001f 00       		.byte	0
 5697 0020 00       		.byte	0
 5698 0021 03       		.uleb128 0x3
 5699 0022 16       		.uleb128 0x16
 5700 0023 00       		.byte	0
ARM GAS  /tmp/ccjsfSlY.s 			page 131


 5701 0024 03       		.uleb128 0x3
 5702 0025 0E       		.uleb128 0xe
 5703 0026 3A       		.uleb128 0x3a
 5704 0027 0B       		.uleb128 0xb
 5705 0028 3B       		.uleb128 0x3b
 5706 0029 0B       		.uleb128 0xb
 5707 002a 49       		.uleb128 0x49
 5708 002b 13       		.uleb128 0x13
 5709 002c 00       		.byte	0
 5710 002d 00       		.byte	0
 5711 002e 04       		.uleb128 0x4
 5712 002f 24       		.uleb128 0x24
 5713 0030 00       		.byte	0
 5714 0031 0B       		.uleb128 0xb
 5715 0032 0B       		.uleb128 0xb
 5716 0033 3E       		.uleb128 0x3e
 5717 0034 0B       		.uleb128 0xb
 5718 0035 03       		.uleb128 0x3
 5719 0036 08       		.uleb128 0x8
 5720 0037 00       		.byte	0
 5721 0038 00       		.byte	0
 5722 0039 05       		.uleb128 0x5
 5723 003a 04       		.uleb128 0x4
 5724 003b 01       		.byte	0x1
 5725 003c 0B       		.uleb128 0xb
 5726 003d 0B       		.uleb128 0xb
 5727 003e 3A       		.uleb128 0x3a
 5728 003f 0B       		.uleb128 0xb
 5729 0040 3B       		.uleb128 0x3b
 5730 0041 0B       		.uleb128 0xb
 5731 0042 01       		.uleb128 0x1
 5732 0043 13       		.uleb128 0x13
 5733 0044 00       		.byte	0
 5734 0045 00       		.byte	0
 5735 0046 06       		.uleb128 0x6
 5736 0047 28       		.uleb128 0x28
 5737 0048 00       		.byte	0
 5738 0049 03       		.uleb128 0x3
 5739 004a 0E       		.uleb128 0xe
 5740 004b 1C       		.uleb128 0x1c
 5741 004c 0D       		.uleb128 0xd
 5742 004d 00       		.byte	0
 5743 004e 00       		.byte	0
 5744 004f 07       		.uleb128 0x7
 5745 0050 28       		.uleb128 0x28
 5746 0051 00       		.byte	0
 5747 0052 03       		.uleb128 0x3
 5748 0053 08       		.uleb128 0x8
 5749 0054 1C       		.uleb128 0x1c
 5750 0055 0D       		.uleb128 0xd
 5751 0056 00       		.byte	0
 5752 0057 00       		.byte	0
 5753 0058 08       		.uleb128 0x8
 5754 0059 01       		.uleb128 0x1
 5755 005a 01       		.byte	0x1
 5756 005b 49       		.uleb128 0x49
 5757 005c 13       		.uleb128 0x13
ARM GAS  /tmp/ccjsfSlY.s 			page 132


 5758 005d 01       		.uleb128 0x1
 5759 005e 13       		.uleb128 0x13
 5760 005f 00       		.byte	0
 5761 0060 00       		.byte	0
 5762 0061 09       		.uleb128 0x9
 5763 0062 21       		.uleb128 0x21
 5764 0063 00       		.byte	0
 5765 0064 49       		.uleb128 0x49
 5766 0065 13       		.uleb128 0x13
 5767 0066 2F       		.uleb128 0x2f
 5768 0067 0B       		.uleb128 0xb
 5769 0068 00       		.byte	0
 5770 0069 00       		.byte	0
 5771 006a 0A       		.uleb128 0xa
 5772 006b 26       		.uleb128 0x26
 5773 006c 00       		.byte	0
 5774 006d 49       		.uleb128 0x49
 5775 006e 13       		.uleb128 0x13
 5776 006f 00       		.byte	0
 5777 0070 00       		.byte	0
 5778 0071 0B       		.uleb128 0xb
 5779 0072 35       		.uleb128 0x35
 5780 0073 00       		.byte	0
 5781 0074 49       		.uleb128 0x49
 5782 0075 13       		.uleb128 0x13
 5783 0076 00       		.byte	0
 5784 0077 00       		.byte	0
 5785 0078 0C       		.uleb128 0xc
 5786 0079 13       		.uleb128 0x13
 5787 007a 01       		.byte	0x1
 5788 007b 0B       		.uleb128 0xb
 5789 007c 05       		.uleb128 0x5
 5790 007d 3A       		.uleb128 0x3a
 5791 007e 0B       		.uleb128 0xb
 5792 007f 3B       		.uleb128 0x3b
 5793 0080 0B       		.uleb128 0xb
 5794 0081 01       		.uleb128 0x1
 5795 0082 13       		.uleb128 0x13
 5796 0083 00       		.byte	0
 5797 0084 00       		.byte	0
 5798 0085 0D       		.uleb128 0xd
 5799 0086 0D       		.uleb128 0xd
 5800 0087 00       		.byte	0
 5801 0088 03       		.uleb128 0x3
 5802 0089 0E       		.uleb128 0xe
 5803 008a 3A       		.uleb128 0x3a
 5804 008b 0B       		.uleb128 0xb
 5805 008c 3B       		.uleb128 0x3b
 5806 008d 0B       		.uleb128 0xb
 5807 008e 49       		.uleb128 0x49
 5808 008f 13       		.uleb128 0x13
 5809 0090 38       		.uleb128 0x38
 5810 0091 0B       		.uleb128 0xb
 5811 0092 00       		.byte	0
 5812 0093 00       		.byte	0
 5813 0094 0E       		.uleb128 0xe
 5814 0095 0D       		.uleb128 0xd
ARM GAS  /tmp/ccjsfSlY.s 			page 133


 5815 0096 00       		.byte	0
 5816 0097 03       		.uleb128 0x3
 5817 0098 0E       		.uleb128 0xe
 5818 0099 3A       		.uleb128 0x3a
 5819 009a 0B       		.uleb128 0xb
 5820 009b 3B       		.uleb128 0x3b
 5821 009c 0B       		.uleb128 0xb
 5822 009d 49       		.uleb128 0x49
 5823 009e 13       		.uleb128 0x13
 5824 009f 38       		.uleb128 0x38
 5825 00a0 05       		.uleb128 0x5
 5826 00a1 00       		.byte	0
 5827 00a2 00       		.byte	0
 5828 00a3 0F       		.uleb128 0xf
 5829 00a4 04       		.uleb128 0x4
 5830 00a5 01       		.byte	0x1
 5831 00a6 03       		.uleb128 0x3
 5832 00a7 0E       		.uleb128 0xe
 5833 00a8 0B       		.uleb128 0xb
 5834 00a9 0B       		.uleb128 0xb
 5835 00aa 3A       		.uleb128 0x3a
 5836 00ab 0B       		.uleb128 0xb
 5837 00ac 3B       		.uleb128 0x3b
 5838 00ad 0B       		.uleb128 0xb
 5839 00ae 01       		.uleb128 0x1
 5840 00af 13       		.uleb128 0x13
 5841 00b0 00       		.byte	0
 5842 00b1 00       		.byte	0
 5843 00b2 10       		.uleb128 0x10
 5844 00b3 16       		.uleb128 0x16
 5845 00b4 00       		.byte	0
 5846 00b5 03       		.uleb128 0x3
 5847 00b6 0E       		.uleb128 0xe
 5848 00b7 3A       		.uleb128 0x3a
 5849 00b8 0B       		.uleb128 0xb
 5850 00b9 3B       		.uleb128 0x3b
 5851 00ba 05       		.uleb128 0x5
 5852 00bb 49       		.uleb128 0x49
 5853 00bc 13       		.uleb128 0x13
 5854 00bd 00       		.byte	0
 5855 00be 00       		.byte	0
 5856 00bf 11       		.uleb128 0x11
 5857 00c0 0F       		.uleb128 0xf
 5858 00c1 00       		.byte	0
 5859 00c2 0B       		.uleb128 0xb
 5860 00c3 0B       		.uleb128 0xb
 5861 00c4 00       		.byte	0
 5862 00c5 00       		.byte	0
 5863 00c6 12       		.uleb128 0x12
 5864 00c7 13       		.uleb128 0x13
 5865 00c8 01       		.byte	0x1
 5866 00c9 0B       		.uleb128 0xb
 5867 00ca 0B       		.uleb128 0xb
 5868 00cb 3A       		.uleb128 0x3a
 5869 00cc 0B       		.uleb128 0xb
 5870 00cd 3B       		.uleb128 0x3b
 5871 00ce 0B       		.uleb128 0xb
ARM GAS  /tmp/ccjsfSlY.s 			page 134


 5872 00cf 01       		.uleb128 0x1
 5873 00d0 13       		.uleb128 0x13
 5874 00d1 00       		.byte	0
 5875 00d2 00       		.byte	0
 5876 00d3 13       		.uleb128 0x13
 5877 00d4 0D       		.uleb128 0xd
 5878 00d5 00       		.byte	0
 5879 00d6 03       		.uleb128 0x3
 5880 00d7 08       		.uleb128 0x8
 5881 00d8 3A       		.uleb128 0x3a
 5882 00d9 0B       		.uleb128 0xb
 5883 00da 3B       		.uleb128 0x3b
 5884 00db 0B       		.uleb128 0xb
 5885 00dc 49       		.uleb128 0x49
 5886 00dd 13       		.uleb128 0x13
 5887 00de 38       		.uleb128 0x38
 5888 00df 0B       		.uleb128 0xb
 5889 00e0 00       		.byte	0
 5890 00e1 00       		.byte	0
 5891 00e2 14       		.uleb128 0x14
 5892 00e3 04       		.uleb128 0x4
 5893 00e4 01       		.byte	0x1
 5894 00e5 03       		.uleb128 0x3
 5895 00e6 0E       		.uleb128 0xe
 5896 00e7 0B       		.uleb128 0xb
 5897 00e8 0B       		.uleb128 0xb
 5898 00e9 3A       		.uleb128 0x3a
 5899 00ea 0B       		.uleb128 0xb
 5900 00eb 3B       		.uleb128 0x3b
 5901 00ec 05       		.uleb128 0x5
 5902 00ed 01       		.uleb128 0x1
 5903 00ee 13       		.uleb128 0x13
 5904 00ef 00       		.byte	0
 5905 00f0 00       		.byte	0
 5906 00f1 15       		.uleb128 0x15
 5907 00f2 13       		.uleb128 0x13
 5908 00f3 01       		.byte	0x1
 5909 00f4 0B       		.uleb128 0xb
 5910 00f5 0B       		.uleb128 0xb
 5911 00f6 3A       		.uleb128 0x3a
 5912 00f7 0B       		.uleb128 0xb
 5913 00f8 3B       		.uleb128 0x3b
 5914 00f9 05       		.uleb128 0x5
 5915 00fa 01       		.uleb128 0x1
 5916 00fb 13       		.uleb128 0x13
 5917 00fc 00       		.byte	0
 5918 00fd 00       		.byte	0
 5919 00fe 16       		.uleb128 0x16
 5920 00ff 0D       		.uleb128 0xd
 5921 0100 00       		.byte	0
 5922 0101 03       		.uleb128 0x3
 5923 0102 0E       		.uleb128 0xe
 5924 0103 3A       		.uleb128 0x3a
 5925 0104 0B       		.uleb128 0xb
 5926 0105 3B       		.uleb128 0x3b
 5927 0106 05       		.uleb128 0x5
 5928 0107 49       		.uleb128 0x49
ARM GAS  /tmp/ccjsfSlY.s 			page 135


 5929 0108 13       		.uleb128 0x13
 5930 0109 38       		.uleb128 0x38
 5931 010a 0B       		.uleb128 0xb
 5932 010b 00       		.byte	0
 5933 010c 00       		.byte	0
 5934 010d 17       		.uleb128 0x17
 5935 010e 0F       		.uleb128 0xf
 5936 010f 00       		.byte	0
 5937 0110 0B       		.uleb128 0xb
 5938 0111 0B       		.uleb128 0xb
 5939 0112 49       		.uleb128 0x49
 5940 0113 13       		.uleb128 0x13
 5941 0114 00       		.byte	0
 5942 0115 00       		.byte	0
 5943 0116 18       		.uleb128 0x18
 5944 0117 2E       		.uleb128 0x2e
 5945 0118 01       		.byte	0x1
 5946 0119 03       		.uleb128 0x3
 5947 011a 0E       		.uleb128 0xe
 5948 011b 3A       		.uleb128 0x3a
 5949 011c 0B       		.uleb128 0xb
 5950 011d 3B       		.uleb128 0x3b
 5951 011e 0B       		.uleb128 0xb
 5952 011f 27       		.uleb128 0x27
 5953 0120 19       		.uleb128 0x19
 5954 0121 20       		.uleb128 0x20
 5955 0122 0B       		.uleb128 0xb
 5956 0123 01       		.uleb128 0x1
 5957 0124 13       		.uleb128 0x13
 5958 0125 00       		.byte	0
 5959 0126 00       		.byte	0
 5960 0127 19       		.uleb128 0x19
 5961 0128 05       		.uleb128 0x5
 5962 0129 00       		.byte	0
 5963 012a 03       		.uleb128 0x3
 5964 012b 0E       		.uleb128 0xe
 5965 012c 3A       		.uleb128 0x3a
 5966 012d 0B       		.uleb128 0xb
 5967 012e 3B       		.uleb128 0x3b
 5968 012f 0B       		.uleb128 0xb
 5969 0130 49       		.uleb128 0x49
 5970 0131 13       		.uleb128 0x13
 5971 0132 00       		.byte	0
 5972 0133 00       		.byte	0
 5973 0134 1A       		.uleb128 0x1a
 5974 0135 2E       		.uleb128 0x2e
 5975 0136 01       		.byte	0x1
 5976 0137 03       		.uleb128 0x3
 5977 0138 0E       		.uleb128 0xe
 5978 0139 3A       		.uleb128 0x3a
 5979 013a 0B       		.uleb128 0xb
 5980 013b 3B       		.uleb128 0x3b
 5981 013c 05       		.uleb128 0x5
 5982 013d 27       		.uleb128 0x27
 5983 013e 19       		.uleb128 0x19
 5984 013f 20       		.uleb128 0x20
 5985 0140 0B       		.uleb128 0xb
ARM GAS  /tmp/ccjsfSlY.s 			page 136


 5986 0141 01       		.uleb128 0x1
 5987 0142 13       		.uleb128 0x13
 5988 0143 00       		.byte	0
 5989 0144 00       		.byte	0
 5990 0145 1B       		.uleb128 0x1b
 5991 0146 05       		.uleb128 0x5
 5992 0147 00       		.byte	0
 5993 0148 03       		.uleb128 0x3
 5994 0149 0E       		.uleb128 0xe
 5995 014a 3A       		.uleb128 0x3a
 5996 014b 0B       		.uleb128 0xb
 5997 014c 3B       		.uleb128 0x3b
 5998 014d 05       		.uleb128 0x5
 5999 014e 49       		.uleb128 0x49
 6000 014f 13       		.uleb128 0x13
 6001 0150 00       		.byte	0
 6002 0151 00       		.byte	0
 6003 0152 1C       		.uleb128 0x1c
 6004 0153 2E       		.uleb128 0x2e
 6005 0154 01       		.byte	0x1
 6006 0155 03       		.uleb128 0x3
 6007 0156 0E       		.uleb128 0xe
 6008 0157 3A       		.uleb128 0x3a
 6009 0158 0B       		.uleb128 0xb
 6010 0159 3B       		.uleb128 0x3b
 6011 015a 05       		.uleb128 0x5
 6012 015b 27       		.uleb128 0x27
 6013 015c 19       		.uleb128 0x19
 6014 015d 49       		.uleb128 0x49
 6015 015e 13       		.uleb128 0x13
 6016 015f 20       		.uleb128 0x20
 6017 0160 0B       		.uleb128 0xb
 6018 0161 01       		.uleb128 0x1
 6019 0162 13       		.uleb128 0x13
 6020 0163 00       		.byte	0
 6021 0164 00       		.byte	0
 6022 0165 1D       		.uleb128 0x1d
 6023 0166 05       		.uleb128 0x5
 6024 0167 00       		.byte	0
 6025 0168 03       		.uleb128 0x3
 6026 0169 08       		.uleb128 0x8
 6027 016a 3A       		.uleb128 0x3a
 6028 016b 0B       		.uleb128 0xb
 6029 016c 3B       		.uleb128 0x3b
 6030 016d 05       		.uleb128 0x5
 6031 016e 49       		.uleb128 0x49
 6032 016f 13       		.uleb128 0x13
 6033 0170 00       		.byte	0
 6034 0171 00       		.byte	0
 6035 0172 1E       		.uleb128 0x1e
 6036 0173 2E       		.uleb128 0x2e
 6037 0174 00       		.byte	0
 6038 0175 03       		.uleb128 0x3
 6039 0176 0E       		.uleb128 0xe
 6040 0177 3A       		.uleb128 0x3a
 6041 0178 0B       		.uleb128 0xb
 6042 0179 3B       		.uleb128 0x3b
ARM GAS  /tmp/ccjsfSlY.s 			page 137


 6043 017a 05       		.uleb128 0x5
 6044 017b 27       		.uleb128 0x27
 6045 017c 19       		.uleb128 0x19
 6046 017d 49       		.uleb128 0x49
 6047 017e 13       		.uleb128 0x13
 6048 017f 20       		.uleb128 0x20
 6049 0180 0B       		.uleb128 0xb
 6050 0181 00       		.byte	0
 6051 0182 00       		.byte	0
 6052 0183 1F       		.uleb128 0x1f
 6053 0184 34       		.uleb128 0x34
 6054 0185 00       		.byte	0
 6055 0186 03       		.uleb128 0x3
 6056 0187 0E       		.uleb128 0xe
 6057 0188 3A       		.uleb128 0x3a
 6058 0189 0B       		.uleb128 0xb
 6059 018a 3B       		.uleb128 0x3b
 6060 018b 0B       		.uleb128 0xb
 6061 018c 49       		.uleb128 0x49
 6062 018d 13       		.uleb128 0x13
 6063 018e 00       		.byte	0
 6064 018f 00       		.byte	0
 6065 0190 20       		.uleb128 0x20
 6066 0191 2E       		.uleb128 0x2e
 6067 0192 01       		.byte	0x1
 6068 0193 03       		.uleb128 0x3
 6069 0194 0E       		.uleb128 0xe
 6070 0195 3A       		.uleb128 0x3a
 6071 0196 0B       		.uleb128 0xb
 6072 0197 3B       		.uleb128 0x3b
 6073 0198 0B       		.uleb128 0xb
 6074 0199 27       		.uleb128 0x27
 6075 019a 19       		.uleb128 0x19
 6076 019b 49       		.uleb128 0x49
 6077 019c 13       		.uleb128 0x13
 6078 019d 20       		.uleb128 0x20
 6079 019e 0B       		.uleb128 0xb
 6080 019f 01       		.uleb128 0x1
 6081 01a0 13       		.uleb128 0x13
 6082 01a1 00       		.byte	0
 6083 01a2 00       		.byte	0
 6084 01a3 21       		.uleb128 0x21
 6085 01a4 2E       		.uleb128 0x2e
 6086 01a5 01       		.byte	0x1
 6087 01a6 3F       		.uleb128 0x3f
 6088 01a7 19       		.uleb128 0x19
 6089 01a8 03       		.uleb128 0x3
 6090 01a9 0E       		.uleb128 0xe
 6091 01aa 3A       		.uleb128 0x3a
 6092 01ab 0B       		.uleb128 0xb
 6093 01ac 3B       		.uleb128 0x3b
 6094 01ad 0B       		.uleb128 0xb
 6095 01ae 27       		.uleb128 0x27
 6096 01af 19       		.uleb128 0x19
 6097 01b0 20       		.uleb128 0x20
 6098 01b1 0B       		.uleb128 0xb
 6099 01b2 01       		.uleb128 0x1
ARM GAS  /tmp/ccjsfSlY.s 			page 138


 6100 01b3 13       		.uleb128 0x13
 6101 01b4 00       		.byte	0
 6102 01b5 00       		.byte	0
 6103 01b6 22       		.uleb128 0x22
 6104 01b7 05       		.uleb128 0x5
 6105 01b8 00       		.byte	0
 6106 01b9 03       		.uleb128 0x3
 6107 01ba 08       		.uleb128 0x8
 6108 01bb 3A       		.uleb128 0x3a
 6109 01bc 0B       		.uleb128 0xb
 6110 01bd 3B       		.uleb128 0x3b
 6111 01be 0B       		.uleb128 0xb
 6112 01bf 49       		.uleb128 0x49
 6113 01c0 13       		.uleb128 0x13
 6114 01c1 00       		.byte	0
 6115 01c2 00       		.byte	0
 6116 01c3 23       		.uleb128 0x23
 6117 01c4 2E       		.uleb128 0x2e
 6118 01c5 01       		.byte	0x1
 6119 01c6 03       		.uleb128 0x3
 6120 01c7 0E       		.uleb128 0xe
 6121 01c8 3A       		.uleb128 0x3a
 6122 01c9 0B       		.uleb128 0xb
 6123 01ca 3B       		.uleb128 0x3b
 6124 01cb 0B       		.uleb128 0xb
 6125 01cc 27       		.uleb128 0x27
 6126 01cd 19       		.uleb128 0x19
 6127 01ce 11       		.uleb128 0x11
 6128 01cf 01       		.uleb128 0x1
 6129 01d0 12       		.uleb128 0x12
 6130 01d1 06       		.uleb128 0x6
 6131 01d2 40       		.uleb128 0x40
 6132 01d3 18       		.uleb128 0x18
 6133 01d4 9742     		.uleb128 0x2117
 6134 01d6 19       		.uleb128 0x19
 6135 01d7 01       		.uleb128 0x1
 6136 01d8 13       		.uleb128 0x13
 6137 01d9 00       		.byte	0
 6138 01da 00       		.byte	0
 6139 01db 24       		.uleb128 0x24
 6140 01dc 05       		.uleb128 0x5
 6141 01dd 00       		.byte	0
 6142 01de 03       		.uleb128 0x3
 6143 01df 0E       		.uleb128 0xe
 6144 01e0 3A       		.uleb128 0x3a
 6145 01e1 0B       		.uleb128 0xb
 6146 01e2 3B       		.uleb128 0x3b
 6147 01e3 0B       		.uleb128 0xb
 6148 01e4 49       		.uleb128 0x49
 6149 01e5 13       		.uleb128 0x13
 6150 01e6 02       		.uleb128 0x2
 6151 01e7 18       		.uleb128 0x18
 6152 01e8 00       		.byte	0
 6153 01e9 00       		.byte	0
 6154 01ea 25       		.uleb128 0x25
 6155 01eb 1D       		.uleb128 0x1d
 6156 01ec 01       		.byte	0x1
ARM GAS  /tmp/ccjsfSlY.s 			page 139


 6157 01ed 31       		.uleb128 0x31
 6158 01ee 13       		.uleb128 0x13
 6159 01ef 52       		.uleb128 0x52
 6160 01f0 01       		.uleb128 0x1
 6161 01f1 55       		.uleb128 0x55
 6162 01f2 17       		.uleb128 0x17
 6163 01f3 58       		.uleb128 0x58
 6164 01f4 0B       		.uleb128 0xb
 6165 01f5 59       		.uleb128 0x59
 6166 01f6 0B       		.uleb128 0xb
 6167 01f7 01       		.uleb128 0x1
 6168 01f8 13       		.uleb128 0x13
 6169 01f9 00       		.byte	0
 6170 01fa 00       		.byte	0
 6171 01fb 26       		.uleb128 0x26
 6172 01fc 05       		.uleb128 0x5
 6173 01fd 00       		.byte	0
 6174 01fe 31       		.uleb128 0x31
 6175 01ff 13       		.uleb128 0x13
 6176 0200 1C       		.uleb128 0x1c
 6177 0201 0B       		.uleb128 0xb
 6178 0202 00       		.byte	0
 6179 0203 00       		.byte	0
 6180 0204 27       		.uleb128 0x27
 6181 0205 05       		.uleb128 0x5
 6182 0206 00       		.byte	0
 6183 0207 31       		.uleb128 0x31
 6184 0208 13       		.uleb128 0x13
 6185 0209 02       		.uleb128 0x2
 6186 020a 18       		.uleb128 0x18
 6187 020b 00       		.byte	0
 6188 020c 00       		.byte	0
 6189 020d 28       		.uleb128 0x28
 6190 020e 1D       		.uleb128 0x1d
 6191 020f 01       		.byte	0x1
 6192 0210 31       		.uleb128 0x31
 6193 0211 13       		.uleb128 0x13
 6194 0212 11       		.uleb128 0x11
 6195 0213 01       		.uleb128 0x1
 6196 0214 12       		.uleb128 0x12
 6197 0215 06       		.uleb128 0x6
 6198 0216 58       		.uleb128 0x58
 6199 0217 0B       		.uleb128 0xb
 6200 0218 59       		.uleb128 0x59
 6201 0219 0B       		.uleb128 0xb
 6202 021a 00       		.byte	0
 6203 021b 00       		.byte	0
 6204 021c 29       		.uleb128 0x29
 6205 021d 05       		.uleb128 0x5
 6206 021e 00       		.byte	0
 6207 021f 31       		.uleb128 0x31
 6208 0220 13       		.uleb128 0x13
 6209 0221 02       		.uleb128 0x2
 6210 0222 17       		.uleb128 0x17
 6211 0223 00       		.byte	0
 6212 0224 00       		.byte	0
 6213 0225 2A       		.uleb128 0x2a
ARM GAS  /tmp/ccjsfSlY.s 			page 140


 6214 0226 2E       		.uleb128 0x2e
 6215 0227 01       		.byte	0x1
 6216 0228 31       		.uleb128 0x31
 6217 0229 13       		.uleb128 0x13
 6218 022a 11       		.uleb128 0x11
 6219 022b 01       		.uleb128 0x1
 6220 022c 12       		.uleb128 0x12
 6221 022d 06       		.uleb128 0x6
 6222 022e 40       		.uleb128 0x40
 6223 022f 18       		.uleb128 0x18
 6224 0230 9742     		.uleb128 0x2117
 6225 0232 19       		.uleb128 0x19
 6226 0233 01       		.uleb128 0x1
 6227 0234 13       		.uleb128 0x13
 6228 0235 00       		.byte	0
 6229 0236 00       		.byte	0
 6230 0237 2B       		.uleb128 0x2b
 6231 0238 34       		.uleb128 0x34
 6232 0239 00       		.byte	0
 6233 023a 31       		.uleb128 0x31
 6234 023b 13       		.uleb128 0x13
 6235 023c 02       		.uleb128 0x2
 6236 023d 17       		.uleb128 0x17
 6237 023e 00       		.byte	0
 6238 023f 00       		.byte	0
 6239 0240 2C       		.uleb128 0x2c
 6240 0241 2E       		.uleb128 0x2e
 6241 0242 01       		.byte	0x1
 6242 0243 3F       		.uleb128 0x3f
 6243 0244 19       		.uleb128 0x19
 6244 0245 03       		.uleb128 0x3
 6245 0246 0E       		.uleb128 0xe
 6246 0247 3A       		.uleb128 0x3a
 6247 0248 0B       		.uleb128 0xb
 6248 0249 3B       		.uleb128 0x3b
 6249 024a 0B       		.uleb128 0xb
 6250 024b 27       		.uleb128 0x27
 6251 024c 19       		.uleb128 0x19
 6252 024d 49       		.uleb128 0x49
 6253 024e 13       		.uleb128 0x13
 6254 024f 11       		.uleb128 0x11
 6255 0250 01       		.uleb128 0x1
 6256 0251 12       		.uleb128 0x12
 6257 0252 06       		.uleb128 0x6
 6258 0253 40       		.uleb128 0x40
 6259 0254 18       		.uleb128 0x18
 6260 0255 9742     		.uleb128 0x2117
 6261 0257 19       		.uleb128 0x19
 6262 0258 01       		.uleb128 0x1
 6263 0259 13       		.uleb128 0x13
 6264 025a 00       		.byte	0
 6265 025b 00       		.byte	0
 6266 025c 2D       		.uleb128 0x2d
 6267 025d 05       		.uleb128 0x5
 6268 025e 00       		.byte	0
 6269 025f 03       		.uleb128 0x3
 6270 0260 0E       		.uleb128 0xe
ARM GAS  /tmp/ccjsfSlY.s 			page 141


 6271 0261 3A       		.uleb128 0x3a
 6272 0262 0B       		.uleb128 0xb
 6273 0263 3B       		.uleb128 0x3b
 6274 0264 0B       		.uleb128 0xb
 6275 0265 49       		.uleb128 0x49
 6276 0266 13       		.uleb128 0x13
 6277 0267 02       		.uleb128 0x2
 6278 0268 17       		.uleb128 0x17
 6279 0269 00       		.byte	0
 6280 026a 00       		.byte	0
 6281 026b 2E       		.uleb128 0x2e
 6282 026c 1D       		.uleb128 0x1d
 6283 026d 01       		.byte	0x1
 6284 026e 31       		.uleb128 0x31
 6285 026f 13       		.uleb128 0x13
 6286 0270 11       		.uleb128 0x11
 6287 0271 01       		.uleb128 0x1
 6288 0272 12       		.uleb128 0x12
 6289 0273 06       		.uleb128 0x6
 6290 0274 58       		.uleb128 0x58
 6291 0275 0B       		.uleb128 0xb
 6292 0276 59       		.uleb128 0x59
 6293 0277 0B       		.uleb128 0xb
 6294 0278 01       		.uleb128 0x1
 6295 0279 13       		.uleb128 0x13
 6296 027a 00       		.byte	0
 6297 027b 00       		.byte	0
 6298 027c 2F       		.uleb128 0x2f
 6299 027d 05       		.uleb128 0x5
 6300 027e 00       		.byte	0
 6301 027f 31       		.uleb128 0x31
 6302 0280 13       		.uleb128 0x13
 6303 0281 00       		.byte	0
 6304 0282 00       		.byte	0
 6305 0283 30       		.uleb128 0x30
 6306 0284 0B       		.uleb128 0xb
 6307 0285 01       		.byte	0x1
 6308 0286 55       		.uleb128 0x55
 6309 0287 17       		.uleb128 0x17
 6310 0288 00       		.byte	0
 6311 0289 00       		.byte	0
 6312 028a 31       		.uleb128 0x31
 6313 028b 34       		.uleb128 0x34
 6314 028c 00       		.byte	0
 6315 028d 31       		.uleb128 0x31
 6316 028e 13       		.uleb128 0x13
 6317 028f 00       		.byte	0
 6318 0290 00       		.byte	0
 6319 0291 32       		.uleb128 0x32
 6320 0292 898201   		.uleb128 0x4109
 6321 0295 01       		.byte	0x1
 6322 0296 11       		.uleb128 0x11
 6323 0297 01       		.uleb128 0x1
 6324 0298 31       		.uleb128 0x31
 6325 0299 13       		.uleb128 0x13
 6326 029a 00       		.byte	0
 6327 029b 00       		.byte	0
ARM GAS  /tmp/ccjsfSlY.s 			page 142


 6328 029c 33       		.uleb128 0x33
 6329 029d 8A8201   		.uleb128 0x410a
 6330 02a0 00       		.byte	0
 6331 02a1 02       		.uleb128 0x2
 6332 02a2 18       		.uleb128 0x18
 6333 02a3 9142     		.uleb128 0x2111
 6334 02a5 18       		.uleb128 0x18
 6335 02a6 00       		.byte	0
 6336 02a7 00       		.byte	0
 6337 02a8 34       		.uleb128 0x34
 6338 02a9 34       		.uleb128 0x34
 6339 02aa 00       		.byte	0
 6340 02ab 03       		.uleb128 0x3
 6341 02ac 0E       		.uleb128 0xe
 6342 02ad 3A       		.uleb128 0x3a
 6343 02ae 0B       		.uleb128 0xb
 6344 02af 3B       		.uleb128 0x3b
 6345 02b0 0B       		.uleb128 0xb
 6346 02b1 49       		.uleb128 0x49
 6347 02b2 13       		.uleb128 0x13
 6348 02b3 02       		.uleb128 0x2
 6349 02b4 17       		.uleb128 0x17
 6350 02b5 00       		.byte	0
 6351 02b6 00       		.byte	0
 6352 02b7 35       		.uleb128 0x35
 6353 02b8 0B       		.uleb128 0xb
 6354 02b9 01       		.byte	0x1
 6355 02ba 55       		.uleb128 0x55
 6356 02bb 17       		.uleb128 0x17
 6357 02bc 01       		.uleb128 0x1
 6358 02bd 13       		.uleb128 0x13
 6359 02be 00       		.byte	0
 6360 02bf 00       		.byte	0
 6361 02c0 36       		.uleb128 0x36
 6362 02c1 34       		.uleb128 0x34
 6363 02c2 00       		.byte	0
 6364 02c3 03       		.uleb128 0x3
 6365 02c4 0E       		.uleb128 0xe
 6366 02c5 3A       		.uleb128 0x3a
 6367 02c6 0B       		.uleb128 0xb
 6368 02c7 3B       		.uleb128 0x3b
 6369 02c8 05       		.uleb128 0x5
 6370 02c9 49       		.uleb128 0x49
 6371 02ca 13       		.uleb128 0x13
 6372 02cb 02       		.uleb128 0x2
 6373 02cc 17       		.uleb128 0x17
 6374 02cd 00       		.byte	0
 6375 02ce 00       		.byte	0
 6376 02cf 37       		.uleb128 0x37
 6377 02d0 1D       		.uleb128 0x1d
 6378 02d1 01       		.byte	0x1
 6379 02d2 31       		.uleb128 0x31
 6380 02d3 13       		.uleb128 0x13
 6381 02d4 52       		.uleb128 0x52
 6382 02d5 01       		.uleb128 0x1
 6383 02d6 55       		.uleb128 0x55
 6384 02d7 17       		.uleb128 0x17
ARM GAS  /tmp/ccjsfSlY.s 			page 143


 6385 02d8 58       		.uleb128 0x58
 6386 02d9 0B       		.uleb128 0xb
 6387 02da 59       		.uleb128 0x59
 6388 02db 05       		.uleb128 0x5
 6389 02dc 01       		.uleb128 0x1
 6390 02dd 13       		.uleb128 0x13
 6391 02de 00       		.byte	0
 6392 02df 00       		.byte	0
 6393 02e0 38       		.uleb128 0x38
 6394 02e1 1D       		.uleb128 0x1d
 6395 02e2 01       		.byte	0x1
 6396 02e3 31       		.uleb128 0x31
 6397 02e4 13       		.uleb128 0x13
 6398 02e5 11       		.uleb128 0x11
 6399 02e6 01       		.uleb128 0x1
 6400 02e7 12       		.uleb128 0x12
 6401 02e8 06       		.uleb128 0x6
 6402 02e9 58       		.uleb128 0x58
 6403 02ea 0B       		.uleb128 0xb
 6404 02eb 59       		.uleb128 0x59
 6405 02ec 05       		.uleb128 0x5
 6406 02ed 01       		.uleb128 0x1
 6407 02ee 13       		.uleb128 0x13
 6408 02ef 00       		.byte	0
 6409 02f0 00       		.byte	0
 6410 02f1 39       		.uleb128 0x39
 6411 02f2 1D       		.uleb128 0x1d
 6412 02f3 01       		.byte	0x1
 6413 02f4 31       		.uleb128 0x31
 6414 02f5 13       		.uleb128 0x13
 6415 02f6 52       		.uleb128 0x52
 6416 02f7 01       		.uleb128 0x1
 6417 02f8 55       		.uleb128 0x55
 6418 02f9 17       		.uleb128 0x17
 6419 02fa 58       		.uleb128 0x58
 6420 02fb 0B       		.uleb128 0xb
 6421 02fc 59       		.uleb128 0x59
 6422 02fd 05       		.uleb128 0x5
 6423 02fe 00       		.byte	0
 6424 02ff 00       		.byte	0
 6425 0300 3A       		.uleb128 0x3a
 6426 0301 1D       		.uleb128 0x1d
 6427 0302 01       		.byte	0x1
 6428 0303 31       		.uleb128 0x31
 6429 0304 13       		.uleb128 0x13
 6430 0305 52       		.uleb128 0x52
 6431 0306 01       		.uleb128 0x1
 6432 0307 55       		.uleb128 0x55
 6433 0308 17       		.uleb128 0x17
 6434 0309 58       		.uleb128 0x58
 6435 030a 0B       		.uleb128 0xb
 6436 030b 59       		.uleb128 0x59
 6437 030c 0B       		.uleb128 0xb
 6438 030d 00       		.byte	0
 6439 030e 00       		.byte	0
 6440 030f 3B       		.uleb128 0x3b
 6441 0310 2E       		.uleb128 0x2e
ARM GAS  /tmp/ccjsfSlY.s 			page 144


 6442 0311 01       		.byte	0x1
 6443 0312 3F       		.uleb128 0x3f
 6444 0313 19       		.uleb128 0x19
 6445 0314 03       		.uleb128 0x3
 6446 0315 0E       		.uleb128 0xe
 6447 0316 3A       		.uleb128 0x3a
 6448 0317 0B       		.uleb128 0xb
 6449 0318 3B       		.uleb128 0x3b
 6450 0319 05       		.uleb128 0x5
 6451 031a 27       		.uleb128 0x27
 6452 031b 19       		.uleb128 0x19
 6453 031c 49       		.uleb128 0x49
 6454 031d 13       		.uleb128 0x13
 6455 031e 11       		.uleb128 0x11
 6456 031f 01       		.uleb128 0x1
 6457 0320 12       		.uleb128 0x12
 6458 0321 06       		.uleb128 0x6
 6459 0322 40       		.uleb128 0x40
 6460 0323 18       		.uleb128 0x18
 6461 0324 9742     		.uleb128 0x2117
 6462 0326 19       		.uleb128 0x19
 6463 0327 01       		.uleb128 0x1
 6464 0328 13       		.uleb128 0x13
 6465 0329 00       		.byte	0
 6466 032a 00       		.byte	0
 6467 032b 3C       		.uleb128 0x3c
 6468 032c 05       		.uleb128 0x5
 6469 032d 00       		.byte	0
 6470 032e 03       		.uleb128 0x3
 6471 032f 0E       		.uleb128 0xe
 6472 0330 3A       		.uleb128 0x3a
 6473 0331 0B       		.uleb128 0xb
 6474 0332 3B       		.uleb128 0x3b
 6475 0333 05       		.uleb128 0x5
 6476 0334 49       		.uleb128 0x49
 6477 0335 13       		.uleb128 0x13
 6478 0336 02       		.uleb128 0x2
 6479 0337 17       		.uleb128 0x17
 6480 0338 00       		.byte	0
 6481 0339 00       		.byte	0
 6482 033a 3D       		.uleb128 0x3d
 6483 033b 05       		.uleb128 0x5
 6484 033c 00       		.byte	0
 6485 033d 03       		.uleb128 0x3
 6486 033e 0E       		.uleb128 0xe
 6487 033f 3A       		.uleb128 0x3a
 6488 0340 0B       		.uleb128 0xb
 6489 0341 3B       		.uleb128 0x3b
 6490 0342 05       		.uleb128 0x5
 6491 0343 49       		.uleb128 0x49
 6492 0344 13       		.uleb128 0x13
 6493 0345 02       		.uleb128 0x2
 6494 0346 18       		.uleb128 0x18
 6495 0347 00       		.byte	0
 6496 0348 00       		.byte	0
 6497 0349 3E       		.uleb128 0x3e
 6498 034a 1D       		.uleb128 0x1d
ARM GAS  /tmp/ccjsfSlY.s 			page 145


 6499 034b 01       		.byte	0x1
 6500 034c 31       		.uleb128 0x31
 6501 034d 13       		.uleb128 0x13
 6502 034e 11       		.uleb128 0x11
 6503 034f 01       		.uleb128 0x1
 6504 0350 12       		.uleb128 0x12
 6505 0351 06       		.uleb128 0x6
 6506 0352 58       		.uleb128 0x58
 6507 0353 0B       		.uleb128 0xb
 6508 0354 59       		.uleb128 0x59
 6509 0355 05       		.uleb128 0x5
 6510 0356 00       		.byte	0
 6511 0357 00       		.byte	0
 6512 0358 3F       		.uleb128 0x3f
 6513 0359 2E       		.uleb128 0x2e
 6514 035a 01       		.byte	0x1
 6515 035b 3F       		.uleb128 0x3f
 6516 035c 19       		.uleb128 0x19
 6517 035d 03       		.uleb128 0x3
 6518 035e 0E       		.uleb128 0xe
 6519 035f 3A       		.uleb128 0x3a
 6520 0360 0B       		.uleb128 0xb
 6521 0361 3B       		.uleb128 0x3b
 6522 0362 05       		.uleb128 0x5
 6523 0363 27       		.uleb128 0x27
 6524 0364 19       		.uleb128 0x19
 6525 0365 11       		.uleb128 0x11
 6526 0366 01       		.uleb128 0x1
 6527 0367 12       		.uleb128 0x12
 6528 0368 06       		.uleb128 0x6
 6529 0369 40       		.uleb128 0x40
 6530 036a 18       		.uleb128 0x18
 6531 036b 9742     		.uleb128 0x2117
 6532 036d 19       		.uleb128 0x19
 6533 036e 01       		.uleb128 0x1
 6534 036f 13       		.uleb128 0x13
 6535 0370 00       		.byte	0
 6536 0371 00       		.byte	0
 6537 0372 40       		.uleb128 0x40
 6538 0373 898201   		.uleb128 0x4109
 6539 0376 01       		.byte	0x1
 6540 0377 11       		.uleb128 0x11
 6541 0378 01       		.uleb128 0x1
 6542 0379 31       		.uleb128 0x31
 6543 037a 13       		.uleb128 0x13
 6544 037b 01       		.uleb128 0x1
 6545 037c 13       		.uleb128 0x13
 6546 037d 00       		.byte	0
 6547 037e 00       		.byte	0
 6548 037f 41       		.uleb128 0x41
 6549 0380 0B       		.uleb128 0xb
 6550 0381 01       		.byte	0x1
 6551 0382 11       		.uleb128 0x11
 6552 0383 01       		.uleb128 0x1
 6553 0384 12       		.uleb128 0x12
 6554 0385 06       		.uleb128 0x6
 6555 0386 00       		.byte	0
ARM GAS  /tmp/ccjsfSlY.s 			page 146


 6556 0387 00       		.byte	0
 6557 0388 42       		.uleb128 0x42
 6558 0389 2E       		.uleb128 0x2e
 6559 038a 01       		.byte	0x1
 6560 038b 3F       		.uleb128 0x3f
 6561 038c 19       		.uleb128 0x19
 6562 038d 03       		.uleb128 0x3
 6563 038e 0E       		.uleb128 0xe
 6564 038f 3A       		.uleb128 0x3a
 6565 0390 0B       		.uleb128 0xb
 6566 0391 3B       		.uleb128 0x3b
 6567 0392 05       		.uleb128 0x5
 6568 0393 27       		.uleb128 0x27
 6569 0394 19       		.uleb128 0x19
 6570 0395 11       		.uleb128 0x11
 6571 0396 01       		.uleb128 0x1
 6572 0397 12       		.uleb128 0x12
 6573 0398 06       		.uleb128 0x6
 6574 0399 40       		.uleb128 0x40
 6575 039a 18       		.uleb128 0x18
 6576 039b 9642     		.uleb128 0x2116
 6577 039d 19       		.uleb128 0x19
 6578 039e 01       		.uleb128 0x1
 6579 039f 13       		.uleb128 0x13
 6580 03a0 00       		.byte	0
 6581 03a1 00       		.byte	0
 6582 03a2 43       		.uleb128 0x43
 6583 03a3 34       		.uleb128 0x34
 6584 03a4 00       		.byte	0
 6585 03a5 03       		.uleb128 0x3
 6586 03a6 0E       		.uleb128 0xe
 6587 03a7 3A       		.uleb128 0x3a
 6588 03a8 0B       		.uleb128 0xb
 6589 03a9 3B       		.uleb128 0x3b
 6590 03aa 05       		.uleb128 0x5
 6591 03ab 49       		.uleb128 0x49
 6592 03ac 13       		.uleb128 0x13
 6593 03ad 02       		.uleb128 0x2
 6594 03ae 18       		.uleb128 0x18
 6595 03af 00       		.byte	0
 6596 03b0 00       		.byte	0
 6597 03b1 44       		.uleb128 0x44
 6598 03b2 1D       		.uleb128 0x1d
 6599 03b3 00       		.byte	0
 6600 03b4 31       		.uleb128 0x31
 6601 03b5 13       		.uleb128 0x13
 6602 03b6 11       		.uleb128 0x11
 6603 03b7 01       		.uleb128 0x1
 6604 03b8 12       		.uleb128 0x12
 6605 03b9 06       		.uleb128 0x6
 6606 03ba 58       		.uleb128 0x58
 6607 03bb 0B       		.uleb128 0xb
 6608 03bc 59       		.uleb128 0x59
 6609 03bd 0B       		.uleb128 0xb
 6610 03be 00       		.byte	0
 6611 03bf 00       		.byte	0
 6612 03c0 45       		.uleb128 0x45
ARM GAS  /tmp/ccjsfSlY.s 			page 147


 6613 03c1 898201   		.uleb128 0x4109
 6614 03c4 00       		.byte	0
 6615 03c5 11       		.uleb128 0x11
 6616 03c6 01       		.uleb128 0x1
 6617 03c7 31       		.uleb128 0x31
 6618 03c8 13       		.uleb128 0x13
 6619 03c9 00       		.byte	0
 6620 03ca 00       		.byte	0
 6621 03cb 46       		.uleb128 0x46
 6622 03cc 34       		.uleb128 0x34
 6623 03cd 00       		.byte	0
 6624 03ce 03       		.uleb128 0x3
 6625 03cf 0E       		.uleb128 0xe
 6626 03d0 3A       		.uleb128 0x3a
 6627 03d1 0B       		.uleb128 0xb
 6628 03d2 3B       		.uleb128 0x3b
 6629 03d3 0B       		.uleb128 0xb
 6630 03d4 49       		.uleb128 0x49
 6631 03d5 13       		.uleb128 0x13
 6632 03d6 3F       		.uleb128 0x3f
 6633 03d7 19       		.uleb128 0x19
 6634 03d8 3C       		.uleb128 0x3c
 6635 03d9 19       		.uleb128 0x19
 6636 03da 00       		.byte	0
 6637 03db 00       		.byte	0
 6638 03dc 47       		.uleb128 0x47
 6639 03dd 2E       		.uleb128 0x2e
 6640 03de 00       		.byte	0
 6641 03df 3F       		.uleb128 0x3f
 6642 03e0 19       		.uleb128 0x19
 6643 03e1 03       		.uleb128 0x3
 6644 03e2 0E       		.uleb128 0xe
 6645 03e3 3A       		.uleb128 0x3a
 6646 03e4 0B       		.uleb128 0xb
 6647 03e5 3B       		.uleb128 0x3b
 6648 03e6 05       		.uleb128 0x5
 6649 03e7 27       		.uleb128 0x27
 6650 03e8 19       		.uleb128 0x19
 6651 03e9 49       		.uleb128 0x49
 6652 03ea 13       		.uleb128 0x13
 6653 03eb 3C       		.uleb128 0x3c
 6654 03ec 19       		.uleb128 0x19
 6655 03ed 00       		.byte	0
 6656 03ee 00       		.byte	0
 6657 03ef 00       		.byte	0
 6658              		.section	.debug_loc,"",%progbits
 6659              	.Ldebug_loc0:
 6660              	.LLST0:
 6661 0000 14000000 		.4byte	.LVL1
 6662 0004 30000000 		.4byte	.LVL3
 6663 0008 0100     		.2byte	0x1
 6664 000a 50       		.byte	0x50
 6665 000b 00000000 		.4byte	0
 6666 000f 00000000 		.4byte	0
 6667              	.LLST1:
 6668 0013 00000000 		.4byte	.LVL4
 6669 0017 08000000 		.4byte	.LVL6
ARM GAS  /tmp/ccjsfSlY.s 			page 148


 6670 001b 0100     		.2byte	0x1
 6671 001d 51       		.byte	0x51
 6672 001e 08000000 		.4byte	.LVL6
 6673 0022 18000000 		.4byte	.LFE206
 6674 0026 0400     		.2byte	0x4
 6675 0028 F3       		.byte	0xf3
 6676 0029 01       		.uleb128 0x1
 6677 002a 51       		.byte	0x51
 6678 002b 9F       		.byte	0x9f
 6679 002c 00000000 		.4byte	0
 6680 0030 00000000 		.4byte	0
 6681              	.LLST2:
 6682 0034 06000000 		.4byte	.LVL5
 6683 0038 0A000000 		.4byte	.LVL7
 6684 003c 0800     		.2byte	0x8
 6685 003e 74       		.byte	0x74
 6686 003f 00       		.sleb128 0
 6687 0040 11       		.byte	0x11
 6688 0041 FF817C   		.sleb128 -65281
 6689 0044 1A       		.byte	0x1a
 6690 0045 9F       		.byte	0x9f
 6691 0046 0A000000 		.4byte	.LVL7
 6692 004a 18000000 		.4byte	.LFE206
 6693 004e 0100     		.2byte	0x1
 6694 0050 53       		.byte	0x53
 6695 0051 00000000 		.4byte	0
 6696 0055 00000000 		.4byte	0
 6697              	.LLST3:
 6698 0059 00000000 		.4byte	.LVL8
 6699 005d 2C000000 		.4byte	.LVL12
 6700 0061 0100     		.2byte	0x1
 6701 0063 50       		.byte	0x50
 6702 0064 2C000000 		.4byte	.LVL12
 6703 0068 A2000000 		.4byte	.LVL26
 6704 006c 0100     		.2byte	0x1
 6705 006e 54       		.byte	0x54
 6706 006f A2000000 		.4byte	.LVL26
 6707 0073 A8000000 		.4byte	.LVL28
 6708 0077 0400     		.2byte	0x4
 6709 0079 F3       		.byte	0xf3
 6710 007a 01       		.uleb128 0x1
 6711 007b 50       		.byte	0x50
 6712 007c 9F       		.byte	0x9f
 6713 007d A8000000 		.4byte	.LVL28
 6714 0081 B2000000 		.4byte	.LVL29
 6715 0085 0100     		.2byte	0x1
 6716 0087 50       		.byte	0x50
 6717 0088 B2000000 		.4byte	.LVL29
 6718 008c 18010000 		.4byte	.LFE207
 6719 0090 0100     		.2byte	0x1
 6720 0092 54       		.byte	0x54
 6721 0093 00000000 		.4byte	0
 6722 0097 00000000 		.4byte	0
 6723              	.LLST4:
 6724 009b 00000000 		.4byte	.LVL8
 6725 009f 38000000 		.4byte	.LVL13
 6726 00a3 0100     		.2byte	0x1
ARM GAS  /tmp/ccjsfSlY.s 			page 149


 6727 00a5 51       		.byte	0x51
 6728 00a6 38000000 		.4byte	.LVL13
 6729 00aa A2000000 		.4byte	.LVL27
 6730 00ae 0100     		.2byte	0x1
 6731 00b0 56       		.byte	0x56
 6732 00b1 A2000000 		.4byte	.LVL27
 6733 00b5 A8000000 		.4byte	.LVL28
 6734 00b9 0400     		.2byte	0x4
 6735 00bb F3       		.byte	0xf3
 6736 00bc 01       		.uleb128 0x1
 6737 00bd 51       		.byte	0x51
 6738 00be 9F       		.byte	0x9f
 6739 00bf A8000000 		.4byte	.LVL28
 6740 00c3 B2000000 		.4byte	.LVL29
 6741 00c7 0100     		.2byte	0x1
 6742 00c9 51       		.byte	0x51
 6743 00ca B2000000 		.4byte	.LVL29
 6744 00ce 18010000 		.4byte	.LFE207
 6745 00d2 0100     		.2byte	0x1
 6746 00d4 56       		.byte	0x56
 6747 00d5 00000000 		.4byte	0
 6748 00d9 00000000 		.4byte	0
 6749              	.LLST6:
 6750 00dd 12000000 		.4byte	.LVL9
 6751 00e1 1A000000 		.4byte	.LVL10
 6752 00e5 0100     		.2byte	0x1
 6753 00e7 50       		.byte	0x50
 6754 00e8 00000000 		.4byte	0
 6755 00ec 00000000 		.4byte	0
 6756              	.LLST7:
 6757 00f0 1A000000 		.4byte	.LVL10
 6758 00f4 2C000000 		.4byte	.LVL12
 6759 00f8 0100     		.2byte	0x1
 6760 00fa 50       		.byte	0x50
 6761 00fb 2C000000 		.4byte	.LVL12
 6762 00ff A2000000 		.4byte	.LVL26
 6763 0103 0100     		.2byte	0x1
 6764 0105 54       		.byte	0x54
 6765 0106 A2000000 		.4byte	.LVL26
 6766 010a A8000000 		.4byte	.LVL28
 6767 010e 0400     		.2byte	0x4
 6768 0110 F3       		.byte	0xf3
 6769 0111 01       		.uleb128 0x1
 6770 0112 50       		.byte	0x50
 6771 0113 9F       		.byte	0x9f
 6772 0114 A8000000 		.4byte	.LVL28
 6773 0118 B2000000 		.4byte	.LVL29
 6774 011c 0100     		.2byte	0x1
 6775 011e 50       		.byte	0x50
 6776 011f B2000000 		.4byte	.LVL29
 6777 0123 18010000 		.4byte	.LFE207
 6778 0127 0100     		.2byte	0x1
 6779 0129 54       		.byte	0x54
 6780 012a 00000000 		.4byte	0
 6781 012e 00000000 		.4byte	0
 6782              	.LLST8:
 6783 0132 20000000 		.4byte	.LVL11
ARM GAS  /tmp/ccjsfSlY.s 			page 150


 6784 0136 2C000000 		.4byte	.LVL12
 6785 013a 0100     		.2byte	0x1
 6786 013c 50       		.byte	0x50
 6787 013d 2C000000 		.4byte	.LVL12
 6788 0141 A2000000 		.4byte	.LVL26
 6789 0145 0100     		.2byte	0x1
 6790 0147 54       		.byte	0x54
 6791 0148 A2000000 		.4byte	.LVL26
 6792 014c A8000000 		.4byte	.LVL28
 6793 0150 0400     		.2byte	0x4
 6794 0152 F3       		.byte	0xf3
 6795 0153 01       		.uleb128 0x1
 6796 0154 50       		.byte	0x50
 6797 0155 9F       		.byte	0x9f
 6798 0156 A8000000 		.4byte	.LVL28
 6799 015a B2000000 		.4byte	.LVL29
 6800 015e 0100     		.2byte	0x1
 6801 0160 50       		.byte	0x50
 6802 0161 B2000000 		.4byte	.LVL29
 6803 0165 18010000 		.4byte	.LFE207
 6804 0169 0100     		.2byte	0x1
 6805 016b 54       		.byte	0x54
 6806 016c 00000000 		.4byte	0
 6807 0170 00000000 		.4byte	0
 6808              	.LLST9:
 6809 0174 8A000000 		.4byte	.LVL20
 6810 0178 A0000000 		.4byte	.LVL25
 6811 017c 0100     		.2byte	0x1
 6812 017e 56       		.byte	0x56
 6813 017f 06010000 		.4byte	.LVL39
 6814 0183 0C010000 		.4byte	.LVL40
 6815 0187 0100     		.2byte	0x1
 6816 0189 56       		.byte	0x56
 6817 018a 00000000 		.4byte	0
 6818 018e 00000000 		.4byte	0
 6819              	.LLST11:
 6820 0192 8A000000 		.4byte	.LVL20
 6821 0196 A0000000 		.4byte	.LVL25
 6822 019a 0100     		.2byte	0x1
 6823 019c 54       		.byte	0x54
 6824 019d 06010000 		.4byte	.LVL39
 6825 01a1 0C010000 		.4byte	.LVL40
 6826 01a5 0100     		.2byte	0x1
 6827 01a7 54       		.byte	0x54
 6828 01a8 00000000 		.4byte	0
 6829 01ac 00000000 		.4byte	0
 6830              	.LLST12:
 6831 01b0 06010000 		.4byte	.LVL39
 6832 01b4 0C010000 		.4byte	.LVL40
 6833 01b8 0300     		.2byte	0x3
 6834 01ba 09       		.byte	0x9
 6835 01bb FF       		.byte	0xff
 6836 01bc 9F       		.byte	0x9f
 6837 01bd 00000000 		.4byte	0
 6838 01c1 00000000 		.4byte	0
 6839              	.LLST13:
 6840 01c5 06010000 		.4byte	.LVL39
ARM GAS  /tmp/ccjsfSlY.s 			page 151


 6841 01c9 0C010000 		.4byte	.LVL40
 6842 01cd 0100     		.2byte	0x1
 6843 01cf 54       		.byte	0x54
 6844 01d0 00000000 		.4byte	0
 6845 01d4 00000000 		.4byte	0
 6846              	.LLST14:
 6847 01d8 8E000000 		.4byte	.LVL21
 6848 01dc 90000000 		.4byte	.LVL22
 6849 01e0 0500     		.2byte	0x5
 6850 01e2 71       		.byte	0x71
 6851 01e3 00       		.sleb128 0
 6852 01e4 72       		.byte	0x72
 6853 01e5 00       		.sleb128 0
 6854 01e6 22       		.byte	0x22
 6855 01e7 90000000 		.4byte	.LVL22
 6856 01eb 92000000 		.4byte	.LVL23
 6857 01ef 0100     		.2byte	0x1
 6858 01f1 52       		.byte	0x52
 6859 01f2 00000000 		.4byte	0
 6860 01f6 00000000 		.4byte	0
 6861              	.LLST15:
 6862 01fa 8E000000 		.4byte	.LVL21
 6863 01fe 92000000 		.4byte	.LVL23
 6864 0202 0100     		.2byte	0x1
 6865 0204 54       		.byte	0x54
 6866 0205 00000000 		.4byte	0
 6867 0209 00000000 		.4byte	0
 6868              	.LLST16:
 6869 020d 44000000 		.4byte	.LVL14
 6870 0211 A0000000 		.4byte	.LVL25
 6871 0215 0200     		.2byte	0x2
 6872 0217 32       		.byte	0x32
 6873 0218 9F       		.byte	0x9f
 6874 0219 06010000 		.4byte	.LVL39
 6875 021d 0C010000 		.4byte	.LVL40
 6876 0221 0200     		.2byte	0x2
 6877 0223 32       		.byte	0x32
 6878 0224 9F       		.byte	0x9f
 6879 0225 00000000 		.4byte	0
 6880 0229 00000000 		.4byte	0
 6881              	.LLST17:
 6882 022d 44000000 		.4byte	.LVL14
 6883 0231 A0000000 		.4byte	.LVL25
 6884 0235 0100     		.2byte	0x1
 6885 0237 54       		.byte	0x54
 6886 0238 06010000 		.4byte	.LVL39
 6887 023c 0C010000 		.4byte	.LVL40
 6888 0240 0100     		.2byte	0x1
 6889 0242 54       		.byte	0x54
 6890 0243 00000000 		.4byte	0
 6891 0247 00000000 		.4byte	0
 6892              	.LLST18:
 6893 024b 4A000000 		.4byte	.LVL15
 6894 024f 7C000000 		.4byte	.LVL19
 6895 0253 0200     		.2byte	0x2
 6896 0255 31       		.byte	0x31
 6897 0256 9F       		.byte	0x9f
ARM GAS  /tmp/ccjsfSlY.s 			page 152


 6898 0257 9A000000 		.4byte	.LVL24
 6899 025b A0000000 		.4byte	.LVL25
 6900 025f 0200     		.2byte	0x2
 6901 0261 31       		.byte	0x31
 6902 0262 9F       		.byte	0x9f
 6903 0263 00000000 		.4byte	0
 6904 0267 00000000 		.4byte	0
 6905              	.LLST19:
 6906 026b 4A000000 		.4byte	.LVL15
 6907 026f 7C000000 		.4byte	.LVL19
 6908 0273 0100     		.2byte	0x1
 6909 0275 54       		.byte	0x54
 6910 0276 9A000000 		.4byte	.LVL24
 6911 027a A0000000 		.4byte	.LVL25
 6912 027e 0100     		.2byte	0x1
 6913 0280 54       		.byte	0x54
 6914 0281 00000000 		.4byte	0
 6915 0285 00000000 		.4byte	0
 6916              	.LLST20:
 6917 0289 52000000 		.4byte	.LVL16
 6918 028d 7C000000 		.4byte	.LVL19
 6919 0291 0200     		.2byte	0x2
 6920 0293 34       		.byte	0x34
 6921 0294 9F       		.byte	0x9f
 6922 0295 00000000 		.4byte	0
 6923 0299 00000000 		.4byte	0
 6924              	.LLST21:
 6925 029d 52000000 		.4byte	.LVL16
 6926 02a1 7C000000 		.4byte	.LVL19
 6927 02a5 0100     		.2byte	0x1
 6928 02a7 54       		.byte	0x54
 6929 02a8 00000000 		.4byte	0
 6930 02ac 00000000 		.4byte	0
 6931              	.LLST22:
 6932 02b0 60000000 		.4byte	.LVL17
 6933 02b4 7C000000 		.4byte	.LVL19
 6934 02b8 0100     		.2byte	0x1
 6935 02ba 54       		.byte	0x54
 6936 02bb 00000000 		.4byte	0
 6937 02bf 00000000 		.4byte	0
 6938              	.LLST23:
 6939 02c3 E4000000 		.4byte	.LVL34
 6940 02c7 F4000000 		.4byte	.LVL38
 6941 02cb 0100     		.2byte	0x1
 6942 02cd 56       		.byte	0x56
 6943 02ce 0C010000 		.4byte	.LVL40
 6944 02d2 18010000 		.4byte	.LFE207
 6945 02d6 0100     		.2byte	0x1
 6946 02d8 56       		.byte	0x56
 6947 02d9 00000000 		.4byte	0
 6948 02dd 00000000 		.4byte	0
 6949              	.LLST25:
 6950 02e1 E4000000 		.4byte	.LVL34
 6951 02e5 F4000000 		.4byte	.LVL38
 6952 02e9 0100     		.2byte	0x1
 6953 02eb 54       		.byte	0x54
 6954 02ec 0C010000 		.4byte	.LVL40
ARM GAS  /tmp/ccjsfSlY.s 			page 153


 6955 02f0 18010000 		.4byte	.LFE207
 6956 02f4 0100     		.2byte	0x1
 6957 02f6 54       		.byte	0x54
 6958 02f7 00000000 		.4byte	0
 6959 02fb 00000000 		.4byte	0
 6960              	.LLST26:
 6961 02ff E8000000 		.4byte	.LVL35
 6962 0303 EA000000 		.4byte	.LVL36
 6963 0307 0B00     		.2byte	0xb
 6964 0309 73       		.byte	0x73
 6965 030a 00       		.sleb128 0
 6966 030b 72       		.byte	0x72
 6967 030c 00       		.sleb128 0
 6968 030d 22       		.byte	0x22
 6969 030e 94       		.byte	0x94
 6970 030f 01       		.byte	0x1
 6971 0310 08       		.byte	0x8
 6972 0311 FF       		.byte	0xff
 6973 0312 1A       		.byte	0x1a
 6974 0313 9F       		.byte	0x9f
 6975 0314 EA000000 		.4byte	.LVL36
 6976 0318 EC000000 		.4byte	.LVL37
 6977 031c 0C00     		.2byte	0xc
 6978 031e 76       		.byte	0x76
 6979 031f 00       		.sleb128 0
 6980 0320 06       		.byte	0x6
 6981 0321 72       		.byte	0x72
 6982 0322 00       		.sleb128 0
 6983 0323 22       		.byte	0x22
 6984 0324 94       		.byte	0x94
 6985 0325 01       		.byte	0x1
 6986 0326 08       		.byte	0x8
 6987 0327 FF       		.byte	0xff
 6988 0328 1A       		.byte	0x1a
 6989 0329 9F       		.byte	0x9f
 6990 032a 00000000 		.4byte	0
 6991 032e 00000000 		.4byte	0
 6992              	.LLST27:
 6993 0332 E8000000 		.4byte	.LVL35
 6994 0336 EC000000 		.4byte	.LVL37
 6995 033a 0100     		.2byte	0x1
 6996 033c 54       		.byte	0x54
 6997 033d 00000000 		.4byte	0
 6998 0341 00000000 		.4byte	0
 6999              	.LLST28:
 7000 0345 BA000000 		.4byte	.LVL30
 7001 0349 CE000000 		.4byte	.LVL32
 7002 034d 0200     		.2byte	0x2
 7003 034f 32       		.byte	0x32
 7004 0350 9F       		.byte	0x9f
 7005 0351 D6000000 		.4byte	.LVL33
 7006 0355 F4000000 		.4byte	.LVL38
 7007 0359 0200     		.2byte	0x2
 7008 035b 32       		.byte	0x32
 7009 035c 9F       		.byte	0x9f
 7010 035d 0C010000 		.4byte	.LVL40
 7011 0361 18010000 		.4byte	.LFE207
ARM GAS  /tmp/ccjsfSlY.s 			page 154


 7012 0365 0200     		.2byte	0x2
 7013 0367 32       		.byte	0x32
 7014 0368 9F       		.byte	0x9f
 7015 0369 00000000 		.4byte	0
 7016 036d 00000000 		.4byte	0
 7017              	.LLST29:
 7018 0371 BA000000 		.4byte	.LVL30
 7019 0375 CE000000 		.4byte	.LVL32
 7020 0379 0100     		.2byte	0x1
 7021 037b 54       		.byte	0x54
 7022 037c D6000000 		.4byte	.LVL33
 7023 0380 F4000000 		.4byte	.LVL38
 7024 0384 0100     		.2byte	0x1
 7025 0386 54       		.byte	0x54
 7026 0387 0C010000 		.4byte	.LVL40
 7027 038b 18010000 		.4byte	.LFE207
 7028 038f 0100     		.2byte	0x1
 7029 0391 54       		.byte	0x54
 7030 0392 00000000 		.4byte	0
 7031 0396 00000000 		.4byte	0
 7032              	.LLST30:
 7033 039a C0000000 		.4byte	.LVL31
 7034 039e CE000000 		.4byte	.LVL32
 7035 03a2 0200     		.2byte	0x2
 7036 03a4 31       		.byte	0x31
 7037 03a5 9F       		.byte	0x9f
 7038 03a6 00000000 		.4byte	0
 7039 03aa 00000000 		.4byte	0
 7040              	.LLST31:
 7041 03ae C0000000 		.4byte	.LVL31
 7042 03b2 CE000000 		.4byte	.LVL32
 7043 03b6 0100     		.2byte	0x1
 7044 03b8 54       		.byte	0x54
 7045 03b9 00000000 		.4byte	0
 7046 03bd 00000000 		.4byte	0
 7047              	.LLST32:
 7048 03c1 00000000 		.4byte	.LVL41
 7049 03c5 7A000000 		.4byte	.LVL59
 7050 03c9 0100     		.2byte	0x1
 7051 03cb 50       		.byte	0x50
 7052 03cc 7A000000 		.4byte	.LVL59
 7053 03d0 82000000 		.4byte	.LVL61
 7054 03d4 0400     		.2byte	0x4
 7055 03d6 F3       		.byte	0xf3
 7056 03d7 01       		.uleb128 0x1
 7057 03d8 50       		.byte	0x50
 7058 03d9 9F       		.byte	0x9f
 7059 03da 82000000 		.4byte	.LVL61
 7060 03de C4000000 		.4byte	.LVL75
 7061 03e2 0100     		.2byte	0x1
 7062 03e4 50       		.byte	0x50
 7063 03e5 C4000000 		.4byte	.LVL75
 7064 03e9 C6000000 		.4byte	.LFE208
 7065 03ed 0400     		.2byte	0x4
 7066 03ef F3       		.byte	0xf3
 7067 03f0 01       		.uleb128 0x1
 7068 03f1 50       		.byte	0x50
ARM GAS  /tmp/ccjsfSlY.s 			page 155


 7069 03f2 9F       		.byte	0x9f
 7070 03f3 00000000 		.4byte	0
 7071 03f7 00000000 		.4byte	0
 7072              	.LLST33:
 7073 03fb 00000000 		.4byte	.LVL41
 7074 03ff 2A000000 		.4byte	.LVL45
 7075 0403 0100     		.2byte	0x1
 7076 0405 51       		.byte	0x51
 7077 0406 2A000000 		.4byte	.LVL45
 7078 040a 34000000 		.4byte	.LVL46
 7079 040e 0100     		.2byte	0x1
 7080 0410 58       		.byte	0x58
 7081 0411 34000000 		.4byte	.LVL46
 7082 0415 82000000 		.4byte	.LVL61
 7083 0419 0400     		.2byte	0x4
 7084 041b F3       		.byte	0xf3
 7085 041c 01       		.uleb128 0x1
 7086 041d 51       		.byte	0x51
 7087 041e 9F       		.byte	0x9f
 7088 041f 82000000 		.4byte	.LVL61
 7089 0423 84000000 		.4byte	.LVL62
 7090 0427 0100     		.2byte	0x1
 7091 0429 51       		.byte	0x51
 7092 042a 84000000 		.4byte	.LVL62
 7093 042e 8E000000 		.4byte	.LVL63
 7094 0432 0100     		.2byte	0x1
 7095 0434 58       		.byte	0x58
 7096 0435 8E000000 		.4byte	.LVL63
 7097 0439 C6000000 		.4byte	.LFE208
 7098 043d 0400     		.2byte	0x4
 7099 043f F3       		.byte	0xf3
 7100 0440 01       		.uleb128 0x1
 7101 0441 51       		.byte	0x51
 7102 0442 9F       		.byte	0x9f
 7103 0443 00000000 		.4byte	0
 7104 0447 00000000 		.4byte	0
 7105              	.LLST34:
 7106 044b 00000000 		.4byte	.LVL41
 7107 044f 34000000 		.4byte	.LVL46
 7108 0453 0200     		.2byte	0x2
 7109 0455 30       		.byte	0x30
 7110 0456 9F       		.byte	0x9f
 7111 0457 34000000 		.4byte	.LVL46
 7112 045b 7A000000 		.4byte	.LVL60
 7113 045f 0100     		.2byte	0x1
 7114 0461 56       		.byte	0x56
 7115 0462 82000000 		.4byte	.LVL61
 7116 0466 8E000000 		.4byte	.LVL63
 7117 046a 0200     		.2byte	0x2
 7118 046c 30       		.byte	0x30
 7119 046d 9F       		.byte	0x9f
 7120 046e 8E000000 		.4byte	.LVL63
 7121 0472 C6000000 		.4byte	.LFE208
 7122 0476 0100     		.2byte	0x1
 7123 0478 56       		.byte	0x56
 7124 0479 00000000 		.4byte	0
 7125 047d 00000000 		.4byte	0
ARM GAS  /tmp/ccjsfSlY.s 			page 156


 7126              	.LLST35:
 7127 0481 00000000 		.4byte	.LVL41
 7128 0485 34000000 		.4byte	.LVL46
 7129 0489 0200     		.2byte	0x2
 7130 048b 30       		.byte	0x30
 7131 048c 9F       		.byte	0x9f
 7132 048d 34000000 		.4byte	.LVL46
 7133 0491 82000000 		.4byte	.LVL61
 7134 0495 0100     		.2byte	0x1
 7135 0497 53       		.byte	0x53
 7136 0498 82000000 		.4byte	.LVL61
 7137 049c 8E000000 		.4byte	.LVL63
 7138 04a0 0200     		.2byte	0x2
 7139 04a2 30       		.byte	0x30
 7140 04a3 9F       		.byte	0x9f
 7141 04a4 8E000000 		.4byte	.LVL63
 7142 04a8 A8000000 		.4byte	.LVL68
 7143 04ac 0100     		.2byte	0x1
 7144 04ae 53       		.byte	0x53
 7145 04af A8000000 		.4byte	.LVL68
 7146 04b3 AA000000 		.4byte	.LVL69
 7147 04b7 0300     		.2byte	0x3
 7148 04b9 73       		.byte	0x73
 7149 04ba 7E       		.sleb128 -2
 7150 04bb 9F       		.byte	0x9f
 7151 04bc AA000000 		.4byte	.LVL69
 7152 04c0 C6000000 		.4byte	.LFE208
 7153 04c4 0100     		.2byte	0x1
 7154 04c6 53       		.byte	0x53
 7155 04c7 00000000 		.4byte	0
 7156 04cb 00000000 		.4byte	0
 7157              	.LLST37:
 7158 04cf 12000000 		.4byte	.LVL42
 7159 04d3 1A000000 		.4byte	.LVL43
 7160 04d7 0100     		.2byte	0x1
 7161 04d9 50       		.byte	0x50
 7162 04da 00000000 		.4byte	0
 7163 04de 00000000 		.4byte	0
 7164              	.LLST38:
 7165 04e2 1A000000 		.4byte	.LVL43
 7166 04e6 7A000000 		.4byte	.LVL59
 7167 04ea 0100     		.2byte	0x1
 7168 04ec 50       		.byte	0x50
 7169 04ed 7A000000 		.4byte	.LVL59
 7170 04f1 82000000 		.4byte	.LVL61
 7171 04f5 0400     		.2byte	0x4
 7172 04f7 F3       		.byte	0xf3
 7173 04f8 01       		.uleb128 0x1
 7174 04f9 50       		.byte	0x50
 7175 04fa 9F       		.byte	0x9f
 7176 04fb 82000000 		.4byte	.LVL61
 7177 04ff C4000000 		.4byte	.LVL75
 7178 0503 0100     		.2byte	0x1
 7179 0505 50       		.byte	0x50
 7180 0506 C4000000 		.4byte	.LVL75
 7181 050a C6000000 		.4byte	.LFE208
 7182 050e 0400     		.2byte	0x4
ARM GAS  /tmp/ccjsfSlY.s 			page 157


 7183 0510 F3       		.byte	0xf3
 7184 0511 01       		.uleb128 0x1
 7185 0512 50       		.byte	0x50
 7186 0513 9F       		.byte	0x9f
 7187 0514 00000000 		.4byte	0
 7188 0518 00000000 		.4byte	0
 7189              	.LLST39:
 7190 051c 20000000 		.4byte	.LVL44
 7191 0520 7A000000 		.4byte	.LVL59
 7192 0524 0100     		.2byte	0x1
 7193 0526 50       		.byte	0x50
 7194 0527 7A000000 		.4byte	.LVL59
 7195 052b 82000000 		.4byte	.LVL61
 7196 052f 0400     		.2byte	0x4
 7197 0531 F3       		.byte	0xf3
 7198 0532 01       		.uleb128 0x1
 7199 0533 50       		.byte	0x50
 7200 0534 9F       		.byte	0x9f
 7201 0535 82000000 		.4byte	.LVL61
 7202 0539 C4000000 		.4byte	.LVL75
 7203 053d 0100     		.2byte	0x1
 7204 053f 50       		.byte	0x50
 7205 0540 C4000000 		.4byte	.LVL75
 7206 0544 C6000000 		.4byte	.LFE208
 7207 0548 0400     		.2byte	0x4
 7208 054a F3       		.byte	0xf3
 7209 054b 01       		.uleb128 0x1
 7210 054c 50       		.byte	0x50
 7211 054d 9F       		.byte	0x9f
 7212 054e 00000000 		.4byte	0
 7213 0552 00000000 		.4byte	0
 7214              	.LLST40:
 7215 0556 34000000 		.4byte	.LVL46
 7216 055a 78000000 		.4byte	.LVL58
 7217 055e 0100     		.2byte	0x1
 7218 0560 58       		.byte	0x58
 7219 0561 00000000 		.4byte	0
 7220 0565 00000000 		.4byte	0
 7221              	.LLST41:
 7222 0569 3C000000 		.4byte	.LVL47
 7223 056d 78000000 		.4byte	.LVL58
 7224 0571 0200     		.2byte	0x2
 7225 0573 32       		.byte	0x32
 7226 0574 9F       		.byte	0x9f
 7227 0575 00000000 		.4byte	0
 7228 0579 00000000 		.4byte	0
 7229              	.LLST42:
 7230 057d 3C000000 		.4byte	.LVL47
 7231 0581 78000000 		.4byte	.LVL58
 7232 0585 0100     		.2byte	0x1
 7233 0587 50       		.byte	0x50
 7234 0588 00000000 		.4byte	0
 7235 058c 00000000 		.4byte	0
 7236              	.LLST43:
 7237 0590 3E000000 		.4byte	.LVL48
 7238 0594 5C000000 		.4byte	.LVL52
 7239 0598 0200     		.2byte	0x2
ARM GAS  /tmp/ccjsfSlY.s 			page 158


 7240 059a 31       		.byte	0x31
 7241 059b 9F       		.byte	0x9f
 7242 059c 74000000 		.4byte	.LVL57
 7243 05a0 78000000 		.4byte	.LVL58
 7244 05a4 0200     		.2byte	0x2
 7245 05a6 31       		.byte	0x31
 7246 05a7 9F       		.byte	0x9f
 7247 05a8 00000000 		.4byte	0
 7248 05ac 00000000 		.4byte	0
 7249              	.LLST44:
 7250 05b0 3E000000 		.4byte	.LVL48
 7251 05b4 5C000000 		.4byte	.LVL52
 7252 05b8 0100     		.2byte	0x1
 7253 05ba 50       		.byte	0x50
 7254 05bb 74000000 		.4byte	.LVL57
 7255 05bf 78000000 		.4byte	.LVL58
 7256 05c3 0100     		.2byte	0x1
 7257 05c5 50       		.byte	0x50
 7258 05c6 00000000 		.4byte	0
 7259 05ca 00000000 		.4byte	0
 7260              	.LLST45:
 7261 05ce 44000000 		.4byte	.LVL49
 7262 05d2 5C000000 		.4byte	.LVL52
 7263 05d6 0200     		.2byte	0x2
 7264 05d8 34       		.byte	0x34
 7265 05d9 9F       		.byte	0x9f
 7266 05da 00000000 		.4byte	0
 7267 05de 00000000 		.4byte	0
 7268              	.LLST46:
 7269 05e2 44000000 		.4byte	.LVL49
 7270 05e6 5C000000 		.4byte	.LVL52
 7271 05ea 0100     		.2byte	0x1
 7272 05ec 50       		.byte	0x50
 7273 05ed 00000000 		.4byte	0
 7274 05f1 00000000 		.4byte	0
 7275              	.LLST47:
 7276 05f5 4E000000 		.4byte	.LVL50
 7277 05f9 5C000000 		.4byte	.LVL52
 7278 05fd 0100     		.2byte	0x1
 7279 05ff 50       		.byte	0x50
 7280 0600 00000000 		.4byte	0
 7281 0604 00000000 		.4byte	0
 7282              	.LLST48:
 7283 0608 64000000 		.4byte	.LVL53
 7284 060c 6E000000 		.4byte	.LVL54
 7285 0610 0800     		.2byte	0x8
 7286 0612 78       		.byte	0x78
 7287 0613 00       		.sleb128 0
 7288 0614 94       		.byte	0x94
 7289 0615 01       		.byte	0x1
 7290 0616 08       		.byte	0x8
 7291 0617 FF       		.byte	0xff
 7292 0618 1A       		.byte	0x1a
 7293 0619 9F       		.byte	0x9f
 7294 061a 6E000000 		.4byte	.LVL54
 7295 061e 70000000 		.4byte	.LVL55
 7296 0622 0600     		.2byte	0x6
ARM GAS  /tmp/ccjsfSlY.s 			page 159


 7297 0624 74       		.byte	0x74
 7298 0625 00       		.sleb128 0
 7299 0626 08       		.byte	0x8
 7300 0627 FF       		.byte	0xff
 7301 0628 1A       		.byte	0x1a
 7302 0629 9F       		.byte	0x9f
 7303 062a 70000000 		.4byte	.LVL55
 7304 062e 78000000 		.4byte	.LVL58
 7305 0632 0700     		.2byte	0x7
 7306 0634 70       		.byte	0x70
 7307 0635 08       		.sleb128 8
 7308 0636 06       		.byte	0x6
 7309 0637 08       		.byte	0x8
 7310 0638 FF       		.byte	0xff
 7311 0639 1A       		.byte	0x1a
 7312 063a 9F       		.byte	0x9f
 7313 063b 00000000 		.4byte	0
 7314 063f 00000000 		.4byte	0
 7315              	.LLST49:
 7316 0643 64000000 		.4byte	.LVL53
 7317 0647 78000000 		.4byte	.LVL58
 7318 064b 0100     		.2byte	0x1
 7319 064d 50       		.byte	0x50
 7320 064e 00000000 		.4byte	0
 7321 0652 00000000 		.4byte	0
 7322              	.LLST50:
 7323 0656 8E000000 		.4byte	.LVL63
 7324 065a C2000000 		.4byte	.LVL74
 7325 065e 0100     		.2byte	0x1
 7326 0660 58       		.byte	0x58
 7327 0661 00000000 		.4byte	0
 7328 0665 00000000 		.4byte	0
 7329              	.LLST51:
 7330 0669 96000000 		.4byte	.LVL64
 7331 066d C2000000 		.4byte	.LVL74
 7332 0671 0200     		.2byte	0x2
 7333 0673 32       		.byte	0x32
 7334 0674 9F       		.byte	0x9f
 7335 0675 00000000 		.4byte	0
 7336 0679 00000000 		.4byte	0
 7337              	.LLST52:
 7338 067d 96000000 		.4byte	.LVL64
 7339 0681 C2000000 		.4byte	.LVL74
 7340 0685 0100     		.2byte	0x1
 7341 0687 50       		.byte	0x50
 7342 0688 00000000 		.4byte	0
 7343 068c 00000000 		.4byte	0
 7344              	.LLST53:
 7345 0690 98000000 		.4byte	.LVL65
 7346 0694 AA000000 		.4byte	.LVL69
 7347 0698 0200     		.2byte	0x2
 7348 069a 31       		.byte	0x31
 7349 069b 9F       		.byte	0x9f
 7350 069c 00000000 		.4byte	0
 7351 06a0 00000000 		.4byte	0
 7352              	.LLST54:
 7353 06a4 98000000 		.4byte	.LVL65
ARM GAS  /tmp/ccjsfSlY.s 			page 160


 7354 06a8 AA000000 		.4byte	.LVL69
 7355 06ac 0100     		.2byte	0x1
 7356 06ae 50       		.byte	0x50
 7357 06af 00000000 		.4byte	0
 7358 06b3 00000000 		.4byte	0
 7359              	.LLST55:
 7360 06b7 9E000000 		.4byte	.LVL66
 7361 06bb AA000000 		.4byte	.LVL69
 7362 06bf 0200     		.2byte	0x2
 7363 06c1 34       		.byte	0x34
 7364 06c2 9F       		.byte	0x9f
 7365 06c3 00000000 		.4byte	0
 7366 06c7 00000000 		.4byte	0
 7367              	.LLST56:
 7368 06cb 9E000000 		.4byte	.LVL66
 7369 06cf AA000000 		.4byte	.LVL69
 7370 06d3 0100     		.2byte	0x1
 7371 06d5 50       		.byte	0x50
 7372 06d6 00000000 		.4byte	0
 7373 06da 00000000 		.4byte	0
 7374              	.LLST57:
 7375 06de A4000000 		.4byte	.LVL67
 7376 06e2 AA000000 		.4byte	.LVL69
 7377 06e6 0100     		.2byte	0x1
 7378 06e8 50       		.byte	0x50
 7379 06e9 00000000 		.4byte	0
 7380 06ed 00000000 		.4byte	0
 7381              	.LLST58:
 7382 06f1 B2000000 		.4byte	.LVL70
 7383 06f5 BC000000 		.4byte	.LVL71
 7384 06f9 0200     		.2byte	0x2
 7385 06fb 78       		.byte	0x78
 7386 06fc 00       		.sleb128 0
 7387 06fd BC000000 		.4byte	.LVL71
 7388 0701 C2000000 		.4byte	.LVL74
 7389 0705 0100     		.2byte	0x1
 7390 0707 54       		.byte	0x54
 7391 0708 00000000 		.4byte	0
 7392 070c 00000000 		.4byte	0
 7393              	.LLST59:
 7394 0710 B2000000 		.4byte	.LVL70
 7395 0714 C2000000 		.4byte	.LVL74
 7396 0718 0100     		.2byte	0x1
 7397 071a 50       		.byte	0x50
 7398 071b 00000000 		.4byte	0
 7399 071f 00000000 		.4byte	0
 7400              	.LLST60:
 7401 0723 00000000 		.4byte	.LVL76
 7402 0727 7E000000 		.4byte	.LVL91
 7403 072b 0100     		.2byte	0x1
 7404 072d 50       		.byte	0x50
 7405 072e 7E000000 		.4byte	.LVL91
 7406 0732 86000000 		.4byte	.LVL93
 7407 0736 0400     		.2byte	0x4
 7408 0738 F3       		.byte	0xf3
 7409 0739 01       		.uleb128 0x1
 7410 073a 50       		.byte	0x50
ARM GAS  /tmp/ccjsfSlY.s 			page 161


 7411 073b 9F       		.byte	0x9f
 7412 073c 86000000 		.4byte	.LVL93
 7413 0740 D6000000 		.4byte	.LVL105
 7414 0744 0100     		.2byte	0x1
 7415 0746 50       		.byte	0x50
 7416 0747 D6000000 		.4byte	.LVL105
 7417 074b DC000000 		.4byte	.LFE209
 7418 074f 0400     		.2byte	0x4
 7419 0751 F3       		.byte	0xf3
 7420 0752 01       		.uleb128 0x1
 7421 0753 50       		.byte	0x50
 7422 0754 9F       		.byte	0x9f
 7423 0755 00000000 		.4byte	0
 7424 0759 00000000 		.4byte	0
 7425              	.LLST61:
 7426 075d 00000000 		.4byte	.LVL76
 7427 0761 38000000 		.4byte	.LVL80
 7428 0765 0100     		.2byte	0x1
 7429 0767 51       		.byte	0x51
 7430 0768 38000000 		.4byte	.LVL80
 7431 076c 86000000 		.4byte	.LVL93
 7432 0770 0400     		.2byte	0x4
 7433 0772 F3       		.byte	0xf3
 7434 0773 01       		.uleb128 0x1
 7435 0774 51       		.byte	0x51
 7436 0775 9F       		.byte	0x9f
 7437 0776 86000000 		.4byte	.LVL93
 7438 077a 96000000 		.4byte	.LVL94
 7439 077e 0100     		.2byte	0x1
 7440 0780 51       		.byte	0x51
 7441 0781 96000000 		.4byte	.LVL94
 7442 0785 DC000000 		.4byte	.LFE209
 7443 0789 0400     		.2byte	0x4
 7444 078b F3       		.byte	0xf3
 7445 078c 01       		.uleb128 0x1
 7446 078d 51       		.byte	0x51
 7447 078e 9F       		.byte	0x9f
 7448 078f 00000000 		.4byte	0
 7449 0793 00000000 		.4byte	0
 7450              	.LLST62:
 7451 0797 00000000 		.4byte	.LVL76
 7452 079b 38000000 		.4byte	.LVL80
 7453 079f 0200     		.2byte	0x2
 7454 07a1 30       		.byte	0x30
 7455 07a2 9F       		.byte	0x9f
 7456 07a3 38000000 		.4byte	.LVL80
 7457 07a7 58000000 		.4byte	.LVL85
 7458 07ab 0100     		.2byte	0x1
 7459 07ad 53       		.byte	0x53
 7460 07ae 58000000 		.4byte	.LVL85
 7461 07b2 5E000000 		.4byte	.LVL86
 7462 07b6 0300     		.2byte	0x3
 7463 07b8 73       		.byte	0x73
 7464 07b9 7F       		.sleb128 -1
 7465 07ba 9F       		.byte	0x9f
 7466 07bb 5E000000 		.4byte	.LVL86
 7467 07bf 86000000 		.4byte	.LVL93
ARM GAS  /tmp/ccjsfSlY.s 			page 162


 7468 07c3 0100     		.2byte	0x1
 7469 07c5 53       		.byte	0x53
 7470 07c6 86000000 		.4byte	.LVL93
 7471 07ca 96000000 		.4byte	.LVL94
 7472 07ce 0200     		.2byte	0x2
 7473 07d0 30       		.byte	0x30
 7474 07d1 9F       		.byte	0x9f
 7475 07d2 96000000 		.4byte	.LVL94
 7476 07d6 B6000000 		.4byte	.LVL99
 7477 07da 0100     		.2byte	0x1
 7478 07dc 53       		.byte	0x53
 7479 07dd B6000000 		.4byte	.LVL99
 7480 07e1 BC000000 		.4byte	.LVL100
 7481 07e5 0300     		.2byte	0x3
 7482 07e7 73       		.byte	0x73
 7483 07e8 7E       		.sleb128 -2
 7484 07e9 9F       		.byte	0x9f
 7485 07ea BC000000 		.4byte	.LVL100
 7486 07ee DC000000 		.4byte	.LFE209
 7487 07f2 0100     		.2byte	0x1
 7488 07f4 53       		.byte	0x53
 7489 07f5 00000000 		.4byte	0
 7490 07f9 00000000 		.4byte	0
 7491              	.LLST63:
 7492 07fd 00000000 		.4byte	.LVL76
 7493 0801 38000000 		.4byte	.LVL80
 7494 0805 0200     		.2byte	0x2
 7495 0807 30       		.byte	0x30
 7496 0808 9F       		.byte	0x9f
 7497 0809 38000000 		.4byte	.LVL80
 7498 080d 7E000000 		.4byte	.LVL92
 7499 0811 0100     		.2byte	0x1
 7500 0813 56       		.byte	0x56
 7501 0814 86000000 		.4byte	.LVL93
 7502 0818 96000000 		.4byte	.LVL94
 7503 081c 0200     		.2byte	0x2
 7504 081e 30       		.byte	0x30
 7505 081f 9F       		.byte	0x9f
 7506 0820 96000000 		.4byte	.LVL94
 7507 0824 DC000000 		.4byte	.LFE209
 7508 0828 0100     		.2byte	0x1
 7509 082a 56       		.byte	0x56
 7510 082b 00000000 		.4byte	0
 7511 082f 00000000 		.4byte	0
 7512              	.LLST65:
 7513 0833 10000000 		.4byte	.LVL77
 7514 0837 18000000 		.4byte	.LVL78
 7515 083b 0100     		.2byte	0x1
 7516 083d 50       		.byte	0x50
 7517 083e 00000000 		.4byte	0
 7518 0842 00000000 		.4byte	0
 7519              	.LLST66:
 7520 0846 18000000 		.4byte	.LVL78
 7521 084a 7E000000 		.4byte	.LVL91
 7522 084e 0100     		.2byte	0x1
 7523 0850 50       		.byte	0x50
 7524 0851 7E000000 		.4byte	.LVL91
ARM GAS  /tmp/ccjsfSlY.s 			page 163


 7525 0855 86000000 		.4byte	.LVL93
 7526 0859 0400     		.2byte	0x4
 7527 085b F3       		.byte	0xf3
 7528 085c 01       		.uleb128 0x1
 7529 085d 50       		.byte	0x50
 7530 085e 9F       		.byte	0x9f
 7531 085f 86000000 		.4byte	.LVL93
 7532 0863 D6000000 		.4byte	.LVL105
 7533 0867 0100     		.2byte	0x1
 7534 0869 50       		.byte	0x50
 7535 086a D6000000 		.4byte	.LVL105
 7536 086e DC000000 		.4byte	.LFE209
 7537 0872 0400     		.2byte	0x4
 7538 0874 F3       		.byte	0xf3
 7539 0875 01       		.uleb128 0x1
 7540 0876 50       		.byte	0x50
 7541 0877 9F       		.byte	0x9f
 7542 0878 00000000 		.4byte	0
 7543 087c 00000000 		.4byte	0
 7544              	.LLST67:
 7545 0880 1E000000 		.4byte	.LVL79
 7546 0884 7E000000 		.4byte	.LVL91
 7547 0888 0100     		.2byte	0x1
 7548 088a 50       		.byte	0x50
 7549 088b 7E000000 		.4byte	.LVL91
 7550 088f 86000000 		.4byte	.LVL93
 7551 0893 0400     		.2byte	0x4
 7552 0895 F3       		.byte	0xf3
 7553 0896 01       		.uleb128 0x1
 7554 0897 50       		.byte	0x50
 7555 0898 9F       		.byte	0x9f
 7556 0899 86000000 		.4byte	.LVL93
 7557 089d D6000000 		.4byte	.LVL105
 7558 08a1 0100     		.2byte	0x1
 7559 08a3 50       		.byte	0x50
 7560 08a4 D6000000 		.4byte	.LVL105
 7561 08a8 DC000000 		.4byte	.LFE209
 7562 08ac 0400     		.2byte	0x4
 7563 08ae F3       		.byte	0xf3
 7564 08af 01       		.uleb128 0x1
 7565 08b0 50       		.byte	0x50
 7566 08b1 9F       		.byte	0x9f
 7567 08b2 00000000 		.4byte	0
 7568 08b6 00000000 		.4byte	0
 7569              	.LLST68:
 7570 08ba 38000000 		.4byte	.LVL80
 7571 08be 7C000000 		.4byte	.LVL90
 7572 08c2 0100     		.2byte	0x1
 7573 08c4 51       		.byte	0x51
 7574 08c5 00000000 		.4byte	0
 7575 08c9 00000000 		.4byte	0
 7576              	.LLST69:
 7577 08cd 40000000 		.4byte	.LVL81
 7578 08d1 7C000000 		.4byte	.LVL90
 7579 08d5 0200     		.2byte	0x2
 7580 08d7 32       		.byte	0x32
 7581 08d8 9F       		.byte	0x9f
ARM GAS  /tmp/ccjsfSlY.s 			page 164


 7582 08d9 00000000 		.4byte	0
 7583 08dd 00000000 		.4byte	0
 7584              	.LLST70:
 7585 08e1 40000000 		.4byte	.LVL81
 7586 08e5 7C000000 		.4byte	.LVL90
 7587 08e9 0100     		.2byte	0x1
 7588 08eb 50       		.byte	0x50
 7589 08ec 00000000 		.4byte	0
 7590 08f0 00000000 		.4byte	0
 7591              	.LLST71:
 7592 08f4 6E000000 		.4byte	.LVL88
 7593 08f8 7C000000 		.4byte	.LVL90
 7594 08fc 0300     		.2byte	0x3
 7595 08fe 08       		.byte	0x8
 7596 08ff FF       		.byte	0xff
 7597 0900 9F       		.byte	0x9f
 7598 0901 00000000 		.4byte	0
 7599 0905 00000000 		.4byte	0
 7600              	.LLST72:
 7601 0909 6E000000 		.4byte	.LVL88
 7602 090d 7C000000 		.4byte	.LVL90
 7603 0911 0100     		.2byte	0x1
 7604 0913 50       		.byte	0x50
 7605 0914 00000000 		.4byte	0
 7606 0918 00000000 		.4byte	0
 7607              	.LLST73:
 7608 091c 42000000 		.4byte	.LVL82
 7609 0920 66000000 		.4byte	.LVL87
 7610 0924 0200     		.2byte	0x2
 7611 0926 31       		.byte	0x31
 7612 0927 9F       		.byte	0x9f
 7613 0928 78000000 		.4byte	.LVL89
 7614 092c 7C000000 		.4byte	.LVL90
 7615 0930 0200     		.2byte	0x2
 7616 0932 31       		.byte	0x31
 7617 0933 9F       		.byte	0x9f
 7618 0934 00000000 		.4byte	0
 7619 0938 00000000 		.4byte	0
 7620              	.LLST74:
 7621 093c 42000000 		.4byte	.LVL82
 7622 0940 66000000 		.4byte	.LVL87
 7623 0944 0100     		.2byte	0x1
 7624 0946 50       		.byte	0x50
 7625 0947 78000000 		.4byte	.LVL89
 7626 094b 7C000000 		.4byte	.LVL90
 7627 094f 0100     		.2byte	0x1
 7628 0951 50       		.byte	0x50
 7629 0952 00000000 		.4byte	0
 7630 0956 00000000 		.4byte	0
 7631              	.LLST75:
 7632 095a 4A000000 		.4byte	.LVL83
 7633 095e 66000000 		.4byte	.LVL87
 7634 0962 0200     		.2byte	0x2
 7635 0964 34       		.byte	0x34
 7636 0965 9F       		.byte	0x9f
 7637 0966 00000000 		.4byte	0
 7638 096a 00000000 		.4byte	0
ARM GAS  /tmp/ccjsfSlY.s 			page 165


 7639              	.LLST76:
 7640 096e 4A000000 		.4byte	.LVL83
 7641 0972 66000000 		.4byte	.LVL87
 7642 0976 0100     		.2byte	0x1
 7643 0978 50       		.byte	0x50
 7644 0979 00000000 		.4byte	0
 7645 097d 00000000 		.4byte	0
 7646              	.LLST77:
 7647 0981 54000000 		.4byte	.LVL84
 7648 0985 66000000 		.4byte	.LVL87
 7649 0989 0100     		.2byte	0x1
 7650 098b 50       		.byte	0x50
 7651 098c 00000000 		.4byte	0
 7652 0990 00000000 		.4byte	0
 7653              	.LLST78:
 7654 0994 96000000 		.4byte	.LVL94
 7655 0998 D4000000 		.4byte	.LVL104
 7656 099c 0100     		.2byte	0x1
 7657 099e 51       		.byte	0x51
 7658 099f 00000000 		.4byte	0
 7659 09a3 00000000 		.4byte	0
 7660              	.LLST79:
 7661 09a7 9E000000 		.4byte	.LVL95
 7662 09ab D4000000 		.4byte	.LVL104
 7663 09af 0200     		.2byte	0x2
 7664 09b1 32       		.byte	0x32
 7665 09b2 9F       		.byte	0x9f
 7666 09b3 00000000 		.4byte	0
 7667 09b7 00000000 		.4byte	0
 7668              	.LLST80:
 7669 09bb 9E000000 		.4byte	.LVL95
 7670 09bf D4000000 		.4byte	.LVL104
 7671 09c3 0100     		.2byte	0x1
 7672 09c5 50       		.byte	0x50
 7673 09c6 00000000 		.4byte	0
 7674 09ca 00000000 		.4byte	0
 7675              	.LLST81:
 7676 09ce CC000000 		.4byte	.LVL102
 7677 09d2 D4000000 		.4byte	.LVL104
 7678 09d6 0300     		.2byte	0x3
 7679 09d8 09       		.byte	0x9
 7680 09d9 FF       		.byte	0xff
 7681 09da 9F       		.byte	0x9f
 7682 09db 00000000 		.4byte	0
 7683 09df 00000000 		.4byte	0
 7684              	.LLST82:
 7685 09e3 CC000000 		.4byte	.LVL102
 7686 09e7 D4000000 		.4byte	.LVL104
 7687 09eb 0100     		.2byte	0x1
 7688 09ed 50       		.byte	0x50
 7689 09ee 00000000 		.4byte	0
 7690 09f2 00000000 		.4byte	0
 7691              	.LLST83:
 7692 09f6 A0000000 		.4byte	.LVL96
 7693 09fa C4000000 		.4byte	.LVL101
 7694 09fe 0200     		.2byte	0x2
 7695 0a00 31       		.byte	0x31
ARM GAS  /tmp/ccjsfSlY.s 			page 166


 7696 0a01 9F       		.byte	0x9f
 7697 0a02 00000000 		.4byte	0
 7698 0a06 00000000 		.4byte	0
 7699              	.LLST84:
 7700 0a0a A0000000 		.4byte	.LVL96
 7701 0a0e C4000000 		.4byte	.LVL101
 7702 0a12 0100     		.2byte	0x1
 7703 0a14 50       		.byte	0x50
 7704 0a15 00000000 		.4byte	0
 7705 0a19 00000000 		.4byte	0
 7706              	.LLST85:
 7707 0a1d A8000000 		.4byte	.LVL97
 7708 0a21 C4000000 		.4byte	.LVL101
 7709 0a25 0200     		.2byte	0x2
 7710 0a27 34       		.byte	0x34
 7711 0a28 9F       		.byte	0x9f
 7712 0a29 00000000 		.4byte	0
 7713 0a2d 00000000 		.4byte	0
 7714              	.LLST86:
 7715 0a31 A8000000 		.4byte	.LVL97
 7716 0a35 C4000000 		.4byte	.LVL101
 7717 0a39 0100     		.2byte	0x1
 7718 0a3b 50       		.byte	0x50
 7719 0a3c 00000000 		.4byte	0
 7720 0a40 00000000 		.4byte	0
 7721              	.LLST87:
 7722 0a44 B2000000 		.4byte	.LVL98
 7723 0a48 C4000000 		.4byte	.LVL101
 7724 0a4c 0100     		.2byte	0x1
 7725 0a4e 50       		.byte	0x50
 7726 0a4f 00000000 		.4byte	0
 7727 0a53 00000000 		.4byte	0
 7728              	.LLST88:
 7729 0a57 08000000 		.4byte	.LVL107
 7730 0a5b 0E000000 		.4byte	.LVL108
 7731 0a5f 0200     		.2byte	0x2
 7732 0a61 40       		.byte	0x40
 7733 0a62 9F       		.byte	0x9f
 7734 0a63 00000000 		.4byte	0
 7735 0a67 00000000 		.4byte	0
 7736              	.LLST89:
 7737 0a6b 08000000 		.4byte	.LVL107
 7738 0a6f 0E000000 		.4byte	.LVL108
 7739 0a73 0100     		.2byte	0x1
 7740 0a75 50       		.byte	0x50
 7741 0a76 00000000 		.4byte	0
 7742 0a7a 00000000 		.4byte	0
 7743              	.LLST90:
 7744 0a7e 16000000 		.4byte	.LVL109
 7745 0a82 1E000000 		.4byte	.LVL110
 7746 0a86 0100     		.2byte	0x1
 7747 0a88 50       		.byte	0x50
 7748 0a89 00000000 		.4byte	0
 7749 0a8d 00000000 		.4byte	0
 7750              	.LLST91:
 7751 0a91 00000000 		.4byte	.LVL111
 7752 0a95 1B000000 		.4byte	.LVL112-1
ARM GAS  /tmp/ccjsfSlY.s 			page 167


 7753 0a99 0100     		.2byte	0x1
 7754 0a9b 50       		.byte	0x50
 7755 0a9c 1B000000 		.4byte	.LVL112-1
 7756 0aa0 70000000 		.4byte	.LVL123
 7757 0aa4 0100     		.2byte	0x1
 7758 0aa6 55       		.byte	0x55
 7759 0aa7 70000000 		.4byte	.LVL123
 7760 0aab 78000000 		.4byte	.LVL124
 7761 0aaf 0400     		.2byte	0x4
 7762 0ab1 F3       		.byte	0xf3
 7763 0ab2 01       		.uleb128 0x1
 7764 0ab3 50       		.byte	0x50
 7765 0ab4 9F       		.byte	0x9f
 7766 0ab5 78000000 		.4byte	.LVL124
 7767 0ab9 80000000 		.4byte	.LVL125
 7768 0abd 0100     		.2byte	0x1
 7769 0abf 50       		.byte	0x50
 7770 0ac0 80000000 		.4byte	.LVL125
 7771 0ac4 84000000 		.4byte	.LFE211
 7772 0ac8 0100     		.2byte	0x1
 7773 0aca 55       		.byte	0x55
 7774 0acb 00000000 		.4byte	0
 7775 0acf 00000000 		.4byte	0
 7776              	.LLST92:
 7777 0ad3 00000000 		.4byte	.LVL111
 7778 0ad7 1B000000 		.4byte	.LVL112-1
 7779 0adb 0100     		.2byte	0x1
 7780 0add 51       		.byte	0x51
 7781 0ade 1B000000 		.4byte	.LVL112-1
 7782 0ae2 70000000 		.4byte	.LVL123
 7783 0ae6 0100     		.2byte	0x1
 7784 0ae8 54       		.byte	0x54
 7785 0ae9 70000000 		.4byte	.LVL123
 7786 0aed 78000000 		.4byte	.LVL124
 7787 0af1 0400     		.2byte	0x4
 7788 0af3 F3       		.byte	0xf3
 7789 0af4 01       		.uleb128 0x1
 7790 0af5 51       		.byte	0x51
 7791 0af6 9F       		.byte	0x9f
 7792 0af7 78000000 		.4byte	.LVL124
 7793 0afb 80000000 		.4byte	.LVL125
 7794 0aff 0100     		.2byte	0x1
 7795 0b01 51       		.byte	0x51
 7796 0b02 80000000 		.4byte	.LVL125
 7797 0b06 84000000 		.4byte	.LFE211
 7798 0b0a 0100     		.2byte	0x1
 7799 0b0c 54       		.byte	0x54
 7800 0b0d 00000000 		.4byte	0
 7801 0b11 00000000 		.4byte	0
 7802              	.LLST94:
 7803 0b15 1C000000 		.4byte	.LVL112
 7804 0b19 70000000 		.4byte	.LVL123
 7805 0b1d 0200     		.2byte	0x2
 7806 0b1f 32       		.byte	0x32
 7807 0b20 9F       		.byte	0x9f
 7808 0b21 80000000 		.4byte	.LVL125
 7809 0b25 84000000 		.4byte	.LFE211
ARM GAS  /tmp/ccjsfSlY.s 			page 168


 7810 0b29 0200     		.2byte	0x2
 7811 0b2b 32       		.byte	0x32
 7812 0b2c 9F       		.byte	0x9f
 7813 0b2d 00000000 		.4byte	0
 7814 0b31 00000000 		.4byte	0
 7815              	.LLST95:
 7816 0b35 1C000000 		.4byte	.LVL112
 7817 0b39 70000000 		.4byte	.LVL123
 7818 0b3d 0100     		.2byte	0x1
 7819 0b3f 55       		.byte	0x55
 7820 0b40 80000000 		.4byte	.LVL125
 7821 0b44 84000000 		.4byte	.LFE211
 7822 0b48 0100     		.2byte	0x1
 7823 0b4a 55       		.byte	0x55
 7824 0b4b 00000000 		.4byte	0
 7825 0b4f 00000000 		.4byte	0
 7826              	.LLST96:
 7827 0b53 34000000 		.4byte	.LVL113
 7828 0b57 5A000000 		.4byte	.LVL119
 7829 0b5b 0100     		.2byte	0x1
 7830 0b5d 54       		.byte	0x54
 7831 0b5e 5C000000 		.4byte	.LVL120
 7832 0b62 70000000 		.4byte	.LVL123
 7833 0b66 0100     		.2byte	0x1
 7834 0b68 54       		.byte	0x54
 7835 0b69 00000000 		.4byte	0
 7836 0b6d 00000000 		.4byte	0
 7837              	.LLST98:
 7838 0b71 34000000 		.4byte	.LVL113
 7839 0b75 5A000000 		.4byte	.LVL119
 7840 0b79 0100     		.2byte	0x1
 7841 0b7b 55       		.byte	0x55
 7842 0b7c 5C000000 		.4byte	.LVL120
 7843 0b80 70000000 		.4byte	.LVL123
 7844 0b84 0100     		.2byte	0x1
 7845 0b86 55       		.byte	0x55
 7846 0b87 00000000 		.4byte	0
 7847 0b8b 00000000 		.4byte	0
 7848              	.LLST99:
 7849 0b8f 60000000 		.4byte	.LVL121
 7850 0b93 70000000 		.4byte	.LVL123
 7851 0b97 0300     		.2byte	0x3
 7852 0b99 08       		.byte	0x8
 7853 0b9a FF       		.byte	0xff
 7854 0b9b 9F       		.byte	0x9f
 7855 0b9c 00000000 		.4byte	0
 7856 0ba0 00000000 		.4byte	0
 7857              	.LLST100:
 7858 0ba4 60000000 		.4byte	.LVL121
 7859 0ba8 70000000 		.4byte	.LVL123
 7860 0bac 0100     		.2byte	0x1
 7861 0bae 55       		.byte	0x55
 7862 0baf 00000000 		.4byte	0
 7863 0bb3 00000000 		.4byte	0
 7864              	.LLST101:
 7865 0bb7 34000000 		.4byte	.LVL113
 7866 0bbb 36000000 		.4byte	.LVL114
ARM GAS  /tmp/ccjsfSlY.s 			page 169


 7867 0bbf 0B00     		.2byte	0xb
 7868 0bc1 72       		.byte	0x72
 7869 0bc2 00       		.sleb128 0
 7870 0bc3 73       		.byte	0x73
 7871 0bc4 00       		.sleb128 0
 7872 0bc5 22       		.byte	0x22
 7873 0bc6 94       		.byte	0x94
 7874 0bc7 01       		.byte	0x1
 7875 0bc8 08       		.byte	0x8
 7876 0bc9 FF       		.byte	0xff
 7877 0bca 1A       		.byte	0x1a
 7878 0bcb 9F       		.byte	0x9f
 7879 0bcc 36000000 		.4byte	.LVL114
 7880 0bd0 3A000000 		.4byte	.LVL115
 7881 0bd4 0600     		.2byte	0x6
 7882 0bd6 73       		.byte	0x73
 7883 0bd7 00       		.sleb128 0
 7884 0bd8 08       		.byte	0x8
 7885 0bd9 FF       		.byte	0xff
 7886 0bda 1A       		.byte	0x1a
 7887 0bdb 9F       		.byte	0x9f
 7888 0bdc 3A000000 		.4byte	.LVL115
 7889 0be0 3E000000 		.4byte	.LVL116
 7890 0be4 0700     		.2byte	0x7
 7891 0be6 75       		.byte	0x75
 7892 0be7 08       		.sleb128 8
 7893 0be8 06       		.byte	0x6
 7894 0be9 08       		.byte	0x8
 7895 0bea FF       		.byte	0xff
 7896 0beb 1A       		.byte	0x1a
 7897 0bec 9F       		.byte	0x9f
 7898 0bed 00000000 		.4byte	0
 7899 0bf1 00000000 		.4byte	0
 7900              	.LLST102:
 7901 0bf5 34000000 		.4byte	.LVL113
 7902 0bf9 44000000 		.4byte	.LVL117
 7903 0bfd 0100     		.2byte	0x1
 7904 0bff 55       		.byte	0x55
 7905 0c00 00000000 		.4byte	0
 7906 0c04 00000000 		.4byte	0
 7907              	.LLST103:
 7908 0c08 3E000000 		.4byte	.LVL116
 7909 0c0c 5A000000 		.4byte	.LVL119
 7910 0c10 0200     		.2byte	0x2
 7911 0c12 31       		.byte	0x31
 7912 0c13 9F       		.byte	0x9f
 7913 0c14 6A000000 		.4byte	.LVL122
 7914 0c18 70000000 		.4byte	.LVL123
 7915 0c1c 0200     		.2byte	0x2
 7916 0c1e 31       		.byte	0x31
 7917 0c1f 9F       		.byte	0x9f
 7918 0c20 00000000 		.4byte	0
 7919 0c24 00000000 		.4byte	0
 7920              	.LLST104:
 7921 0c28 3E000000 		.4byte	.LVL116
 7922 0c2c 5A000000 		.4byte	.LVL119
 7923 0c30 0100     		.2byte	0x1
ARM GAS  /tmp/ccjsfSlY.s 			page 170


 7924 0c32 55       		.byte	0x55
 7925 0c33 6A000000 		.4byte	.LVL122
 7926 0c37 70000000 		.4byte	.LVL123
 7927 0c3b 0100     		.2byte	0x1
 7928 0c3d 55       		.byte	0x55
 7929 0c3e 00000000 		.4byte	0
 7930 0c42 00000000 		.4byte	0
 7931              	.LLST105:
 7932 0c46 00000000 		.4byte	.LVL126
 7933 0c4a 9E000000 		.4byte	.LVL143
 7934 0c4e 0100     		.2byte	0x1
 7935 0c50 50       		.byte	0x50
 7936 0c51 9E000000 		.4byte	.LVL143
 7937 0c55 A4000000 		.4byte	.LVL144
 7938 0c59 0400     		.2byte	0x4
 7939 0c5b F3       		.byte	0xf3
 7940 0c5c 01       		.uleb128 0x1
 7941 0c5d 50       		.byte	0x50
 7942 0c5e 9F       		.byte	0x9f
 7943 0c5f A4000000 		.4byte	.LVL144
 7944 0c63 B8000000 		.4byte	.LVL147
 7945 0c67 0100     		.2byte	0x1
 7946 0c69 50       		.byte	0x50
 7947 0c6a B8000000 		.4byte	.LVL147
 7948 0c6e BA000000 		.4byte	.LVL148
 7949 0c72 0400     		.2byte	0x4
 7950 0c74 F3       		.byte	0xf3
 7951 0c75 01       		.uleb128 0x1
 7952 0c76 50       		.byte	0x50
 7953 0c77 9F       		.byte	0x9f
 7954 0c78 BA000000 		.4byte	.LVL148
 7955 0c7c C2000000 		.4byte	.LVL149
 7956 0c80 0100     		.2byte	0x1
 7957 0c82 50       		.byte	0x50
 7958 0c83 C2000000 		.4byte	.LVL149
 7959 0c87 C8000000 		.4byte	.LFE212
 7960 0c8b 0400     		.2byte	0x4
 7961 0c8d F3       		.byte	0xf3
 7962 0c8e 01       		.uleb128 0x1
 7963 0c8f 50       		.byte	0x50
 7964 0c90 9F       		.byte	0x9f
 7965 0c91 00000000 		.4byte	0
 7966 0c95 00000000 		.4byte	0
 7967              	.LLST107:
 7968 0c99 14000000 		.4byte	.LVL127
 7969 0c9d 9E000000 		.4byte	.LVL143
 7970 0ca1 0200     		.2byte	0x2
 7971 0ca3 34       		.byte	0x34
 7972 0ca4 9F       		.byte	0x9f
 7973 0ca5 A4000000 		.4byte	.LVL144
 7974 0ca9 B6000000 		.4byte	.LVL146
 7975 0cad 0200     		.2byte	0x2
 7976 0caf 34       		.byte	0x34
 7977 0cb0 9F       		.byte	0x9f
 7978 0cb1 00000000 		.4byte	0
 7979 0cb5 00000000 		.4byte	0
 7980              	.LLST108:
ARM GAS  /tmp/ccjsfSlY.s 			page 171


 7981 0cb9 14000000 		.4byte	.LVL127
 7982 0cbd 9E000000 		.4byte	.LVL143
 7983 0cc1 0100     		.2byte	0x1
 7984 0cc3 50       		.byte	0x50
 7985 0cc4 A4000000 		.4byte	.LVL144
 7986 0cc8 B6000000 		.4byte	.LVL146
 7987 0ccc 0100     		.2byte	0x1
 7988 0cce 50       		.byte	0x50
 7989 0ccf 00000000 		.4byte	0
 7990 0cd3 00000000 		.4byte	0
 7991              	.LLST109:
 7992 0cd7 26000000 		.4byte	.LVL128
 7993 0cdb 3E000000 		.4byte	.LVL130
 7994 0cdf 0100     		.2byte	0x1
 7995 0ce1 50       		.byte	0x50
 7996 0ce2 00000000 		.4byte	0
 7997 0ce6 00000000 		.4byte	0
 7998              	.LLST110:
 7999 0cea 58000000 		.4byte	.LVL132
 8000 0cee 9C000000 		.4byte	.LVL142
 8001 0cf2 0100     		.2byte	0x1
 8002 0cf4 51       		.byte	0x51
 8003 0cf5 A4000000 		.4byte	.LVL144
 8004 0cf9 B6000000 		.4byte	.LVL146
 8005 0cfd 0100     		.2byte	0x1
 8006 0cff 51       		.byte	0x51
 8007 0d00 00000000 		.4byte	0
 8008 0d04 00000000 		.4byte	0
 8009              	.LLST112:
 8010 0d08 58000000 		.4byte	.LVL132
 8011 0d0c 9C000000 		.4byte	.LVL142
 8012 0d10 0100     		.2byte	0x1
 8013 0d12 50       		.byte	0x50
 8014 0d13 A4000000 		.4byte	.LVL144
 8015 0d17 B6000000 		.4byte	.LVL146
 8016 0d1b 0100     		.2byte	0x1
 8017 0d1d 50       		.byte	0x50
 8018 0d1e 00000000 		.4byte	0
 8019 0d22 00000000 		.4byte	0
 8020              	.LLST113:
 8021 0d26 A4000000 		.4byte	.LVL144
 8022 0d2a B6000000 		.4byte	.LVL146
 8023 0d2e 0300     		.2byte	0x3
 8024 0d30 09       		.byte	0x9
 8025 0d31 FF       		.byte	0xff
 8026 0d32 9F       		.byte	0x9f
 8027 0d33 00000000 		.4byte	0
 8028 0d37 00000000 		.4byte	0
 8029              	.LLST114:
 8030 0d3b A4000000 		.4byte	.LVL144
 8031 0d3f B6000000 		.4byte	.LVL146
 8032 0d43 0100     		.2byte	0x1
 8033 0d45 50       		.byte	0x50
 8034 0d46 00000000 		.4byte	0
 8035 0d4a 00000000 		.4byte	0
 8036              	.LLST115:
 8037 0d4e 5C000000 		.4byte	.LVL133
ARM GAS  /tmp/ccjsfSlY.s 			page 172


 8038 0d52 5E000000 		.4byte	.LVL134
 8039 0d56 0500     		.2byte	0x5
 8040 0d58 72       		.byte	0x72
 8041 0d59 00       		.sleb128 0
 8042 0d5a 73       		.byte	0x73
 8043 0d5b 00       		.sleb128 0
 8044 0d5c 22       		.byte	0x22
 8045 0d5d 5E000000 		.4byte	.LVL134
 8046 0d61 60000000 		.4byte	.LVL135
 8047 0d65 0600     		.2byte	0x6
 8048 0d67 72       		.byte	0x72
 8049 0d68 00       		.sleb128 0
 8050 0d69 71       		.byte	0x71
 8051 0d6a 04       		.sleb128 4
 8052 0d6b 06       		.byte	0x6
 8053 0d6c 22       		.byte	0x22
 8054 0d6d 60000000 		.4byte	.LVL135
 8055 0d71 62000000 		.4byte	.LVL136
 8056 0d75 0700     		.2byte	0x7
 8057 0d77 71       		.byte	0x71
 8058 0d78 00       		.sleb128 0
 8059 0d79 06       		.byte	0x6
 8060 0d7a 71       		.byte	0x71
 8061 0d7b 04       		.sleb128 4
 8062 0d7c 06       		.byte	0x6
 8063 0d7d 22       		.byte	0x22
 8064 0d7e 62000000 		.4byte	.LVL136
 8065 0d82 64000000 		.4byte	.LVL137
 8066 0d86 0100     		.2byte	0x1
 8067 0d88 53       		.byte	0x53
 8068 0d89 64000000 		.4byte	.LVL137
 8069 0d8d 68000000 		.4byte	.LVL138
 8070 0d91 0400     		.2byte	0x4
 8071 0d93 70       		.byte	0x70
 8072 0d94 08       		.sleb128 8
 8073 0d95 06       		.byte	0x6
 8074 0d96 9F       		.byte	0x9f
 8075 0d97 00000000 		.4byte	0
 8076 0d9b 00000000 		.4byte	0
 8077              	.LLST116:
 8078 0d9f 5C000000 		.4byte	.LVL133
 8079 0da3 6E000000 		.4byte	.LVL139
 8080 0da7 0100     		.2byte	0x1
 8081 0da9 50       		.byte	0x50
 8082 0daa 00000000 		.4byte	0
 8083 0dae 00000000 		.4byte	0
 8084              	.LLST117:
 8085 0db2 4A000000 		.4byte	.LVL131
 8086 0db6 9E000000 		.4byte	.LVL143
 8087 0dba 0200     		.2byte	0x2
 8088 0dbc 32       		.byte	0x32
 8089 0dbd 9F       		.byte	0x9f
 8090 0dbe A4000000 		.4byte	.LVL144
 8091 0dc2 B6000000 		.4byte	.LVL146
 8092 0dc6 0200     		.2byte	0x2
 8093 0dc8 32       		.byte	0x32
 8094 0dc9 9F       		.byte	0x9f
ARM GAS  /tmp/ccjsfSlY.s 			page 173


 8095 0dca 00000000 		.4byte	0
 8096 0dce 00000000 		.4byte	0
 8097              	.LLST118:
 8098 0dd2 4A000000 		.4byte	.LVL131
 8099 0dd6 9E000000 		.4byte	.LVL143
 8100 0dda 0100     		.2byte	0x1
 8101 0ddc 50       		.byte	0x50
 8102 0ddd A4000000 		.4byte	.LVL144
 8103 0de1 B6000000 		.4byte	.LVL146
 8104 0de5 0100     		.2byte	0x1
 8105 0de7 50       		.byte	0x50
 8106 0de8 00000000 		.4byte	0
 8107 0dec 00000000 		.4byte	0
 8108              	.LLST119:
 8109 0df0 68000000 		.4byte	.LVL138
 8110 0df4 9C000000 		.4byte	.LVL142
 8111 0df8 0200     		.2byte	0x2
 8112 0dfa 31       		.byte	0x31
 8113 0dfb 9F       		.byte	0x9f
 8114 0dfc B0000000 		.4byte	.LVL145
 8115 0e00 B6000000 		.4byte	.LVL146
 8116 0e04 0200     		.2byte	0x2
 8117 0e06 31       		.byte	0x31
 8118 0e07 9F       		.byte	0x9f
 8119 0e08 00000000 		.4byte	0
 8120 0e0c 00000000 		.4byte	0
 8121              	.LLST120:
 8122 0e10 68000000 		.4byte	.LVL138
 8123 0e14 9C000000 		.4byte	.LVL142
 8124 0e18 0100     		.2byte	0x1
 8125 0e1a 50       		.byte	0x50
 8126 0e1b B0000000 		.4byte	.LVL145
 8127 0e1f B6000000 		.4byte	.LVL146
 8128 0e23 0100     		.2byte	0x1
 8129 0e25 50       		.byte	0x50
 8130 0e26 00000000 		.4byte	0
 8131 0e2a 00000000 		.4byte	0
 8132              	.LLST121:
 8133 0e2e 6E000000 		.4byte	.LVL139
 8134 0e32 9C000000 		.4byte	.LVL142
 8135 0e36 0200     		.2byte	0x2
 8136 0e38 34       		.byte	0x34
 8137 0e39 9F       		.byte	0x9f
 8138 0e3a 00000000 		.4byte	0
 8139 0e3e 00000000 		.4byte	0
 8140              	.LLST122:
 8141 0e42 6E000000 		.4byte	.LVL139
 8142 0e46 9C000000 		.4byte	.LVL142
 8143 0e4a 0100     		.2byte	0x1
 8144 0e4c 50       		.byte	0x50
 8145 0e4d 00000000 		.4byte	0
 8146 0e51 00000000 		.4byte	0
 8147              	.LLST123:
 8148 0e55 7E000000 		.4byte	.LVL140
 8149 0e59 9C000000 		.4byte	.LVL142
 8150 0e5d 0100     		.2byte	0x1
 8151 0e5f 50       		.byte	0x50
ARM GAS  /tmp/ccjsfSlY.s 			page 174


 8152 0e60 00000000 		.4byte	0
 8153 0e64 00000000 		.4byte	0
 8154              	.LLST124:
 8155 0e68 04000000 		.4byte	.LVL151
 8156 0e6c 0C000000 		.4byte	.LVL152
 8157 0e70 0200     		.2byte	0x2
 8158 0e72 34       		.byte	0x34
 8159 0e73 9F       		.byte	0x9f
 8160 0e74 00000000 		.4byte	0
 8161 0e78 00000000 		.4byte	0
 8162              	.LLST125:
 8163 0e7c 04000000 		.4byte	.LVL151
 8164 0e80 0C000000 		.4byte	.LVL152
 8165 0e84 0100     		.2byte	0x1
 8166 0e86 50       		.byte	0x50
 8167 0e87 00000000 		.4byte	0
 8168 0e8b 00000000 		.4byte	0
 8169              	.LLST126:
 8170 0e8f 00000000 		.4byte	.LVL154
 8171 0e93 0F000000 		.4byte	.LVL156-1
 8172 0e97 0100     		.2byte	0x1
 8173 0e99 50       		.byte	0x50
 8174 0e9a 0F000000 		.4byte	.LVL156-1
 8175 0e9e 66000000 		.4byte	.LVL174
 8176 0ea2 0100     		.2byte	0x1
 8177 0ea4 57       		.byte	0x57
 8178 0ea5 66000000 		.4byte	.LVL174
 8179 0ea9 6E000000 		.4byte	.LVL177
 8180 0ead 0400     		.2byte	0x4
 8181 0eaf F3       		.byte	0xf3
 8182 0eb0 01       		.uleb128 0x1
 8183 0eb1 50       		.byte	0x50
 8184 0eb2 9F       		.byte	0x9f
 8185 0eb3 6E000000 		.4byte	.LVL177
 8186 0eb7 90000000 		.4byte	.LFE214
 8187 0ebb 0100     		.2byte	0x1
 8188 0ebd 57       		.byte	0x57
 8189 0ebe 00000000 		.4byte	0
 8190 0ec2 00000000 		.4byte	0
 8191              	.LLST127:
 8192 0ec6 00000000 		.4byte	.LVL154
 8193 0eca 0F000000 		.4byte	.LVL156-1
 8194 0ece 0100     		.2byte	0x1
 8195 0ed0 51       		.byte	0x51
 8196 0ed1 0F000000 		.4byte	.LVL156-1
 8197 0ed5 66000000 		.4byte	.LVL175
 8198 0ed9 0100     		.2byte	0x1
 8199 0edb 58       		.byte	0x58
 8200 0edc 66000000 		.4byte	.LVL175
 8201 0ee0 6E000000 		.4byte	.LVL177
 8202 0ee4 0400     		.2byte	0x4
 8203 0ee6 F3       		.byte	0xf3
 8204 0ee7 01       		.uleb128 0x1
 8205 0ee8 51       		.byte	0x51
 8206 0ee9 9F       		.byte	0x9f
 8207 0eea 6E000000 		.4byte	.LVL177
 8208 0eee 90000000 		.4byte	.LFE214
ARM GAS  /tmp/ccjsfSlY.s 			page 175


 8209 0ef2 0100     		.2byte	0x1
 8210 0ef4 58       		.byte	0x58
 8211 0ef5 00000000 		.4byte	0
 8212 0ef9 00000000 		.4byte	0
 8213              	.LLST128:
 8214 0efd 22000000 		.4byte	.LVL158
 8215 0f01 2C000000 		.4byte	.LVL159
 8216 0f05 0200     		.2byte	0x2
 8217 0f07 30       		.byte	0x30
 8218 0f08 9F       		.byte	0x9f
 8219 0f09 2C000000 		.4byte	.LVL159
 8220 0f0d 3C000000 		.4byte	.LVL162
 8221 0f11 0100     		.2byte	0x1
 8222 0f13 54       		.byte	0x54
 8223 0f14 3C000000 		.4byte	.LVL162
 8224 0f18 40000000 		.4byte	.LVL163
 8225 0f1c 0100     		.2byte	0x1
 8226 0f1e 55       		.byte	0x55
 8227 0f1f 40000000 		.4byte	.LVL163
 8228 0f23 44000000 		.4byte	.LVL164
 8229 0f27 0200     		.2byte	0x2
 8230 0f29 30       		.byte	0x30
 8231 0f2a 9F       		.byte	0x9f
 8232 0f2b 44000000 		.4byte	.LVL164
 8233 0f2f 4A000000 		.4byte	.LVL166
 8234 0f33 0100     		.2byte	0x1
 8235 0f35 55       		.byte	0x55
 8236 0f36 4A000000 		.4byte	.LVL166
 8237 0f3a 58000000 		.4byte	.LVL169
 8238 0f3e 0100     		.2byte	0x1
 8239 0f40 54       		.byte	0x54
 8240 0f41 7C000000 		.4byte	.LVL180
 8241 0f45 90000000 		.4byte	.LFE214
 8242 0f49 0200     		.2byte	0x2
 8243 0f4b 30       		.byte	0x30
 8244 0f4c 9F       		.byte	0x9f
 8245 0f4d 00000000 		.4byte	0
 8246 0f51 00000000 		.4byte	0
 8247              	.LLST129:
 8248 0f55 22000000 		.4byte	.LVL158
 8249 0f59 30000000 		.4byte	.LVL160
 8250 0f5d 0300     		.2byte	0x3
 8251 0f5f 09       		.byte	0x9
 8252 0f60 FF       		.byte	0xff
 8253 0f61 9F       		.byte	0x9f
 8254 0f62 30000000 		.4byte	.LVL160
 8255 0f66 37000000 		.4byte	.LVL161-1
 8256 0f6a 0F00     		.2byte	0xf
 8257 0f6c 70       		.byte	0x70
 8258 0f6d 00       		.sleb128 0
 8259 0f6e F7       		.byte	0xf7
 8260 0f6f 29       		.uleb128 0x29
 8261 0f70 75       		.byte	0x75
 8262 0f71 00       		.sleb128 0
 8263 0f72 76       		.byte	0x76
 8264 0f73 00       		.sleb128 0
 8265 0f74 1E       		.byte	0x1e
ARM GAS  /tmp/ccjsfSlY.s 			page 176


 8266 0f75 F7       		.byte	0xf7
 8267 0f76 29       		.uleb128 0x29
 8268 0f77 1B       		.byte	0x1b
 8269 0f78 F7       		.byte	0xf7
 8270 0f79 00       		.uleb128 0
 8271 0f7a 9F       		.byte	0x9f
 8272 0f7b 37000000 		.4byte	.LVL161-1
 8273 0f7f 3C000000 		.4byte	.LVL162
 8274 0f83 0F00     		.2byte	0xf
 8275 0f85 79       		.byte	0x79
 8276 0f86 00       		.sleb128 0
 8277 0f87 F7       		.byte	0xf7
 8278 0f88 29       		.uleb128 0x29
 8279 0f89 75       		.byte	0x75
 8280 0f8a 00       		.sleb128 0
 8281 0f8b 76       		.byte	0x76
 8282 0f8c 00       		.sleb128 0
 8283 0f8d 1E       		.byte	0x1e
 8284 0f8e F7       		.byte	0xf7
 8285 0f8f 29       		.uleb128 0x29
 8286 0f90 1B       		.byte	0x1b
 8287 0f91 F7       		.byte	0xf7
 8288 0f92 00       		.uleb128 0
 8289 0f93 9F       		.byte	0x9f
 8290 0f94 46000000 		.4byte	.LVL165
 8291 0f98 4A000000 		.4byte	.LVL166
 8292 0f9c 0300     		.2byte	0x3
 8293 0f9e 09       		.byte	0x9
 8294 0f9f FF       		.byte	0xff
 8295 0fa0 9F       		.byte	0x9f
 8296 0fa1 4A000000 		.4byte	.LVL166
 8297 0fa5 56000000 		.4byte	.LVL168
 8298 0fa9 0F00     		.2byte	0xf
 8299 0fab 79       		.byte	0x79
 8300 0fac 00       		.sleb128 0
 8301 0fad F7       		.byte	0xf7
 8302 0fae 29       		.uleb128 0x29
 8303 0faf 75       		.byte	0x75
 8304 0fb0 00       		.sleb128 0
 8305 0fb1 76       		.byte	0x76
 8306 0fb2 00       		.sleb128 0
 8307 0fb3 1E       		.byte	0x1e
 8308 0fb4 F7       		.byte	0xf7
 8309 0fb5 29       		.uleb128 0x29
 8310 0fb6 1B       		.byte	0x1b
 8311 0fb7 F7       		.byte	0xf7
 8312 0fb8 00       		.uleb128 0
 8313 0fb9 9F       		.byte	0x9f
 8314 0fba 7C000000 		.4byte	.LVL180
 8315 0fbe 90000000 		.4byte	.LFE214
 8316 0fc2 0300     		.2byte	0x3
 8317 0fc4 09       		.byte	0x9
 8318 0fc5 FF       		.byte	0xff
 8319 0fc6 9F       		.byte	0x9f
 8320 0fc7 00000000 		.4byte	0
 8321 0fcb 00000000 		.4byte	0
 8322              	.LLST130:
ARM GAS  /tmp/ccjsfSlY.s 			page 177


 8323 0fcf 22000000 		.4byte	.LVL158
 8324 0fd3 2C000000 		.4byte	.LVL159
 8325 0fd7 0200     		.2byte	0x2
 8326 0fd9 32       		.byte	0x32
 8327 0fda 9F       		.byte	0x9f
 8328 0fdb 2C000000 		.4byte	.LVL159
 8329 0fdf 5A000000 		.4byte	.LVL170
 8330 0fe3 0100     		.2byte	0x1
 8331 0fe5 56       		.byte	0x56
 8332 0fe6 7C000000 		.4byte	.LVL180
 8333 0fea 90000000 		.4byte	.LFE214
 8334 0fee 0200     		.2byte	0x2
 8335 0ff0 32       		.byte	0x32
 8336 0ff1 9F       		.byte	0x9f
 8337 0ff2 00000000 		.4byte	0
 8338 0ff6 00000000 		.4byte	0
 8339              	.LLST131:
 8340 0ffa 0C000000 		.4byte	.LVL155
 8341 0ffe 0F000000 		.4byte	.LVL156-1
 8342 1002 0100     		.2byte	0x1
 8343 1004 50       		.byte	0x50
 8344 1005 0F000000 		.4byte	.LVL156-1
 8345 1009 66000000 		.4byte	.LVL174
 8346 100d 0100     		.2byte	0x1
 8347 100f 57       		.byte	0x57
 8348 1010 66000000 		.4byte	.LVL174
 8349 1014 6E000000 		.4byte	.LVL177
 8350 1018 0400     		.2byte	0x4
 8351 101a F3       		.byte	0xf3
 8352 101b 01       		.uleb128 0x1
 8353 101c 50       		.byte	0x50
 8354 101d 9F       		.byte	0x9f
 8355 101e 6E000000 		.4byte	.LVL177
 8356 1022 90000000 		.4byte	.LFE214
 8357 1026 0100     		.2byte	0x1
 8358 1028 57       		.byte	0x57
 8359 1029 00000000 		.4byte	0
 8360 102d 00000000 		.4byte	0
 8361              	.LLST132:
 8362 1031 10000000 		.4byte	.LVL156
 8363 1035 1F000000 		.4byte	.LVL157-1
 8364 1039 0100     		.2byte	0x1
 8365 103b 50       		.byte	0x50
 8366 103c 22000000 		.4byte	.LVL158
 8367 1040 37000000 		.4byte	.LVL161-1
 8368 1044 0100     		.2byte	0x1
 8369 1046 50       		.byte	0x50
 8370 1047 37000000 		.4byte	.LVL161-1
 8371 104b 66000000 		.4byte	.LVL176
 8372 104f 0100     		.2byte	0x1
 8373 1051 59       		.byte	0x59
 8374 1052 6E000000 		.4byte	.LVL177
 8375 1056 77000000 		.4byte	.LVL178-1
 8376 105a 0100     		.2byte	0x1
 8377 105c 50       		.byte	0x50
 8378 105d 7A000000 		.4byte	.LVL179
 8379 1061 90000000 		.4byte	.LFE214
ARM GAS  /tmp/ccjsfSlY.s 			page 178


 8380 1065 0100     		.2byte	0x1
 8381 1067 50       		.byte	0x50
 8382 1068 00000000 		.4byte	0
 8383 106c 00000000 		.4byte	0
 8384              	.LLST133:
 8385 1070 5A000000 		.4byte	.LVL170
 8386 1074 66000000 		.4byte	.LVL173
 8387 1078 0100     		.2byte	0x1
 8388 107a 56       		.byte	0x56
 8389 107b 66000000 		.4byte	.LVL173
 8390 107f 66000000 		.4byte	.LVL174
 8391 1083 0200     		.2byte	0x2
 8392 1085 77       		.byte	0x77
 8393 1086 10       		.sleb128 16
 8394 1087 66000000 		.4byte	.LVL174
 8395 108b 6E000000 		.4byte	.LVL177
 8396 108f 0500     		.2byte	0x5
 8397 1091 F3       		.byte	0xf3
 8398 1092 01       		.uleb128 0x1
 8399 1093 50       		.byte	0x50
 8400 1094 23       		.byte	0x23
 8401 1095 10       		.uleb128 0x10
 8402 1096 00000000 		.4byte	0
 8403 109a 00000000 		.4byte	0
 8404              	.LLST134:
 8405 109e 5A000000 		.4byte	.LVL170
 8406 10a2 66000000 		.4byte	.LVL174
 8407 10a6 0100     		.2byte	0x1
 8408 10a8 57       		.byte	0x57
 8409 10a9 66000000 		.4byte	.LVL174
 8410 10ad 6E000000 		.4byte	.LVL177
 8411 10b1 0400     		.2byte	0x4
 8412 10b3 F3       		.byte	0xf3
 8413 10b4 01       		.uleb128 0x1
 8414 10b5 50       		.byte	0x50
 8415 10b6 9F       		.byte	0x9f
 8416 10b7 00000000 		.4byte	0
 8417 10bb 00000000 		.4byte	0
 8418              	.LLST135:
 8419 10bf 5C000000 		.4byte	.LVL171
 8420 10c3 60000000 		.4byte	.LVL172
 8421 10c7 0800     		.2byte	0x8
 8422 10c9 72       		.byte	0x72
 8423 10ca 00       		.sleb128 0
 8424 10cb 11       		.byte	0x11
 8425 10cc FF817C   		.sleb128 -65281
 8426 10cf 1A       		.byte	0x1a
 8427 10d0 9F       		.byte	0x9f
 8428 10d1 60000000 		.4byte	.LVL172
 8429 10d5 6E000000 		.4byte	.LVL177
 8430 10d9 0100     		.2byte	0x1
 8431 10db 53       		.byte	0x53
 8432 10dc 00000000 		.4byte	0
 8433 10e0 00000000 		.4byte	0
 8434              	.LLST136:
 8435 10e4 00000000 		.4byte	.LVL181
 8436 10e8 47000000 		.4byte	.LVL188-1
ARM GAS  /tmp/ccjsfSlY.s 			page 179


 8437 10ec 0100     		.2byte	0x1
 8438 10ee 50       		.byte	0x50
 8439 10ef 47000000 		.4byte	.LVL188-1
 8440 10f3 4A000000 		.4byte	.LVL189
 8441 10f7 0400     		.2byte	0x4
 8442 10f9 F3       		.byte	0xf3
 8443 10fa 01       		.uleb128 0x1
 8444 10fb 50       		.byte	0x50
 8445 10fc 9F       		.byte	0x9f
 8446 10fd 4A000000 		.4byte	.LVL189
 8447 1101 70000000 		.4byte	.LFE215
 8448 1105 0100     		.2byte	0x1
 8449 1107 50       		.byte	0x50
 8450 1108 00000000 		.4byte	0
 8451 110c 00000000 		.4byte	0
 8452              	.LLST138:
 8453 1110 08000000 		.4byte	.LVL182
 8454 1114 20000000 		.4byte	.LVL185
 8455 1118 0200     		.2byte	0x2
 8456 111a 42       		.byte	0x42
 8457 111b 9F       		.byte	0x9f
 8458 111c 4A000000 		.4byte	.LVL189
 8459 1120 70000000 		.4byte	.LFE215
 8460 1124 0200     		.2byte	0x2
 8461 1126 3B       		.byte	0x3b
 8462 1127 9F       		.byte	0x9f
 8463 1128 00000000 		.4byte	0
 8464 112c 00000000 		.4byte	0
 8465              	.LLST140:
 8466 1130 16000000 		.4byte	.LVL183
 8467 1134 4A000000 		.4byte	.LVL189
 8468 1138 0200     		.2byte	0x2
 8469 113a 31       		.byte	0x31
 8470 113b 9F       		.byte	0x9f
 8471 113c 58000000 		.4byte	.LVL190
 8472 1140 70000000 		.4byte	.LFE215
 8473 1144 0200     		.2byte	0x2
 8474 1146 31       		.byte	0x31
 8475 1147 9F       		.byte	0x9f
 8476 1148 00000000 		.4byte	0
 8477 114c 00000000 		.4byte	0
 8478              	.LLST141:
 8479 1150 16000000 		.4byte	.LVL183
 8480 1154 20000000 		.4byte	.LVL185
 8481 1158 0100     		.2byte	0x1
 8482 115a 50       		.byte	0x50
 8483 115b 58000000 		.4byte	.LVL190
 8484 115f 70000000 		.4byte	.LFE215
 8485 1163 0600     		.2byte	0x6
 8486 1165 0C       		.byte	0xc
 8487 1166 00000440 		.4byte	0x40040000
 8488 116a 9F       		.byte	0x9f
 8489 116b 00000000 		.4byte	0
 8490 116f 00000000 		.4byte	0
 8491              	.LLST142:
 8492 1173 16000000 		.4byte	.LVL183
 8493 1177 20000000 		.4byte	.LVL185
ARM GAS  /tmp/ccjsfSlY.s 			page 180


 8494 117b 0200     		.2byte	0x2
 8495 117d 31       		.byte	0x31
 8496 117e 9F       		.byte	0x9f
 8497 117f 00000000 		.4byte	0
 8498 1183 00000000 		.4byte	0
 8499              	.LLST143:
 8500 1187 2E000000 		.4byte	.LVL186
 8501 118b 4A000000 		.4byte	.LVL189
 8502 118f 0200     		.2byte	0x2
 8503 1191 30       		.byte	0x30
 8504 1192 9F       		.byte	0x9f
 8505 1193 00000000 		.4byte	0
 8506 1197 00000000 		.4byte	0
 8507              	.LLST144:
 8508 119b 2E000000 		.4byte	.LVL186
 8509 119f 47000000 		.4byte	.LVL188-1
 8510 11a3 0100     		.2byte	0x1
 8511 11a5 50       		.byte	0x50
 8512 11a6 47000000 		.4byte	.LVL188-1
 8513 11aa 4A000000 		.4byte	.LVL189
 8514 11ae 0400     		.2byte	0x4
 8515 11b0 F3       		.byte	0xf3
 8516 11b1 01       		.uleb128 0x1
 8517 11b2 50       		.byte	0x50
 8518 11b3 9F       		.byte	0x9f
 8519 11b4 00000000 		.4byte	0
 8520 11b8 00000000 		.4byte	0
 8521              	.LLST145:
 8522 11bc 38000000 		.4byte	.LVL187
 8523 11c0 4A000000 		.4byte	.LVL189
 8524 11c4 0200     		.2byte	0x2
 8525 11c6 30       		.byte	0x30
 8526 11c7 9F       		.byte	0x9f
 8527 11c8 00000000 		.4byte	0
 8528 11cc 00000000 		.4byte	0
 8529              	.LLST147:
 8530 11d0 38000000 		.4byte	.LVL187
 8531 11d4 4A000000 		.4byte	.LVL189
 8532 11d8 0200     		.2byte	0x2
 8533 11da 37       		.byte	0x37
 8534 11db 9F       		.byte	0x9f
 8535 11dc 00000000 		.4byte	0
 8536 11e0 00000000 		.4byte	0
 8537              	.LLST148:
 8538 11e4 38000000 		.4byte	.LVL187
 8539 11e8 47000000 		.4byte	.LVL188-1
 8540 11ec 0100     		.2byte	0x1
 8541 11ee 50       		.byte	0x50
 8542 11ef 47000000 		.4byte	.LVL188-1
 8543 11f3 4A000000 		.4byte	.LVL189
 8544 11f7 0400     		.2byte	0x4
 8545 11f9 F3       		.byte	0xf3
 8546 11fa 01       		.uleb128 0x1
 8547 11fb 50       		.byte	0x50
 8548 11fc 9F       		.byte	0x9f
 8549 11fd 00000000 		.4byte	0
 8550 1201 00000000 		.4byte	0
ARM GAS  /tmp/ccjsfSlY.s 			page 181


 8551              	.LLST149:
 8552 1205 00000000 		.4byte	.LVL192
 8553 1209 16000000 		.4byte	.LVL195
 8554 120d 0100     		.2byte	0x1
 8555 120f 50       		.byte	0x50
 8556 1210 16000000 		.4byte	.LVL195
 8557 1214 22000000 		.4byte	.LVL198
 8558 1218 0400     		.2byte	0x4
 8559 121a F3       		.byte	0xf3
 8560 121b 01       		.uleb128 0x1
 8561 121c 50       		.byte	0x50
 8562 121d 9F       		.byte	0x9f
 8563 121e 22000000 		.4byte	.LVL198
 8564 1222 2A000000 		.4byte	.LVL199
 8565 1226 0100     		.2byte	0x1
 8566 1228 50       		.byte	0x50
 8567 1229 2A000000 		.4byte	.LVL199
 8568 122d 48000000 		.4byte	.LFE216
 8569 1231 0400     		.2byte	0x4
 8570 1233 F3       		.byte	0xf3
 8571 1234 01       		.uleb128 0x1
 8572 1235 50       		.byte	0x50
 8573 1236 9F       		.byte	0x9f
 8574 1237 00000000 		.4byte	0
 8575 123b 00000000 		.4byte	0
 8576              	.LLST151:
 8577 123f 08000000 		.4byte	.LVL193
 8578 1243 16000000 		.4byte	.LVL195
 8579 1247 0100     		.2byte	0x1
 8580 1249 50       		.byte	0x50
 8581 124a 16000000 		.4byte	.LVL195
 8582 124e 22000000 		.4byte	.LVL198
 8583 1252 0400     		.2byte	0x4
 8584 1254 F3       		.byte	0xf3
 8585 1255 01       		.uleb128 0x1
 8586 1256 50       		.byte	0x50
 8587 1257 9F       		.byte	0x9f
 8588 1258 22000000 		.4byte	.LVL198
 8589 125c 2A000000 		.4byte	.LVL199
 8590 1260 0100     		.2byte	0x1
 8591 1262 50       		.byte	0x50
 8592 1263 2A000000 		.4byte	.LVL199
 8593 1267 48000000 		.4byte	.LFE216
 8594 126b 0400     		.2byte	0x4
 8595 126d F3       		.byte	0xf3
 8596 126e 01       		.uleb128 0x1
 8597 126f 50       		.byte	0x50
 8598 1270 9F       		.byte	0x9f
 8599 1271 00000000 		.4byte	0
 8600 1275 00000000 		.4byte	0
 8601              	.LLST152:
 8602 1279 0E000000 		.4byte	.LVL194
 8603 127d 20000000 		.4byte	.LVL197
 8604 1281 0200     		.2byte	0x2
 8605 1283 42       		.byte	0x42
 8606 1284 9F       		.byte	0x9f
 8607 1285 22000000 		.4byte	.LVL198
ARM GAS  /tmp/ccjsfSlY.s 			page 182


 8608 1289 48000000 		.4byte	.LFE216
 8609 128d 0200     		.2byte	0x2
 8610 128f 3B       		.byte	0x3b
 8611 1290 9F       		.byte	0x9f
 8612 1291 00000000 		.4byte	0
 8613 1295 00000000 		.4byte	0
 8614              	.LLST154:
 8615 1299 1A000000 		.4byte	.LVL196
 8616 129d 22000000 		.4byte	.LVL198
 8617 12a1 0200     		.2byte	0x2
 8618 12a3 30       		.byte	0x30
 8619 12a4 9F       		.byte	0x9f
 8620 12a5 2E000000 		.4byte	.LVL200
 8621 12a9 48000000 		.4byte	.LFE216
 8622 12ad 0200     		.2byte	0x2
 8623 12af 30       		.byte	0x30
 8624 12b0 9F       		.byte	0x9f
 8625 12b1 00000000 		.4byte	0
 8626 12b5 00000000 		.4byte	0
 8627              	.LLST155:
 8628 12b9 1A000000 		.4byte	.LVL196
 8629 12bd 20000000 		.4byte	.LVL197
 8630 12c1 0400     		.2byte	0x4
 8631 12c3 F3       		.byte	0xf3
 8632 12c4 01       		.uleb128 0x1
 8633 12c5 50       		.byte	0x50
 8634 12c6 9F       		.byte	0x9f
 8635 12c7 2E000000 		.4byte	.LVL200
 8636 12cb 48000000 		.4byte	.LFE216
 8637 12cf 0600     		.2byte	0x6
 8638 12d1 0C       		.byte	0xc
 8639 12d2 00000440 		.4byte	0x40040000
 8640 12d6 9F       		.byte	0x9f
 8641 12d7 00000000 		.4byte	0
 8642 12db 00000000 		.4byte	0
 8643              	.LLST156:
 8644 12df 1A000000 		.4byte	.LVL196
 8645 12e3 20000000 		.4byte	.LVL197
 8646 12e7 0200     		.2byte	0x2
 8647 12e9 30       		.byte	0x30
 8648 12ea 9F       		.byte	0x9f
 8649 12eb 00000000 		.4byte	0
 8650 12ef 00000000 		.4byte	0
 8651              		.section	.debug_aranges,"",%progbits
 8652 0000 74000000 		.4byte	0x74
 8653 0004 0200     		.2byte	0x2
 8654 0006 00000000 		.4byte	.Ldebug_info0
 8655 000a 04       		.byte	0x4
 8656 000b 00       		.byte	0
 8657 000c 0000     		.2byte	0
 8658 000e 0000     		.2byte	0
 8659 0010 00000000 		.4byte	.LFB201
 8660 0014 32000000 		.4byte	.LFE201-.LFB201
 8661 0018 00000000 		.4byte	.LFB206
 8662 001c 18000000 		.4byte	.LFE206-.LFB206
 8663 0020 00000000 		.4byte	.LFB207
 8664 0024 18010000 		.4byte	.LFE207-.LFB207
ARM GAS  /tmp/ccjsfSlY.s 			page 183


 8665 0028 00000000 		.4byte	.LFB208
 8666 002c C6000000 		.4byte	.LFE208-.LFB208
 8667 0030 00000000 		.4byte	.LFB209
 8668 0034 DC000000 		.4byte	.LFE209-.LFB209
 8669 0038 00000000 		.4byte	.LFB210
 8670 003c 24000000 		.4byte	.LFE210-.LFB210
 8671 0040 00000000 		.4byte	.LFB211
 8672 0044 84000000 		.4byte	.LFE211-.LFB211
 8673 0048 00000000 		.4byte	.LFB212
 8674 004c C8000000 		.4byte	.LFE212-.LFB212
 8675 0050 00000000 		.4byte	.LFB213
 8676 0054 18000000 		.4byte	.LFE213-.LFB213
 8677 0058 00000000 		.4byte	.LFB214
 8678 005c 90000000 		.4byte	.LFE214-.LFB214
 8679 0060 00000000 		.4byte	.LFB215
 8680 0064 70000000 		.4byte	.LFE215-.LFB215
 8681 0068 00000000 		.4byte	.LFB216
 8682 006c 48000000 		.4byte	.LFE216-.LFB216
 8683 0070 00000000 		.4byte	0
 8684 0074 00000000 		.4byte	0
 8685              		.section	.debug_ranges,"",%progbits
 8686              	.Ldebug_ranges0:
 8687 0000 00000000 		.4byte	.LBB224
 8688 0004 02000000 		.4byte	.LBE224
 8689 0008 10000000 		.4byte	.LBB228
 8690 000c 14000000 		.4byte	.LBE228
 8691 0010 26000000 		.4byte	.LBB231
 8692 0014 28000000 		.4byte	.LBE231
 8693 0018 00000000 		.4byte	0
 8694 001c 00000000 		.4byte	0
 8695 0020 04000000 		.4byte	.LBB232
 8696 0024 06000000 		.4byte	.LBE232
 8697 0028 10000000 		.4byte	.LBB236
 8698 002c 12000000 		.4byte	.LBE236
 8699 0030 14000000 		.4byte	.LBB239
 8700 0034 16000000 		.4byte	.LBE239
 8701 0038 00000000 		.4byte	0
 8702 003c 00000000 		.4byte	0
 8703 0040 1A000000 		.4byte	.LBB240
 8704 0044 1C000000 		.4byte	.LBE240
 8705 0048 1E000000 		.4byte	.LBB243
 8706 004c 20000000 		.4byte	.LBE243
 8707 0050 00000000 		.4byte	0
 8708 0054 00000000 		.4byte	0
 8709 0058 28000000 		.4byte	.LBB246
 8710 005c 2A000000 		.4byte	.LBE246
 8711 0060 2C000000 		.4byte	.LBB264
 8712 0064 2E000000 		.4byte	.LBE264
 8713 0068 8A000000 		.4byte	.LBB286
 8714 006c 92000000 		.4byte	.LBE286
 8715 0070 94000000 		.4byte	.LBB287
 8716 0074 9A000000 		.4byte	.LBE287
 8717 0078 06010000 		.4byte	.LBB314
 8718 007c 0C010000 		.4byte	.LBE314
 8719 0080 00000000 		.4byte	0
 8720 0084 00000000 		.4byte	0
 8721 0088 28000000 		.4byte	.LBB248
ARM GAS  /tmp/ccjsfSlY.s 			page 184


 8722 008c 2A000000 		.4byte	.LBE248
 8723 0090 2C000000 		.4byte	.LBB252
 8724 0094 2E000000 		.4byte	.LBE252
 8725 0098 06010000 		.4byte	.LBB255
 8726 009c 0C010000 		.4byte	.LBE255
 8727 00a0 00000000 		.4byte	0
 8728 00a4 00000000 		.4byte	0
 8729 00a8 2A000000 		.4byte	.LBB260
 8730 00ac 2C000000 		.4byte	.LBE260
 8731 00b0 44000000 		.4byte	.LBB282
 8732 00b4 46000000 		.4byte	.LBE282
 8733 00b8 7C000000 		.4byte	.LBB285
 8734 00bc 7E000000 		.4byte	.LBE285
 8735 00c0 00000000 		.4byte	0
 8736 00c4 00000000 		.4byte	0
 8737 00c8 2E000000 		.4byte	.LBB265
 8738 00cc 30000000 		.4byte	.LBE265
 8739 00d0 32000000 		.4byte	.LBB281
 8740 00d4 38000000 		.4byte	.LBE281
 8741 00d8 4C000000 		.4byte	.LBB283
 8742 00dc 4E000000 		.4byte	.LBE283
 8743 00e0 9A000000 		.4byte	.LBB288
 8744 00e4 9C000000 		.4byte	.LBE288
 8745 00e8 00000000 		.4byte	0
 8746 00ec 00000000 		.4byte	0
 8747 00f0 30000000 		.4byte	.LBB270
 8748 00f4 32000000 		.4byte	.LBE270
 8749 00f8 52000000 		.4byte	.LBB284
 8750 00fc 78000000 		.4byte	.LBE284
 8751 0100 00000000 		.4byte	0
 8752 0104 00000000 		.4byte	0
 8753 0108 30000000 		.4byte	.LBB272
 8754 010c 32000000 		.4byte	.LBE272
 8755 0110 52000000 		.4byte	.LBB276
 8756 0114 54000000 		.4byte	.LBE276
 8757 0118 6E000000 		.4byte	.LBB279
 8758 011c 70000000 		.4byte	.LBE279
 8759 0120 00000000 		.4byte	0
 8760 0124 00000000 		.4byte	0
 8761 0128 A8000000 		.4byte	.LBB289
 8762 012c AA000000 		.4byte	.LBE289
 8763 0130 AC000000 		.4byte	.LBB306
 8764 0134 AE000000 		.4byte	.LBE306
 8765 0138 E4000000 		.4byte	.LBB313
 8766 013c F4000000 		.4byte	.LBE313
 8767 0140 0C010000 		.4byte	.LBB315
 8768 0144 18010000 		.4byte	.LBE315
 8769 0148 00000000 		.4byte	0
 8770 014c 00000000 		.4byte	0
 8771 0150 A8000000 		.4byte	.LBB291
 8772 0154 AA000000 		.4byte	.LBE291
 8773 0158 AC000000 		.4byte	.LBB295
 8774 015c AE000000 		.4byte	.LBE295
 8775 0160 0C010000 		.4byte	.LBB298
 8776 0164 18010000 		.4byte	.LBE298
 8777 0168 00000000 		.4byte	0
 8778 016c 00000000 		.4byte	0
ARM GAS  /tmp/ccjsfSlY.s 			page 185


 8779 0170 AA000000 		.4byte	.LBB302
 8780 0174 AC000000 		.4byte	.LBE302
 8781 0178 BA000000 		.4byte	.LBB310
 8782 017c BC000000 		.4byte	.LBE310
 8783 0180 D6000000 		.4byte	.LBB312
 8784 0184 D8000000 		.4byte	.LBE312
 8785 0188 00000000 		.4byte	0
 8786 018c 00000000 		.4byte	0
 8787 0190 AE000000 		.4byte	.LBB307
 8788 0194 B2000000 		.4byte	.LBE307
 8789 0198 C0000000 		.4byte	.LBB311
 8790 019c C2000000 		.4byte	.LBE311
 8791 01a0 00000000 		.4byte	0
 8792 01a4 00000000 		.4byte	0
 8793 01a8 06000000 		.4byte	.LBB316
 8794 01ac 08000000 		.4byte	.LBE316
 8795 01b0 10000000 		.4byte	.LBB320
 8796 01b4 12000000 		.4byte	.LBE320
 8797 01b8 14000000 		.4byte	.LBB323
 8798 01bc 16000000 		.4byte	.LBE323
 8799 01c0 00000000 		.4byte	0
 8800 01c4 00000000 		.4byte	0
 8801 01c8 1A000000 		.4byte	.LBB324
 8802 01cc 1C000000 		.4byte	.LBE324
 8803 01d0 1E000000 		.4byte	.LBB327
 8804 01d4 20000000 		.4byte	.LBE327
 8805 01d8 00000000 		.4byte	0
 8806 01dc 00000000 		.4byte	0
 8807 01e0 28000000 		.4byte	.LBB330
 8808 01e4 2A000000 		.4byte	.LBE330
 8809 01e8 2E000000 		.4byte	.LBB357
 8810 01ec 78000000 		.4byte	.LBE357
 8811 01f0 C2000000 		.4byte	.LBB383
 8812 01f4 C6000000 		.4byte	.LBE383
 8813 01f8 00000000 		.4byte	0
 8814 01fc 00000000 		.4byte	0
 8815 0200 28000000 		.4byte	.LBB331
 8816 0204 2A000000 		.4byte	.LBE331
 8817 0208 2E000000 		.4byte	.LBB336
 8818 020c 30000000 		.4byte	.LBE336
 8819 0210 3C000000 		.4byte	.LBB345
 8820 0214 3E000000 		.4byte	.LBE345
 8821 0218 5E000000 		.4byte	.LBB351
 8822 021c 60000000 		.4byte	.LBE351
 8823 0220 00000000 		.4byte	0
 8824 0224 00000000 		.4byte	0
 8825 0228 30000000 		.4byte	.LBB337
 8826 022c 32000000 		.4byte	.LBE337
 8827 0230 3E000000 		.4byte	.LBB346
 8828 0234 40000000 		.4byte	.LBE346
 8829 0238 6E000000 		.4byte	.LBB356
 8830 023c 70000000 		.4byte	.LBE356
 8831 0240 00000000 		.4byte	0
 8832 0244 00000000 		.4byte	0
 8833 0248 32000000 		.4byte	.LBB341
 8834 024c 34000000 		.4byte	.LBE341
 8835 0250 44000000 		.4byte	.LBB347
ARM GAS  /tmp/ccjsfSlY.s 			page 186


 8836 0254 46000000 		.4byte	.LBE347
 8837 0258 50000000 		.4byte	.LBB350
 8838 025c 52000000 		.4byte	.LBE350
 8839 0260 00000000 		.4byte	0
 8840 0264 00000000 		.4byte	0
 8841 0268 64000000 		.4byte	.LBB352
 8842 026c 68000000 		.4byte	.LBE352
 8843 0270 6C000000 		.4byte	.LBB355
 8844 0274 6E000000 		.4byte	.LBE355
 8845 0278 00000000 		.4byte	0
 8846 027c 00000000 		.4byte	0
 8847 0280 78000000 		.4byte	.LBB358
 8848 0284 7A000000 		.4byte	.LBE358
 8849 0288 82000000 		.4byte	.LBB381
 8850 028c 84000000 		.4byte	.LBE381
 8851 0290 88000000 		.4byte	.LBB382
 8852 0294 C2000000 		.4byte	.LBE382
 8853 0298 00000000 		.4byte	0
 8854 029c 00000000 		.4byte	0
 8855 02a0 82000000 		.4byte	.LBB359
 8856 02a4 84000000 		.4byte	.LBE359
 8857 02a8 88000000 		.4byte	.LBB364
 8858 02ac 8A000000 		.4byte	.LBE364
 8859 02b0 96000000 		.4byte	.LBB371
 8860 02b4 98000000 		.4byte	.LBE371
 8861 02b8 AC000000 		.4byte	.LBB376
 8862 02bc AE000000 		.4byte	.LBE376
 8863 02c0 00000000 		.4byte	0
 8864 02c4 00000000 		.4byte	0
 8865 02c8 8A000000 		.4byte	.LBB365
 8866 02cc 8C000000 		.4byte	.LBE365
 8867 02d0 98000000 		.4byte	.LBB372
 8868 02d4 9A000000 		.4byte	.LBE372
 8869 02d8 00000000 		.4byte	0
 8870 02dc 00000000 		.4byte	0
 8871 02e0 8C000000 		.4byte	.LBB368
 8872 02e4 8E000000 		.4byte	.LBE368
 8873 02e8 9E000000 		.4byte	.LBB373
 8874 02ec A0000000 		.4byte	.LBE373
 8875 02f0 00000000 		.4byte	0
 8876 02f4 00000000 		.4byte	0
 8877 02f8 B2000000 		.4byte	.LBB377
 8878 02fc B6000000 		.4byte	.LBE377
 8879 0300 BA000000 		.4byte	.LBB380
 8880 0304 BC000000 		.4byte	.LBE380
 8881 0308 00000000 		.4byte	0
 8882 030c 00000000 		.4byte	0
 8883 0310 06000000 		.4byte	.LBB384
 8884 0314 08000000 		.4byte	.LBE384
 8885 0318 0E000000 		.4byte	.LBB388
 8886 031c 10000000 		.4byte	.LBE388
 8887 0320 12000000 		.4byte	.LBB391
 8888 0324 14000000 		.4byte	.LBE391
 8889 0328 00000000 		.4byte	0
 8890 032c 00000000 		.4byte	0
 8891 0330 18000000 		.4byte	.LBB392
 8892 0334 1A000000 		.4byte	.LBE392
ARM GAS  /tmp/ccjsfSlY.s 			page 187


 8893 0338 1C000000 		.4byte	.LBB395
 8894 033c 1E000000 		.4byte	.LBE395
 8895 0340 00000000 		.4byte	0
 8896 0344 00000000 		.4byte	0
 8897 0348 28000000 		.4byte	.LBB398
 8898 034c 32000000 		.4byte	.LBE398
 8899 0350 34000000 		.4byte	.LBB427
 8900 0354 7C000000 		.4byte	.LBE427
 8901 0358 D4000000 		.4byte	.LBB461
 8902 035c DC000000 		.4byte	.LBE461
 8903 0360 00000000 		.4byte	0
 8904 0364 00000000 		.4byte	0
 8905 0368 28000000 		.4byte	.LBB399
 8906 036c 2C000000 		.4byte	.LBE399
 8907 0370 40000000 		.4byte	.LBB417
 8908 0374 42000000 		.4byte	.LBE417
 8909 0378 68000000 		.4byte	.LBB423
 8910 037c 6A000000 		.4byte	.LBE423
 8911 0380 00000000 		.4byte	0
 8912 0384 00000000 		.4byte	0
 8913 0388 2C000000 		.4byte	.LBB403
 8914 038c 30000000 		.4byte	.LBE403
 8915 0390 6E000000 		.4byte	.LBB424
 8916 0394 70000000 		.4byte	.LBE424
 8917 0398 72000000 		.4byte	.LBB425
 8918 039c 74000000 		.4byte	.LBE425
 8919 03a0 00000000 		.4byte	0
 8920 03a4 00000000 		.4byte	0
 8921 03a8 30000000 		.4byte	.LBB407
 8922 03ac 32000000 		.4byte	.LBE407
 8923 03b0 34000000 		.4byte	.LBB412
 8924 03b4 36000000 		.4byte	.LBE412
 8925 03b8 44000000 		.4byte	.LBB418
 8926 03bc 46000000 		.4byte	.LBE418
 8927 03c0 74000000 		.4byte	.LBB426
 8928 03c4 76000000 		.4byte	.LBE426
 8929 03c8 00000000 		.4byte	0
 8930 03cc 00000000 		.4byte	0
 8931 03d0 36000000 		.4byte	.LBB413
 8932 03d4 38000000 		.4byte	.LBE413
 8933 03d8 4A000000 		.4byte	.LBB419
 8934 03dc 4C000000 		.4byte	.LBE419
 8935 03e0 5A000000 		.4byte	.LBB422
 8936 03e4 5C000000 		.4byte	.LBE422
 8937 03e8 00000000 		.4byte	0
 8938 03ec 00000000 		.4byte	0
 8939 03f0 7C000000 		.4byte	.LBB428
 8940 03f4 7E000000 		.4byte	.LBE428
 8941 03f8 86000000 		.4byte	.LBB459
 8942 03fc 8C000000 		.4byte	.LBE459
 8943 0400 8E000000 		.4byte	.LBB460
 8944 0404 D4000000 		.4byte	.LBE460
 8945 0408 00000000 		.4byte	0
 8946 040c 00000000 		.4byte	0
 8947 0410 86000000 		.4byte	.LBB429
 8948 0414 8A000000 		.4byte	.LBE429
 8949 0418 9E000000 		.4byte	.LBB448
ARM GAS  /tmp/ccjsfSlY.s 			page 188


 8950 041c A0000000 		.4byte	.LBE448
 8951 0420 C6000000 		.4byte	.LBB456
 8952 0424 C8000000 		.4byte	.LBE456
 8953 0428 00000000 		.4byte	0
 8954 042c 00000000 		.4byte	0
 8955 0430 8A000000 		.4byte	.LBB433
 8956 0434 8C000000 		.4byte	.LBE433
 8957 0438 8E000000 		.4byte	.LBB438
 8958 043c 90000000 		.4byte	.LBE438
 8959 0440 CC000000 		.4byte	.LBB457
 8960 0444 CE000000 		.4byte	.LBE457
 8961 0448 D0000000 		.4byte	.LBB458
 8962 044c D4000000 		.4byte	.LBE458
 8963 0450 00000000 		.4byte	0
 8964 0454 00000000 		.4byte	0
 8965 0458 90000000 		.4byte	.LBB439
 8966 045c 92000000 		.4byte	.LBE439
 8967 0460 94000000 		.4byte	.LBB447
 8968 0464 96000000 		.4byte	.LBE447
 8969 0468 A2000000 		.4byte	.LBB449
 8970 046c A4000000 		.4byte	.LBE449
 8971 0470 00000000 		.4byte	0
 8972 0474 00000000 		.4byte	0
 8973 0478 92000000 		.4byte	.LBB443
 8974 047c 94000000 		.4byte	.LBE443
 8975 0480 A8000000 		.4byte	.LBB450
 8976 0484 AA000000 		.4byte	.LBE450
 8977 0488 B8000000 		.4byte	.LBB455
 8978 048c BA000000 		.4byte	.LBE455
 8979 0490 00000000 		.4byte	0
 8980 0494 00000000 		.4byte	0
 8981 0498 B2000000 		.4byte	.LBB451
 8982 049c B4000000 		.4byte	.LBE451
 8983 04a0 B6000000 		.4byte	.LBB454
 8984 04a4 B8000000 		.4byte	.LBE454
 8985 04a8 00000000 		.4byte	0
 8986 04ac 00000000 		.4byte	0
 8987 04b0 0E000000 		.4byte	.LBB466
 8988 04b4 12000000 		.4byte	.LBE466
 8989 04b8 18000000 		.4byte	.LBB471
 8990 04bc 1A000000 		.4byte	.LBE471
 8991 04c0 00000000 		.4byte	0
 8992 04c4 00000000 		.4byte	0
 8993 04c8 1E000000 		.4byte	.LBB472
 8994 04cc 20000000 		.4byte	.LBE472
 8995 04d0 20000000 		.4byte	.LBB475
 8996 04d4 22000000 		.4byte	.LBE475
 8997 04d8 00000000 		.4byte	0
 8998 04dc 00000000 		.4byte	0
 8999 04e0 1C000000 		.4byte	.LBB478
 9000 04e4 1E000000 		.4byte	.LBE478
 9001 04e8 30000000 		.4byte	.LBB500
 9002 04ec 34000000 		.4byte	.LBE500
 9003 04f0 4C000000 		.4byte	.LBB503
 9004 04f4 4E000000 		.4byte	.LBE503
 9005 04f8 00000000 		.4byte	0
 9006 04fc 00000000 		.4byte	0
ARM GAS  /tmp/ccjsfSlY.s 			page 189


 9007 0500 2A000000 		.4byte	.LBB482
 9008 0504 2C000000 		.4byte	.LBE482
 9009 0508 2E000000 		.4byte	.LBB499
 9010 050c 30000000 		.4byte	.LBE499
 9011 0510 34000000 		.4byte	.LBB501
 9012 0514 3E000000 		.4byte	.LBE501
 9013 0518 5C000000 		.4byte	.LBB504
 9014 051c 6A000000 		.4byte	.LBE504
 9015 0520 00000000 		.4byte	0
 9016 0524 00000000 		.4byte	0
 9017 0528 2A000000 		.4byte	.LBB484
 9018 052c 2C000000 		.4byte	.LBE484
 9019 0530 2E000000 		.4byte	.LBB488
 9020 0534 30000000 		.4byte	.LBE488
 9021 0538 60000000 		.4byte	.LBB491
 9022 053c 64000000 		.4byte	.LBE491
 9023 0540 00000000 		.4byte	0
 9024 0544 00000000 		.4byte	0
 9025 0548 2C000000 		.4byte	.LBB495
 9026 054c 2E000000 		.4byte	.LBE495
 9027 0550 3E000000 		.4byte	.LBB502
 9028 0554 40000000 		.4byte	.LBE502
 9029 0558 6A000000 		.4byte	.LBB505
 9030 055c 6C000000 		.4byte	.LBE505
 9031 0560 00000000 		.4byte	0
 9032 0564 00000000 		.4byte	0
 9033 0568 14000000 		.4byte	.LBB510
 9034 056c 16000000 		.4byte	.LBE510
 9035 0570 22000000 		.4byte	.LBB514
 9036 0574 26000000 		.4byte	.LBE514
 9037 0578 34000000 		.4byte	.LBB517
 9038 057c 36000000 		.4byte	.LBE517
 9039 0580 00000000 		.4byte	0
 9040 0584 00000000 		.4byte	0
 9041 0588 3E000000 		.4byte	.LBB518
 9042 058c 40000000 		.4byte	.LBE518
 9043 0590 42000000 		.4byte	.LBB541
 9044 0594 44000000 		.4byte	.LBE541
 9045 0598 58000000 		.4byte	.LBB560
 9046 059c 5E000000 		.4byte	.LBE560
 9047 05a0 60000000 		.4byte	.LBB561
 9048 05a4 68000000 		.4byte	.LBE561
 9049 05a8 A4000000 		.4byte	.LBB565
 9050 05ac A6000000 		.4byte	.LBE565
 9051 05b0 A8000000 		.4byte	.LBB566
 9052 05b4 B0000000 		.4byte	.LBE566
 9053 05b8 00000000 		.4byte	0
 9054 05bc 00000000 		.4byte	0
 9055 05c0 3E000000 		.4byte	.LBB520
 9056 05c4 40000000 		.4byte	.LBE520
 9057 05c8 42000000 		.4byte	.LBB525
 9058 05cc 44000000 		.4byte	.LBE525
 9059 05d0 A4000000 		.4byte	.LBB530
 9060 05d4 A6000000 		.4byte	.LBE530
 9061 05d8 A8000000 		.4byte	.LBB531
 9062 05dc AA000000 		.4byte	.LBE531
 9063 05e0 00000000 		.4byte	0
ARM GAS  /tmp/ccjsfSlY.s 			page 190


 9064 05e4 00000000 		.4byte	0
 9065 05e8 5C000000 		.4byte	.LBB526
 9066 05ec 5E000000 		.4byte	.LBE526
 9067 05f0 60000000 		.4byte	.LBB529
 9068 05f4 62000000 		.4byte	.LBE529
 9069 05f8 00000000 		.4byte	0
 9070 05fc 00000000 		.4byte	0
 9071 0600 40000000 		.4byte	.LBB537
 9072 0604 42000000 		.4byte	.LBE537
 9073 0608 4A000000 		.4byte	.LBB559
 9074 060c 4C000000 		.4byte	.LBE559
 9075 0610 96000000 		.4byte	.LBB564
 9076 0614 98000000 		.4byte	.LBE564
 9077 0618 00000000 		.4byte	0
 9078 061c 00000000 		.4byte	0
 9079 0620 44000000 		.4byte	.LBB542
 9080 0624 46000000 		.4byte	.LBE542
 9081 0628 48000000 		.4byte	.LBB558
 9082 062c 4A000000 		.4byte	.LBE558
 9083 0630 68000000 		.4byte	.LBB562
 9084 0634 6A000000 		.4byte	.LBE562
 9085 0638 B0000000 		.4byte	.LBB567
 9086 063c B2000000 		.4byte	.LBE567
 9087 0640 00000000 		.4byte	0
 9088 0644 00000000 		.4byte	0
 9089 0648 46000000 		.4byte	.LBB547
 9090 064c 48000000 		.4byte	.LBE547
 9091 0650 6E000000 		.4byte	.LBB563
 9092 0654 96000000 		.4byte	.LBE563
 9093 0658 00000000 		.4byte	0
 9094 065c 00000000 		.4byte	0
 9095 0660 46000000 		.4byte	.LBB549
 9096 0664 48000000 		.4byte	.LBE549
 9097 0668 6E000000 		.4byte	.LBB553
 9098 066c 70000000 		.4byte	.LBE553
 9099 0670 8C000000 		.4byte	.LBB556
 9100 0674 8E000000 		.4byte	.LBE556
 9101 0678 00000000 		.4byte	0
 9102 067c 00000000 		.4byte	0
 9103 0680 0C000000 		.4byte	.LBB572
 9104 0684 22000000 		.4byte	.LBE572
 9105 0688 6E000000 		.4byte	.LBB583
 9106 068c 7C000000 		.4byte	.LBE583
 9107 0690 00000000 		.4byte	0
 9108 0694 00000000 		.4byte	0
 9109 0698 5A000000 		.4byte	.LBB579
 9110 069c 5E000000 		.4byte	.LBE579
 9111 06a0 5E000000 		.4byte	.LBB582
 9112 06a4 66000000 		.4byte	.LBE582
 9113 06a8 00000000 		.4byte	0
 9114 06ac 00000000 		.4byte	0
 9115 06b0 00000000 		.4byte	.LBB584
 9116 06b4 02000000 		.4byte	.LBE584
 9117 06b8 04000000 		.4byte	.LBB587
 9118 06bc 08000000 		.4byte	.LBE587
 9119 06c0 00000000 		.4byte	0
 9120 06c4 00000000 		.4byte	0
ARM GAS  /tmp/ccjsfSlY.s 			page 191


 9121 06c8 08000000 		.4byte	.LBB588
 9122 06cc 16000000 		.4byte	.LBE588
 9123 06d0 4A000000 		.4byte	.LBB610
 9124 06d4 58000000 		.4byte	.LBE610
 9125 06d8 00000000 		.4byte	0
 9126 06dc 00000000 		.4byte	0
 9127 06e0 16000000 		.4byte	.LBB591
 9128 06e4 20000000 		.4byte	.LBE591
 9129 06e8 58000000 		.4byte	.LBB611
 9130 06ec 70000000 		.4byte	.LBE611
 9131 06f0 00000000 		.4byte	0
 9132 06f4 00000000 		.4byte	0
 9133 06f8 20000000 		.4byte	.LBB596
 9134 06fc 22000000 		.4byte	.LBE596
 9135 0700 22000000 		.4byte	.LBB603
 9136 0704 2E000000 		.4byte	.LBE603
 9137 0708 00000000 		.4byte	0
 9138 070c 00000000 		.4byte	0
 9139 0710 20000000 		.4byte	.LBB597
 9140 0714 22000000 		.4byte	.LBE597
 9141 0718 22000000 		.4byte	.LBB600
 9142 071c 28000000 		.4byte	.LBE600
 9143 0720 00000000 		.4byte	0
 9144 0724 00000000 		.4byte	0
 9145 0728 2E000000 		.4byte	.LBB604
 9146 072c 32000000 		.4byte	.LBE604
 9147 0730 34000000 		.4byte	.LBB607
 9148 0734 38000000 		.4byte	.LBE607
 9149 0738 00000000 		.4byte	0
 9150 073c 00000000 		.4byte	0
 9151 0740 0E000000 		.4byte	.LBB616
 9152 0744 1A000000 		.4byte	.LBE616
 9153 0748 22000000 		.4byte	.LBB624
 9154 074c 2E000000 		.4byte	.LBE624
 9155 0750 00000000 		.4byte	0
 9156 0754 00000000 		.4byte	0
 9157 0758 1A000000 		.4byte	.LBB619
 9158 075c 20000000 		.4byte	.LBE619
 9159 0760 2E000000 		.4byte	.LBB625
 9160 0764 48000000 		.4byte	.LBE625
 9161 0768 00000000 		.4byte	0
 9162 076c 00000000 		.4byte	0
 9163 0770 00000000 		.4byte	.LFB201
 9164 0774 32000000 		.4byte	.LFE201
 9165 0778 00000000 		.4byte	.LFB206
 9166 077c 18000000 		.4byte	.LFE206
 9167 0780 00000000 		.4byte	.LFB207
 9168 0784 18010000 		.4byte	.LFE207
 9169 0788 00000000 		.4byte	.LFB208
 9170 078c C6000000 		.4byte	.LFE208
 9171 0790 00000000 		.4byte	.LFB209
 9172 0794 DC000000 		.4byte	.LFE209
 9173 0798 00000000 		.4byte	.LFB210
 9174 079c 24000000 		.4byte	.LFE210
 9175 07a0 00000000 		.4byte	.LFB211
 9176 07a4 84000000 		.4byte	.LFE211
 9177 07a8 00000000 		.4byte	.LFB212
ARM GAS  /tmp/ccjsfSlY.s 			page 192


 9178 07ac C8000000 		.4byte	.LFE212
 9179 07b0 00000000 		.4byte	.LFB213
 9180 07b4 18000000 		.4byte	.LFE213
 9181 07b8 00000000 		.4byte	.LFB214
 9182 07bc 90000000 		.4byte	.LFE214
 9183 07c0 00000000 		.4byte	.LFB215
 9184 07c4 70000000 		.4byte	.LFE215
 9185 07c8 00000000 		.4byte	.LFB216
 9186 07cc 48000000 		.4byte	.LFE216
 9187 07d0 00000000 		.4byte	0
 9188 07d4 00000000 		.4byte	0
 9189              		.section	.debug_macro,"",%progbits
 9190              	.Ldebug_macro0:
 9191 0000 0400     		.2byte	0x4
 9192 0002 02       		.byte	0x2
 9193 0003 00000000 		.4byte	.Ldebug_line0
 9194 0007 07       		.byte	0x7
 9195 0008 00000000 		.4byte	.Ldebug_macro1
 9196 000c 03       		.byte	0x3
 9197 000d 00       		.uleb128 0
 9198 000e 01       		.uleb128 0x1
 9199 000f 03       		.byte	0x3
 9200 0010 20       		.uleb128 0x20
 9201 0011 08       		.uleb128 0x8
 9202 0012 05       		.byte	0x5
 9203 0013 1E       		.uleb128 0x1e
 9204 0014 167C0000 		.4byte	.LASF347
 9205 0018 03       		.byte	0x3
 9206 0019 20       		.uleb128 0x20
 9207 001a 07       		.uleb128 0x7
 9208 001b 05       		.byte	0x5
 9209 001c 21       		.uleb128 0x21
 9210 001d 6D220000 		.4byte	.LASF348
 9211              		.file 9 "/usr/lib/gcc/arm-none-eabi/4.9.3/include/stdint.h"
 9212 0021 03       		.byte	0x3
 9213 0022 23       		.uleb128 0x23
 9214 0023 09       		.uleb128 0x9
 9215              		.file 10 "/usr/arm-none-eabi/include/stdint.h"
 9216 0024 03       		.byte	0x3
 9217 0025 09       		.uleb128 0x9
 9218 0026 0A       		.uleb128 0xa
 9219 0027 05       		.byte	0x5
 9220 0028 0A       		.uleb128 0xa
 9221 0029 421D0000 		.4byte	.LASF349
 9222 002d 03       		.byte	0x3
 9223 002e 0C       		.uleb128 0xc
 9224 002f 05       		.uleb128 0x5
 9225 0030 05       		.byte	0x5
 9226 0031 06       		.uleb128 0x6
 9227 0032 B4520000 		.4byte	.LASF350
 9228              		.file 11 "/usr/arm-none-eabi/include/sys/features.h"
 9229 0036 03       		.byte	0x3
 9230 0037 08       		.uleb128 0x8
 9231 0038 0B       		.uleb128 0xb
 9232 0039 07       		.byte	0x7
 9233 003a 00000000 		.4byte	.Ldebug_macro2
 9234 003e 04       		.byte	0x4
ARM GAS  /tmp/ccjsfSlY.s 			page 193


 9235 003f 07       		.byte	0x7
 9236 0040 00000000 		.4byte	.Ldebug_macro3
 9237 0044 04       		.byte	0x4
 9238              		.file 12 "/usr/arm-none-eabi/include/sys/_intsup.h"
 9239 0045 03       		.byte	0x3
 9240 0046 0D       		.uleb128 0xd
 9241 0047 0C       		.uleb128 0xc
 9242 0048 07       		.byte	0x7
 9243 0049 00000000 		.4byte	.Ldebug_macro4
 9244 004d 04       		.byte	0x4
 9245 004e 03       		.byte	0x3
 9246 004f 0E       		.uleb128 0xe
 9247 0050 06       		.uleb128 0x6
 9248 0051 07       		.byte	0x7
 9249 0052 00000000 		.4byte	.Ldebug_macro5
 9250 0056 04       		.byte	0x4
 9251 0057 07       		.byte	0x7
 9252 0058 00000000 		.4byte	.Ldebug_macro6
 9253 005c 04       		.byte	0x4
 9254 005d 05       		.byte	0x5
 9255 005e 0D       		.uleb128 0xd
 9256 005f 21680000 		.4byte	.LASF468
 9257 0063 04       		.byte	0x4
 9258              		.file 13 "/usr/lib/gcc/arm-none-eabi/4.9.3/include/stdbool.h"
 9259 0064 03       		.byte	0x3
 9260 0065 24       		.uleb128 0x24
 9261 0066 0D       		.uleb128 0xd
 9262 0067 07       		.byte	0x7
 9263 0068 00000000 		.4byte	.Ldebug_macro7
 9264 006c 04       		.byte	0x4
 9265 006d 07       		.byte	0x7
 9266 006e 00000000 		.4byte	.Ldebug_macro8
 9267 0072 04       		.byte	0x4
 9268              		.file 14 "../../lpc11cx4-library/lpc_chip_11cxx_lib/inc/sys_config.h"
 9269 0073 03       		.byte	0x3
 9270 0074 21       		.uleb128 0x21
 9271 0075 0E       		.uleb128 0xe
 9272 0076 07       		.byte	0x7
 9273 0077 00000000 		.4byte	.Ldebug_macro9
 9274 007b 04       		.byte	0x4
 9275              		.file 15 "../../lpc11cx4-library/lpc_chip_11cxx_lib/inc/cmsis.h"
 9276 007c 03       		.byte	0x3
 9277 007d 22       		.uleb128 0x22
 9278 007e 0F       		.uleb128 0xf
 9279 007f 05       		.byte	0x5
 9280 0080 1E       		.uleb128 0x1e
 9281 0081 3B510000 		.4byte	.LASF492
 9282              		.file 16 "../../lpc11cx4-library/lpc_chip_11cxx_lib/inc/cmsis_11cxx.h"
 9283 0085 03       		.byte	0x3
 9284 0086 2E       		.uleb128 0x2e
 9285 0087 10       		.uleb128 0x10
 9286 0088 07       		.byte	0x7
 9287 0089 00000000 		.4byte	.Ldebug_macro10
 9288 008d 04       		.byte	0x4
 9289              		.file 17 "../../lpc11cx4-library/lpc_chip_11cxx_lib/inc/core_cm0.h"
 9290 008e 03       		.byte	0x3
 9291 008f 3E       		.uleb128 0x3e
ARM GAS  /tmp/ccjsfSlY.s 			page 194


 9292 0090 11       		.uleb128 0x11
 9293 0091 07       		.byte	0x7
 9294 0092 00000000 		.4byte	.Ldebug_macro11
 9295              		.file 18 "../../lpc11cx4-library/lpc_chip_11cxx_lib/inc/core_cmInstr.h"
 9296 0096 03       		.byte	0x3
 9297 0097 70       		.uleb128 0x70
 9298 0098 12       		.uleb128 0x12
 9299 0099 05       		.byte	0x5
 9300 009a 19       		.uleb128 0x19
 9301 009b B01D0000 		.4byte	.LASF506
 9302 009f 04       		.byte	0x4
 9303              		.file 19 "../../lpc11cx4-library/lpc_chip_11cxx_lib/inc/core_cmFunc.h"
 9304 00a0 03       		.byte	0x3
 9305 00a1 71       		.uleb128 0x71
 9306 00a2 13       		.uleb128 0x13
 9307 00a3 05       		.byte	0x5
 9308 00a4 19       		.uleb128 0x19
 9309 00a5 DE0B0000 		.4byte	.LASF507
 9310 00a9 04       		.byte	0x4
 9311 00aa 07       		.byte	0x7
 9312 00ab 00000000 		.4byte	.Ldebug_macro12
 9313 00af 04       		.byte	0x4
 9314 00b0 04       		.byte	0x4
 9315 00b1 07       		.byte	0x7
 9316 00b2 00000000 		.4byte	.Ldebug_macro13
 9317              		.file 20 "../../lpc11cx4-library/lpc_chip_11cxx_lib/inc/pmu_11xx.h"
 9318 00b6 03       		.byte	0x3
 9319 00b7 E901     		.uleb128 0xe9
 9320 00b9 14       		.uleb128 0x14
 9321 00ba 07       		.byte	0x7
 9322 00bb 00000000 		.4byte	.Ldebug_macro14
 9323 00bf 04       		.byte	0x4
 9324              		.file 21 "../../lpc11cx4-library/lpc_chip_11cxx_lib/inc/fmc_11xx.h"
 9325 00c0 03       		.byte	0x3
 9326 00c1 EA01     		.uleb128 0xea
 9327 00c3 15       		.uleb128 0x15
 9328 00c4 05       		.byte	0x5
 9329 00c5 21       		.uleb128 0x21
 9330 00c6 6E6A0000 		.4byte	.LASF637
 9331 00ca 04       		.byte	0x4
 9332 00cb 03       		.byte	0x3
 9333 00cc EB01     		.uleb128 0xeb
 9334 00ce 04       		.uleb128 0x4
 9335 00cf 07       		.byte	0x7
 9336 00d0 00000000 		.4byte	.Ldebug_macro15
 9337 00d4 04       		.byte	0x4
 9338 00d5 03       		.byte	0x3
 9339 00d6 EC01     		.uleb128 0xec
 9340 00d8 03       		.uleb128 0x3
 9341 00d9 07       		.byte	0x7
 9342 00da 00000000 		.4byte	.Ldebug_macro16
 9343 00de 04       		.byte	0x4
 9344              		.file 22 "../../lpc11cx4-library/lpc_chip_11cxx_lib/inc/iocon_11xx.h"
 9345 00df 03       		.byte	0x3
 9346 00e0 ED01     		.uleb128 0xed
 9347 00e2 16       		.uleb128 0x16
 9348 00e3 07       		.byte	0x7
ARM GAS  /tmp/ccjsfSlY.s 			page 195


 9349 00e4 00000000 		.4byte	.Ldebug_macro17
 9350 00e8 04       		.byte	0x4
 9351              		.file 23 "../../lpc11cx4-library/lpc_chip_11cxx_lib/inc/timer_11xx.h"
 9352 00e9 03       		.byte	0x3
 9353 00ea EE01     		.uleb128 0xee
 9354 00ec 17       		.uleb128 0x17
 9355 00ed 07       		.byte	0x7
 9356 00ee 00000000 		.4byte	.Ldebug_macro18
 9357 00f2 04       		.byte	0x4
 9358              		.file 24 "../../lpc11cx4-library/lpc_chip_11cxx_lib/inc/uart_11xx.h"
 9359 00f3 03       		.byte	0x3
 9360 00f4 EF01     		.uleb128 0xef
 9361 00f6 18       		.uleb128 0x18
 9362 00f7 05       		.byte	0x5
 9363 00f8 21       		.uleb128 0x21
 9364 00f9 C9250000 		.4byte	.LASF721
 9365              		.file 25 "../../lpc11cx4-library/lpc_chip_11cxx_lib/inc/ring_buffer.h"
 9366 00fd 03       		.byte	0x3
 9367 00fe 23       		.uleb128 0x23
 9368 00ff 19       		.uleb128 0x19
 9369 0100 07       		.byte	0x7
 9370 0101 00000000 		.4byte	.Ldebug_macro19
 9371 0105 04       		.byte	0x4
 9372 0106 07       		.byte	0x7
 9373 0107 00000000 		.4byte	.Ldebug_macro20
 9374 010b 04       		.byte	0x4
 9375              		.file 26 "../../lpc11cx4-library/lpc_chip_11cxx_lib/inc/wwdt_11xx.h"
 9376 010c 03       		.byte	0x3
 9377 010d F001     		.uleb128 0xf0
 9378 010f 1A       		.uleb128 0x1a
 9379 0110 07       		.byte	0x7
 9380 0111 00000000 		.4byte	.Ldebug_macro21
 9381 0115 04       		.byte	0x4
 9382 0116 03       		.byte	0x3
 9383 0117 F101     		.uleb128 0xf1
 9384 0119 02       		.uleb128 0x2
 9385 011a 07       		.byte	0x7
 9386 011b 00000000 		.4byte	.Ldebug_macro22
 9387 011f 04       		.byte	0x4
 9388              		.file 27 "../../lpc11cx4-library/lpc_chip_11cxx_lib/inc/romapi_11xx.h"
 9389 0120 03       		.byte	0x3
 9390 0121 F201     		.uleb128 0xf2
 9391 0123 1B       		.uleb128 0x1b
 9392 0124 05       		.byte	0x5
 9393 0125 21       		.uleb128 0x21
 9394 0126 74410000 		.4byte	.LASF874
 9395              		.file 28 "../../lpc11cx4-library/lpc_chip_11cxx_lib/inc/error.h"
 9396 012a 03       		.byte	0x3
 9397 012b 23       		.uleb128 0x23
 9398 012c 1C       		.uleb128 0x1c
 9399 012d 07       		.byte	0x7
 9400 012e 00000000 		.4byte	.Ldebug_macro23
 9401 0132 04       		.byte	0x4
 9402 0133 04       		.byte	0x4
 9403              		.file 29 "../../lpc11cx4-library/lpc_chip_11cxx_lib/inc/adc_11xx.h"
 9404 0134 03       		.byte	0x3
 9405 0135 F601     		.uleb128 0xf6
ARM GAS  /tmp/ccjsfSlY.s 			page 196


 9406 0137 1D       		.uleb128 0x1d
 9407 0138 07       		.byte	0x7
 9408 0139 00000000 		.4byte	.Ldebug_macro24
 9409 013d 04       		.byte	0x4
 9410              		.file 30 "../../lpc11cx4-library/lpc_chip_11cxx_lib/inc/gpio_11xx_2.h"
 9411 013e 03       		.byte	0x3
 9412 013f FF01     		.uleb128 0xff
 9413 0141 1E       		.uleb128 0x1e
 9414 0142 05       		.byte	0x5
 9415 0143 22       		.uleb128 0x22
 9416 0144 AB680000 		.4byte	.LASF897
 9417 0148 04       		.byte	0x4
 9418              		.file 31 "../../lpc11cx4-library/lpc_chip_11cxx_lib/inc/i2c_11xx.h"
 9419 0149 03       		.byte	0x3
 9420 014a 8C02     		.uleb128 0x10c
 9421 014c 1F       		.uleb128 0x1f
 9422 014d 07       		.byte	0x7
 9423 014e 00000000 		.4byte	.Ldebug_macro25
 9424 0152 04       		.byte	0x4
 9425              		.file 32 "../../lpc11cx4-library/lpc_chip_11cxx_lib/inc/ccand_11xx.h"
 9426 0153 03       		.byte	0x3
 9427 0154 8F02     		.uleb128 0x10f
 9428 0156 20       		.uleb128 0x20
 9429 0157 07       		.byte	0x7
 9430 0158 00000000 		.4byte	.Ldebug_macro26
 9431 015c 04       		.byte	0x4
 9432 015d 04       		.byte	0x4
 9433 015e 04       		.byte	0x4
 9434 015f 00       		.byte	0
 9435              		.section	.debug_macro,"G",%progbits,wm4.0.e0d721c163b23fcbf846e7b2aab1891d,comdat
 9436              	.Ldebug_macro1:
 9437 0000 0400     		.2byte	0x4
 9438 0002 00       		.byte	0
 9439 0003 05       		.byte	0x5
 9440 0004 00       		.uleb128 0
 9441 0005 F44C0000 		.4byte	.LASF0
 9442 0009 05       		.byte	0x5
 9443 000a 00       		.uleb128 0
 9444 000b F0090000 		.4byte	.LASF1
 9445 000f 05       		.byte	0x5
 9446 0010 00       		.uleb128 0
 9447 0011 EE370000 		.4byte	.LASF2
 9448 0015 05       		.byte	0x5
 9449 0016 00       		.uleb128 0
 9450 0017 1B630000 		.4byte	.LASF3
 9451 001b 05       		.byte	0x5
 9452 001c 00       		.uleb128 0
 9453 001d D41C0000 		.4byte	.LASF4
 9454 0021 05       		.byte	0x5
 9455 0022 00       		.uleb128 0
 9456 0023 054E0000 		.4byte	.LASF5
 9457 0027 05       		.byte	0x5
 9458 0028 00       		.uleb128 0
 9459 0029 436A0000 		.4byte	.LASF6
 9460 002d 05       		.byte	0x5
 9461 002e 00       		.uleb128 0
 9462 002f 461F0000 		.4byte	.LASF7
ARM GAS  /tmp/ccjsfSlY.s 			page 197


 9463 0033 05       		.byte	0x5
 9464 0034 00       		.uleb128 0
 9465 0035 AC340000 		.4byte	.LASF8
 9466 0039 05       		.byte	0x5
 9467 003a 00       		.uleb128 0
 9468 003b 393C0000 		.4byte	.LASF9
 9469 003f 05       		.byte	0x5
 9470 0040 00       		.uleb128 0
 9471 0041 EB7B0000 		.4byte	.LASF10
 9472 0045 05       		.byte	0x5
 9473 0046 00       		.uleb128 0
 9474 0047 6E030000 		.4byte	.LASF11
 9475 004b 05       		.byte	0x5
 9476 004c 00       		.uleb128 0
 9477 004d 0B3D0000 		.4byte	.LASF12
 9478 0051 05       		.byte	0x5
 9479 0052 00       		.uleb128 0
 9480 0053 685D0000 		.4byte	.LASF13
 9481 0057 05       		.byte	0x5
 9482 0058 00       		.uleb128 0
 9483 0059 60730000 		.4byte	.LASF14
 9484 005d 05       		.byte	0x5
 9485 005e 00       		.uleb128 0
 9486 005f E6170000 		.4byte	.LASF15
 9487 0063 05       		.byte	0x5
 9488 0064 00       		.uleb128 0
 9489 0065 D5040000 		.4byte	.LASF16
 9490 0069 05       		.byte	0x5
 9491 006a 00       		.uleb128 0
 9492 006b DA210000 		.4byte	.LASF17
 9493 006f 05       		.byte	0x5
 9494 0070 00       		.uleb128 0
 9495 0071 986B0000 		.4byte	.LASF18
 9496 0075 05       		.byte	0x5
 9497 0076 00       		.uleb128 0
 9498 0077 94180000 		.4byte	.LASF19
 9499 007b 05       		.byte	0x5
 9500 007c 00       		.uleb128 0
 9501 007d E2220000 		.4byte	.LASF20
 9502 0081 05       		.byte	0x5
 9503 0082 00       		.uleb128 0
 9504 0083 01670000 		.4byte	.LASF21
 9505 0087 05       		.byte	0x5
 9506 0088 00       		.uleb128 0
 9507 0089 10440000 		.4byte	.LASF22
 9508 008d 05       		.byte	0x5
 9509 008e 00       		.uleb128 0
 9510 008f CF520000 		.4byte	.LASF23
 9511 0093 05       		.byte	0x5
 9512 0094 00       		.uleb128 0
 9513 0095 78590000 		.4byte	.LASF24
 9514 0099 05       		.byte	0x5
 9515 009a 00       		.uleb128 0
 9516 009b C10D0000 		.4byte	.LASF25
 9517 009f 05       		.byte	0x5
 9518 00a0 00       		.uleb128 0
 9519 00a1 34060000 		.4byte	.LASF26
ARM GAS  /tmp/ccjsfSlY.s 			page 198


 9520 00a5 05       		.byte	0x5
 9521 00a6 00       		.uleb128 0
 9522 00a7 61460000 		.4byte	.LASF27
 9523 00ab 05       		.byte	0x5
 9524 00ac 00       		.uleb128 0
 9525 00ad 244D0000 		.4byte	.LASF28
 9526 00b1 05       		.byte	0x5
 9527 00b2 00       		.uleb128 0
 9528 00b3 92150000 		.4byte	.LASF29
 9529 00b7 05       		.byte	0x5
 9530 00b8 00       		.uleb128 0
 9531 00b9 D1790000 		.4byte	.LASF30
 9532 00bd 05       		.byte	0x5
 9533 00be 00       		.uleb128 0
 9534 00bf BD2B0000 		.4byte	.LASF31
 9535 00c3 05       		.byte	0x5
 9536 00c4 00       		.uleb128 0
 9537 00c5 47230000 		.4byte	.LASF32
 9538 00c9 05       		.byte	0x5
 9539 00ca 00       		.uleb128 0
 9540 00cb C8470000 		.4byte	.LASF33
 9541 00cf 05       		.byte	0x5
 9542 00d0 00       		.uleb128 0
 9543 00d1 EC790000 		.4byte	.LASF34
 9544 00d5 05       		.byte	0x5
 9545 00d6 00       		.uleb128 0
 9546 00d7 AD4A0000 		.4byte	.LASF35
 9547 00db 05       		.byte	0x5
 9548 00dc 00       		.uleb128 0
 9549 00dd DC650000 		.4byte	.LASF36
 9550 00e1 05       		.byte	0x5
 9551 00e2 00       		.uleb128 0
 9552 00e3 1C170000 		.4byte	.LASF37
 9553 00e7 05       		.byte	0x5
 9554 00e8 00       		.uleb128 0
 9555 00e9 BC3A0000 		.4byte	.LASF38
 9556 00ed 05       		.byte	0x5
 9557 00ee 00       		.uleb128 0
 9558 00ef CE060000 		.4byte	.LASF39
 9559 00f3 05       		.byte	0x5
 9560 00f4 00       		.uleb128 0
 9561 00f5 20080000 		.4byte	.LASF40
 9562 00f9 05       		.byte	0x5
 9563 00fa 00       		.uleb128 0
 9564 00fb FE7B0000 		.4byte	.LASF41
 9565 00ff 05       		.byte	0x5
 9566 0100 00       		.uleb128 0
 9567 0101 D8430000 		.4byte	.LASF42
 9568 0105 05       		.byte	0x5
 9569 0106 00       		.uleb128 0
 9570 0107 754D0000 		.4byte	.LASF43
 9571 010b 05       		.byte	0x5
 9572 010c 00       		.uleb128 0
 9573 010d 42380000 		.4byte	.LASF44
 9574 0111 05       		.byte	0x5
 9575 0112 00       		.uleb128 0
 9576 0113 D6710000 		.4byte	.LASF45
ARM GAS  /tmp/ccjsfSlY.s 			page 199


 9577 0117 05       		.byte	0x5
 9578 0118 00       		.uleb128 0
 9579 0119 4F670000 		.4byte	.LASF46
 9580 011d 05       		.byte	0x5
 9581 011e 00       		.uleb128 0
 9582 011f A7150000 		.4byte	.LASF47
 9583 0123 05       		.byte	0x5
 9584 0124 00       		.uleb128 0
 9585 0125 75760000 		.4byte	.LASF48
 9586 0129 05       		.byte	0x5
 9587 012a 00       		.uleb128 0
 9588 012b AF3C0000 		.4byte	.LASF49
 9589 012f 05       		.byte	0x5
 9590 0130 00       		.uleb128 0
 9591 0131 ED7D0000 		.4byte	.LASF50
 9592 0135 05       		.byte	0x5
 9593 0136 00       		.uleb128 0
 9594 0137 BA120000 		.4byte	.LASF51
 9595 013b 05       		.byte	0x5
 9596 013c 00       		.uleb128 0
 9597 013d D05B0000 		.4byte	.LASF52
 9598 0141 05       		.byte	0x5
 9599 0142 00       		.uleb128 0
 9600 0143 E4620000 		.4byte	.LASF53
 9601 0147 05       		.byte	0x5
 9602 0148 00       		.uleb128 0
 9603 0149 5C3B0000 		.4byte	.LASF54
 9604 014d 05       		.byte	0x5
 9605 014e 00       		.uleb128 0
 9606 014f 1D150000 		.4byte	.LASF55
 9607 0153 05       		.byte	0x5
 9608 0154 00       		.uleb128 0
 9609 0155 045B0000 		.4byte	.LASF56
 9610 0159 05       		.byte	0x5
 9611 015a 00       		.uleb128 0
 9612 015b 843C0000 		.4byte	.LASF57
 9613 015f 05       		.byte	0x5
 9614 0160 00       		.uleb128 0
 9615 0161 5F0A0000 		.4byte	.LASF58
 9616 0165 05       		.byte	0x5
 9617 0166 00       		.uleb128 0
 9618 0167 84390000 		.4byte	.LASF59
 9619 016b 05       		.byte	0x5
 9620 016c 00       		.uleb128 0
 9621 016d C5370000 		.4byte	.LASF60
 9622 0171 05       		.byte	0x5
 9623 0172 00       		.uleb128 0
 9624 0173 E25A0000 		.4byte	.LASF61
 9625 0177 05       		.byte	0x5
 9626 0178 00       		.uleb128 0
 9627 0179 39240000 		.4byte	.LASF62
 9628 017d 05       		.byte	0x5
 9629 017e 00       		.uleb128 0
 9630 017f C8650000 		.4byte	.LASF63
 9631 0183 05       		.byte	0x5
 9632 0184 00       		.uleb128 0
 9633 0185 65380000 		.4byte	.LASF64
ARM GAS  /tmp/ccjsfSlY.s 			page 200


 9634 0189 05       		.byte	0x5
 9635 018a 00       		.uleb128 0
 9636 018b 7A350000 		.4byte	.LASF65
 9637 018f 05       		.byte	0x5
 9638 0190 00       		.uleb128 0
 9639 0191 1D2A0000 		.4byte	.LASF66
 9640 0195 05       		.byte	0x5
 9641 0196 00       		.uleb128 0
 9642 0197 22240000 		.4byte	.LASF67
 9643 019b 05       		.byte	0x5
 9644 019c 00       		.uleb128 0
 9645 019d FF0E0000 		.4byte	.LASF68
 9646 01a1 05       		.byte	0x5
 9647 01a2 00       		.uleb128 0
 9648 01a3 C36B0000 		.4byte	.LASF69
 9649 01a7 05       		.byte	0x5
 9650 01a8 00       		.uleb128 0
 9651 01a9 453B0000 		.4byte	.LASF70
 9652 01ad 05       		.byte	0x5
 9653 01ae 00       		.uleb128 0
 9654 01af A06D0000 		.4byte	.LASF71
 9655 01b3 05       		.byte	0x5
 9656 01b4 00       		.uleb128 0
 9657 01b5 9F010000 		.4byte	.LASF72
 9658 01b9 05       		.byte	0x5
 9659 01ba 00       		.uleb128 0
 9660 01bb C9140000 		.4byte	.LASF73
 9661 01bf 05       		.byte	0x5
 9662 01c0 00       		.uleb128 0
 9663 01c1 3C400000 		.4byte	.LASF74
 9664 01c5 05       		.byte	0x5
 9665 01c6 00       		.uleb128 0
 9666 01c7 5B410000 		.4byte	.LASF75
 9667 01cb 05       		.byte	0x5
 9668 01cc 00       		.uleb128 0
 9669 01cd 01760000 		.4byte	.LASF76
 9670 01d1 05       		.byte	0x5
 9671 01d2 00       		.uleb128 0
 9672 01d3 40650000 		.4byte	.LASF77
 9673 01d7 05       		.byte	0x5
 9674 01d8 00       		.uleb128 0
 9675 01d9 7C600000 		.4byte	.LASF78
 9676 01dd 05       		.byte	0x5
 9677 01de 00       		.uleb128 0
 9678 01df 74100000 		.4byte	.LASF79
 9679 01e3 05       		.byte	0x5
 9680 01e4 00       		.uleb128 0
 9681 01e5 9E020000 		.4byte	.LASF80
 9682 01e9 05       		.byte	0x5
 9683 01ea 00       		.uleb128 0
 9684 01eb 71620000 		.4byte	.LASF81
 9685 01ef 05       		.byte	0x5
 9686 01f0 00       		.uleb128 0
 9687 01f1 400B0000 		.4byte	.LASF82
 9688 01f5 05       		.byte	0x5
 9689 01f6 00       		.uleb128 0
 9690 01f7 AD4E0000 		.4byte	.LASF83
ARM GAS  /tmp/ccjsfSlY.s 			page 201


 9691 01fb 05       		.byte	0x5
 9692 01fc 00       		.uleb128 0
 9693 01fd E22F0000 		.4byte	.LASF84
 9694 0201 05       		.byte	0x5
 9695 0202 00       		.uleb128 0
 9696 0203 7F610000 		.4byte	.LASF85
 9697 0207 05       		.byte	0x5
 9698 0208 00       		.uleb128 0
 9699 0209 E70F0000 		.4byte	.LASF86
 9700 020d 05       		.byte	0x5
 9701 020e 00       		.uleb128 0
 9702 020f D33B0000 		.4byte	.LASF87
 9703 0213 05       		.byte	0x5
 9704 0214 00       		.uleb128 0
 9705 0215 1F2B0000 		.4byte	.LASF88
 9706 0219 05       		.byte	0x5
 9707 021a 00       		.uleb128 0
 9708 021b BD7C0000 		.4byte	.LASF89
 9709 021f 05       		.byte	0x5
 9710 0220 00       		.uleb128 0
 9711 0221 01590000 		.4byte	.LASF90
 9712 0225 05       		.byte	0x5
 9713 0226 00       		.uleb128 0
 9714 0227 4D400000 		.4byte	.LASF91
 9715 022b 05       		.byte	0x5
 9716 022c 00       		.uleb128 0
 9717 022d 747E0000 		.4byte	.LASF92
 9718 0231 05       		.byte	0x5
 9719 0232 00       		.uleb128 0
 9720 0233 0B500000 		.4byte	.LASF93
 9721 0237 05       		.byte	0x5
 9722 0238 00       		.uleb128 0
 9723 0239 84550000 		.4byte	.LASF94
 9724 023d 05       		.byte	0x5
 9725 023e 00       		.uleb128 0
 9726 023f C4290000 		.4byte	.LASF95
 9727 0243 05       		.byte	0x5
 9728 0244 00       		.uleb128 0
 9729 0245 2D7B0000 		.4byte	.LASF96
 9730 0249 05       		.byte	0x5
 9731 024a 00       		.uleb128 0
 9732 024b 54630000 		.4byte	.LASF97
 9733 024f 05       		.byte	0x5
 9734 0250 00       		.uleb128 0
 9735 0251 9D0D0000 		.4byte	.LASF98
 9736 0255 05       		.byte	0x5
 9737 0256 00       		.uleb128 0
 9738 0257 965F0000 		.4byte	.LASF99
 9739 025b 05       		.byte	0x5
 9740 025c 00       		.uleb128 0
 9741 025d 8F670000 		.4byte	.LASF100
 9742 0261 05       		.byte	0x5
 9743 0262 00       		.uleb128 0
 9744 0263 057D0000 		.4byte	.LASF101
 9745 0267 05       		.byte	0x5
 9746 0268 00       		.uleb128 0
 9747 0269 11080000 		.4byte	.LASF102
ARM GAS  /tmp/ccjsfSlY.s 			page 202


 9748 026d 05       		.byte	0x5
 9749 026e 00       		.uleb128 0
 9750 026f A35C0000 		.4byte	.LASF103
 9751 0273 05       		.byte	0x5
 9752 0274 00       		.uleb128 0
 9753 0275 6F690000 		.4byte	.LASF104
 9754 0279 05       		.byte	0x5
 9755 027a 00       		.uleb128 0
 9756 027b 696C0000 		.4byte	.LASF105
 9757 027f 05       		.byte	0x5
 9758 0280 00       		.uleb128 0
 9759 0281 9C2A0000 		.4byte	.LASF106
 9760 0285 05       		.byte	0x5
 9761 0286 00       		.uleb128 0
 9762 0287 91540000 		.4byte	.LASF107
 9763 028b 05       		.byte	0x5
 9764 028c 00       		.uleb128 0
 9765 028d 10580000 		.4byte	.LASF108
 9766 0291 05       		.byte	0x5
 9767 0292 00       		.uleb128 0
 9768 0293 DE540000 		.4byte	.LASF109
 9769 0297 05       		.byte	0x5
 9770 0298 00       		.uleb128 0
 9771 0299 1C160000 		.4byte	.LASF110
 9772 029d 05       		.byte	0x5
 9773 029e 00       		.uleb128 0
 9774 029f B7000000 		.4byte	.LASF111
 9775 02a3 05       		.byte	0x5
 9776 02a4 00       		.uleb128 0
 9777 02a5 A2320000 		.4byte	.LASF112
 9778 02a9 05       		.byte	0x5
 9779 02aa 00       		.uleb128 0
 9780 02ab B1200000 		.4byte	.LASF113
 9781 02af 05       		.byte	0x5
 9782 02b0 00       		.uleb128 0
 9783 02b1 79770000 		.4byte	.LASF114
 9784 02b5 05       		.byte	0x5
 9785 02b6 00       		.uleb128 0
 9786 02b7 E57C0000 		.4byte	.LASF115
 9787 02bb 05       		.byte	0x5
 9788 02bc 00       		.uleb128 0
 9789 02bd B5130000 		.4byte	.LASF116
 9790 02c1 05       		.byte	0x5
 9791 02c2 00       		.uleb128 0
 9792 02c3 AF4B0000 		.4byte	.LASF117
 9793 02c7 05       		.byte	0x5
 9794 02c8 00       		.uleb128 0
 9795 02c9 6F4A0000 		.4byte	.LASF118
 9796 02cd 05       		.byte	0x5
 9797 02ce 00       		.uleb128 0
 9798 02cf 901E0000 		.4byte	.LASF119
 9799 02d3 05       		.byte	0x5
 9800 02d4 00       		.uleb128 0
 9801 02d5 8B110000 		.4byte	.LASF120
 9802 02d9 05       		.byte	0x5
 9803 02da 00       		.uleb128 0
 9804 02db 224B0000 		.4byte	.LASF121
ARM GAS  /tmp/ccjsfSlY.s 			page 203


 9805 02df 05       		.byte	0x5
 9806 02e0 00       		.uleb128 0
 9807 02e1 85490000 		.4byte	.LASF122
 9808 02e5 05       		.byte	0x5
 9809 02e6 00       		.uleb128 0
 9810 02e7 DE400000 		.4byte	.LASF123
 9811 02eb 05       		.byte	0x5
 9812 02ec 00       		.uleb128 0
 9813 02ed 583C0000 		.4byte	.LASF124
 9814 02f1 05       		.byte	0x5
 9815 02f2 00       		.uleb128 0
 9816 02f3 9F4A0000 		.4byte	.LASF125
 9817 02f7 05       		.byte	0x5
 9818 02f8 00       		.uleb128 0
 9819 02f9 6E490000 		.4byte	.LASF126
 9820 02fd 05       		.byte	0x5
 9821 02fe 00       		.uleb128 0
 9822 02ff 781A0000 		.4byte	.LASF127
 9823 0303 05       		.byte	0x5
 9824 0304 00       		.uleb128 0
 9825 0305 D2170000 		.4byte	.LASF128
 9826 0309 05       		.byte	0x5
 9827 030a 00       		.uleb128 0
 9828 030b 99620000 		.4byte	.LASF129
 9829 030f 05       		.byte	0x5
 9830 0310 00       		.uleb128 0
 9831 0311 D41A0000 		.4byte	.LASF130
 9832 0315 05       		.byte	0x5
 9833 0316 00       		.uleb128 0
 9834 0317 5F250000 		.4byte	.LASF131
 9835 031b 05       		.byte	0x5
 9836 031c 00       		.uleb128 0
 9837 031d B0240000 		.4byte	.LASF132
 9838 0321 05       		.byte	0x5
 9839 0322 00       		.uleb128 0
 9840 0323 432B0000 		.4byte	.LASF133
 9841 0327 05       		.byte	0x5
 9842 0328 00       		.uleb128 0
 9843 0329 8B290000 		.4byte	.LASF134
 9844 032d 05       		.byte	0x5
 9845 032e 00       		.uleb128 0
 9846 032f B9060000 		.4byte	.LASF135
 9847 0333 05       		.byte	0x5
 9848 0334 00       		.uleb128 0
 9849 0335 6F360000 		.4byte	.LASF136
 9850 0339 05       		.byte	0x5
 9851 033a 00       		.uleb128 0
 9852 033b 4A1C0000 		.4byte	.LASF137
 9853 033f 05       		.byte	0x5
 9854 0340 00       		.uleb128 0
 9855 0341 2E7D0000 		.4byte	.LASF138
 9856 0345 05       		.byte	0x5
 9857 0346 00       		.uleb128 0
 9858 0347 73040000 		.4byte	.LASF139
 9859 034b 05       		.byte	0x5
 9860 034c 00       		.uleb128 0
 9861 034d 53560000 		.4byte	.LASF140
ARM GAS  /tmp/ccjsfSlY.s 			page 204


 9862 0351 05       		.byte	0x5
 9863 0352 00       		.uleb128 0
 9864 0353 217C0000 		.4byte	.LASF141
 9865 0357 05       		.byte	0x5
 9866 0358 00       		.uleb128 0
 9867 0359 9C200000 		.4byte	.LASF142
 9868 035d 05       		.byte	0x5
 9869 035e 00       		.uleb128 0
 9870 035f EC040000 		.4byte	.LASF143
 9871 0363 05       		.byte	0x5
 9872 0364 00       		.uleb128 0
 9873 0365 FF6B0000 		.4byte	.LASF144
 9874 0369 05       		.byte	0x5
 9875 036a 00       		.uleb128 0
 9876 036b BE760000 		.4byte	.LASF145
 9877 036f 05       		.byte	0x5
 9878 0370 00       		.uleb128 0
 9879 0371 42140000 		.4byte	.LASF146
 9880 0375 05       		.byte	0x5
 9881 0376 00       		.uleb128 0
 9882 0377 35360000 		.4byte	.LASF147
 9883 037b 05       		.byte	0x5
 9884 037c 00       		.uleb128 0
 9885 037d C3700000 		.4byte	.LASF148
 9886 0381 05       		.byte	0x5
 9887 0382 00       		.uleb128 0
 9888 0383 E1270000 		.4byte	.LASF149
 9889 0387 05       		.byte	0x5
 9890 0388 00       		.uleb128 0
 9891 0389 966A0000 		.4byte	.LASF150
 9892 038d 05       		.byte	0x5
 9893 038e 00       		.uleb128 0
 9894 038f 67720000 		.4byte	.LASF151
 9895 0393 05       		.byte	0x5
 9896 0394 00       		.uleb128 0
 9897 0395 B7070000 		.4byte	.LASF152
 9898 0399 05       		.byte	0x5
 9899 039a 00       		.uleb128 0
 9900 039b A7750000 		.4byte	.LASF153
 9901 039f 05       		.byte	0x5
 9902 03a0 00       		.uleb128 0
 9903 03a1 9E070000 		.4byte	.LASF154
 9904 03a5 05       		.byte	0x5
 9905 03a6 00       		.uleb128 0
 9906 03a7 ED360000 		.4byte	.LASF155
 9907 03ab 05       		.byte	0x5
 9908 03ac 00       		.uleb128 0
 9909 03ad 59270000 		.4byte	.LASF156
 9910 03b1 05       		.byte	0x5
 9911 03b2 00       		.uleb128 0
 9912 03b3 52480000 		.4byte	.LASF157
 9913 03b7 05       		.byte	0x5
 9914 03b8 00       		.uleb128 0
 9915 03b9 32000000 		.4byte	.LASF158
 9916 03bd 05       		.byte	0x5
 9917 03be 00       		.uleb128 0
 9918 03bf B8400000 		.4byte	.LASF159
ARM GAS  /tmp/ccjsfSlY.s 			page 205


 9919 03c3 05       		.byte	0x5
 9920 03c4 00       		.uleb128 0
 9921 03c5 57680000 		.4byte	.LASF160
 9922 03c9 05       		.byte	0x5
 9923 03ca 00       		.uleb128 0
 9924 03cb 95260000 		.4byte	.LASF161
 9925 03cf 05       		.byte	0x5
 9926 03d0 00       		.uleb128 0
 9927 03d1 E63D0000 		.4byte	.LASF162
 9928 03d5 05       		.byte	0x5
 9929 03d6 00       		.uleb128 0
 9930 03d7 93570000 		.4byte	.LASF163
 9931 03db 05       		.byte	0x5
 9932 03dc 00       		.uleb128 0
 9933 03dd ED480000 		.4byte	.LASF164
 9934 03e1 05       		.byte	0x5
 9935 03e2 00       		.uleb128 0
 9936 03e3 DE110000 		.4byte	.LASF165
 9937 03e7 05       		.byte	0x5
 9938 03e8 00       		.uleb128 0
 9939 03e9 3D520000 		.4byte	.LASF166
 9940 03ed 05       		.byte	0x5
 9941 03ee 00       		.uleb128 0
 9942 03ef 4C260000 		.4byte	.LASF167
 9943 03f3 05       		.byte	0x5
 9944 03f4 00       		.uleb128 0
 9945 03f5 BC380000 		.4byte	.LASF168
 9946 03f9 05       		.byte	0x5
 9947 03fa 00       		.uleb128 0
 9948 03fb CD050000 		.4byte	.LASF169
 9949 03ff 05       		.byte	0x5
 9950 0400 00       		.uleb128 0
 9951 0401 A3110000 		.4byte	.LASF170
 9952 0405 05       		.byte	0x5
 9953 0406 00       		.uleb128 0
 9954 0407 110F0000 		.4byte	.LASF171
 9955 040b 05       		.byte	0x5
 9956 040c 00       		.uleb128 0
 9957 040d 0B030000 		.4byte	.LASF172
 9958 0411 05       		.byte	0x5
 9959 0412 00       		.uleb128 0
 9960 0413 A2560000 		.4byte	.LASF173
 9961 0417 05       		.byte	0x5
 9962 0418 00       		.uleb128 0
 9963 0419 807B0000 		.4byte	.LASF174
 9964 041d 05       		.byte	0x5
 9965 041e 00       		.uleb128 0
 9966 041f 62060000 		.4byte	.LASF175
 9967 0423 05       		.byte	0x5
 9968 0424 00       		.uleb128 0
 9969 0425 16570000 		.4byte	.LASF176
 9970 0429 05       		.byte	0x5
 9971 042a 00       		.uleb128 0
 9972 042b CF190000 		.4byte	.LASF177
 9973 042f 05       		.byte	0x5
 9974 0430 00       		.uleb128 0
 9975 0431 20760000 		.4byte	.LASF178
ARM GAS  /tmp/ccjsfSlY.s 			page 206


 9976 0435 05       		.byte	0x5
 9977 0436 00       		.uleb128 0
 9978 0437 22320000 		.4byte	.LASF179
 9979 043b 05       		.byte	0x5
 9980 043c 00       		.uleb128 0
 9981 043d 964E0000 		.4byte	.LASF180
 9982 0441 05       		.byte	0x5
 9983 0442 00       		.uleb128 0
 9984 0443 E3140000 		.4byte	.LASF181
 9985 0447 05       		.byte	0x5
 9986 0448 00       		.uleb128 0
 9987 0449 781E0000 		.4byte	.LASF182
 9988 044d 05       		.byte	0x5
 9989 044e 00       		.uleb128 0
 9990 044f 76670000 		.4byte	.LASF183
 9991 0453 05       		.byte	0x5
 9992 0454 00       		.uleb128 0
 9993 0455 45020000 		.4byte	.LASF184
 9994 0459 05       		.byte	0x5
 9995 045a 00       		.uleb128 0
 9996 045b 893B0000 		.4byte	.LASF185
 9997 045f 05       		.byte	0x5
 9998 0460 00       		.uleb128 0
 9999 0461 67660000 		.4byte	.LASF186
 10000 0465 05       		.byte	0x5
 10001 0466 00       		.uleb128 0
 10002 0467 84010000 		.4byte	.LASF187
 10003 046b 05       		.byte	0x5
 10004 046c 00       		.uleb128 0
 10005 046d E6780000 		.4byte	.LASF188
 10006 0471 05       		.byte	0x5
 10007 0472 00       		.uleb128 0
 10008 0473 86370000 		.4byte	.LASF189
 10009 0477 05       		.byte	0x5
 10010 0478 00       		.uleb128 0
 10011 0479 857A0000 		.4byte	.LASF190
 10012 047d 05       		.byte	0x5
 10013 047e 00       		.uleb128 0
 10014 047f 810D0000 		.4byte	.LASF191
 10015 0483 05       		.byte	0x5
 10016 0484 00       		.uleb128 0
 10017 0485 C03B0000 		.4byte	.LASF192
 10018 0489 05       		.byte	0x5
 10019 048a 00       		.uleb128 0
 10020 048b 64260000 		.4byte	.LASF193
 10021 048f 05       		.byte	0x5
 10022 0490 00       		.uleb128 0
 10023 0491 E5260000 		.4byte	.LASF194
 10024 0495 05       		.byte	0x5
 10025 0496 00       		.uleb128 0
 10026 0497 6C0B0000 		.4byte	.LASF195
 10027 049b 05       		.byte	0x5
 10028 049c 00       		.uleb128 0
 10029 049d 53320000 		.4byte	.LASF196
 10030 04a1 05       		.byte	0x5
 10031 04a2 00       		.uleb128 0
 10032 04a3 2E1C0000 		.4byte	.LASF197
ARM GAS  /tmp/ccjsfSlY.s 			page 207


 10033 04a7 05       		.byte	0x5
 10034 04a8 00       		.uleb128 0
 10035 04a9 F0580000 		.4byte	.LASF198
 10036 04ad 05       		.byte	0x5
 10037 04ae 00       		.uleb128 0
 10038 04af 37050000 		.4byte	.LASF199
 10039 04b3 05       		.byte	0x5
 10040 04b4 00       		.uleb128 0
 10041 04b5 47490000 		.4byte	.LASF200
 10042 04b9 05       		.byte	0x5
 10043 04ba 00       		.uleb128 0
 10044 04bb F6390000 		.4byte	.LASF201
 10045 04bf 05       		.byte	0x5
 10046 04c0 00       		.uleb128 0
 10047 04c1 5C690000 		.4byte	.LASF202
 10048 04c5 05       		.byte	0x5
 10049 04c6 00       		.uleb128 0
 10050 04c7 3D550000 		.4byte	.LASF203
 10051 04cb 05       		.byte	0x5
 10052 04cc 00       		.uleb128 0
 10053 04cd D87D0000 		.4byte	.LASF204
 10054 04d1 05       		.byte	0x5
 10055 04d2 00       		.uleb128 0
 10056 04d3 4B450000 		.4byte	.LASF205
 10057 04d7 05       		.byte	0x5
 10058 04d8 00       		.uleb128 0
 10059 04d9 1F400000 		.4byte	.LASF206
 10060 04dd 05       		.byte	0x5
 10061 04de 00       		.uleb128 0
 10062 04df DC6E0000 		.4byte	.LASF207
 10063 04e3 05       		.byte	0x5
 10064 04e4 00       		.uleb128 0
 10065 04e5 92550000 		.4byte	.LASF208
 10066 04e9 05       		.byte	0x5
 10067 04ea 00       		.uleb128 0
 10068 04eb 81030000 		.4byte	.LASF209
 10069 04ef 05       		.byte	0x5
 10070 04f0 00       		.uleb128 0
 10071 04f1 B84C0000 		.4byte	.LASF210
 10072 04f5 05       		.byte	0x5
 10073 04f6 00       		.uleb128 0
 10074 04f7 C94F0000 		.4byte	.LASF211
 10075 04fb 05       		.byte	0x5
 10076 04fc 00       		.uleb128 0
 10077 04fd AC0C0000 		.4byte	.LASF212
 10078 0501 05       		.byte	0x5
 10079 0502 00       		.uleb128 0
 10080 0503 427D0000 		.4byte	.LASF213
 10081 0507 05       		.byte	0x5
 10082 0508 00       		.uleb128 0
 10083 0509 BE5E0000 		.4byte	.LASF214
 10084 050d 05       		.byte	0x5
 10085 050e 00       		.uleb128 0
 10086 050f 945B0000 		.4byte	.LASF215
 10087 0513 05       		.byte	0x5
 10088 0514 00       		.uleb128 0
 10089 0515 B6660000 		.4byte	.LASF216
ARM GAS  /tmp/ccjsfSlY.s 			page 208


 10090 0519 05       		.byte	0x5
 10091 051a 00       		.uleb128 0
 10092 051b 00770000 		.4byte	.LASF217
 10093 051f 05       		.byte	0x5
 10094 0520 00       		.uleb128 0
 10095 0521 71730000 		.4byte	.LASF218
 10096 0525 05       		.byte	0x5
 10097 0526 00       		.uleb128 0
 10098 0527 8F6F0000 		.4byte	.LASF219
 10099 052b 05       		.byte	0x5
 10100 052c 00       		.uleb128 0
 10101 052d 8E640000 		.4byte	.LASF220
 10102 0531 05       		.byte	0x5
 10103 0532 00       		.uleb128 0
 10104 0533 B9600000 		.4byte	.LASF221
 10105 0537 05       		.byte	0x5
 10106 0538 00       		.uleb128 0
 10107 0539 020A0000 		.4byte	.LASF222
 10108 053d 05       		.byte	0x5
 10109 053e 00       		.uleb128 0
 10110 053f 493E0000 		.4byte	.LASF223
 10111 0543 05       		.byte	0x5
 10112 0544 00       		.uleb128 0
 10113 0545 C7720000 		.4byte	.LASF224
 10114 0549 05       		.byte	0x5
 10115 054a 00       		.uleb128 0
 10116 054b 62160000 		.4byte	.LASF225
 10117 054f 05       		.byte	0x5
 10118 0550 00       		.uleb128 0
 10119 0551 F76D0000 		.4byte	.LASF226
 10120 0555 05       		.byte	0x5
 10121 0556 00       		.uleb128 0
 10122 0557 A9570000 		.4byte	.LASF227
 10123 055b 05       		.byte	0x5
 10124 055c 00       		.uleb128 0
 10125 055d 3A160000 		.4byte	.LASF228
 10126 0561 05       		.byte	0x5
 10127 0562 00       		.uleb128 0
 10128 0563 725B0000 		.4byte	.LASF229
 10129 0567 05       		.byte	0x5
 10130 0568 00       		.uleb128 0
 10131 0569 AD650000 		.4byte	.LASF230
 10132 056d 05       		.byte	0x5
 10133 056e 00       		.uleb128 0
 10134 056f 29740000 		.4byte	.LASF231
 10135 0573 05       		.byte	0x5
 10136 0574 00       		.uleb128 0
 10137 0575 5B2D0000 		.4byte	.LASF232
 10138 0579 05       		.byte	0x5
 10139 057a 00       		.uleb128 0
 10140 057b 264A0000 		.4byte	.LASF233
 10141 057f 05       		.byte	0x5
 10142 0580 00       		.uleb128 0
 10143 0581 09530000 		.4byte	.LASF234
 10144 0585 05       		.byte	0x5
 10145 0586 00       		.uleb128 0
 10146 0587 A7460000 		.4byte	.LASF235
ARM GAS  /tmp/ccjsfSlY.s 			page 209


 10147 058b 05       		.byte	0x5
 10148 058c 00       		.uleb128 0
 10149 058d 5B150000 		.4byte	.LASF236
 10150 0591 05       		.byte	0x5
 10151 0592 00       		.uleb128 0
 10152 0593 0B130000 		.4byte	.LASF237
 10153 0597 05       		.byte	0x5
 10154 0598 00       		.uleb128 0
 10155 0599 7D680000 		.4byte	.LASF238
 10156 059d 05       		.byte	0x5
 10157 059e 00       		.uleb128 0
 10158 059f 19040000 		.4byte	.LASF239
 10159 05a3 05       		.byte	0x5
 10160 05a4 00       		.uleb128 0
 10161 05a5 96360000 		.4byte	.LASF240
 10162 05a9 05       		.byte	0x5
 10163 05aa 00       		.uleb128 0
 10164 05ab 6D750000 		.4byte	.LASF241
 10165 05af 05       		.byte	0x5
 10166 05b0 00       		.uleb128 0
 10167 05b1 0C400000 		.4byte	.LASF242
 10168 05b5 05       		.byte	0x5
 10169 05b6 00       		.uleb128 0
 10170 05b7 99130000 		.4byte	.LASF243
 10171 05bb 05       		.byte	0x5
 10172 05bc 00       		.uleb128 0
 10173 05bd 0F300000 		.4byte	.LASF244
 10174 05c1 05       		.byte	0x5
 10175 05c2 00       		.uleb128 0
 10176 05c3 EB020000 		.4byte	.LASF245
 10177 05c7 05       		.byte	0x5
 10178 05c8 00       		.uleb128 0
 10179 05c9 4A2C0000 		.4byte	.LASF246
 10180 05cd 05       		.byte	0x5
 10181 05ce 00       		.uleb128 0
 10182 05cf 1F2E0000 		.4byte	.LASF247
 10183 05d3 05       		.byte	0x5
 10184 05d4 00       		.uleb128 0
 10185 05d5 A4670000 		.4byte	.LASF248
 10186 05d9 05       		.byte	0x5
 10187 05da 00       		.uleb128 0
 10188 05db D46F0000 		.4byte	.LASF249
 10189 05df 05       		.byte	0x5
 10190 05e0 00       		.uleb128 0
 10191 05e1 7A080000 		.4byte	.LASF250
 10192 05e5 05       		.byte	0x5
 10193 05e6 00       		.uleb128 0
 10194 05e7 10020000 		.4byte	.LASF251
 10195 05eb 05       		.byte	0x5
 10196 05ec 00       		.uleb128 0
 10197 05ed 8B6C0000 		.4byte	.LASF252
 10198 05f1 05       		.byte	0x5
 10199 05f2 00       		.uleb128 0
 10200 05f3 F4590000 		.4byte	.LASF253
 10201 05f7 05       		.byte	0x5
 10202 05f8 00       		.uleb128 0
 10203 05f9 96400000 		.4byte	.LASF254
ARM GAS  /tmp/ccjsfSlY.s 			page 210


 10204 05fd 05       		.byte	0x5
 10205 05fe 00       		.uleb128 0
 10206 05ff 735E0000 		.4byte	.LASF255
 10207 0603 05       		.byte	0x5
 10208 0604 00       		.uleb128 0
 10209 0605 88750000 		.4byte	.LASF256
 10210 0609 05       		.byte	0x5
 10211 060a 00       		.uleb128 0
 10212 060b 5D620000 		.4byte	.LASF257
 10213 060f 05       		.byte	0x5
 10214 0610 00       		.uleb128 0
 10215 0611 A5390000 		.4byte	.LASF258
 10216 0615 05       		.byte	0x5
 10217 0616 00       		.uleb128 0
 10218 0617 E9010000 		.4byte	.LASF259
 10219 061b 05       		.byte	0x5
 10220 061c 00       		.uleb128 0
 10221 061d 00330000 		.4byte	.LASF260
 10222 0621 05       		.byte	0x5
 10223 0622 00       		.uleb128 0
 10224 0623 495D0000 		.4byte	.LASF261
 10225 0627 05       		.byte	0x5
 10226 0628 00       		.uleb128 0
 10227 0629 ED210000 		.4byte	.LASF262
 10228 062d 05       		.byte	0x5
 10229 062e 00       		.uleb128 0
 10230 062f BA6E0000 		.4byte	.LASF263
 10231 0633 05       		.byte	0x5
 10232 0634 00       		.uleb128 0
 10233 0635 CE0E0000 		.4byte	.LASF264
 10234 0639 05       		.byte	0x5
 10235 063a 00       		.uleb128 0
 10236 063b 52050000 		.4byte	.LASF265
 10237 063f 05       		.byte	0x5
 10238 0640 00       		.uleb128 0
 10239 0641 DE290000 		.4byte	.LASF266
 10240 0645 05       		.byte	0x5
 10241 0646 00       		.uleb128 0
 10242 0647 B96D0000 		.4byte	.LASF267
 10243 064b 05       		.byte	0x5
 10244 064c 00       		.uleb128 0
 10245 064d AD610000 		.4byte	.LASF268
 10246 0651 05       		.byte	0x5
 10247 0652 00       		.uleb128 0
 10248 0653 B6770000 		.4byte	.LASF269
 10249 0657 05       		.byte	0x5
 10250 0658 00       		.uleb128 0
 10251 0659 3B2D0000 		.4byte	.LASF270
 10252 065d 05       		.byte	0x5
 10253 065e 00       		.uleb128 0
 10254 065f 030E0000 		.4byte	.LASF271
 10255 0663 05       		.byte	0x5
 10256 0664 00       		.uleb128 0
 10257 0665 26060000 		.4byte	.LASF272
 10258 0669 05       		.byte	0x5
 10259 066a 00       		.uleb128 0
 10260 066b AF5A0000 		.4byte	.LASF273
ARM GAS  /tmp/ccjsfSlY.s 			page 211


 10261 066f 05       		.byte	0x5
 10262 0670 00       		.uleb128 0
 10263 0671 DF5E0000 		.4byte	.LASF274
 10264 0675 05       		.byte	0x5
 10265 0676 00       		.uleb128 0
 10266 0677 E7200000 		.4byte	.LASF275
 10267 067b 05       		.byte	0x5
 10268 067c 00       		.uleb128 0
 10269 067d 32030000 		.4byte	.LASF276
 10270 0681 05       		.byte	0x5
 10271 0682 00       		.uleb128 0
 10272 0683 FB4B0000 		.4byte	.LASF277
 10273 0687 05       		.byte	0x5
 10274 0688 00       		.uleb128 0
 10275 0689 69400000 		.4byte	.LASF278
 10276 068d 05       		.byte	0x5
 10277 068e 00       		.uleb128 0
 10278 068f 700E0000 		.4byte	.LASF279
 10279 0693 05       		.byte	0x5
 10280 0694 00       		.uleb128 0
 10281 0695 0C630000 		.4byte	.LASF280
 10282 0699 05       		.byte	0x5
 10283 069a 00       		.uleb128 0
 10284 069b B10D0000 		.4byte	.LASF281
 10285 069f 05       		.byte	0x5
 10286 06a0 00       		.uleb128 0
 10287 06a1 D5620000 		.4byte	.LASF282
 10288 06a5 05       		.byte	0x5
 10289 06a6 00       		.uleb128 0
 10290 06a7 00480000 		.4byte	.LASF283
 10291 06ab 05       		.byte	0x5
 10292 06ac 00       		.uleb128 0
 10293 06ad 51730000 		.4byte	.LASF284
 10294 06b1 05       		.byte	0x5
 10295 06b2 00       		.uleb128 0
 10296 06b3 BE5C0000 		.4byte	.LASF285
 10297 06b7 05       		.byte	0x5
 10298 06b8 00       		.uleb128 0
 10299 06b9 9B600000 		.4byte	.LASF286
 10300 06bd 05       		.byte	0x5
 10301 06be 00       		.uleb128 0
 10302 06bf EA240000 		.4byte	.LASF287
 10303 06c3 05       		.byte	0x5
 10304 06c4 00       		.uleb128 0
 10305 06c5 4B420000 		.4byte	.LASF288
 10306 06c9 05       		.byte	0x5
 10307 06ca 00       		.uleb128 0
 10308 06cb AA600000 		.4byte	.LASF289
 10309 06cf 05       		.byte	0x5
 10310 06d0 00       		.uleb128 0
 10311 06d1 B6370000 		.4byte	.LASF290
 10312 06d5 05       		.byte	0x5
 10313 06d6 00       		.uleb128 0
 10314 06d7 09290000 		.4byte	.LASF291
 10315 06db 05       		.byte	0x5
 10316 06dc 00       		.uleb128 0
 10317 06dd 4C7B0000 		.4byte	.LASF292
ARM GAS  /tmp/ccjsfSlY.s 			page 212


 10318 06e1 05       		.byte	0x5
 10319 06e2 00       		.uleb128 0
 10320 06e3 E12E0000 		.4byte	.LASF293
 10321 06e7 05       		.byte	0x5
 10322 06e8 00       		.uleb128 0
 10323 06e9 30010000 		.4byte	.LASF294
 10324 06ed 05       		.byte	0x5
 10325 06ee 00       		.uleb128 0
 10326 06ef D3450000 		.4byte	.LASF295
 10327 06f3 05       		.byte	0x5
 10328 06f4 00       		.uleb128 0
 10329 06f5 40750000 		.4byte	.LASF296
 10330 06f9 05       		.byte	0x5
 10331 06fa 00       		.uleb128 0
 10332 06fb FA4E0000 		.4byte	.LASF297
 10333 06ff 05       		.byte	0x5
 10334 0700 00       		.uleb128 0
 10335 0701 85230000 		.4byte	.LASF298
 10336 0705 05       		.byte	0x5
 10337 0706 00       		.uleb128 0
 10338 0707 41150000 		.4byte	.LASF299
 10339 070b 05       		.byte	0x5
 10340 070c 00       		.uleb128 0
 10341 070d BC690000 		.4byte	.LASF300
 10342 0711 05       		.byte	0x5
 10343 0712 00       		.uleb128 0
 10344 0713 210E0000 		.4byte	.LASF301
 10345 0717 05       		.byte	0x5
 10346 0718 00       		.uleb128 0
 10347 0719 AA6E0000 		.4byte	.LASF302
 10348 071d 05       		.byte	0x5
 10349 071e 00       		.uleb128 0
 10350 071f 52660000 		.4byte	.LASF303
 10351 0723 05       		.byte	0x5
 10352 0724 00       		.uleb128 0
 10353 0725 73330000 		.4byte	.LASF304
 10354 0729 05       		.byte	0x5
 10355 072a 00       		.uleb128 0
 10356 072b 59420000 		.4byte	.LASF305
 10357 072f 05       		.byte	0x5
 10358 0730 00       		.uleb128 0
 10359 0731 74630000 		.4byte	.LASF306
 10360 0735 05       		.byte	0x5
 10361 0736 00       		.uleb128 0
 10362 0737 C7150000 		.4byte	.LASF307
 10363 073b 05       		.byte	0x5
 10364 073c 00       		.uleb128 0
 10365 073d 8F4F0000 		.4byte	.LASF308
 10366 0741 05       		.byte	0x5
 10367 0742 00       		.uleb128 0
 10368 0743 093C0000 		.4byte	.LASF309
 10369 0747 05       		.byte	0x5
 10370 0748 00       		.uleb128 0
 10371 0749 791C0000 		.4byte	.LASF310
 10372 074d 05       		.byte	0x5
 10373 074e 00       		.uleb128 0
 10374 074f 0F010000 		.4byte	.LASF311
ARM GAS  /tmp/ccjsfSlY.s 			page 213


 10375 0753 05       		.byte	0x5
 10376 0754 00       		.uleb128 0
 10377 0755 B12C0000 		.4byte	.LASF312
 10378 0759 05       		.byte	0x5
 10379 075a 00       		.uleb128 0
 10380 075b 37630000 		.4byte	.LASF313
 10381 075f 05       		.byte	0x5
 10382 0760 00       		.uleb128 0
 10383 0761 78400000 		.4byte	.LASF314
 10384 0765 05       		.byte	0x5
 10385 0766 00       		.uleb128 0
 10386 0767 83250000 		.4byte	.LASF315
 10387 076b 05       		.byte	0x5
 10388 076c 00       		.uleb128 0
 10389 076d 6E2D0000 		.4byte	.LASF316
 10390 0771 05       		.byte	0x5
 10391 0772 00       		.uleb128 0
 10392 0773 32560000 		.4byte	.LASF317
 10393 0777 05       		.byte	0x5
 10394 0778 00       		.uleb128 0
 10395 0779 56370000 		.4byte	.LASF318
 10396 077d 05       		.byte	0x5
 10397 077e 00       		.uleb128 0
 10398 077f 2B230000 		.4byte	.LASF319
 10399 0783 05       		.byte	0x5
 10400 0784 00       		.uleb128 0
 10401 0785 1F440000 		.4byte	.LASF320
 10402 0789 05       		.byte	0x5
 10403 078a 00       		.uleb128 0
 10404 078b 216F0000 		.4byte	.LASF321
 10405 078f 05       		.byte	0x5
 10406 0790 00       		.uleb128 0
 10407 0791 D84C0000 		.4byte	.LASF322
 10408 0795 05       		.byte	0x5
 10409 0796 00       		.uleb128 0
 10410 0797 F5070000 		.4byte	.LASF323
 10411 079b 05       		.byte	0x5
 10412 079c 00       		.uleb128 0
 10413 079d 47350000 		.4byte	.LASF324
 10414 07a1 05       		.byte	0x5
 10415 07a2 00       		.uleb128 0
 10416 07a3 E8060000 		.4byte	.LASF325
 10417 07a7 05       		.byte	0x5
 10418 07a8 00       		.uleb128 0
 10419 07a9 61500000 		.4byte	.LASF326
 10420 07ad 05       		.byte	0x5
 10421 07ae 00       		.uleb128 0
 10422 07af 475E0000 		.4byte	.LASF327
 10423 07b3 05       		.byte	0x5
 10424 07b4 00       		.uleb128 0
 10425 07b5 4C5A0000 		.4byte	.LASF328
 10426 07b9 05       		.byte	0x5
 10427 07ba 00       		.uleb128 0
 10428 07bb 54770000 		.4byte	.LASF329
 10429 07bf 05       		.byte	0x5
 10430 07c0 00       		.uleb128 0
 10431 07c1 7A540000 		.4byte	.LASF330
ARM GAS  /tmp/ccjsfSlY.s 			page 214


 10432 07c5 05       		.byte	0x5
 10433 07c6 00       		.uleb128 0
 10434 07c7 6C6D0000 		.4byte	.LASF331
 10435 07cb 05       		.byte	0x5
 10436 07cc 00       		.uleb128 0
 10437 07cd 00210000 		.4byte	.LASF332
 10438 07d1 05       		.byte	0x5
 10439 07d2 00       		.uleb128 0
 10440 07d3 83380000 		.4byte	.LASF333
 10441 07d7 05       		.byte	0x5
 10442 07d8 00       		.uleb128 0
 10443 07d9 672C0000 		.4byte	.LASF334
 10444 07dd 05       		.byte	0x5
 10445 07de 00       		.uleb128 0
 10446 07df 70600000 		.4byte	.LASF335
 10447 07e3 05       		.byte	0x5
 10448 07e4 00       		.uleb128 0
 10449 07e5 F8050000 		.4byte	.LASF336
 10450 07e9 05       		.byte	0x5
 10451 07ea 00       		.uleb128 0
 10452 07eb 4C160000 		.4byte	.LASF337
 10453 07ef 05       		.byte	0x5
 10454 07f0 00       		.uleb128 0
 10455 07f1 EF660000 		.4byte	.LASF338
 10456 07f5 05       		.byte	0x5
 10457 07f6 00       		.uleb128 0
 10458 07f7 622F0000 		.4byte	.LASF339
 10459 07fb 05       		.byte	0x5
 10460 07fc 00       		.uleb128 0
 10461 07fd 16700000 		.4byte	.LASF340
 10462 0801 05       		.byte	0x5
 10463 0802 00       		.uleb128 0
 10464 0803 8B3A0000 		.4byte	.LASF341
 10465 0807 05       		.byte	0x5
 10466 0808 00       		.uleb128 0
 10467 0809 56610000 		.4byte	.LASF342
 10468 080d 05       		.byte	0x5
 10469 080e 00       		.uleb128 0
 10470 080f 9A210000 		.4byte	.LASF343
 10471 0813 05       		.byte	0x5
 10472 0814 00       		.uleb128 0
 10473 0815 0C0C0000 		.4byte	.LASF344
 10474 0819 05       		.byte	0x5
 10475 081a 00       		.uleb128 0
 10476 081b 0A720000 		.4byte	.LASF345
 10477 081f 05       		.byte	0x5
 10478 0820 00       		.uleb128 0
 10479 0821 38310000 		.4byte	.LASF346
 10480 0825 00       		.byte	0
 10481              		.section	.debug_macro,"G",%progbits,wm4.features.h.22.2e382148a0560adabf236cddd4e880f4,comdat
 10482              	.Ldebug_macro2:
 10483 0000 0400     		.2byte	0x4
 10484 0002 00       		.byte	0
 10485 0003 05       		.byte	0x5
 10486 0004 16       		.uleb128 0x16
 10487 0005 A0220000 		.4byte	.LASF351
 10488 0009 05       		.byte	0x5
ARM GAS  /tmp/ccjsfSlY.s 			page 215


 10489 000a 1F       		.uleb128 0x1f
 10490 000b 0D6A0000 		.4byte	.LASF352
 10491 000f 05       		.byte	0x5
 10492 0010 20       		.uleb128 0x20
 10493 0011 37180000 		.4byte	.LASF353
 10494 0015 05       		.byte	0x5
 10495 0016 25       		.uleb128 0x25
 10496 0017 1D130000 		.4byte	.LASF354
 10497 001b 05       		.byte	0x5
 10498 001c 2C       		.uleb128 0x2c
 10499 001d 636E0000 		.4byte	.LASF355
 10500 0021 00       		.byte	0
 10501              		.section	.debug_macro,"G",%progbits,wm4._default_types.h.15.933e8edd27a65e0b69af4a865eb623d2,comda
 10502              	.Ldebug_macro3:
 10503 0000 0400     		.2byte	0x4
 10504 0002 00       		.byte	0
 10505 0003 05       		.byte	0x5
 10506 0004 0F       		.uleb128 0xf
 10507 0005 4C460000 		.4byte	.LASF356
 10508 0009 05       		.byte	0x5
 10509 000a 21       		.uleb128 0x21
 10510 000b 72370000 		.4byte	.LASF357
 10511 000f 05       		.byte	0x5
 10512 0010 2F       		.uleb128 0x2f
 10513 0011 44270000 		.4byte	.LASF358
 10514 0015 05       		.byte	0x5
 10515 0016 45       		.uleb128 0x45
 10516 0017 51430000 		.4byte	.LASF359
 10517 001b 05       		.byte	0x5
 10518 001c 5F       		.uleb128 0x5f
 10519 001d 7E570000 		.4byte	.LASF360
 10520 0021 05       		.byte	0x5
 10521 0022 7E       		.uleb128 0x7e
 10522 0023 0A4D0000 		.4byte	.LASF361
 10523 0027 05       		.byte	0x5
 10524 0028 9801     		.uleb128 0x98
 10525 002a AE140000 		.4byte	.LASF362
 10526 002e 05       		.byte	0x5
 10527 002f AE01     		.uleb128 0xae
 10528 0031 F8170000 		.4byte	.LASF363
 10529 0035 05       		.byte	0x5
 10530 0036 C001     		.uleb128 0xc0
 10531 0038 61740000 		.4byte	.LASF364
 10532 003c 06       		.byte	0x6
 10533 003d D601     		.uleb128 0xd6
 10534 003f 5D570000 		.4byte	.LASF365
 10535 0043 00       		.byte	0
 10536              		.section	.debug_macro,"G",%progbits,wm4._intsup.h.10.35a45952db64d30146faa63a55c20c1c,comdat
 10537              	.Ldebug_macro4:
 10538 0000 0400     		.2byte	0x4
 10539 0002 00       		.byte	0
 10540 0003 05       		.byte	0x5
 10541 0004 0A       		.uleb128 0xa
 10542 0005 0F740000 		.4byte	.LASF366
 10543 0009 05       		.byte	0x5
 10544 000a 10       		.uleb128 0x10
 10545 000b 30460000 		.4byte	.LASF367
ARM GAS  /tmp/ccjsfSlY.s 			page 216


 10546 000f 05       		.byte	0x5
 10547 0010 1A       		.uleb128 0x1a
 10548 0011 985D0000 		.4byte	.LASF368
 10549 0015 05       		.byte	0x5
 10550 0016 21       		.uleb128 0x21
 10551 0017 306C0000 		.4byte	.LASF369
 10552 001b 06       		.byte	0x6
 10553 001c 37       		.uleb128 0x37
 10554 001d E7370000 		.4byte	.LASF370
 10555 0021 06       		.byte	0x6
 10556 0022 38       		.uleb128 0x38
 10557 0023 39080000 		.4byte	.LASF371
 10558 0027 06       		.byte	0x6
 10559 0028 39       		.uleb128 0x39
 10560 0029 80230000 		.4byte	.LASF372
 10561 002d 06       		.byte	0x6
 10562 002e 3A       		.uleb128 0x3a
 10563 002f 0B550000 		.4byte	.LASF373
 10564 0033 02       		.byte	0x2
 10565 0034 3B       		.uleb128 0x3b
 10566 0035 696E7400 		.ascii	"int\000"
 10567 0039 06       		.byte	0x6
 10568 003a 3C       		.uleb128 0x3c
 10569 003b FB540000 		.4byte	.LASF374
 10570 003f 05       		.byte	0x5
 10571 0040 3D       		.uleb128 0x3d
 10572 0041 D70A0000 		.4byte	.LASF375
 10573 0045 05       		.byte	0x5
 10574 0046 3E       		.uleb128 0x3e
 10575 0047 4C3C0000 		.4byte	.LASF376
 10576 004b 05       		.byte	0x5
 10577 004c 3F       		.uleb128 0x3f
 10578 004d B04C0000 		.4byte	.LASF377
 10579 0051 05       		.byte	0x5
 10580 0052 40       		.uleb128 0x40
 10581 0053 F7560000 		.4byte	.LASF378
 10582 0057 05       		.byte	0x5
 10583 0058 41       		.uleb128 0x41
 10584 0059 3F390000 		.4byte	.LASF379
 10585 005d 05       		.byte	0x5
 10586 005e 42       		.uleb128 0x42
 10587 005f 47790000 		.4byte	.LASF380
 10588 0063 05       		.byte	0x5
 10589 0064 4D       		.uleb128 0x4d
 10590 0065 C87D0000 		.4byte	.LASF381
 10591 0069 05       		.byte	0x5
 10592 006a 55       		.uleb128 0x55
 10593 006b 545E0000 		.4byte	.LASF382
 10594 006f 05       		.byte	0x5
 10595 0070 60       		.uleb128 0x60
 10596 0071 A34B0000 		.4byte	.LASF383
 10597 0075 05       		.byte	0x5
 10598 0076 6B       		.uleb128 0x6b
 10599 0077 2E710000 		.4byte	.LASF384
 10600 007b 05       		.byte	0x5
 10601 007c 74       		.uleb128 0x74
 10602 007d 4D100000 		.4byte	.LASF385
ARM GAS  /tmp/ccjsfSlY.s 			page 217


 10603 0081 05       		.byte	0x5
 10604 0082 7B       		.uleb128 0x7b
 10605 0083 906D0000 		.4byte	.LASF386
 10606 0087 05       		.byte	0x5
 10607 0088 8401     		.uleb128 0x84
 10608 008a 93190000 		.4byte	.LASF387
 10609 008e 05       		.byte	0x5
 10610 008f 8B01     		.uleb128 0x8b
 10611 0091 7E3D0000 		.4byte	.LASF388
 10612 0095 05       		.byte	0x5
 10613 0096 9601     		.uleb128 0x96
 10614 0098 2B3C0000 		.4byte	.LASF389
 10615 009c 05       		.byte	0x5
 10616 009d 9A01     		.uleb128 0x9a
 10617 009f B6290000 		.4byte	.LASF390
 10618 00a3 05       		.byte	0x5
 10619 00a4 A501     		.uleb128 0xa5
 10620 00a6 67760000 		.4byte	.LASF391
 10621 00aa 05       		.byte	0x5
 10622 00ab B001     		.uleb128 0xb0
 10623 00ad 3F100000 		.4byte	.LASF392
 10624 00b1 05       		.byte	0x5
 10625 00b2 B901     		.uleb128 0xb9
 10626 00b4 7C530000 		.4byte	.LASF393
 10627 00b8 06       		.byte	0x6
 10628 00b9 BB01     		.uleb128 0xbb
 10629 00bb E7370000 		.4byte	.LASF370
 10630 00bf 06       		.byte	0x6
 10631 00c0 BC01     		.uleb128 0xbc
 10632 00c2 39080000 		.4byte	.LASF371
 10633 00c6 06       		.byte	0x6
 10634 00c7 BD01     		.uleb128 0xbd
 10635 00c9 80230000 		.4byte	.LASF372
 10636 00cd 06       		.byte	0x6
 10637 00ce BE01     		.uleb128 0xbe
 10638 00d0 0B550000 		.4byte	.LASF373
 10639 00d4 02       		.byte	0x2
 10640 00d5 BF01     		.uleb128 0xbf
 10641 00d7 696E7400 		.ascii	"int\000"
 10642 00db 06       		.byte	0x6
 10643 00dc C001     		.uleb128 0xc0
 10644 00de FB540000 		.4byte	.LASF374
 10645 00e2 00       		.byte	0
 10646              		.section	.debug_macro,"G",%progbits,wm4._stdint.h.10.f76354baea1c7088202064e6f3d4f5e3,comdat
 10647              	.Ldebug_macro5:
 10648 0000 0400     		.2byte	0x4
 10649 0002 00       		.byte	0
 10650 0003 05       		.byte	0x5
 10651 0004 0A       		.uleb128 0xa
 10652 0005 DF3A0000 		.4byte	.LASF394
 10653 0009 05       		.byte	0x5
 10654 000a 15       		.uleb128 0x15
 10655 000b B2270000 		.4byte	.LASF395
 10656 000f 05       		.byte	0x5
 10657 0010 1B       		.uleb128 0x1b
 10658 0011 353E0000 		.4byte	.LASF396
 10659 0015 05       		.byte	0x5
ARM GAS  /tmp/ccjsfSlY.s 			page 218


 10660 0016 21       		.uleb128 0x21
 10661 0017 90380000 		.4byte	.LASF397
 10662 001b 05       		.byte	0x5
 10663 001c 27       		.uleb128 0x27
 10664 001d 3E6D0000 		.4byte	.LASF398
 10665 0021 00       		.byte	0
 10666              		.section	.debug_macro,"G",%progbits,wm4.stdint.h.23.373a9d32a9e4c2e88fd347156532d281,comdat
 10667              	.Ldebug_macro6:
 10668 0000 0400     		.2byte	0x4
 10669 0002 00       		.byte	0
 10670 0003 05       		.byte	0x5
 10671 0004 17       		.uleb128 0x17
 10672 0005 10790000 		.4byte	.LASF399
 10673 0009 05       		.byte	0x5
 10674 000a 1D       		.uleb128 0x1d
 10675 000b 302C0000 		.4byte	.LASF400
 10676 000f 05       		.byte	0x5
 10677 0010 23       		.uleb128 0x23
 10678 0011 59330000 		.4byte	.LASF401
 10679 0015 05       		.byte	0x5
 10680 0016 29       		.uleb128 0x29
 10681 0017 68310000 		.4byte	.LASF402
 10682 001b 05       		.byte	0x5
 10683 001c 35       		.uleb128 0x35
 10684 001d D04D0000 		.4byte	.LASF403
 10685 0021 05       		.byte	0x5
 10686 0022 3F       		.uleb128 0x3f
 10687 0023 20480000 		.4byte	.LASF404
 10688 0027 05       		.byte	0x5
 10689 0028 49       		.uleb128 0x49
 10690 0029 130D0000 		.4byte	.LASF405
 10691 002d 05       		.byte	0x5
 10692 002e 53       		.uleb128 0x53
 10693 002f 61210000 		.4byte	.LASF406
 10694 0033 05       		.byte	0x5
 10695 0034 9301     		.uleb128 0x93
 10696 0036 2A2F0000 		.4byte	.LASF407
 10697 003a 05       		.byte	0x5
 10698 003b 9401     		.uleb128 0x94
 10699 003d F1690000 		.4byte	.LASF408
 10700 0041 05       		.byte	0x5
 10701 0042 9501     		.uleb128 0x95
 10702 0044 FE150000 		.4byte	.LASF409
 10703 0048 05       		.byte	0x5
 10704 0049 AB01     		.uleb128 0xab
 10705 004b 30340000 		.4byte	.LASF410
 10706 004f 05       		.byte	0x5
 10707 0050 AC01     		.uleb128 0xac
 10708 0052 9B0A0000 		.4byte	.LASF411
 10709 0056 05       		.byte	0x5
 10710 0057 AD01     		.uleb128 0xad
 10711 0059 CC780000 		.4byte	.LASF412
 10712 005d 05       		.byte	0x5
 10713 005e B501     		.uleb128 0xb5
 10714 0060 406C0000 		.4byte	.LASF413
 10715 0064 05       		.byte	0x5
 10716 0065 B601     		.uleb128 0xb6
ARM GAS  /tmp/ccjsfSlY.s 			page 219


 10717 0067 710F0000 		.4byte	.LASF414
 10718 006b 05       		.byte	0x5
 10719 006c B701     		.uleb128 0xb7
 10720 006e AF620000 		.4byte	.LASF415
 10721 0072 05       		.byte	0x5
 10722 0073 C101     		.uleb128 0xc1
 10723 0075 69510000 		.4byte	.LASF416
 10724 0079 05       		.byte	0x5
 10725 007a C201     		.uleb128 0xc2
 10726 007c 750C0000 		.4byte	.LASF417
 10727 0080 05       		.byte	0x5
 10728 0081 C301     		.uleb128 0xc3
 10729 0083 5E350000 		.4byte	.LASF418
 10730 0087 05       		.byte	0x5
 10731 0088 CB01     		.uleb128 0xcb
 10732 008a 72440000 		.4byte	.LASF419
 10733 008e 05       		.byte	0x5
 10734 008f CC01     		.uleb128 0xcc
 10735 0091 B2090000 		.4byte	.LASF420
 10736 0095 05       		.byte	0x5
 10737 0096 CD01     		.uleb128 0xcd
 10738 0098 742A0000 		.4byte	.LASF421
 10739 009c 05       		.byte	0x5
 10740 009d D701     		.uleb128 0xd7
 10741 009f 60610000 		.4byte	.LASF422
 10742 00a3 05       		.byte	0x5
 10743 00a4 D801     		.uleb128 0xd8
 10744 00a6 AF280000 		.4byte	.LASF423
 10745 00aa 05       		.byte	0x5
 10746 00ab D901     		.uleb128 0xd9
 10747 00ad 27410000 		.4byte	.LASF424
 10748 00b1 05       		.byte	0x5
 10749 00b2 E701     		.uleb128 0xe7
 10750 00b4 DB670000 		.4byte	.LASF425
 10751 00b8 05       		.byte	0x5
 10752 00b9 E801     		.uleb128 0xe8
 10753 00bb 742C0000 		.4byte	.LASF426
 10754 00bf 05       		.byte	0x5
 10755 00c0 E901     		.uleb128 0xe9
 10756 00c2 F8640000 		.4byte	.LASF427
 10757 00c6 05       		.byte	0x5
 10758 00c7 F901     		.uleb128 0xf9
 10759 00c9 246A0000 		.4byte	.LASF428
 10760 00cd 05       		.byte	0x5
 10761 00ce FA01     		.uleb128 0xfa
 10762 00d0 A6480000 		.4byte	.LASF429
 10763 00d4 05       		.byte	0x5
 10764 00d5 FB01     		.uleb128 0xfb
 10765 00d7 EB6A0000 		.4byte	.LASF430
 10766 00db 05       		.byte	0x5
 10767 00dc 8902     		.uleb128 0x109
 10768 00de CB100000 		.4byte	.LASF431
 10769 00e2 05       		.byte	0x5
 10770 00e3 8A02     		.uleb128 0x10a
 10771 00e5 800E0000 		.4byte	.LASF432
 10772 00e9 05       		.byte	0x5
 10773 00ea 8B02     		.uleb128 0x10b
ARM GAS  /tmp/ccjsfSlY.s 			page 220


 10774 00ec CC590000 		.4byte	.LASF433
 10775 00f0 05       		.byte	0x5
 10776 00f1 9902     		.uleb128 0x119
 10777 00f3 484A0000 		.4byte	.LASF434
 10778 00f7 05       		.byte	0x5
 10779 00f8 9A02     		.uleb128 0x11a
 10780 00fa 4A200000 		.4byte	.LASF435
 10781 00fe 05       		.byte	0x5
 10782 00ff 9B02     		.uleb128 0x11b
 10783 0101 085A0000 		.4byte	.LASF436
 10784 0105 05       		.byte	0x5
 10785 0106 A902     		.uleb128 0x129
 10786 0108 CC070000 		.4byte	.LASF437
 10787 010c 05       		.byte	0x5
 10788 010d AA02     		.uleb128 0x12a
 10789 010f 3B0A0000 		.4byte	.LASF438
 10790 0113 05       		.byte	0x5
 10791 0114 AB02     		.uleb128 0x12b
 10792 0116 68640000 		.4byte	.LASF439
 10793 011a 05       		.byte	0x5
 10794 011b B902     		.uleb128 0x139
 10795 011d 60120000 		.4byte	.LASF440
 10796 0121 05       		.byte	0x5
 10797 0122 BA02     		.uleb128 0x13a
 10798 0124 71140000 		.4byte	.LASF441
 10799 0128 05       		.byte	0x5
 10800 0129 BB02     		.uleb128 0x13b
 10801 012b 0A460000 		.4byte	.LASF442
 10802 012f 05       		.byte	0x5
 10803 0130 C902     		.uleb128 0x149
 10804 0132 52520000 		.4byte	.LASF443
 10805 0136 05       		.byte	0x5
 10806 0137 CA02     		.uleb128 0x14a
 10807 0139 7C740000 		.4byte	.LASF444
 10808 013d 05       		.byte	0x5
 10809 013e CB02     		.uleb128 0x14b
 10810 0140 C56A0000 		.4byte	.LASF445
 10811 0144 05       		.byte	0x5
 10812 0145 D902     		.uleb128 0x159
 10813 0147 93280000 		.4byte	.LASF446
 10814 014b 05       		.byte	0x5
 10815 014c DA02     		.uleb128 0x15a
 10816 014e 584D0000 		.4byte	.LASF447
 10817 0152 05       		.byte	0x5
 10818 0153 E202     		.uleb128 0x162
 10819 0155 CD3C0000 		.4byte	.LASF448
 10820 0159 05       		.byte	0x5
 10821 015a EA02     		.uleb128 0x16a
 10822 015c A4380000 		.4byte	.LASF449
 10823 0160 05       		.byte	0x5
 10824 0161 F002     		.uleb128 0x170
 10825 0163 99300000 		.4byte	.LASF450
 10826 0167 05       		.byte	0x5
 10827 0168 F102     		.uleb128 0x171
 10828 016a A2250000 		.4byte	.LASF451
 10829 016e 05       		.byte	0x5
 10830 016f F502     		.uleb128 0x175
ARM GAS  /tmp/ccjsfSlY.s 			page 221


 10831 0171 E10A0000 		.4byte	.LASF452
 10832 0175 05       		.byte	0x5
 10833 0176 F902     		.uleb128 0x179
 10834 0178 E2230000 		.4byte	.LASF453
 10835 017c 05       		.byte	0x5
 10836 017d FE02     		.uleb128 0x17e
 10837 017f 031C0000 		.4byte	.LASF454
 10838 0183 05       		.byte	0x5
 10839 0184 8903     		.uleb128 0x189
 10840 0186 2A0F0000 		.4byte	.LASF455
 10841 018a 05       		.byte	0x5
 10842 018b 9303     		.uleb128 0x193
 10843 018d C8410000 		.4byte	.LASF456
 10844 0191 05       		.byte	0x5
 10845 0192 9803     		.uleb128 0x198
 10846 0194 1A000000 		.4byte	.LASF457
 10847 0198 05       		.byte	0x5
 10848 0199 9F03     		.uleb128 0x19f
 10849 019b 6E390000 		.4byte	.LASF458
 10850 019f 05       		.byte	0x5
 10851 01a0 A003     		.uleb128 0x1a0
 10852 01a2 AB6B0000 		.4byte	.LASF459
 10853 01a6 05       		.byte	0x5
 10854 01a7 AB03     		.uleb128 0x1ab
 10855 01a9 0A690000 		.4byte	.LASF460
 10856 01ad 05       		.byte	0x5
 10857 01ae AC03     		.uleb128 0x1ac
 10858 01b0 84730000 		.4byte	.LASF461
 10859 01b4 05       		.byte	0x5
 10860 01b5 B703     		.uleb128 0x1b7
 10861 01b7 50640000 		.4byte	.LASF462
 10862 01bb 05       		.byte	0x5
 10863 01bc B803     		.uleb128 0x1b8
 10864 01be 9B490000 		.4byte	.LASF463
 10865 01c2 05       		.byte	0x5
 10866 01c3 C403     		.uleb128 0x1c4
 10867 01c5 18340000 		.4byte	.LASF464
 10868 01c9 05       		.byte	0x5
 10869 01ca C503     		.uleb128 0x1c5
 10870 01cc 43620000 		.4byte	.LASF465
 10871 01d0 05       		.byte	0x5
 10872 01d1 D403     		.uleb128 0x1d4
 10873 01d3 C8230000 		.4byte	.LASF466
 10874 01d7 05       		.byte	0x5
 10875 01d8 D503     		.uleb128 0x1d5
 10876 01da 37570000 		.4byte	.LASF467
 10877 01de 00       		.byte	0
 10878              		.section	.debug_macro,"G",%progbits,wm4.stdbool.h.29.1c9ee6859ce8145f7838a4f2549ccec2,comdat
 10879              	.Ldebug_macro7:
 10880 0000 0400     		.2byte	0x4
 10881 0002 00       		.byte	0
 10882 0003 05       		.byte	0x5
 10883 0004 1D       		.uleb128 0x1d
 10884 0005 8A1D0000 		.4byte	.LASF469
 10885 0009 05       		.byte	0x5
 10886 000a 21       		.uleb128 0x21
 10887 000b 6E2F0000 		.4byte	.LASF470
ARM GAS  /tmp/ccjsfSlY.s 			page 222


 10888 000f 05       		.byte	0x5
 10889 0010 22       		.uleb128 0x22
 10890 0011 E34E0000 		.4byte	.LASF471
 10891 0015 05       		.byte	0x5
 10892 0016 23       		.uleb128 0x23
 10893 0017 D02C0000 		.4byte	.LASF472
 10894 001b 05       		.byte	0x5
 10895 001c 30       		.uleb128 0x30
 10896 001d C5770000 		.4byte	.LASF473
 10897 0021 00       		.byte	0
 10898              		.section	.debug_macro,"G",%progbits,wm4.lpc_types.h.63.860ba57581a002825766a7c2ac00d549,comdat
 10899              	.Ldebug_macro8:
 10900 0000 0400     		.2byte	0x4
 10901 0002 00       		.byte	0
 10902 0003 05       		.byte	0x5
 10903 0004 3F       		.uleb128 0x3f
 10904 0005 3E170000 		.4byte	.LASF474
 10905 0009 05       		.byte	0x5
 10906 000a 45       		.uleb128 0x45
 10907 000b DF080000 		.4byte	.LASF475
 10908 000f 06       		.byte	0x6
 10909 0010 66       		.uleb128 0x66
 10910 0011 B2000000 		.4byte	.LASF476
 10911 0015 05       		.byte	0x5
 10912 0016 68       		.uleb128 0x68
 10913 0017 77260000 		.4byte	.LASF477
 10914 001b 06       		.byte	0x6
 10915 001c 6E       		.uleb128 0x6e
 10916 001d 1A2B0000 		.4byte	.LASF478
 10917 0021 05       		.byte	0x5
 10918 0022 70       		.uleb128 0x70
 10919 0023 621C0000 		.4byte	.LASF479
 10920 0027 06       		.byte	0x6
 10921 0028 7F       		.uleb128 0x7f
 10922 0029 99320000 		.4byte	.LASF480
 10923 002d 05       		.byte	0x5
 10924 002e 8101     		.uleb128 0x81
 10925 0030 7C710000 		.4byte	.LASF481
 10926 0034 05       		.byte	0x5
 10927 0035 8501     		.uleb128 0x85
 10928 0037 84560000 		.4byte	.LASF482
 10929 003b 05       		.byte	0x5
 10930 003c 8901     		.uleb128 0x89
 10931 003e 94470000 		.4byte	.LASF483
 10932 0042 05       		.byte	0x5
 10933 0043 8C01     		.uleb128 0x8c
 10934 0045 C0220000 		.4byte	.LASF484
 10935 0049 05       		.byte	0x5
 10936 004a 8E01     		.uleb128 0x8e
 10937 004c 113A0000 		.4byte	.LASF485
 10938 0050 05       		.byte	0x5
 10939 0051 9101     		.uleb128 0x91
 10940 0053 580B0000 		.4byte	.LASF486
 10941 0057 05       		.byte	0x5
 10942 0058 9401     		.uleb128 0x94
 10943 005a 7F690000 		.4byte	.LASF487
 10944 005e 05       		.byte	0x5
ARM GAS  /tmp/ccjsfSlY.s 			page 223


 10945 005f 9701     		.uleb128 0x97
 10946 0061 7D220000 		.4byte	.LASF488
 10947 0065 05       		.byte	0x5
 10948 0066 D001     		.uleb128 0xd0
 10949 0068 186E0000 		.4byte	.LASF489
 10950 006c 00       		.byte	0
 10951              		.section	.debug_macro,"G",%progbits,wm4.sys_config.h.31.9f234e9c90333d233c7e647ebe63e928,comdat
 10952              	.Ldebug_macro9:
 10953 0000 0400     		.2byte	0x4
 10954 0002 00       		.byte	0
 10955 0003 05       		.byte	0x5
 10956 0004 1F       		.uleb128 0x1f
 10957 0005 EB5D0000 		.4byte	.LASF490
 10958 0009 05       		.byte	0x5
 10959 000a 26       		.uleb128 0x26
 10960 000b AE1B0000 		.4byte	.LASF491
 10961 000f 00       		.byte	0
 10962              		.section	.debug_macro,"G",%progbits,wm4.cmsis_11cxx.h.33.407e9bbb5d170cd1552d3f7dc3fd5c42,comdat
 10963              	.Ldebug_macro10:
 10964 0000 0400     		.2byte	0x4
 10965 0002 00       		.byte	0
 10966 0003 05       		.byte	0x5
 10967 0004 21       		.uleb128 0x21
 10968 0005 5C780000 		.4byte	.LASF493
 10969 0009 05       		.byte	0x5
 10970 000a 8801     		.uleb128 0x88
 10971 000c AC3A0000 		.4byte	.LASF494
 10972 0010 05       		.byte	0x5
 10973 0011 8901     		.uleb128 0x89
 10974 0013 D8740000 		.4byte	.LASF495
 10975 0017 05       		.byte	0x5
 10976 0018 8A01     		.uleb128 0x8a
 10977 001a BE550000 		.4byte	.LASF496
 10978 001e 00       		.byte	0
 10979              		.section	.debug_macro,"G",%progbits,wm4.core_cm0.h.32.192d13cfa8b31e63c86621de62eb153f,comdat
 10980              	.Ldebug_macro11:
 10981 0000 0400     		.2byte	0x4
 10982 0002 00       		.byte	0
 10983 0003 05       		.byte	0x5
 10984 0004 20       		.uleb128 0x20
 10985 0005 A4120000 		.4byte	.LASF497
 10986 0009 05       		.byte	0x5
 10987 000a 38       		.uleb128 0x38
 10988 000b BE540000 		.4byte	.LASF498
 10989 000f 05       		.byte	0x5
 10990 0010 39       		.uleb128 0x39
 10991 0011 026F0000 		.4byte	.LASF499
 10992 0015 05       		.byte	0x5
 10993 0016 3A       		.uleb128 0x3a
 10994 0017 B61E0000 		.4byte	.LASF500
 10995 001b 05       		.byte	0x5
 10996 001c 3D       		.uleb128 0x3d
 10997 001d 492D0000 		.4byte	.LASF501
 10998 0021 05       		.byte	0x5
 10999 0022 4B       		.uleb128 0x4b
 11000 0023 950F0000 		.4byte	.LASF502
 11001 0027 05       		.byte	0x5
ARM GAS  /tmp/ccjsfSlY.s 			page 224


 11002 0028 4C       		.uleb128 0x4c
 11003 0029 10480000 		.4byte	.LASF503
 11004 002d 05       		.byte	0x5
 11005 002e 4D       		.uleb128 0x4d
 11006 002f 4A3F0000 		.4byte	.LASF504
 11007 0033 05       		.byte	0x5
 11008 0034 58       		.uleb128 0x58
 11009 0035 CF6E0000 		.4byte	.LASF505
 11010 0039 00       		.byte	0
 11011              		.section	.debug_macro,"G",%progbits,wm4.core_cm0.h.120.f4257ea7d0bce0cbabffe223e23b2fd4,comdat
 11012              	.Ldebug_macro12:
 11013 0000 0400     		.2byte	0x4
 11014 0002 00       		.byte	0
 11015 0003 05       		.byte	0x5
 11016 0004 78       		.uleb128 0x78
 11017 0005 F8780000 		.4byte	.LASF508
 11018 0009 05       		.byte	0x5
 11019 000a 9701     		.uleb128 0x97
 11020 000c 883D0000 		.4byte	.LASF509
 11021 0010 05       		.byte	0x5
 11022 0011 9901     		.uleb128 0x99
 11023 0013 61300000 		.4byte	.LASF510
 11024 0017 05       		.byte	0x5
 11025 0018 9A01     		.uleb128 0x9a
 11026 001a 4F6B0000 		.4byte	.LASF511
 11027 001e 05       		.byte	0x5
 11028 001f B002     		.uleb128 0x130
 11029 0021 AC5D0000 		.4byte	.LASF512
 11030 0025 05       		.byte	0x5
 11031 0026 B102     		.uleb128 0x131
 11032 0028 14770000 		.4byte	.LASF513
 11033 002c 05       		.byte	0x5
 11034 002d B302     		.uleb128 0x133
 11035 002f 3F5F0000 		.4byte	.LASF514
 11036 0033 05       		.byte	0x5
 11037 0034 B402     		.uleb128 0x134
 11038 0036 B5490000 		.4byte	.LASF515
 11039 003a 05       		.byte	0x5
 11040 003b B602     		.uleb128 0x136
 11041 003d AE210000 		.4byte	.LASF516
 11042 0041 05       		.byte	0x5
 11043 0042 B702     		.uleb128 0x137
 11044 0044 D8030000 		.4byte	.LASF517
 11045 0048 05       		.byte	0x5
 11046 0049 B902     		.uleb128 0x139
 11047 004b B22A0000 		.4byte	.LASF518
 11048 004f 05       		.byte	0x5
 11049 0050 BA02     		.uleb128 0x13a
 11050 0052 061B0000 		.4byte	.LASF519
 11051 0056 05       		.byte	0x5
 11052 0057 BC02     		.uleb128 0x13c
 11053 0059 313F0000 		.4byte	.LASF520
 11054 005d 05       		.byte	0x5
 11055 005e BD02     		.uleb128 0x13d
 11056 0060 F9550000 		.4byte	.LASF521
 11057 0064 05       		.byte	0x5
 11058 0065 C002     		.uleb128 0x140
ARM GAS  /tmp/ccjsfSlY.s 			page 225


 11059 0067 30540000 		.4byte	.LASF522
 11060 006b 05       		.byte	0x5
 11061 006c C102     		.uleb128 0x141
 11062 006e C92A0000 		.4byte	.LASF523
 11063 0072 05       		.byte	0x5
 11064 0073 C302     		.uleb128 0x143
 11065 0075 24300000 		.4byte	.LASF524
 11066 0079 05       		.byte	0x5
 11067 007a C402     		.uleb128 0x144
 11068 007c 5B650000 		.4byte	.LASF525
 11069 0080 05       		.byte	0x5
 11070 0081 C602     		.uleb128 0x146
 11071 0083 166C0000 		.4byte	.LASF526
 11072 0087 05       		.byte	0x5
 11073 0088 C702     		.uleb128 0x147
 11074 008a 54290000 		.4byte	.LASF527
 11075 008e 05       		.byte	0x5
 11076 008f C902     		.uleb128 0x149
 11077 0091 810A0000 		.4byte	.LASF528
 11078 0095 05       		.byte	0x5
 11079 0096 CA02     		.uleb128 0x14a
 11080 0098 16070000 		.4byte	.LASF529
 11081 009c 05       		.byte	0x5
 11082 009d CC02     		.uleb128 0x14c
 11083 009f 05490000 		.4byte	.LASF530
 11084 00a3 05       		.byte	0x5
 11085 00a4 CD02     		.uleb128 0x14d
 11086 00a6 B4020000 		.4byte	.LASF531
 11087 00aa 05       		.byte	0x5
 11088 00ab CF02     		.uleb128 0x14f
 11089 00ad 0D540000 		.4byte	.LASF532
 11090 00b1 05       		.byte	0x5
 11091 00b2 D002     		.uleb128 0x150
 11092 00b4 1F3A0000 		.4byte	.LASF533
 11093 00b8 05       		.byte	0x5
 11094 00b9 D202     		.uleb128 0x152
 11095 00bb A9040000 		.4byte	.LASF534
 11096 00bf 05       		.byte	0x5
 11097 00c0 D302     		.uleb128 0x153
 11098 00c2 B4360000 		.4byte	.LASF535
 11099 00c6 05       		.byte	0x5
 11100 00c7 D502     		.uleb128 0x155
 11101 00c9 0C450000 		.4byte	.LASF536
 11102 00cd 05       		.byte	0x5
 11103 00ce D602     		.uleb128 0x156
 11104 00d0 B42D0000 		.4byte	.LASF537
 11105 00d4 05       		.byte	0x5
 11106 00d5 D802     		.uleb128 0x158
 11107 00d7 390C0000 		.4byte	.LASF538
 11108 00db 05       		.byte	0x5
 11109 00dc D902     		.uleb128 0x159
 11110 00de 4D1D0000 		.4byte	.LASF539
 11111 00e2 05       		.byte	0x5
 11112 00e3 DC02     		.uleb128 0x15c
 11113 00e5 63710000 		.4byte	.LASF540
 11114 00e9 05       		.byte	0x5
 11115 00ea DD02     		.uleb128 0x15d
ARM GAS  /tmp/ccjsfSlY.s 			page 226


 11116 00ec 0B3B0000 		.4byte	.LASF541
 11117 00f0 05       		.byte	0x5
 11118 00f1 DF02     		.uleb128 0x15f
 11119 00f3 EF0B0000 		.4byte	.LASF542
 11120 00f7 05       		.byte	0x5
 11121 00f8 E002     		.uleb128 0x160
 11122 00fa 5B7C0000 		.4byte	.LASF543
 11123 00fe 05       		.byte	0x5
 11124 00ff E202     		.uleb128 0x162
 11125 0101 9F6C0000 		.4byte	.LASF544
 11126 0105 05       		.byte	0x5
 11127 0106 E302     		.uleb128 0x163
 11128 0108 9B1C0000 		.4byte	.LASF545
 11129 010c 05       		.byte	0x5
 11130 010d E502     		.uleb128 0x165
 11131 010f 45300000 		.4byte	.LASF546
 11132 0113 05       		.byte	0x5
 11133 0114 E602     		.uleb128 0x166
 11134 0116 B9390000 		.4byte	.LASF547
 11135 011a 05       		.byte	0x5
 11136 011b E802     		.uleb128 0x168
 11137 011d 17780000 		.4byte	.LASF548
 11138 0121 05       		.byte	0x5
 11139 0122 E902     		.uleb128 0x169
 11140 0124 DC6C0000 		.4byte	.LASF549
 11141 0128 05       		.byte	0x5
 11142 0129 EC02     		.uleb128 0x16c
 11143 012b 20530000 		.4byte	.LASF550
 11144 012f 05       		.byte	0x5
 11145 0130 ED02     		.uleb128 0x16d
 11146 0132 997B0000 		.4byte	.LASF551
 11147 0136 05       		.byte	0x5
 11148 0137 EF02     		.uleb128 0x16f
 11149 0139 3C290000 		.4byte	.LASF552
 11150 013d 05       		.byte	0x5
 11151 013e F002     		.uleb128 0x170
 11152 0140 061A0000 		.4byte	.LASF553
 11153 0144 05       		.byte	0x5
 11154 0145 F202     		.uleb128 0x172
 11155 0147 7F270000 		.4byte	.LASF554
 11156 014b 05       		.byte	0x5
 11157 014c F302     		.uleb128 0x173
 11158 014e 591F0000 		.4byte	.LASF555
 11159 0152 05       		.byte	0x5
 11160 0153 F602     		.uleb128 0x176
 11161 0155 266E0000 		.4byte	.LASF556
 11162 0159 05       		.byte	0x5
 11163 015a F702     		.uleb128 0x177
 11164 015c 1D120000 		.4byte	.LASF557
 11165 0160 05       		.byte	0x5
 11166 0161 F902     		.uleb128 0x179
 11167 0163 E64F0000 		.4byte	.LASF558
 11168 0167 05       		.byte	0x5
 11169 0168 FA02     		.uleb128 0x17a
 11170 016a 80060000 		.4byte	.LASF559
 11171 016e 05       		.byte	0x5
 11172 016f FD02     		.uleb128 0x17d
ARM GAS  /tmp/ccjsfSlY.s 			page 227


 11173 0171 D22B0000 		.4byte	.LASF560
 11174 0175 05       		.byte	0x5
 11175 0176 FE02     		.uleb128 0x17e
 11176 0178 22500000 		.4byte	.LASF561
 11177 017c 05       		.byte	0x5
 11178 017d 9403     		.uleb128 0x194
 11179 017f 122C0000 		.4byte	.LASF562
 11180 0183 05       		.byte	0x5
 11181 0184 9503     		.uleb128 0x195
 11182 0186 506F0000 		.4byte	.LASF563
 11183 018a 05       		.byte	0x5
 11184 018b 9703     		.uleb128 0x197
 11185 018d 870B0000 		.4byte	.LASF564
 11186 0191 05       		.byte	0x5
 11187 0192 9803     		.uleb128 0x198
 11188 0194 7E050000 		.4byte	.LASF565
 11189 0198 05       		.byte	0x5
 11190 0199 9A03     		.uleb128 0x19a
 11191 019b 89120000 		.4byte	.LASF566
 11192 019f 05       		.byte	0x5
 11193 01a0 9B03     		.uleb128 0x19b
 11194 01a2 20600000 		.4byte	.LASF567
 11195 01a6 05       		.byte	0x5
 11196 01a7 9D03     		.uleb128 0x19d
 11197 01a9 5E280000 		.4byte	.LASF568
 11198 01ad 05       		.byte	0x5
 11199 01ae 9E03     		.uleb128 0x19e
 11200 01b0 19660000 		.4byte	.LASF569
 11201 01b4 05       		.byte	0x5
 11202 01b5 A103     		.uleb128 0x1a1
 11203 01b7 526D0000 		.4byte	.LASF570
 11204 01bb 05       		.byte	0x5
 11205 01bc A203     		.uleb128 0x1a2
 11206 01be B8640000 		.4byte	.LASF571
 11207 01c2 05       		.byte	0x5
 11208 01c3 A503     		.uleb128 0x1a5
 11209 01c5 B65B0000 		.4byte	.LASF572
 11210 01c9 05       		.byte	0x5
 11211 01ca A603     		.uleb128 0x1a6
 11212 01cc 0A4C0000 		.4byte	.LASF573
 11213 01d0 05       		.byte	0x5
 11214 01d1 A903     		.uleb128 0x1a9
 11215 01d3 92650000 		.4byte	.LASF574
 11216 01d7 05       		.byte	0x5
 11217 01d8 AA03     		.uleb128 0x1aa
 11218 01da 07200000 		.4byte	.LASF575
 11219 01de 05       		.byte	0x5
 11220 01df AC03     		.uleb128 0x1ac
 11221 01e1 CF5C0000 		.4byte	.LASF576
 11222 01e5 05       		.byte	0x5
 11223 01e6 AD03     		.uleb128 0x1ad
 11224 01e8 09750000 		.4byte	.LASF577
 11225 01ec 05       		.byte	0x5
 11226 01ed AF03     		.uleb128 0x1af
 11227 01ef D1380000 		.4byte	.LASF578
 11228 01f3 05       		.byte	0x5
 11229 01f4 B003     		.uleb128 0x1b0
ARM GAS  /tmp/ccjsfSlY.s 			page 228


 11230 01f6 27580000 		.4byte	.LASF579
 11231 01fa 05       		.byte	0x5
 11232 01fb C603     		.uleb128 0x1c6
 11233 01fd 6C550000 		.4byte	.LASF580
 11234 0201 05       		.byte	0x5
 11235 0202 C703     		.uleb128 0x1c7
 11236 0204 0F4F0000 		.4byte	.LASF581
 11237 0208 05       		.byte	0x5
 11238 0209 C803     		.uleb128 0x1c8
 11239 020b EF000000 		.4byte	.LASF582
 11240 020f 05       		.byte	0x5
 11241 0210 C903     		.uleb128 0x1c9
 11242 0212 20220000 		.4byte	.LASF583
 11243 0216 05       		.byte	0x5
 11244 0217 CB03     		.uleb128 0x1cb
 11245 0219 63230000 		.4byte	.LASF584
 11246 021d 05       		.byte	0x5
 11247 021e CC03     		.uleb128 0x1cc
 11248 0220 D66B0000 		.4byte	.LASF585
 11249 0224 05       		.byte	0x5
 11250 0225 CD03     		.uleb128 0x1cd
 11251 0227 86480000 		.4byte	.LASF586
 11252 022b 05       		.byte	0x5
 11253 022c E903     		.uleb128 0x1e9
 11254 022e 86420000 		.4byte	.LASF587
 11255 0232 05       		.byte	0x5
 11256 0233 EA03     		.uleb128 0x1ea
 11257 0235 C05F0000 		.4byte	.LASF588
 11258 0239 05       		.byte	0x5
 11259 023a EB03     		.uleb128 0x1eb
 11260 023c 4A180000 		.4byte	.LASF589
 11261 0240 00       		.byte	0
 11262              		.section	.debug_macro,"G",%progbits,wm4.chip.h.116.857da603c399e979152c31968de4baae,comdat
 11263              	.Ldebug_macro13:
 11264 0000 0400     		.2byte	0x4
 11265 0002 00       		.byte	0
 11266 0003 05       		.byte	0x5
 11267 0004 74       		.uleb128 0x74
 11268 0005 6A2B0000 		.4byte	.LASF590
 11269 0009 05       		.byte	0x5
 11270 000a 75       		.uleb128 0x75
 11271 000b C7010000 		.4byte	.LASF591
 11272 000f 05       		.byte	0x5
 11273 0010 76       		.uleb128 0x76
 11274 0011 906E0000 		.4byte	.LASF592
 11275 0015 05       		.byte	0x5
 11276 0016 77       		.uleb128 0x77
 11277 0017 FC610000 		.4byte	.LASF593
 11278 001b 05       		.byte	0x5
 11279 001c 78       		.uleb128 0x78
 11280 001d 59790000 		.4byte	.LASF594
 11281 0021 05       		.byte	0x5
 11282 0022 79       		.uleb128 0x79
 11283 0023 A2080000 		.4byte	.LASF595
 11284 0027 05       		.byte	0x5
 11285 0028 7A       		.uleb128 0x7a
 11286 0029 08060000 		.4byte	.LASF596
ARM GAS  /tmp/ccjsfSlY.s 			page 229


 11287 002d 05       		.byte	0x5
 11288 002e 7B       		.uleb128 0x7b
 11289 002f 4F720000 		.4byte	.LASF597
 11290 0033 05       		.byte	0x5
 11291 0034 7C       		.uleb128 0x7c
 11292 0035 16710000 		.4byte	.LASF598
 11293 0039 05       		.byte	0x5
 11294 003a 7D       		.uleb128 0x7d
 11295 003b E5150000 		.4byte	.LASF599
 11296 003f 05       		.byte	0x5
 11297 0040 7E       		.uleb128 0x7e
 11298 0041 6F3F0000 		.4byte	.LASF600
 11299 0045 05       		.byte	0x5
 11300 0046 7F       		.uleb128 0x7f
 11301 0047 58440000 		.4byte	.LASF601
 11302 004b 05       		.byte	0x5
 11303 004c 8001     		.uleb128 0x80
 11304 004e B6500000 		.4byte	.LASF602
 11305 0052 05       		.byte	0x5
 11306 0053 8101     		.uleb128 0x81
 11307 0055 D5000000 		.4byte	.LASF603
 11308 0059 05       		.byte	0x5
 11309 005a 8201     		.uleb128 0x82
 11310 005c C72F0000 		.4byte	.LASF604
 11311 0060 05       		.byte	0x5
 11312 0061 8301     		.uleb128 0x83
 11313 0063 A55E0000 		.4byte	.LASF605
 11314 0067 05       		.byte	0x5
 11315 0068 8401     		.uleb128 0x84
 11316 006a 67580000 		.4byte	.LASF606
 11317 006e 05       		.byte	0x5
 11318 006f 8501     		.uleb128 0x85
 11319 0071 CD510000 		.4byte	.LASF607
 11320 0075 05       		.byte	0x5
 11321 0076 9001     		.uleb128 0x90
 11322 0078 18610000 		.4byte	.LASF608
 11323 007c 05       		.byte	0x5
 11324 007d 9101     		.uleb128 0x91
 11325 007f AE510000 		.4byte	.LASF609
 11326 0083 05       		.byte	0x5
 11327 0084 9301     		.uleb128 0x93
 11328 0086 88460000 		.4byte	.LASF610
 11329 008a 05       		.byte	0x5
 11330 008b 9401     		.uleb128 0x94
 11331 008d AE330000 		.4byte	.LASF611
 11332 0091 05       		.byte	0x5
 11333 0092 9701     		.uleb128 0x97
 11334 0094 F86F0000 		.4byte	.LASF612
 11335 0098 05       		.byte	0x5
 11336 0099 9801     		.uleb128 0x98
 11337 009b 7A210000 		.4byte	.LASF613
 11338 009f 05       		.byte	0x5
 11339 00a0 9B01     		.uleb128 0x9b
 11340 00a2 822B0000 		.4byte	.LASF614
 11341 00a6 05       		.byte	0x5
 11342 00a7 9E01     		.uleb128 0x9e
 11343 00a9 F85F0000 		.4byte	.LASF615
ARM GAS  /tmp/ccjsfSlY.s 			page 230


 11344 00ad 05       		.byte	0x5
 11345 00ae 9F01     		.uleb128 0x9f
 11346 00b0 26730000 		.4byte	.LASF616
 11347 00b4 05       		.byte	0x5
 11348 00b5 A001     		.uleb128 0xa0
 11349 00b7 23370000 		.4byte	.LASF617
 11350 00bb 05       		.byte	0x5
 11351 00bc A101     		.uleb128 0xa1
 11352 00be 95230000 		.4byte	.LASF618
 11353 00c2 05       		.byte	0x5
 11354 00c3 A201     		.uleb128 0xa2
 11355 00c5 C7160000 		.4byte	.LASF619
 11356 00c9 05       		.byte	0x5
 11357 00ca A301     		.uleb128 0xa3
 11358 00cc CE1D0000 		.4byte	.LASF620
 11359 00d0 05       		.byte	0x5
 11360 00d1 A401     		.uleb128 0xa4
 11361 00d3 E21F0000 		.4byte	.LASF621
 11362 00d7 05       		.byte	0x5
 11363 00d8 B101     		.uleb128 0xb1
 11364 00da FC410000 		.4byte	.LASF622
 11365 00de 05       		.byte	0x5
 11366 00df B201     		.uleb128 0xb2
 11367 00e1 FC5D0000 		.4byte	.LASF623
 11368 00e5 05       		.byte	0x5
 11369 00e6 B301     		.uleb128 0xb3
 11370 00e8 CB320000 		.4byte	.LASF624
 11371 00ec 05       		.byte	0x5
 11372 00ed B401     		.uleb128 0xb4
 11373 00ef 6E300000 		.4byte	.LASF625
 11374 00f3 05       		.byte	0x5
 11375 00f4 B501     		.uleb128 0xb5
 11376 00f6 31250000 		.4byte	.LASF626
 11377 00fa 05       		.byte	0x5
 11378 00fb B701     		.uleb128 0xb7
 11379 00fd D63E0000 		.4byte	.LASF627
 11380 0101 05       		.byte	0x5
 11381 0102 B801     		.uleb128 0xb8
 11382 0104 71130000 		.4byte	.LASF628
 11383 0108 05       		.byte	0x5
 11384 0109 BA01     		.uleb128 0xba
 11385 010b 88510000 		.4byte	.LASF629
 11386 010f 05       		.byte	0x5
 11387 0110 C101     		.uleb128 0xc1
 11388 0112 3F220000 		.4byte	.LASF630
 11389 0116 05       		.byte	0x5
 11390 0117 C401     		.uleb128 0xc4
 11391 0119 353D0000 		.4byte	.LASF631
 11392 011d 00       		.byte	0
 11393              		.section	.debug_macro,"G",%progbits,wm4.pmu_11xx.h.33.1d6b708881441cb98d19b8bab3caa180,comdat
 11394              	.Ldebug_macro14:
 11395 0000 0400     		.2byte	0x4
 11396 0002 00       		.byte	0
 11397 0003 05       		.byte	0x5
 11398 0004 21       		.uleb128 0x21
 11399 0005 BA4F0000 		.4byte	.LASF632
 11400 0009 05       		.byte	0x5
ARM GAS  /tmp/ccjsfSlY.s 			page 231


 11401 000a 4D       		.uleb128 0x4d
 11402 000b AD6A0000 		.4byte	.LASF633
 11403 000f 05       		.byte	0x5
 11404 0010 53       		.uleb128 0x53
 11405 0011 F9340000 		.4byte	.LASF634
 11406 0015 05       		.byte	0x5
 11407 0016 55       		.uleb128 0x55
 11408 0017 45740000 		.4byte	.LASF635
 11409 001b 05       		.byte	0x5
 11410 001c 56       		.uleb128 0x56
 11411 001d 356F0000 		.4byte	.LASF636
 11412 0021 00       		.byte	0
 11413              		.section	.debug_macro,"G",%progbits,wm4.sysctl_11xx.h.33.ae61a1181e608f8409883008e291930c,comdat
 11414              	.Ldebug_macro15:
 11415 0000 0400     		.2byte	0x4
 11416 0002 00       		.byte	0
 11417 0003 05       		.byte	0x5
 11418 0004 21       		.uleb128 0x21
 11419 0005 F8710000 		.4byte	.LASF638
 11420 0009 05       		.byte	0x5
 11421 000a BC01     		.uleb128 0xbc
 11422 000c 2D020000 		.4byte	.LASF639
 11423 0010 05       		.byte	0x5
 11424 0011 BD01     		.uleb128 0xbd
 11425 0013 3B5B0000 		.4byte	.LASF640
 11426 0017 05       		.byte	0x5
 11427 0018 BE01     		.uleb128 0xbe
 11428 001a AF2F0000 		.4byte	.LASF641
 11429 001e 05       		.byte	0x5
 11430 001f BF01     		.uleb128 0xbf
 11431 0021 AB710000 		.4byte	.LASF642
 11432 0025 05       		.byte	0x5
 11433 0026 C001     		.uleb128 0xc0
 11434 0028 E9720000 		.4byte	.LASF643
 11435 002c 05       		.byte	0x5
 11436 002d C501     		.uleb128 0xc5
 11437 002f 79170000 		.4byte	.LASF644
 11438 0033 05       		.byte	0x5
 11439 0034 A904     		.uleb128 0x229
 11440 0036 3F280000 		.4byte	.LASF645
 11441 003a 05       		.byte	0x5
 11442 003b AA04     		.uleb128 0x22a
 11443 003d 585F0000 		.4byte	.LASF646
 11444 0041 05       		.byte	0x5
 11445 0042 C904     		.uleb128 0x249
 11446 0044 04730000 		.4byte	.LASF647
 11447 0048 05       		.byte	0x5
 11448 0049 CA04     		.uleb128 0x24a
 11449 004b 9F760000 		.4byte	.LASF648
 11450 004f 05       		.byte	0x5
 11451 0050 CB04     		.uleb128 0x24b
 11452 0052 1E390000 		.4byte	.LASF649
 11453 0056 05       		.byte	0x5
 11454 0057 CC04     		.uleb128 0x24c
 11455 0059 C30F0000 		.4byte	.LASF650
 11456 005d 05       		.byte	0x5
 11457 005e CD04     		.uleb128 0x24d
ARM GAS  /tmp/ccjsfSlY.s 			page 232


 11458 0060 1C5B0000 		.4byte	.LASF651
 11459 0064 05       		.byte	0x5
 11460 0065 CE04     		.uleb128 0x24e
 11461 0067 A6410000 		.4byte	.LASF652
 11462 006b 05       		.byte	0x5
 11463 006c CF04     		.uleb128 0x24f
 11464 006e BA6C0000 		.4byte	.LASF653
 11465 0072 05       		.byte	0x5
 11466 0073 D004     		.uleb128 0x250
 11467 0075 015F0000 		.4byte	.LASF654
 11468 0079 05       		.byte	0x5
 11469 007a F104     		.uleb128 0x271
 11470 007c EC490000 		.4byte	.LASF655
 11471 0080 05       		.byte	0x5
 11472 0081 F204     		.uleb128 0x272
 11473 0083 4F4F0000 		.4byte	.LASF656
 11474 0087 05       		.byte	0x5
 11475 0088 F304     		.uleb128 0x273
 11476 008a 7E1B0000 		.4byte	.LASF657
 11477 008e 05       		.byte	0x5
 11478 008f F504     		.uleb128 0x275
 11479 0091 73470000 		.4byte	.LASF658
 11480 0095 05       		.byte	0x5
 11481 0096 F704     		.uleb128 0x277
 11482 0098 1D6D0000 		.4byte	.LASF659
 11483 009c 05       		.byte	0x5
 11484 009d F804     		.uleb128 0x278
 11485 009f B30A0000 		.4byte	.LASF660
 11486 00a3 05       		.byte	0x5
 11487 00a4 F904     		.uleb128 0x279
 11488 00a6 E5280000 		.4byte	.LASF661
 11489 00aa 05       		.byte	0x5
 11490 00ab FA04     		.uleb128 0x27a
 11491 00ad 674E0000 		.4byte	.LASF662
 11492 00b1 00       		.byte	0
 11493              		.section	.debug_macro,"G",%progbits,wm4.clock_11xx.h.33.23290a9e2ed919e3a6958d25130bc848,comdat
 11494              	.Ldebug_macro16:
 11495 0000 0400     		.2byte	0x4
 11496 0002 00       		.byte	0
 11497 0003 05       		.byte	0x5
 11498 0004 21       		.uleb128 0x21
 11499 0005 FB3F0000 		.4byte	.LASF663
 11500 0009 05       		.byte	0x5
 11501 000a 2D       		.uleb128 0x2d
 11502 000b 25650000 		.4byte	.LASF664
 11503 000f 00       		.byte	0
 11504              		.section	.debug_macro,"G",%progbits,wm4.iocon_11xx.h.33.25e2b3cde122df23fb07b984cb4f3a93,comdat
 11505              	.Ldebug_macro17:
 11506 0000 0400     		.2byte	0x4
 11507 0002 00       		.byte	0
 11508 0003 05       		.byte	0x5
 11509 0004 21       		.uleb128 0x21
 11510 0005 322E0000 		.4byte	.LASF665
 11511 0009 05       		.byte	0x5
 11512 000a A601     		.uleb128 0xa6
 11513 000c 37790000 		.4byte	.LASF666
 11514 0010 05       		.byte	0x5
ARM GAS  /tmp/ccjsfSlY.s 			page 233


 11515 0011 A701     		.uleb128 0xa7
 11516 0013 9A090000 		.4byte	.LASF667
 11517 0017 05       		.byte	0x5
 11518 0018 A801     		.uleb128 0xa8
 11519 001a 83190000 		.4byte	.LASF668
 11520 001e 05       		.byte	0x5
 11521 001f A901     		.uleb128 0xa9
 11522 0021 90610000 		.4byte	.LASF669
 11523 0025 05       		.byte	0x5
 11524 0026 AA01     		.uleb128 0xaa
 11525 0028 EA4E0000 		.4byte	.LASF670
 11526 002c 05       		.byte	0x5
 11527 002d AB01     		.uleb128 0xab
 11528 002f 180B0000 		.4byte	.LASF671
 11529 0033 05       		.byte	0x5
 11530 0034 AC01     		.uleb128 0xac
 11531 0036 6F270000 		.4byte	.LASF672
 11532 003a 05       		.byte	0x5
 11533 003b AD01     		.uleb128 0xad
 11534 003d 50120000 		.4byte	.LASF673
 11535 0041 05       		.byte	0x5
 11536 0042 AE01     		.uleb128 0xae
 11537 0044 0E260000 		.4byte	.LASF674
 11538 0048 05       		.byte	0x5
 11539 0049 AF01     		.uleb128 0xaf
 11540 004b 6B500000 		.4byte	.LASF675
 11541 004f 05       		.byte	0x5
 11542 0050 B001     		.uleb128 0xb0
 11543 0052 B9630000 		.4byte	.LASF676
 11544 0056 05       		.byte	0x5
 11545 0057 B101     		.uleb128 0xb1
 11546 0059 C21B0000 		.4byte	.LASF677
 11547 005d 05       		.byte	0x5
 11548 005e B201     		.uleb128 0xb2
 11549 0060 38530000 		.4byte	.LASF678
 11550 0064 05       		.byte	0x5
 11551 0065 B301     		.uleb128 0xb3
 11552 0067 CC680000 		.4byte	.LASF679
 11553 006b 05       		.byte	0x5
 11554 006c B401     		.uleb128 0xb4
 11555 006e 63570000 		.4byte	.LASF680
 11556 0072 05       		.byte	0x5
 11557 0073 B501     		.uleb128 0xb5
 11558 0075 235F0000 		.4byte	.LASF681
 11559 0079 05       		.byte	0x5
 11560 007a B601     		.uleb128 0xb6
 11561 007c 5A100000 		.4byte	.LASF682
 11562 0080 05       		.byte	0x5
 11563 0081 B701     		.uleb128 0xb7
 11564 0083 06680000 		.4byte	.LASF683
 11565 0087 05       		.byte	0x5
 11566 0088 B801     		.uleb128 0xb8
 11567 008a EE680000 		.4byte	.LASF684
 11568 008e 05       		.byte	0x5
 11569 008f B901     		.uleb128 0xb9
 11570 0091 A2690000 		.4byte	.LASF685
 11571 0095 05       		.byte	0x5
ARM GAS  /tmp/ccjsfSlY.s 			page 234


 11572 0096 BA01     		.uleb128 0xba
 11573 0098 FE140000 		.4byte	.LASF686
 11574 009c 05       		.byte	0x5
 11575 009d C001     		.uleb128 0xc0
 11576 009f AE0B0000 		.4byte	.LASF687
 11577 00a3 05       		.byte	0x5
 11578 00a4 C101     		.uleb128 0xc1
 11579 00a6 5D6B0000 		.4byte	.LASF688
 11580 00aa 05       		.byte	0x5
 11581 00ab C201     		.uleb128 0xc2
 11582 00ad 18290000 		.4byte	.LASF689
 11583 00b1 05       		.byte	0x5
 11584 00b2 C301     		.uleb128 0xc3
 11585 00b4 71320000 		.4byte	.LASF690
 11586 00b8 05       		.byte	0x5
 11587 00b9 C401     		.uleb128 0xc4
 11588 00bb 921F0000 		.4byte	.LASF691
 11589 00bf 05       		.byte	0x5
 11590 00c0 C501     		.uleb128 0xc5
 11591 00c2 C0170000 		.4byte	.LASF692
 11592 00c6 05       		.byte	0x5
 11593 00c7 C601     		.uleb128 0xc6
 11594 00c9 9F030000 		.4byte	.LASF693
 11595 00cd 05       		.byte	0x5
 11596 00ce C701     		.uleb128 0xc7
 11597 00d0 104A0000 		.4byte	.LASF694
 11598 00d4 05       		.byte	0x5
 11599 00d5 C801     		.uleb128 0xc8
 11600 00d7 E3050000 		.4byte	.LASF695
 11601 00db 05       		.byte	0x5
 11602 00dc C901     		.uleb128 0xc9
 11603 00de 91580000 		.4byte	.LASF696
 11604 00e2 05       		.byte	0x5
 11605 00e3 CA01     		.uleb128 0xca
 11606 00e5 8B4A0000 		.4byte	.LASF697
 11607 00e9 05       		.byte	0x5
 11608 00ea CB01     		.uleb128 0xcb
 11609 00ec 01240000 		.4byte	.LASF698
 11610 00f0 05       		.byte	0x5
 11611 00f1 CC01     		.uleb128 0xcc
 11612 00f3 E0460000 		.4byte	.LASF699
 11613 00f7 05       		.byte	0x5
 11614 00f8 CD01     		.uleb128 0xcd
 11615 00fa 6B560000 		.4byte	.LASF700
 11616 00fe 05       		.byte	0x5
 11617 00ff CE01     		.uleb128 0xce
 11618 0101 7F720000 		.4byte	.LASF701
 11619 0105 05       		.byte	0x5
 11620 0106 CF01     		.uleb128 0xcf
 11621 0108 2D570000 		.4byte	.LASF702
 11622 010c 05       		.byte	0x5
 11623 010d D001     		.uleb128 0xd0
 11624 010f 04610000 		.4byte	.LASF703
 11625 0113 05       		.byte	0x5
 11626 0114 D101     		.uleb128 0xd1
 11627 0116 564E0000 		.4byte	.LASF704
 11628 011a 05       		.byte	0x5
ARM GAS  /tmp/ccjsfSlY.s 			page 235


 11629 011b D201     		.uleb128 0xd2
 11630 011d 1D410000 		.4byte	.LASF705
 11631 0121 05       		.byte	0x5
 11632 0122 D301     		.uleb128 0xd3
 11633 0124 FC260000 		.4byte	.LASF706
 11634 0128 05       		.byte	0x5
 11635 0129 D401     		.uleb128 0xd4
 11636 012b 44330000 		.4byte	.LASF707
 11637 012f 05       		.byte	0x5
 11638 0130 D501     		.uleb128 0xd5
 11639 0132 9D7C0000 		.4byte	.LASF708
 11640 0136 00       		.byte	0
 11641              		.section	.debug_macro,"G",%progbits,wm4.timer_11xx.h.33.c92f50a9325789ee6a8ffd6248980d70,comdat
 11642              	.Ldebug_macro18:
 11643 0000 0400     		.2byte	0x4
 11644 0002 00       		.byte	0
 11645 0003 05       		.byte	0x5
 11646 0004 21       		.uleb128 0x21
 11647 0005 3E720000 		.4byte	.LASF709
 11648 0009 05       		.byte	0x5
 11649 000a 40       		.uleb128 0x40
 11650 000b 16590000 		.4byte	.LASF710
 11651 000f 05       		.byte	0x5
 11652 0010 43       		.uleb128 0x43
 11653 0011 1C380000 		.4byte	.LASF711
 11654 0015 05       		.byte	0x5
 11655 0016 45       		.uleb128 0x45
 11656 0017 7A2E0000 		.4byte	.LASF712
 11657 001b 05       		.byte	0x5
 11658 001c 48       		.uleb128 0x48
 11659 001d 08100000 		.4byte	.LASF713
 11660 0021 05       		.byte	0x5
 11661 0022 4A       		.uleb128 0x4a
 11662 0023 8B7D0000 		.4byte	.LASF714
 11663 0027 05       		.byte	0x5
 11664 0028 4D       		.uleb128 0x4d
 11665 0029 2D210000 		.4byte	.LASF715
 11666 002d 05       		.byte	0x5
 11667 002e 4F       		.uleb128 0x4f
 11668 002f FC2C0000 		.4byte	.LASF716
 11669 0033 05       		.byte	0x5
 11670 0034 51       		.uleb128 0x51
 11671 0035 E95C0000 		.4byte	.LASF717
 11672 0039 05       		.byte	0x5
 11673 003a 54       		.uleb128 0x54
 11674 003b F6460000 		.4byte	.LASF718
 11675 003f 05       		.byte	0x5
 11676 0040 56       		.uleb128 0x56
 11677 0041 A6450000 		.4byte	.LASF719
 11678 0045 05       		.byte	0x5
 11679 0046 58       		.uleb128 0x58
 11680 0047 9E7A0000 		.4byte	.LASF720
 11681 004b 00       		.byte	0
 11682              		.section	.debug_macro,"G",%progbits,wm4.ring_buffer.h.33.2f271415f1f27d60350fb4738c5cbee6,comdat
 11683              	.Ldebug_macro19:
 11684 0000 0400     		.2byte	0x4
 11685 0002 00       		.byte	0
ARM GAS  /tmp/ccjsfSlY.s 			page 236


 11686 0003 05       		.byte	0x5
 11687 0004 21       		.uleb128 0x21
 11688 0005 68540000 		.4byte	.LASF722
 11689 0009 05       		.byte	0x5
 11690 000a 3A       		.uleb128 0x3a
 11691 000b 3A760000 		.4byte	.LASF723
 11692 000f 05       		.byte	0x5
 11693 0010 41       		.uleb128 0x41
 11694 0011 99310000 		.4byte	.LASF724
 11695 0015 00       		.byte	0
 11696              		.section	.debug_macro,"G",%progbits,wm4.uart_11xx.h.98.fe68b709973730a4fba3f3ce60c5c312,comdat
 11697              	.Ldebug_macro20:
 11698 0000 0400     		.2byte	0x4
 11699 0002 00       		.byte	0
 11700 0003 05       		.byte	0x5
 11701 0004 62       		.uleb128 0x62
 11702 0005 CF500000 		.4byte	.LASF725
 11703 0009 05       		.byte	0x5
 11704 000a 67       		.uleb128 0x67
 11705 000b D7550000 		.4byte	.LASF726
 11706 000f 05       		.byte	0x5
 11707 0010 68       		.uleb128 0x68
 11708 0011 BB740000 		.4byte	.LASF727
 11709 0015 05       		.byte	0x5
 11710 0016 6D       		.uleb128 0x6d
 11711 0017 CE570000 		.4byte	.LASF728
 11712 001b 05       		.byte	0x5
 11713 001c 6E       		.uleb128 0x6e
 11714 001d 6F6B0000 		.4byte	.LASF729
 11715 0021 05       		.byte	0x5
 11716 0022 73       		.uleb128 0x73
 11717 0023 F7570000 		.4byte	.LASF730
 11718 0027 05       		.byte	0x5
 11719 0028 74       		.uleb128 0x74
 11720 0029 964C0000 		.4byte	.LASF731
 11721 002d 05       		.byte	0x5
 11722 002e 75       		.uleb128 0x75
 11723 002f 39480000 		.4byte	.LASF732
 11724 0033 05       		.byte	0x5
 11725 0034 76       		.uleb128 0x76
 11726 0035 F02E0000 		.4byte	.LASF733
 11727 0039 05       		.byte	0x5
 11728 003a 77       		.uleb128 0x77
 11729 003b 7D6A0000 		.4byte	.LASF734
 11730 003f 05       		.byte	0x5
 11731 0040 78       		.uleb128 0x78
 11732 0041 B5190000 		.4byte	.LASF735
 11733 0045 05       		.byte	0x5
 11734 0046 79       		.uleb128 0x79
 11735 0047 FD3E0000 		.4byte	.LASF736
 11736 004b 05       		.byte	0x5
 11737 004c 7A       		.uleb128 0x7a
 11738 004d 7F5D0000 		.4byte	.LASF737
 11739 0051 05       		.byte	0x5
 11740 0052 7B       		.uleb128 0x7b
 11741 0053 911A0000 		.4byte	.LASF738
 11742 0057 05       		.byte	0x5
ARM GAS  /tmp/ccjsfSlY.s 			page 237


 11743 0058 7C       		.uleb128 0x7c
 11744 0059 170A0000 		.4byte	.LASF739
 11745 005d 05       		.byte	0x5
 11746 005e 8101     		.uleb128 0x81
 11747 0060 ED440000 		.4byte	.LASF740
 11748 0064 05       		.byte	0x5
 11749 0065 8201     		.uleb128 0x82
 11750 0067 2A330000 		.4byte	.LASF741
 11751 006b 05       		.byte	0x5
 11752 006c 8301     		.uleb128 0x83
 11753 006e 46390000 		.4byte	.LASF742
 11754 0072 05       		.byte	0x5
 11755 0073 8401     		.uleb128 0x84
 11756 0075 107E0000 		.4byte	.LASF743
 11757 0079 05       		.byte	0x5
 11758 007a 8501     		.uleb128 0x85
 11759 007c 99270000 		.4byte	.LASF744
 11760 0080 05       		.byte	0x5
 11761 0081 8801     		.uleb128 0x88
 11762 0083 CE7B0000 		.4byte	.LASF745
 11763 0087 05       		.byte	0x5
 11764 0088 8901     		.uleb128 0x89
 11765 008a 7A5F0000 		.4byte	.LASF746
 11766 008e 05       		.byte	0x5
 11767 008f 8A01     		.uleb128 0x8a
 11768 0091 67190000 		.4byte	.LASF747
 11769 0095 05       		.byte	0x5
 11770 0096 8B01     		.uleb128 0x8b
 11771 0098 A43B0000 		.4byte	.LASF748
 11772 009c 05       		.byte	0x5
 11773 009d 8C01     		.uleb128 0x8c
 11774 009f A3170000 		.4byte	.LASF749
 11775 00a3 05       		.byte	0x5
 11776 00a4 8D01     		.uleb128 0x8d
 11777 00a6 C00B0000 		.4byte	.LASF750
 11778 00aa 05       		.byte	0x5
 11779 00ab 9201     		.uleb128 0x92
 11780 00ad 6B4B0000 		.4byte	.LASF751
 11781 00b1 05       		.byte	0x5
 11782 00b2 9301     		.uleb128 0x93
 11783 00b4 566A0000 		.4byte	.LASF752
 11784 00b8 05       		.byte	0x5
 11785 00b9 9401     		.uleb128 0x94
 11786 00bb 08360000 		.4byte	.LASF753
 11787 00bf 05       		.byte	0x5
 11788 00c0 9501     		.uleb128 0x95
 11789 00c2 3E690000 		.4byte	.LASF754
 11790 00c6 05       		.byte	0x5
 11791 00c7 9601     		.uleb128 0x96
 11792 00c9 08220000 		.4byte	.LASF755
 11793 00cd 05       		.byte	0x5
 11794 00ce 9801     		.uleb128 0x98
 11795 00d0 590E0000 		.4byte	.LASF756
 11796 00d4 05       		.byte	0x5
 11797 00d5 9B01     		.uleb128 0x9b
 11798 00d7 83320000 		.4byte	.LASF757
 11799 00db 05       		.byte	0x5
ARM GAS  /tmp/ccjsfSlY.s 			page 238


 11800 00dc 9C01     		.uleb128 0x9c
 11801 00de 37110000 		.4byte	.LASF758
 11802 00e2 05       		.byte	0x5
 11803 00e3 9D01     		.uleb128 0x9d
 11804 00e5 C0670000 		.4byte	.LASF759
 11805 00e9 05       		.byte	0x5
 11806 00ea 9E01     		.uleb128 0x9e
 11807 00ec 983E0000 		.4byte	.LASF760
 11808 00f0 05       		.byte	0x5
 11809 00f1 A401     		.uleb128 0xa4
 11810 00f3 C9280000 		.4byte	.LASF761
 11811 00f7 05       		.byte	0x5
 11812 00f8 A501     		.uleb128 0xa5
 11813 00fa D6630000 		.4byte	.LASF762
 11814 00fe 05       		.byte	0x5
 11815 00ff A601     		.uleb128 0xa6
 11816 0101 FE060000 		.4byte	.LASF763
 11817 0105 05       		.byte	0x5
 11818 0106 A701     		.uleb128 0xa7
 11819 0108 022B0000 		.4byte	.LASF764
 11820 010c 05       		.byte	0x5
 11821 010d A801     		.uleb128 0xa8
 11822 010f E8330000 		.4byte	.LASF765
 11823 0113 05       		.byte	0x5
 11824 0114 AB01     		.uleb128 0xab
 11825 0116 10230000 		.4byte	.LASF766
 11826 011a 05       		.byte	0x5
 11827 011b AC01     		.uleb128 0xac
 11828 011d AD7D0000 		.4byte	.LASF767
 11829 0121 05       		.byte	0x5
 11830 0122 AD01     		.uleb128 0xad
 11831 0124 1A3D0000 		.4byte	.LASF768
 11832 0128 05       		.byte	0x5
 11833 0129 B001     		.uleb128 0xb0
 11834 012b 310E0000 		.4byte	.LASF769
 11835 012f 05       		.byte	0x5
 11836 0130 B101     		.uleb128 0xb1
 11837 0132 324F0000 		.4byte	.LASF770
 11838 0136 05       		.byte	0x5
 11839 0137 B201     		.uleb128 0xb2
 11840 0139 E3470000 		.4byte	.LASF771
 11841 013d 05       		.byte	0x5
 11842 013e B301     		.uleb128 0xb3
 11843 0140 1D6B0000 		.4byte	.LASF772
 11844 0144 05       		.byte	0x5
 11845 0145 B401     		.uleb128 0xb4
 11846 0147 B4430000 		.4byte	.LASF773
 11847 014b 05       		.byte	0x5
 11848 014c B501     		.uleb128 0xb5
 11849 014e C51F0000 		.4byte	.LASF774
 11850 0152 05       		.byte	0x5
 11851 0153 B601     		.uleb128 0xb6
 11852 0155 4C030000 		.4byte	.LASF775
 11853 0159 05       		.byte	0x5
 11854 015a B701     		.uleb128 0xb7
 11855 015c 961D0000 		.4byte	.LASF776
 11856 0160 05       		.byte	0x5
ARM GAS  /tmp/ccjsfSlY.s 			page 239


 11857 0161 B801     		.uleb128 0xb8
 11858 0163 43410000 		.4byte	.LASF777
 11859 0167 05       		.byte	0x5
 11860 0168 BD01     		.uleb128 0xbd
 11861 016a 1C050000 		.4byte	.LASF778
 11862 016e 05       		.byte	0x5
 11863 016f BE01     		.uleb128 0xbe
 11864 0171 583A0000 		.4byte	.LASF779
 11865 0175 05       		.byte	0x5
 11866 0176 BF01     		.uleb128 0xbf
 11867 0178 A8180000 		.4byte	.LASF780
 11868 017c 05       		.byte	0x5
 11869 017d C001     		.uleb128 0xc0
 11870 017f 65110000 		.4byte	.LASF781
 11871 0183 05       		.byte	0x5
 11872 0184 C101     		.uleb128 0xc1
 11873 0186 55040000 		.4byte	.LASF782
 11874 018a 05       		.byte	0x5
 11875 018b C201     		.uleb128 0xc2
 11876 018d 280B0000 		.4byte	.LASF783
 11877 0191 05       		.byte	0x5
 11878 0192 C701     		.uleb128 0xc7
 11879 0194 554B0000 		.4byte	.LASF784
 11880 0198 05       		.byte	0x5
 11881 0199 C801     		.uleb128 0xc8
 11882 019b C2750000 		.4byte	.LASF785
 11883 019f 05       		.byte	0x5
 11884 01a0 C901     		.uleb128 0xc9
 11885 01a2 111D0000 		.4byte	.LASF786
 11886 01a6 05       		.byte	0x5
 11887 01a7 CA01     		.uleb128 0xca
 11888 01a9 15670000 		.4byte	.LASF787
 11889 01ad 05       		.byte	0x5
 11890 01ae CB01     		.uleb128 0xcb
 11891 01b0 FB220000 		.4byte	.LASF788
 11892 01b4 05       		.byte	0x5
 11893 01b5 CC01     		.uleb128 0xcc
 11894 01b7 FD180000 		.4byte	.LASF789
 11895 01bb 05       		.byte	0x5
 11896 01bc CD01     		.uleb128 0xcd
 11897 01be 5C470000 		.4byte	.LASF790
 11898 01c2 05       		.byte	0x5
 11899 01c3 CE01     		.uleb128 0xce
 11900 01c5 4C6E0000 		.4byte	.LASF791
 11901 01c9 05       		.byte	0x5
 11902 01ca CF01     		.uleb128 0xcf
 11903 01cc 87070000 		.4byte	.LASF792
 11904 01d0 05       		.byte	0x5
 11905 01d1 D001     		.uleb128 0xd0
 11906 01d3 4F0D0000 		.4byte	.LASF793
 11907 01d7 05       		.byte	0x5
 11908 01d8 D101     		.uleb128 0xd1
 11909 01da 7E3E0000 		.4byte	.LASF794
 11910 01de 05       		.byte	0x5
 11911 01df D601     		.uleb128 0xd6
 11912 01e1 C4460000 		.4byte	.LASF795
 11913 01e5 05       		.byte	0x5
ARM GAS  /tmp/ccjsfSlY.s 			page 240


 11914 01e6 D701     		.uleb128 0xd7
 11915 01e8 AB720000 		.4byte	.LASF796
 11916 01ec 05       		.byte	0x5
 11917 01ed D801     		.uleb128 0xd8
 11918 01ef 3A040000 		.4byte	.LASF797
 11919 01f3 05       		.byte	0x5
 11920 01f4 D901     		.uleb128 0xd9
 11921 01f6 F0420000 		.4byte	.LASF798
 11922 01fa 05       		.byte	0x5
 11923 01fb DA01     		.uleb128 0xda
 11924 01fd 9B7E0000 		.4byte	.LASF799
 11925 0201 05       		.byte	0x5
 11926 0202 DB01     		.uleb128 0xdb
 11927 0204 00570000 		.4byte	.LASF800
 11928 0208 05       		.byte	0x5
 11929 0209 DC01     		.uleb128 0xdc
 11930 020b 5B600000 		.4byte	.LASF801
 11931 020f 05       		.byte	0x5
 11932 0210 DD01     		.uleb128 0xdd
 11933 0212 CF7C0000 		.4byte	.LASF802
 11934 0216 05       		.byte	0x5
 11935 0217 DE01     		.uleb128 0xde
 11936 0219 BC420000 		.4byte	.LASF803
 11937 021d 05       		.byte	0x5
 11938 021e E301     		.uleb128 0xe3
 11939 0220 20310000 		.4byte	.LASF804
 11940 0224 05       		.byte	0x5
 11941 0225 E401     		.uleb128 0xe4
 11942 0227 9D440000 		.4byte	.LASF805
 11943 022b 05       		.byte	0x5
 11944 022c E501     		.uleb128 0xe5
 11945 022e 37610000 		.4byte	.LASF806
 11946 0232 05       		.byte	0x5
 11947 0233 E601     		.uleb128 0xe6
 11948 0235 854B0000 		.4byte	.LASF807
 11949 0239 05       		.byte	0x5
 11950 023a E701     		.uleb128 0xe7
 11951 023c 06270000 		.4byte	.LASF808
 11952 0240 05       		.byte	0x5
 11953 0241 E801     		.uleb128 0xe8
 11954 0243 03050000 		.4byte	.LASF809
 11955 0247 05       		.byte	0x5
 11956 0248 ED01     		.uleb128 0xed
 11957 024a C0080000 		.4byte	.LASF810
 11958 024e 05       		.byte	0x5
 11959 024f EE01     		.uleb128 0xee
 11960 0251 BF110000 		.4byte	.LASF811
 11961 0255 05       		.byte	0x5
 11962 0256 EF01     		.uleb128 0xef
 11963 0258 0F7B0000 		.4byte	.LASF812
 11964 025c 05       		.byte	0x5
 11965 025d F001     		.uleb128 0xf0
 11966 025f 74180000 		.4byte	.LASF813
 11967 0263 05       		.byte	0x5
 11968 0264 F201     		.uleb128 0xf2
 11969 0266 D54A0000 		.4byte	.LASF814
 11970 026a 05       		.byte	0x5
ARM GAS  /tmp/ccjsfSlY.s 			page 241


 11971 026b F301     		.uleb128 0xf3
 11972 026d 704F0000 		.4byte	.LASF815
 11973 0271 05       		.byte	0x5
 11974 0272 F601     		.uleb128 0xf6
 11975 0274 FF290000 		.4byte	.LASF816
 11976 0278 05       		.byte	0x5
 11977 0279 FB01     		.uleb128 0xfb
 11978 027b 011E0000 		.4byte	.LASF817
 11979 027f 05       		.byte	0x5
 11980 0280 FC01     		.uleb128 0xfc
 11981 0282 670D0000 		.4byte	.LASF818
 11982 0286 05       		.byte	0x5
 11983 0287 FD01     		.uleb128 0xfd
 11984 0289 AE780000 		.4byte	.LASF819
 11985 028d 05       		.byte	0x5
 11986 028e FE01     		.uleb128 0xfe
 11987 0290 EA1C0000 		.4byte	.LASF820
 11988 0294 05       		.byte	0x5
 11989 0295 FF01     		.uleb128 0xff
 11990 0297 E70E0000 		.4byte	.LASF821
 11991 029b 05       		.byte	0x5
 11992 029c 8402     		.uleb128 0x104
 11993 029e 173F0000 		.4byte	.LASF822
 11994 02a2 05       		.byte	0x5
 11995 02a3 8902     		.uleb128 0x109
 11996 02a5 0C430000 		.4byte	.LASF823
 11997 02a9 05       		.byte	0x5
 11998 02aa 8A02     		.uleb128 0x10a
 11999 02ac F1730000 		.4byte	.LASF824
 12000 02b0 05       		.byte	0x5
 12001 02b1 8B02     		.uleb128 0x10b
 12002 02b3 47310000 		.4byte	.LASF825
 12003 02b7 05       		.byte	0x5
 12004 02b8 8C02     		.uleb128 0x10c
 12005 02ba C6580000 		.4byte	.LASF826
 12006 02be 05       		.byte	0x5
 12007 02bf 8D02     		.uleb128 0x10d
 12008 02c1 EB310000 		.4byte	.LASF827
 12009 02c5 05       		.byte	0x5
 12010 02c6 9202     		.uleb128 0x112
 12011 02c8 03520000 		.4byte	.LASF828
 12012 02cc 05       		.byte	0x5
 12013 02cd 9302     		.uleb128 0x113
 12014 02cf D8600000 		.4byte	.LASF829
 12015 02d3 05       		.byte	0x5
 12016 02d4 9402     		.uleb128 0x114
 12017 02d6 D8090000 		.4byte	.LASF830
 12018 02da 05       		.byte	0x5
 12019 02db 9902     		.uleb128 0x119
 12020 02dd AB0F0000 		.4byte	.LASF831
 12021 02e1 05       		.byte	0x5
 12022 02e2 9A02     		.uleb128 0x11a
 12023 02e4 4F190000 		.4byte	.LASF832
 12024 02e8 05       		.byte	0x5
 12025 02e9 9F02     		.uleb128 0x11f
 12026 02eb 2B5E0000 		.4byte	.LASF833
 12027 02ef 05       		.byte	0x5
ARM GAS  /tmp/ccjsfSlY.s 			page 242


 12028 02f0 A002     		.uleb128 0x120
 12029 02f2 EB380000 		.4byte	.LASF834
 12030 02f6 05       		.byte	0x5
 12031 02f7 A102     		.uleb128 0x121
 12032 02f9 2B1F0000 		.4byte	.LASF835
 12033 02fd 05       		.byte	0x5
 12034 02fe A202     		.uleb128 0x122
 12035 0300 D1690000 		.4byte	.LASF836
 12036 0304 05       		.byte	0x5
 12037 0305 A302     		.uleb128 0x123
 12038 0307 384B0000 		.4byte	.LASF837
 12039 030b 05       		.byte	0x5
 12040 030c A402     		.uleb128 0x124
 12041 030e 0A7A0000 		.4byte	.LASF838
 12042 0312 05       		.byte	0x5
 12043 0313 A502     		.uleb128 0x125
 12044 0315 99770000 		.4byte	.LASF839
 12045 0319 00       		.byte	0
 12046              		.section	.debug_macro,"G",%progbits,wm4.wwdt_11xx.h.33.5768344983cb842df69cc91ea86cabb0,comdat
 12047              	.Ldebug_macro21:
 12048 0000 0400     		.2byte	0x4
 12049 0002 00       		.byte	0
 12050 0003 05       		.byte	0x5
 12051 0004 21       		.uleb128 0x21
 12052 0005 99100000 		.4byte	.LASF840
 12053 0009 05       		.byte	0x5
 12054 000a 4B       		.uleb128 0x4b
 12055 000b 2A670000 		.4byte	.LASF841
 12056 000f 05       		.byte	0x5
 12057 0010 4D       		.uleb128 0x4d
 12058 0011 F6100000 		.4byte	.LASF842
 12059 0015 05       		.byte	0x5
 12060 0016 4F       		.uleb128 0x4f
 12061 0017 4F590000 		.4byte	.LASF843
 12062 001b 05       		.byte	0x5
 12063 001c 51       		.uleb128 0x51
 12064 001d 9B3D0000 		.4byte	.LASF844
 12065 0021 05       		.byte	0x5
 12066 0022 53       		.uleb128 0x53
 12067 0023 4D340000 		.4byte	.LASF845
 12068 0027 05       		.byte	0x5
 12069 0028 55       		.uleb128 0x55
 12070 0029 66430000 		.4byte	.LASF846
 12071 002d 00       		.byte	0
 12072              		.section	.debug_macro,"G",%progbits,wm4.ssp_11xx.h.33.af054d3d65f4cb0c078be40bb872ec37,comdat
 12073              	.Ldebug_macro22:
 12074 0000 0400     		.2byte	0x4
 12075 0002 00       		.byte	0
 12076 0003 05       		.byte	0x5
 12077 0004 21       		.uleb128 0x21
 12078 0005 2C2D0000 		.4byte	.LASF847
 12079 0009 05       		.byte	0x5
 12080 000a 40       		.uleb128 0x40
 12081 000b A84D0000 		.4byte	.LASF848
 12082 000f 05       		.byte	0x5
 12083 0010 42       		.uleb128 0x42
 12084 0011 61070000 		.4byte	.LASF849
ARM GAS  /tmp/ccjsfSlY.s 			page 243


 12085 0015 05       		.byte	0x5
 12086 0016 44       		.uleb128 0x44
 12087 0017 4F2A0000 		.4byte	.LASF850
 12088 001b 05       		.byte	0x5
 12089 001c 46       		.uleb128 0x46
 12090 001d 8A500000 		.4byte	.LASF851
 12091 0021 05       		.byte	0x5
 12092 0022 49       		.uleb128 0x49
 12093 0023 EE400000 		.4byte	.LASF852
 12094 0027 05       		.byte	0x5
 12095 0028 4A       		.uleb128 0x4a
 12096 0029 69090000 		.4byte	.LASF853
 12097 002d 05       		.byte	0x5
 12098 002e 4D       		.uleb128 0x4d
 12099 002f 1E140000 		.4byte	.LASF854
 12100 0033 05       		.byte	0x5
 12101 0034 4E       		.uleb128 0x4e
 12102 0035 14720000 		.4byte	.LASF855
 12103 0039 05       		.byte	0x5
 12104 003a 51       		.uleb128 0x51
 12105 003b C4350000 		.4byte	.LASF856
 12106 003f 05       		.byte	0x5
 12107 0040 53       		.uleb128 0x53
 12108 0041 F7110000 		.4byte	.LASF857
 12109 0045 05       		.byte	0x5
 12110 0046 55       		.uleb128 0x55
 12111 0047 F7110000 		.4byte	.LASF857
 12112 004b 05       		.byte	0x5
 12113 004c 58       		.uleb128 0x58
 12114 004d C4350000 		.4byte	.LASF856
 12115 0051 05       		.byte	0x5
 12116 0052 5F       		.uleb128 0x5f
 12117 0053 E8530000 		.4byte	.LASF858
 12118 0057 05       		.byte	0x5
 12119 0058 61       		.uleb128 0x61
 12120 0059 8D000000 		.4byte	.LASF859
 12121 005d 05       		.byte	0x5
 12122 005e 63       		.uleb128 0x63
 12123 005f 89240000 		.4byte	.LASF860
 12124 0063 05       		.byte	0x5
 12125 0064 64       		.uleb128 0x64
 12126 0065 19350000 		.4byte	.LASF861
 12127 0069 05       		.byte	0x5
 12128 006a 67       		.uleb128 0x67
 12129 006b 3A710000 		.4byte	.LASF862
 12130 006f 05       		.byte	0x5
 12131 0070 69       		.uleb128 0x69
 12132 0071 EB7A0000 		.4byte	.LASF863
 12133 0075 05       		.byte	0x5
 12134 0076 6C       		.uleb128 0x6c
 12135 0077 AC790000 		.4byte	.LASF864
 12136 007b 05       		.byte	0x5
 12137 007c 72       		.uleb128 0x72
 12138 007d A41F0000 		.4byte	.LASF865
 12139 0081 05       		.byte	0x5
 12140 0082 79       		.uleb128 0x79
 12141 0083 F9370000 		.4byte	.LASF866
ARM GAS  /tmp/ccjsfSlY.s 			page 244


 12142 0087 05       		.byte	0x5
 12143 0088 7C       		.uleb128 0x7c
 12144 0089 34440000 		.4byte	.LASF867
 12145 008d 05       		.byte	0x5
 12146 008e C503     		.uleb128 0x1c5
 12147 0090 133E0000 		.4byte	.LASF868
 12148 0094 05       		.byte	0x5
 12149 0095 C603     		.uleb128 0x1c6
 12150 0097 8A330000 		.4byte	.LASF869
 12151 009b 05       		.byte	0x5
 12152 009c CF03     		.uleb128 0x1cf
 12153 009e 5C1A0000 		.4byte	.LASF870
 12154 00a2 05       		.byte	0x5
 12155 00a3 D003     		.uleb128 0x1d0
 12156 00a5 261D0000 		.4byte	.LASF871
 12157 00a9 05       		.byte	0x5
 12158 00aa D303     		.uleb128 0x1d3
 12159 00ac 3B7C0000 		.4byte	.LASF872
 12160 00b0 05       		.byte	0x5
 12161 00b1 D403     		.uleb128 0x1d4
 12162 00b3 530C0000 		.4byte	.LASF873
 12163 00b7 00       		.byte	0
 12164              		.section	.debug_macro,"G",%progbits,wm4.error.h.38.ae74fe1dd9d19c80c505f1fda144fce8,comdat
 12165              	.Ldebug_macro23:
 12166 0000 0400     		.2byte	0x4
 12167 0002 00       		.byte	0
 12168 0003 05       		.byte	0x5
 12169 0004 26       		.uleb128 0x26
 12170 0005 6B530000 		.4byte	.LASF875
 12171 0009 05       		.byte	0x5
 12172 000a 8401     		.uleb128 0x84
 12173 000c 42080000 		.4byte	.LASF876
 12174 0010 00       		.byte	0
 12175              		.section	.debug_macro,"G",%progbits,wm4.adc_11xx.h.33.6ce7433ac6b30df70a6993d01dbd513f,comdat
 12176              	.Ldebug_macro24:
 12177 0000 0400     		.2byte	0x4
 12178 0002 00       		.byte	0
 12179 0003 05       		.byte	0x5
 12180 0004 21       		.uleb128 0x21
 12181 0005 671B0000 		.4byte	.LASF877
 12182 0009 05       		.byte	0x5
 12183 000a 2F       		.uleb128 0x2f
 12184 000b 74340000 		.4byte	.LASF878
 12185 000f 05       		.byte	0x5
 12186 0010 40       		.uleb128 0x40
 12187 0011 775A0000 		.4byte	.LASF879
 12188 0015 05       		.byte	0x5
 12189 0016 41       		.uleb128 0x41
 12190 0017 C94B0000 		.4byte	.LASF880
 12191 001b 05       		.byte	0x5
 12192 001c 43       		.uleb128 0x43
 12193 001d E84D0000 		.4byte	.LASF881
 12194 0021 05       		.byte	0x5
 12195 0022 44       		.uleb128 0x44
 12196 0023 21420000 		.4byte	.LASF882
 12197 0027 05       		.byte	0x5
 12198 0028 45       		.uleb128 0x45
ARM GAS  /tmp/ccjsfSlY.s 			page 245


 12199 0029 EB3C0000 		.4byte	.LASF883
 12200 002d 05       		.byte	0x5
 12201 002e 46       		.uleb128 0x46
 12202 002f 647D0000 		.4byte	.LASF884
 12203 0033 05       		.byte	0x5
 12204 0034 47       		.uleb128 0x47
 12205 0035 1C110000 		.4byte	.LASF885
 12206 0039 05       		.byte	0x5
 12207 003a 48       		.uleb128 0x48
 12208 003b 60770000 		.4byte	.LASF886
 12209 003f 05       		.byte	0x5
 12210 0040 49       		.uleb128 0x49
 12211 0041 DC610000 		.4byte	.LASF887
 12212 0045 05       		.byte	0x5
 12213 0046 4A       		.uleb128 0x4a
 12214 0047 AB1A0000 		.4byte	.LASF888
 12215 004b 05       		.byte	0x5
 12216 004c 4B       		.uleb128 0x4b
 12217 004d 0E210000 		.4byte	.LASF889
 12218 0051 05       		.byte	0x5
 12219 0052 4C       		.uleb128 0x4c
 12220 0053 28450000 		.4byte	.LASF890
 12221 0057 05       		.byte	0x5
 12222 0058 4D       		.uleb128 0x4d
 12223 0059 FA160000 		.4byte	.LASF891
 12224 005d 05       		.byte	0x5
 12225 005e 4E       		.uleb128 0x4e
 12226 005f D82C0000 		.4byte	.LASF892
 12227 0063 05       		.byte	0x5
 12228 0064 4F       		.uleb128 0x4f
 12229 0065 C23D0000 		.4byte	.LASF893
 12230 0069 05       		.byte	0x5
 12231 006a 50       		.uleb128 0x50
 12232 006b BB610000 		.4byte	.LASF894
 12233 006f 05       		.byte	0x5
 12234 0070 51       		.uleb128 0x51
 12235 0071 A4550000 		.4byte	.LASF895
 12236 0075 05       		.byte	0x5
 12237 0076 52       		.uleb128 0x52
 12238 0077 F95B0000 		.4byte	.LASF896
 12239 007b 00       		.byte	0
 12240              		.section	.debug_macro,"G",%progbits,wm4.i2c_11xx.h.33.2b506d1350e00a8c26e8bf006a5f9390,comdat
 12241              	.Ldebug_macro25:
 12242 0000 0400     		.2byte	0x4
 12243 0002 00       		.byte	0
 12244 0003 05       		.byte	0x5
 12245 0004 21       		.uleb128 0x21
 12246 0005 3D6E0000 		.4byte	.LASF898
 12247 0009 05       		.byte	0x5
 12248 000a 46       		.uleb128 0x46
 12249 000b 120E0000 		.4byte	.LASF899
 12250 000f 05       		.byte	0x5
 12251 0010 47       		.uleb128 0x47
 12252 0011 5A090000 		.4byte	.LASF900
 12253 0015 05       		.byte	0x5
 12254 0016 48       		.uleb128 0x48
 12255 0017 1D1C0000 		.4byte	.LASF901
ARM GAS  /tmp/ccjsfSlY.s 			page 246


 12256 001b 05       		.byte	0x5
 12257 001c 49       		.uleb128 0x49
 12258 001d 876B0000 		.4byte	.LASF902
 12259 0021 05       		.byte	0x5
 12260 0022 4E       		.uleb128 0x4e
 12261 0023 076B0000 		.4byte	.LASF903
 12262 0027 05       		.byte	0x5
 12263 0028 53       		.uleb128 0x53
 12264 0029 F5250000 		.4byte	.LASF904
 12265 002d 05       		.byte	0x5
 12266 002e 54       		.uleb128 0x54
 12267 002f FF0A0000 		.4byte	.LASF905
 12268 0033 05       		.byte	0x5
 12269 0034 55       		.uleb128 0x55
 12270 0035 00000000 		.4byte	.LASF906
 12271 0039 05       		.byte	0x5
 12272 003a 56       		.uleb128 0x56
 12273 003b 792F0000 		.4byte	.LASF907
 12274 003f 05       		.byte	0x5
 12275 0040 57       		.uleb128 0x57
 12276 0041 B30E0000 		.4byte	.LASF908
 12277 0045 05       		.byte	0x5
 12278 0046 5C       		.uleb128 0x5c
 12279 0047 6A480000 		.4byte	.LASF909
 12280 004b 05       		.byte	0x5
 12281 004c 5D       		.uleb128 0x5d
 12282 004d 1D0C0000 		.4byte	.LASF910
 12283 0051 05       		.byte	0x5
 12284 0052 5E       		.uleb128 0x5e
 12285 0053 4F550000 		.4byte	.LASF911
 12286 0057 05       		.byte	0x5
 12287 0058 5F       		.uleb128 0x5f
 12288 0059 8F0C0000 		.4byte	.LASF912
 12289 005d 05       		.byte	0x5
 12290 005e 60       		.uleb128 0x60
 12291 005f BE260000 		.4byte	.LASF913
 12292 0063 05       		.byte	0x5
 12293 0064 65       		.uleb128 0x65
 12294 0065 924D0000 		.4byte	.LASF914
 12295 0069 05       		.byte	0x5
 12296 006a 66       		.uleb128 0x66
 12297 006b 27550000 		.4byte	.LASF915
 12298 006f 05       		.byte	0x5
 12299 0070 67       		.uleb128 0x67
 12300 0071 6F420000 		.4byte	.LASF916
 12301 0075 05       		.byte	0x5
 12302 0076 68       		.uleb128 0x68
 12303 0077 D0200000 		.4byte	.LASF917
 12304 007b 05       		.byte	0x5
 12305 007c 69       		.uleb128 0x69
 12306 007d CB4E0000 		.4byte	.LASF918
 12307 0081 05       		.byte	0x5
 12308 0082 6E       		.uleb128 0x6e
 12309 0083 A23F0000 		.4byte	.LASF919
 12310 0087 05       		.byte	0x5
 12311 0088 6F       		.uleb128 0x6f
 12312 0089 E6510000 		.4byte	.LASF920
ARM GAS  /tmp/ccjsfSlY.s 			page 247


 12313 008d 05       		.byte	0x5
 12314 008e 74       		.uleb128 0x74
 12315 008f 16250000 		.4byte	.LASF921
 12316 0093 05       		.byte	0x5
 12317 0094 75       		.uleb128 0x75
 12318 0095 3C090000 		.4byte	.LASF922
 12319 0099 05       		.byte	0x5
 12320 009a 7A       		.uleb128 0x7a
 12321 009b 774C0000 		.4byte	.LASF923
 12322 009f 05       		.byte	0x5
 12323 00a0 7B       		.uleb128 0x7b
 12324 00a1 3B1A0000 		.4byte	.LASF924
 12325 00a5 05       		.byte	0x5
 12326 00a6 7C       		.uleb128 0x7c
 12327 00a7 2A260000 		.4byte	.LASF925
 12328 00ab 05       		.byte	0x5
 12329 00ac 7D       		.uleb128 0x7d
 12330 00ad 91430000 		.4byte	.LASF926
 12331 00b1 05       		.byte	0x5
 12332 00b2 7E       		.uleb128 0x7e
 12333 00b3 C5300000 		.4byte	.LASF927
 12334 00b7 05       		.byte	0x5
 12335 00b8 7F       		.uleb128 0x7f
 12336 00b9 C6530000 		.4byte	.LASF928
 12337 00bd 05       		.byte	0x5
 12338 00be 8001     		.uleb128 0x80
 12339 00c0 E11B0000 		.4byte	.LASF929
 12340 00c4 05       		.byte	0x5
 12341 00c5 8501     		.uleb128 0x85
 12342 00c7 7F020000 		.4byte	.LASF930
 12343 00cb 05       		.byte	0x5
 12344 00cc 8601     		.uleb128 0x86
 12345 00ce 52010000 		.4byte	.LASF931
 12346 00d2 05       		.byte	0x5
 12347 00d3 8701     		.uleb128 0x87
 12348 00d5 922D0000 		.4byte	.LASF932
 12349 00d9 05       		.byte	0x5
 12350 00da 8801     		.uleb128 0x88
 12351 00dc 97630000 		.4byte	.LASF933
 12352 00e0 05       		.byte	0x5
 12353 00e1 8901     		.uleb128 0x89
 12354 00e3 B33E0000 		.4byte	.LASF934
 12355 00e7 05       		.byte	0x5
 12356 00e8 8A01     		.uleb128 0x8a
 12357 00ea EA0C0000 		.4byte	.LASF935
 12358 00ee 05       		.byte	0x5
 12359 00ef 8B01     		.uleb128 0x8b
 12360 00f1 A9100000 		.4byte	.LASF936
 12361 00f5 05       		.byte	0x5
 12362 00f6 9001     		.uleb128 0x90
 12363 00f8 082F0000 		.4byte	.LASF937
 12364 00fc 05       		.byte	0x5
 12365 00fd 9101     		.uleb128 0x91
 12366 00ff E5770000 		.4byte	.LASF938
 12367 0103 05       		.byte	0x5
 12368 0104 9301     		.uleb128 0x93
 12369 0106 C6310000 		.4byte	.LASF939
ARM GAS  /tmp/ccjsfSlY.s 			page 248


 12370 010a 05       		.byte	0x5
 12371 010b 9401     		.uleb128 0x94
 12372 010d 0F510000 		.4byte	.LASF940
 12373 0111 05       		.byte	0x5
 12374 0112 9601     		.uleb128 0x96
 12375 0114 1A620000 		.4byte	.LASF941
 12376 0118 05       		.byte	0x5
 12377 0119 9701     		.uleb128 0x97
 12378 011b C00C0000 		.4byte	.LASF942
 12379 011f 05       		.byte	0x5
 12380 0120 9801     		.uleb128 0x98
 12381 0122 E1130000 		.4byte	.LASF943
 12382 0126 05       		.byte	0x5
 12383 0127 9901     		.uleb128 0x99
 12384 0129 DD120000 		.4byte	.LASF944
 12385 012d 05       		.byte	0x5
 12386 012e 9A01     		.uleb128 0x9a
 12387 0130 BE440000 		.4byte	.LASF945
 12388 0134 05       		.byte	0x5
 12389 0135 A001     		.uleb128 0xa0
 12390 0137 80790000 		.4byte	.LASF946
 12391 013b 05       		.byte	0x5
 12392 013c A101     		.uleb128 0xa1
 12393 013e E7500000 		.4byte	.LASF947
 12394 0142 05       		.byte	0x5
 12395 0143 A301     		.uleb128 0xa3
 12396 0145 C3180000 		.4byte	.LASF948
 12397 0149 05       		.byte	0x5
 12398 014a A401     		.uleb128 0xa4
 12399 014c E7520000 		.4byte	.LASF949
 12400 0150 05       		.byte	0x5
 12401 0151 A501     		.uleb128 0xa5
 12402 0153 9E730000 		.4byte	.LASF950
 12403 0157 05       		.byte	0x5
 12404 0158 A601     		.uleb128 0xa6
 12405 015a 00310000 		.4byte	.LASF951
 12406 015e 05       		.byte	0x5
 12407 015f AB01     		.uleb128 0xab
 12408 0161 CD330000 		.4byte	.LASF952
 12409 0165 05       		.byte	0x5
 12410 0166 AC01     		.uleb128 0xac
 12411 0168 DC6D0000 		.4byte	.LASF953
 12412 016c 05       		.byte	0x5
 12413 016d B201     		.uleb128 0xb2
 12414 016f 45000000 		.4byte	.LASF954
 12415 0173 05       		.byte	0x5
 12416 0174 B301     		.uleb128 0xb3
 12417 0176 D7750000 		.4byte	.LASF955
 12418 017a 05       		.byte	0x5
 12419 017b B401     		.uleb128 0xb4
 12420 017d 84450000 		.4byte	.LASF956
 12421 0181 05       		.byte	0x5
 12422 0182 B501     		.uleb128 0xb5
 12423 0184 5C2E0000 		.4byte	.LASF957
 12424 0188 05       		.byte	0x5
 12425 0189 BA01     		.uleb128 0xba
 12426 018b 35780000 		.4byte	.LASF958
ARM GAS  /tmp/ccjsfSlY.s 			page 249


 12427 018f 05       		.byte	0x5
 12428 0190 BF01     		.uleb128 0xbf
 12429 0192 35680000 		.4byte	.LASF959
 12430 0196 05       		.byte	0x5
 12431 0197 C001     		.uleb128 0xc0
 12432 0199 873F0000 		.4byte	.LASF960
 12433 019d 05       		.byte	0x5
 12434 019e C501     		.uleb128 0xc5
 12435 01a0 95590000 		.4byte	.LASF961
 12436 01a4 05       		.byte	0x5
 12437 01a5 CA01     		.uleb128 0xca
 12438 01a7 4F750000 		.4byte	.LASF962
 12439 01ab 05       		.byte	0x5
 12440 01ac CF01     		.uleb128 0xcf
 12441 01ae 28430000 		.4byte	.LASF963
 12442 01b2 05       		.byte	0x5
 12443 01b3 D401     		.uleb128 0xd4
 12444 01b5 2A5D0000 		.4byte	.LASF964
 12445 01b9 05       		.byte	0x5
 12446 01ba D501     		.uleb128 0xd5
 12447 01bc B17E0000 		.4byte	.LASF965
 12448 01c0 05       		.byte	0x5
 12449 01c1 D601     		.uleb128 0xd6
 12450 01c3 86410000 		.4byte	.LASF966
 12451 01c7 05       		.byte	0x5
 12452 01c8 DB01     		.uleb128 0xdb
 12453 01ca 96560000 		.4byte	.LASF967
 12454 01ce 05       		.byte	0x5
 12455 01cf DC01     		.uleb128 0xdc
 12456 01d1 605E0000 		.4byte	.LASF968
 12457 01d5 05       		.byte	0x5
 12458 01d6 DD01     		.uleb128 0xdd
 12459 01d8 3F010000 		.4byte	.LASF969
 12460 01dc 05       		.byte	0x5
 12461 01dd DE01     		.uleb128 0xde
 12462 01df 733A0000 		.4byte	.LASF970
 12463 01e3 05       		.byte	0x5
 12464 01e4 DF01     		.uleb128 0xdf
 12465 01e6 185D0000 		.4byte	.LASF971
 12466 01ea 05       		.byte	0x5
 12467 01eb E001     		.uleb128 0xe0
 12468 01ed 2A290000 		.4byte	.LASF972
 12469 01f1 05       		.byte	0x5
 12470 01f2 E101     		.uleb128 0xe1
 12471 01f4 076B0000 		.4byte	.LASF903
 12472 01f8 05       		.byte	0x5
 12473 01f9 E301     		.uleb128 0xe3
 12474 01fb C76D0000 		.4byte	.LASF973
 12475 01ff 05       		.byte	0x5
 12476 0200 E401     		.uleb128 0xe4
 12477 0202 8E160000 		.4byte	.LASF974
 12478 0206 05       		.byte	0x5
 12479 0207 E601     		.uleb128 0xe6
 12480 0209 C13F0000 		.4byte	.LASF975
 12481 020d 05       		.byte	0x5
 12482 020e EB01     		.uleb128 0xeb
 12483 0210 96530000 		.4byte	.LASF976
ARM GAS  /tmp/ccjsfSlY.s 			page 250


 12484 0214 05       		.byte	0x5
 12485 0215 EC01     		.uleb128 0xec
 12486 0217 6C200000 		.4byte	.LASF977
 12487 021b 00       		.byte	0
 12488              		.section	.debug_macro,"G",%progbits,wm4.ccand_11xx.h.33.99627f4b529fecdc77b0877ab6fe5266,comdat
 12489              	.Ldebug_macro26:
 12490 0000 0400     		.2byte	0x4
 12491 0002 00       		.byte	0
 12492 0003 05       		.byte	0x5
 12493 0004 21       		.uleb128 0x21
 12494 0005 6B000000 		.4byte	.LASF978
 12495 0009 05       		.byte	0x5
 12496 000a 6E       		.uleb128 0x6e
 12497 000b C5560000 		.4byte	.LASF979
 12498 000f 05       		.byte	0x5
 12499 0010 6F       		.uleb128 0x6f
 12500 0011 D9250000 		.4byte	.LASF980
 12501 0015 05       		.byte	0x5
 12502 0016 70       		.uleb128 0x70
 12503 0017 E0410000 		.4byte	.LASF981
 12504 001b 05       		.byte	0x5
 12505 001c 71       		.uleb128 0x71
 12506 001d CA7A0000 		.4byte	.LASF982
 12507 0021 05       		.byte	0x5
 12508 0022 72       		.uleb128 0x72
 12509 0023 33190000 		.4byte	.LASF983
 12510 0027 05       		.byte	0x5
 12511 0028 73       		.uleb128 0x73
 12512 0029 440F0000 		.4byte	.LASF984
 12513 002d 05       		.byte	0x5
 12514 002e 74       		.uleb128 0x74
 12515 002f 5B7B0000 		.4byte	.LASF985
 12516 0033 05       		.byte	0x5
 12517 0034 75       		.uleb128 0x75
 12518 0035 932F0000 		.4byte	.LASF986
 12519 0039 05       		.byte	0x5
 12520 003a 76       		.uleb128 0x76
 12521 003b 8F680000 		.4byte	.LASF987
 12522 003f 05       		.byte	0x5
 12523 0040 77       		.uleb128 0x77
 12524 0041 32470000 		.4byte	.LASF988
 12525 0045 05       		.byte	0x5
 12526 0046 7C       		.uleb128 0x7c
 12527 0047 EA1A0000 		.4byte	.LASF989
 12528 004b 05       		.byte	0x5
 12529 004c 7D       		.uleb128 0x7d
 12530 004d C5270000 		.4byte	.LASF990
 12531 0051 05       		.byte	0x5
 12532 0052 7E       		.uleb128 0x7e
 12533 0053 22690000 		.4byte	.LASF991
 12534 0057 05       		.byte	0x5
 12535 0058 7F       		.uleb128 0x7f
 12536 0059 EF3A0000 		.4byte	.LASF992
 12537 005d 05       		.byte	0x5
 12538 005e 9101     		.uleb128 0x91
 12539 0060 F8240000 		.4byte	.LASF993
 12540 0064 05       		.byte	0x5
ARM GAS  /tmp/ccjsfSlY.s 			page 251


 12541 0065 9201     		.uleb128 0x92
 12542 0067 89720000 		.4byte	.LASF994
 12543 006b 05       		.byte	0x5
 12544 006c 9301     		.uleb128 0x93
 12545 006e 82040000 		.4byte	.LASF995
 12546 0072 05       		.byte	0x5
 12547 0073 9401     		.uleb128 0x94
 12548 0075 2C0D0000 		.4byte	.LASF996
 12549 0079 05       		.byte	0x5
 12550 007a 9501     		.uleb128 0x95
 12551 007c 2E590000 		.4byte	.LASF997
 12552 0080 05       		.byte	0x5
 12553 0081 9601     		.uleb128 0x96
 12554 0083 24270000 		.4byte	.LASF998
 12555 0087 05       		.byte	0x5
 12556 0088 9701     		.uleb128 0x97
 12557 008a 6E780000 		.4byte	.LASF999
 12558 008e 05       		.byte	0x5
 12559 008f 9801     		.uleb128 0x98
 12560 0091 F02B0000 		.4byte	.LASF1000
 12561 0095 05       		.byte	0x5
 12562 0096 9901     		.uleb128 0x99
 12563 0098 A5580000 		.4byte	.LASF1001
 12564 009c 05       		.byte	0x5
 12565 009d 9A01     		.uleb128 0x9a
 12566 009f B4030000 		.4byte	.LASF1002
 12567 00a3 05       		.byte	0x5
 12568 00a4 9B01     		.uleb128 0x9b
 12569 00a6 A2350000 		.4byte	.LASF1003
 12570 00aa 05       		.byte	0x5
 12571 00ab 9C01     		.uleb128 0x9c
 12572 00ad 081F0000 		.4byte	.LASF1004
 12573 00b1 05       		.byte	0x5
 12574 00b2 9D01     		.uleb128 0x9d
 12575 00b4 657A0000 		.4byte	.LASF1005
 12576 00b8 05       		.byte	0x5
 12577 00b9 9E01     		.uleb128 0x9e
 12578 00bb 4B540000 		.4byte	.LASF1006
 12579 00bf 05       		.byte	0x5
 12580 00c0 9F01     		.uleb128 0x9f
 12581 00c2 14190000 		.4byte	.LASF1007
 12582 00c6 05       		.byte	0x5
 12583 00c7 A901     		.uleb128 0xa9
 12584 00c9 A0610000 		.4byte	.LASF1008
 12585 00cd 05       		.byte	0x5
 12586 00ce AA01     		.uleb128 0xaa
 12587 00d0 95140000 		.4byte	.LASF1009
 12588 00d4 05       		.byte	0x5
 12589 00d5 AB01     		.uleb128 0xab
 12590 00d7 B1220000 		.4byte	.LASF1010
 12591 00db 05       		.byte	0x5
 12592 00dc AC01     		.uleb128 0xac
 12593 00de 5A510000 		.4byte	.LASF1011
 12594 00e2 05       		.byte	0x5
 12595 00e3 AD01     		.uleb128 0xad
 12596 00e5 6F3D0000 		.4byte	.LASF1012
 12597 00e9 05       		.byte	0x5
ARM GAS  /tmp/ccjsfSlY.s 			page 252


 12598 00ea AE01     		.uleb128 0xae
 12599 00ec ED3B0000 		.4byte	.LASF1013
 12600 00f0 05       		.byte	0x5
 12601 00f1 AF01     		.uleb128 0xaf
 12602 00f3 394A0000 		.4byte	.LASF1014
 12603 00f7 05       		.byte	0x5
 12604 00f8 C401     		.uleb128 0xc4
 12605 00fa 9D190000 		.4byte	.LASF1015
 12606 00fe 05       		.byte	0x5
 12607 00ff C501     		.uleb128 0xc5
 12608 0101 D5660000 		.4byte	.LASF1016
 12609 0105 05       		.byte	0x5
 12610 0106 C601     		.uleb128 0xc6
 12611 0108 565B0000 		.4byte	.LASF1017
 12612 010c 05       		.byte	0x5
 12613 010d C901     		.uleb128 0xc9
 12614 010f F5450000 		.4byte	.LASF1018
 12615 0113 05       		.byte	0x5
 12616 0114 CA01     		.uleb128 0xca
 12617 0116 DB480000 		.4byte	.LASF1019
 12618 011a 05       		.byte	0x5
 12619 011b CB01     		.uleb128 0xcb
 12620 011d 52110000 		.4byte	.LASF1020
 12621 0121 05       		.byte	0x5
 12622 0122 E501     		.uleb128 0xe5
 12623 0124 F6270000 		.4byte	.LASF1021
 12624 0128 00       		.byte	0
 12625              		.section	.debug_line,"",%progbits
 12626              	.Ldebug_line0:
 12627 0000 FC090000 		.section	.debug_str,"MS",%progbits,1
 12627      0200CD02 
 12627      00000201 
 12627      FB0E0D00 
 12627      01010101 
 12628              	.LASF906:
 12629 0000 4932435F 		.ascii	"I2C_I2CONSET_STO ((0x10))\000"
 12629      4932434F 
 12629      4E534554 
 12629      5F53544F 
 12629      20282830 
 12630              	.LASF457:
 12631 001a 57494E54 		.ascii	"WINT_MIN (__WINT_MIN__)\000"
 12631      5F4D494E 
 12631      20285F5F 
 12631      57494E54 
 12631      5F4D494E 
 12632              	.LASF158:
 12633 0032 5F5F4445 		.ascii	"__DECIMAL_DIG__ 17\000"
 12633      43494D41 
 12633      4C5F4449 
 12633      475F5F20 
 12633      313700
 12634              	.LASF954:
 12635 0045 4932435F 		.ascii	"I2C_I2MMCTRL_MM_ENA ((1 << 0))\000"
 12635      49324D4D 
 12635      4354524C 
 12635      5F4D4D5F 
ARM GAS  /tmp/ccjsfSlY.s 			page 253


 12635      454E4120 
 12636              	.LASF1247:
 12637 0064 77646174 		.ascii	"wdata8\000"
 12637      613800
 12638              	.LASF978:
 12639 006b 5F5F4343 		.ascii	"__CCAND_11XX_H_ \000"
 12639      414E445F 
 12639      31315858 
 12639      5F485F20 
 12639      00
 12640              	.LASF1122:
 12641 007c 53595343 		.ascii	"SYSCTL_CLOCK_SYS\000"
 12641      544C5F43 
 12641      4C4F434B 
 12641      5F535953 
 12641      00
 12642              	.LASF859:
 12643 008d 5353505F 		.ascii	"SSP_CR1_SSP_EN ((uint32_t) (1 << 1))\000"
 12643      4352315F 
 12643      5353505F 
 12643      454E2028 
 12643      2875696E 
 12644              	.LASF476:
 12645 00b2 5F424954 		.ascii	"_BIT\000"
 12645      00
 12646              	.LASF111:
 12647 00b7 5F5F494E 		.ascii	"__INT_FAST32_MAX__ 2147483647\000"
 12647      545F4641 
 12647      53543332 
 12647      5F4D4158 
 12647      5F5F2032 
 12648              	.LASF603:
 12649 00d5 4C50435F 		.ascii	"LPC_IOCON_BASE 0x40044000\000"
 12649      494F434F 
 12649      4E5F4241 
 12649      53452030 
 12649      78343030 
 12650              	.LASF582:
 12651 00ef 4E564943 		.ascii	"NVIC_BASE (SCS_BASE + 0x0100UL)\000"
 12651      5F424153 
 12651      45202853 
 12651      43535F42 
 12651      41534520 
 12652              	.LASF311:
 12653 010f 5F5F4743 		.ascii	"__GCC_ATOMIC_WCHAR_T_LOCK_FREE 1\000"
 12653      435F4154 
 12653      4F4D4943 
 12653      5F574348 
 12653      41525F54 
 12654              	.LASF294:
 12655 0130 5F5F5441 		.ascii	"__TA_IBIT__ 64\000"
 12655      5F494249 
 12655      545F5F20 
 12655      363400
 12656              	.LASF969:
 12657 013f 4932435F 		.ascii	"I2C_BYTE_RECV 0x02\000"
 12657      42595445 
ARM GAS  /tmp/ccjsfSlY.s 			page 254


 12657      5F524543 
 12657      56203078 
 12657      303200
 12658              	.LASF931:
 12659 0152 4932435F 		.ascii	"I2C_I2STAT_M_RX_RESTART ((0x10))\000"
 12659      49325354 
 12659      41545F4D 
 12659      5F52585F 
 12659      52455354 
 12660              	.LASF1124:
 12661 0173 53595343 		.ascii	"SYSCTL_CLOCK_RAM\000"
 12661      544C5F43 
 12661      4C4F434B 
 12661      5F52414D 
 12661      00
 12662              	.LASF187:
 12663 0184 5F5F5346 		.ascii	"__SFRACT_FBIT__ 7\000"
 12663      52414354 
 12663      5F464249 
 12663      545F5F20 
 12663      3700
 12664              	.LASF1044:
 12665 0196 73697A65 		.ascii	"sizetype\000"
 12665      74797065 
 12665      00
 12666              	.LASF72:
 12667 019f 5F5F4C4F 		.ascii	"__LONG_LONG_MAX__ 9223372036854775807LL\000"
 12667      4E475F4C 
 12667      4F4E475F 
 12667      4D41585F 
 12667      5F203932 
 12668              	.LASF591:
 12669 01c7 4C50435F 		.ascii	"LPC_WWDT_BASE 0x40004000\000"
 12669      57574454 
 12669      5F424153 
 12669      45203078 
 12669      34303030 
 12670              	.LASF1227:
 12671 01e0 636C6B5F 		.ascii	"clk_rate\000"
 12671      72617465 
 12671      00
 12672              	.LASF259:
 12673 01e9 5F5F4C4C 		.ascii	"__LLACCUM_MIN__ (-0X1P31LLK-0X1P31LLK)\000"
 12673      41434355 
 12673      4D5F4D49 
 12673      4E5F5F20 
 12673      282D3058 
 12674              	.LASF251:
 12675 0210 5F5F4C41 		.ascii	"__LACCUM_EPSILON__ 0x1P-31LK\000"
 12675      4343554D 
 12675      5F455053 
 12675      494C4F4E 
 12675      5F5F2030 
 12676              	.LASF639:
 12677 022d 53595343 		.ascii	"SYSCTL_RST_POR (1 << 0)\000"
 12677      544C5F52 
 12677      53545F50 
ARM GAS  /tmp/ccjsfSlY.s 			page 255


 12677      4F522028 
 12677      31203C3C 
 12678              	.LASF184:
 12679 0245 5F5F4445 		.ascii	"__DEC128_MAX__ 9.999999999999999999999999999999999E"
 12679      43313238 
 12679      5F4D4158 
 12679      5F5F2039 
 12679      2E393939 
 12680 0278 36313434 		.ascii	"6144DL\000"
 12680      444C00
 12681              	.LASF930:
 12682 027f 4932435F 		.ascii	"I2C_I2STAT_M_RX_START ((0x08))\000"
 12682      49325354 
 12682      41545F4D 
 12682      5F52585F 
 12682      53544152 
 12683              	.LASF80:
 12684 029e 5F5F494E 		.ascii	"__INTMAX_C(c) c ## LL\000"
 12684      544D4158 
 12684      5F432863 
 12684      29206320 
 12684      2323204C 
 12685              	.LASF531:
 12686 02b4 5343425F 		.ascii	"SCB_ICSR_PENDSTCLR_Msk (1UL << SCB_ICSR_PENDSTCLR_P"
 12686      49435352 
 12686      5F50454E 
 12686      44535443 
 12686      4C525F4D 
 12687 02e7 6F732900 		.ascii	"os)\000"
 12688              	.LASF245:
 12689 02eb 5F5F5541 		.ascii	"__UACCUM_MAX__ 0XFFFFFFFFP-16UK\000"
 12689      4343554D 
 12689      5F4D4158 
 12689      5F5F2030 
 12689      58464646 
 12690              	.LASF172:
 12691 030b 5F5F4445 		.ascii	"__DEC32_SUBNORMAL_MIN__ 0.000001E-95DF\000"
 12691      4333325F 
 12691      5355424E 
 12691      4F524D41 
 12691      4C5F4D49 
 12692              	.LASF276:
 12693 0332 5F5F5451 		.ascii	"__TQ_IBIT__ 0\000"
 12693      5F494249 
 12693      545F5F20 
 12693      3000
 12694              	.LASF1187:
 12695 0340 5353505F 		.ascii	"SSP_BITS_12\000"
 12695      42495453 
 12695      5F313200 
 12696              	.LASF775:
 12697 034c 55415254 		.ascii	"UART_LCR_BREAK_EN (1 << 6)\000"
 12697      5F4C4352 
 12697      5F425245 
 12697      414B5F45 
 12697      4E202831 
 12698              	.LASF1220:
ARM GAS  /tmp/ccjsfSlY.s 			page 256


 12699 0367 52617749 		.ascii	"RawInt\000"
 12699      6E7400
 12700              	.LASF11:
 12701 036e 5F5F4154 		.ascii	"__ATOMIC_CONSUME 1\000"
 12701      4F4D4943 
 12701      5F434F4E 
 12701      53554D45 
 12701      203100
 12702              	.LASF209:
 12703 0381 5F5F4C46 		.ascii	"__LFRACT_MIN__ (-0.5LR-0.5LR)\000"
 12703      52414354 
 12703      5F4D494E 
 12703      5F5F2028 
 12703      2D302E35 
 12704              	.LASF693:
 12705 039f 4D445F41 		.ascii	"MD_ADMODE (0x0 << 7)\000"
 12705      444D4F44 
 12705      45202830 
 12705      7830203C 
 12705      3C203729 
 12706              	.LASF1002:
 12707 03b4 53444F5F 		.ascii	"SDO_ABORT_TYPEMISMATCH 0x06070010UL\000"
 12707      41424F52 
 12707      545F5459 
 12707      50454D49 
 12707      534D4154 
 12708              	.LASF517:
 12709 03d8 5343425F 		.ascii	"SCB_CPUID_ARCHITECTURE_Msk (0xFUL << SCB_CPUID_ARCH"
 12709      43505549 
 12709      445F4152 
 12709      43484954 
 12709      45435455 
 12710 040b 49544543 		.ascii	"ITECTURE_Pos)\000"
 12710      54555245 
 12710      5F506F73 
 12710      2900
 12711              	.LASF239:
 12712 0419 5F5F4143 		.ascii	"__ACCUM_MIN__ (-0X1P15K-0X1P15K)\000"
 12712      43554D5F 
 12712      4D494E5F 
 12712      5F20282D 
 12712      30583150 
 12713              	.LASF797:
 12714 043a 55415254 		.ascii	"UART_MSR_LO2HI_RI (1 << 2)\000"
 12714      5F4D5352 
 12714      5F4C4F32 
 12714      48495F52 
 12714      49202831 
 12715              	.LASF782:
 12716 0455 55415254 		.ascii	"UART_MCR_AUTO_CTS_EN (1 << 7)\000"
 12716      5F4D4352 
 12716      5F415554 
 12716      4F5F4354 
 12716      535F454E 
 12717              	.LASF139:
 12718 0473 5F5F4442 		.ascii	"__DBL_DIG__ 15\000"
 12718      4C5F4449 
ARM GAS  /tmp/ccjsfSlY.s 			page 257


 12718      475F5F20 
 12718      313500
 12719              	.LASF995:
 12720 0482 53444F5F 		.ascii	"SDO_ABORT_UNKNOWN_COMMAND 0x05040001UL\000"
 12720      41424F52 
 12720      545F554E 
 12720      4B4E4F57 
 12720      4E5F434F 
 12721              	.LASF534:
 12722 04a9 5343425F 		.ascii	"SCB_ICSR_ISRPENDING_Pos 22\000"
 12722      49435352 
 12722      5F495352 
 12722      50454E44 
 12722      494E475F 
 12723              	.LASF1241:
 12724 04c4 43686970 		.ascii	"Chip_SSP_Disable\000"
 12724      5F535350 
 12724      5F446973 
 12724      61626C65 
 12724      00
 12725              	.LASF16:
 12726 04d5 5F5F5349 		.ascii	"__SIZEOF_LONG_LONG__ 8\000"
 12726      5A454F46 
 12726      5F4C4F4E 
 12726      475F4C4F 
 12726      4E475F5F 
 12727              	.LASF143:
 12728 04ec 5F5F4442 		.ascii	"__DBL_MAX_10_EXP__ 308\000"
 12728      4C5F4D41 
 12728      585F3130 
 12728      5F455850 
 12728      5F5F2033 
 12729              	.LASF809:
 12730 0503 55415254 		.ascii	"UART_ACR_BITMASK (0x307)\000"
 12730      5F414352 
 12730      5F424954 
 12730      4D41534B 
 12730      20283078 
 12731              	.LASF778:
 12732 051c 55415254 		.ascii	"UART_MCR_DTR_CTRL (1 << 0)\000"
 12732      5F4D4352 
 12732      5F445452 
 12732      5F435452 
 12732      4C202831 
 12733              	.LASF199:
 12734 0537 5F5F4652 		.ascii	"__FRACT_MIN__ (-0.5R-0.5R)\000"
 12734      4143545F 
 12734      4D494E5F 
 12734      5F20282D 
 12734      302E3552 
 12735              	.LASF265:
 12736 0552 5F5F554C 		.ascii	"__ULLACCUM_MAX__ 0XFFFFFFFFFFFFFFFFP-32ULLK\000"
 12736      4C414343 
 12736      554D5F4D 
 12736      41585F5F 
 12736      20305846 
 12737              	.LASF565:
ARM GAS  /tmp/ccjsfSlY.s 			page 258


 12738 057e 53797354 		.ascii	"SysTick_CTRL_CLKSOURCE_Msk (1UL << SysTick_CTRL_CLK"
 12738      69636B5F 
 12738      4354524C 
 12738      5F434C4B 
 12738      534F5552 
 12739 05b1 534F5552 		.ascii	"SOURCE_Pos)\000"
 12739      43455F50 
 12739      6F732900 
 12740              	.LASF1172:
 12741 05bd 5353505F 		.ascii	"SSP_CLOCK_MODE2\000"
 12741      434C4F43 
 12741      4B5F4D4F 
 12741      44453200 
 12742              	.LASF169:
 12743 05cd 5F5F4445 		.ascii	"__DEC32_MIN__ 1E-95DF\000"
 12743      4333325F 
 12743      4D494E5F 
 12743      5F203145 
 12743      2D393544 
 12744              	.LASF695:
 12745 05e3 4D445F44 		.ascii	"MD_DISFIL (0x0 << 8)\000"
 12745      49534649 
 12745      4C202830 
 12745      7830203C 
 12745      3C203829 
 12746              	.LASF336:
 12747 05f8 5F5F4152 		.ascii	"__ARM_NEON_FP 4\000"
 12747      4D5F4E45 
 12747      4F4E5F46 
 12747      50203400 
 12748              	.LASF596:
 12749 0608 4C50435F 		.ascii	"LPC_TIMER32_1_BASE 0x40018000\000"
 12749      54494D45 
 12749      5233325F 
 12749      315F4241 
 12749      53452030 
 12750              	.LASF272:
 12751 0626 5F5F5351 		.ascii	"__SQ_IBIT__ 0\000"
 12751      5F494249 
 12751      545F5F20 
 12751      3000
 12752              	.LASF26:
 12753 0634 5F5F4F52 		.ascii	"__ORDER_PDP_ENDIAN__ 3412\000"
 12753      4445525F 
 12753      5044505F 
 12753      454E4449 
 12753      414E5F5F 
 12754              	.LASF1141:
 12755 064e 43484950 		.ascii	"CHIP_SYSCTL_CLOCK_T\000"
 12755      5F535953 
 12755      43544C5F 
 12755      434C4F43 
 12755      4B5F5400 
 12756              	.LASF175:
 12757 0662 5F5F4445 		.ascii	"__DEC64_MAX_EXP__ 385\000"
 12757      4336345F 
 12757      4D41585F 
ARM GAS  /tmp/ccjsfSlY.s 			page 259


 12757      4558505F 
 12757      5F203338 
 12758              	.LASF1087:
 12759 0678 424F4443 		.ascii	"BODCTRL\000"
 12759      54524C00 
 12760              	.LASF559:
 12761 0680 5343425F 		.ascii	"SCB_CCR_UNALIGN_TRP_Msk (1UL << SCB_CCR_UNALIGN_TRP"
 12761      4343525F 
 12761      554E414C 
 12761      49474E5F 
 12761      5452505F 
 12762 06b3 5F506F73 		.ascii	"_Pos)\000"
 12762      2900
 12763              	.LASF135:
 12764 06b9 5F5F464C 		.ascii	"__FLT_HAS_DENORM__ 1\000"
 12764      545F4841 
 12764      535F4445 
 12764      4E4F524D 
 12764      5F5F2031 
 12765              	.LASF39:
 12766 06ce 5F5F494E 		.ascii	"__INT8_TYPE__ signed char\000"
 12766      54385F54 
 12766      5950455F 
 12766      5F207369 
 12766      676E6564 
 12767              	.LASF325:
 12768 06e8 5F5F4152 		.ascii	"__ARM_ARCH_PROFILE 77\000"
 12768      4D5F4152 
 12768      43485F50 
 12768      524F4649 
 12768      4C452037 
 12769              	.LASF763:
 12770 06fe 55415254 		.ascii	"UART_LCR_WLEN6 (1 << 0)\000"
 12770      5F4C4352 
 12770      5F574C45 
 12770      4E362028 
 12770      31203C3C 
 12771              	.LASF529:
 12772 0716 5343425F 		.ascii	"SCB_ICSR_PENDSTSET_Msk (1UL << SCB_ICSR_PENDSTSET_P"
 12772      49435352 
 12772      5F50454E 
 12772      44535453 
 12772      45545F4D 
 12773 0749 6F732900 		.ascii	"os)\000"
 12774              	.LASF1130:
 12775 074d 53595343 		.ascii	"SYSCTL_CLOCK_CT16B1\000"
 12775      544C5F43 
 12775      4C4F434B 
 12775      5F435431 
 12775      36423100 
 12776              	.LASF849:
 12777 0761 5353505F 		.ascii	"SSP_CR0_FRF_SPI ((uint32_t) (0 << 4))\000"
 12777      4352305F 
 12777      4652465F 
 12777      53504920 
 12777      28287569 
 12778              	.LASF792:
ARM GAS  /tmp/ccjsfSlY.s 			page 260


 12779 0787 55415254 		.ascii	"UART_LSR_TXFE (1 << 8)\000"
 12779      5F4C5352 
 12779      5F545846 
 12779      45202831 
 12779      203C3C20 
 12780              	.LASF154:
 12781 079e 5F5F4C44 		.ascii	"__LDBL_MIN_EXP__ (-1021)\000"
 12781      424C5F4D 
 12781      494E5F45 
 12781      58505F5F 
 12781      20282D31 
 12782              	.LASF152:
 12783 07b7 5F5F4C44 		.ascii	"__LDBL_MANT_DIG__ 53\000"
 12783      424C5F4D 
 12783      414E545F 
 12783      4449475F 
 12783      5F203533 
 12784              	.LASF437:
 12785 07cc 494E545F 		.ascii	"INT_FAST16_MIN (-__INT_FAST16_MAX__ - 1)\000"
 12785      46415354 
 12785      31365F4D 
 12785      494E2028 
 12785      2D5F5F49 
 12786              	.LASF323:
 12787 07f5 5F5F4152 		.ascii	"__ARM_SIZEOF_MINIMAL_ENUM 1\000"
 12787      4D5F5349 
 12787      5A454F46 
 12787      5F4D494E 
 12787      494D414C 
 12788              	.LASF102:
 12789 0811 5F5F5549 		.ascii	"__UINT8_C(c) c\000"
 12789      4E54385F 
 12789      43286329 
 12789      206300
 12790              	.LASF40:
 12791 0820 5F5F494E 		.ascii	"__INT16_TYPE__ short int\000"
 12791      5431365F 
 12791      54595045 
 12791      5F5F2073 
 12791      686F7274 
 12792              	.LASF371:
 12793 0839 756E7369 		.ascii	"unsigned\000"
 12793      676E6564 
 12793      00
 12794              	.LASF876:
 12795 0842 434F4D50 		.ascii	"COMPILE_TIME_ASSERT(pred) switch(0){case 0:case pre"
 12795      494C455F 
 12795      54494D45 
 12795      5F415353 
 12795      45525428 
 12796 0875 643A3B7D 		.ascii	"d:;}\000"
 12796      00
 12797              	.LASF250:
 12798 087a 5F5F4C41 		.ascii	"__LACCUM_MAX__ 0X7FFFFFFFFFFFFFFFP-31LK\000"
 12798      4343554D 
 12798      5F4D4158 
 12798      5F5F2030 
ARM GAS  /tmp/ccjsfSlY.s 			page 261


 12798      58374646 
 12799              	.LASF595:
 12800 08a2 4C50435F 		.ascii	"LPC_TIMER32_0_BASE 0x40014000\000"
 12800      54494D45 
 12800      5233325F 
 12800      305F4241 
 12800      53452030 
 12801              	.LASF810:
 12802 08c0 55415254 		.ascii	"UART_RS485CTRL_NMM_EN (1 << 0)\000"
 12802      5F525334 
 12802      38354354 
 12802      524C5F4E 
 12802      4D4D5F45 
 12803              	.LASF475:
 12804 08df 50415241 		.ascii	"PARAM_FUNCTIONALSTATE(State) ((State == DISABLE) ||"
 12804      4D5F4655 
 12804      4E435449 
 12804      4F4E414C 
 12804      53544154 
 12805 0912 20285374 		.ascii	" (State == ENABLE))\000"
 12805      61746520 
 12805      3D3D2045 
 12805      4E41424C 
 12805      45292900 
 12806              	.LASF1174:
 12807 0926 43484950 		.ascii	"CHIP_SSP_FRAME_FORMAT\000"
 12807      5F535350 
 12807      5F465241 
 12807      4D455F46 
 12807      4F524D41 
 12808              	.LASF922:
 12809 093c 4932435F 		.ascii	"I2C_I2STAT_BUS_ERROR ((0x00))\000"
 12809      49325354 
 12809      41545F42 
 12809      55535F45 
 12809      52524F52 
 12810              	.LASF900:
 12811 095a 5245545F 		.ascii	"RET_SLAVE_RX 5\000"
 12811      534C4156 
 12811      455F5258 
 12811      203500
 12812              	.LASF853:
 12813 0969 5353505F 		.ascii	"SSP_CR0_CPOL_HI ((uint32_t) (1 << 6))\000"
 12813      4352305F 
 12813      43504F4C 
 12813      5F484920 
 12813      28287569 
 12814              	.LASF1112:
 12815 098f 52455345 		.ascii	"RESET_CAN0\000"
 12815      545F4341 
 12815      4E3000
 12816              	.LASF667:
 12817 099a 494F434F 		.ascii	"IOCON_FUNC1 0x1\000"
 12817      4E5F4655 
 12817      4E433120 
 12817      30783100 
 12818              	.LASF1251:
ARM GAS  /tmp/ccjsfSlY.s 			page 262


 12819 09aa 72646174 		.ascii	"rdata16\000"
 12819      61313600 
 12820              	.LASF420:
 12821 09b2 494E545F 		.ascii	"INT_LEAST16_MAX (__INT_LEAST16_MAX__)\000"
 12821      4C454153 
 12821      5431365F 
 12821      4D415820 
 12821      285F5F49 
 12822              	.LASF830:
 12823 09d8 55415254 		.ascii	"UART_FDR_BITMASK (0xFF)\000"
 12823      5F464452 
 12823      5F424954 
 12823      4D41534B 
 12823      20283078 
 12824              	.LASF1:
 12825 09f0 5F5F5354 		.ascii	"__STDC_HOSTED__ 1\000"
 12825      44435F48 
 12825      4F535445 
 12825      445F5F20 
 12825      3100
 12826              	.LASF222:
 12827 0a02 5F5F554C 		.ascii	"__ULLFRACT_FBIT__ 64\000"
 12827      4C465241 
 12827      43545F46 
 12827      4249545F 
 12827      5F203634 
 12828              	.LASF739:
 12829 0a17 55415254 		.ascii	"UART2_IER_BITMASK (0x38F)\000"
 12829      325F4945 
 12829      525F4249 
 12829      544D4153 
 12829      4B202830 
 12830              	.LASF1075:
 12831 0a31 55534243 		.ascii	"USBCLKDIV\000"
 12831      4C4B4449 
 12831      5600
 12832              	.LASF438:
 12833 0a3b 494E545F 		.ascii	"INT_FAST16_MAX (__INT_FAST16_MAX__)\000"
 12833      46415354 
 12833      31365F4D 
 12833      41582028 
 12833      5F5F494E 
 12834              	.LASF58:
 12835 0a5f 5F5F494E 		.ascii	"__INT_FAST64_TYPE__ long long int\000"
 12835      545F4641 
 12835      53543634 
 12835      5F545950 
 12835      455F5F20 
 12836              	.LASF528:
 12837 0a81 5343425F 		.ascii	"SCB_ICSR_PENDSTSET_Pos 26\000"
 12837      49435352 
 12837      5F50454E 
 12837      44535453 
 12837      45545F50 
 12838              	.LASF411:
 12839 0a9b 494E5438 		.ascii	"INT8_MAX (__INT8_MAX__)\000"
 12839      5F4D4158 
ARM GAS  /tmp/ccjsfSlY.s 			page 263


 12839      20285F5F 
 12839      494E5438 
 12839      5F4D4158 
 12840              	.LASF660:
 12841 0ab3 53595343 		.ascii	"SYSCTL_POWERDOWN_SYSOSC_PD (1 << 5)\000"
 12841      544C5F50 
 12841      4F574552 
 12841      444F574E 
 12841      5F535953 
 12842              	.LASF375:
 12843 0ad7 7369676E 		.ascii	"signed +0\000"
 12843      6564202B 
 12843      3000
 12844              	.LASF452:
 12845 0ae1 50545244 		.ascii	"PTRDIFF_MAX (__PTRDIFF_MAX__)\000"
 12845      4946465F 
 12845      4D415820 
 12845      285F5F50 
 12845      54524449 
 12846              	.LASF905:
 12847 0aff 4932435F 		.ascii	"I2C_I2CONSET_SI ((0x08))\000"
 12847      4932434F 
 12847      4E534554 
 12847      5F534920 
 12847      28283078 
 12848              	.LASF671:
 12849 0b18 494F434F 		.ascii	"IOCON_FUNC5 0x5\000"
 12849      4E5F4655 
 12849      4E433520 
 12849      30783500 
 12850              	.LASF783:
 12851 0b28 55415254 		.ascii	"UART_MCR_BITMASK (0xD3)\000"
 12851      5F4D4352 
 12851      5F424954 
 12851      4D41534B 
 12851      20283078 
 12852              	.LASF82:
 12853 0b40 5F5F5549 		.ascii	"__UINTMAX_C(c) c ## ULL\000"
 12853      4E544D41 
 12853      585F4328 
 12853      63292063 
 12853      20232320 
 12854              	.LASF486:
 12855 0b58 554E5553 		.ascii	"UNUSED(x) (void)(x)\000"
 12855      45442878 
 12855      29202876 
 12855      6F696429 
 12855      28782900 
 12856              	.LASF195:
 12857 0b6c 5F5F5553 		.ascii	"__USFRACT_MAX__ 0XFFP-8UHR\000"
 12857      46524143 
 12857      545F4D41 
 12857      585F5F20 
 12857      30584646 
 12858              	.LASF564:
 12859 0b87 53797354 		.ascii	"SysTick_CTRL_CLKSOURCE_Pos 2\000"
 12859      69636B5F 
ARM GAS  /tmp/ccjsfSlY.s 			page 264


 12859      4354524C 
 12859      5F434C4B 
 12859      534F5552 
 12860              	.LASF1144:
 12861 0ba4 4C50435F 		.ascii	"LPC_SSP_T\000"
 12861      5353505F 
 12861      5400
 12862              	.LASF687:
 12863 0bae 4D445F50 		.ascii	"MD_PLN (0x0 << 3)\000"
 12863      4C4E2028 
 12863      30783020 
 12863      3C3C2033 
 12863      2900
 12864              	.LASF750:
 12865 0bc0 55415254 		.ascii	"UART_IIR_INTID_MODEM (0 << 1)\000"
 12865      5F494952 
 12865      5F494E54 
 12865      49445F4D 
 12865      4F44454D 
 12866              	.LASF507:
 12867 0bde 5F5F434F 		.ascii	"__CORE_CMFUNC_H \000"
 12867      52455F43 
 12867      4D46554E 
 12867      435F4820 
 12867      00
 12868              	.LASF542:
 12869 0bef 5343425F 		.ascii	"SCB_AIRCR_VECTKEYSTAT_Pos 16\000"
 12869      41495243 
 12869      525F5645 
 12869      43544B45 
 12869      59535441 
 12870              	.LASF344:
 12871 0c0c 55415254 		.ascii	"UART_BAUD 115200\000"
 12871      5F424155 
 12871      44203131 
 12871      35323030 
 12871      00
 12872              	.LASF910:
 12873 0c1d 4932435F 		.ascii	"I2C_I2CONCLR_SIC ((1 << 3))\000"
 12873      4932434F 
 12873      4E434C52 
 12873      5F534943 
 12873      20282831 
 12874              	.LASF538:
 12875 0c39 5343425F 		.ascii	"SCB_ICSR_VECTACTIVE_Pos 0\000"
 12875      49435352 
 12875      5F564543 
 12875      54414354 
 12875      4956455F 
 12876              	.LASF873:
 12877 0c53 5353505F 		.ascii	"SSP_MASTER_MODE SSP_CR1_MASTER_EN\000"
 12877      4D415354 
 12877      45525F4D 
 12877      4F444520 
 12877      5353505F 
 12878              	.LASF417:
 12879 0c75 494E5431 		.ascii	"INT16_MAX (__INT16_MAX__)\000"
ARM GAS  /tmp/ccjsfSlY.s 			page 265


 12879      365F4D41 
 12879      5820285F 
 12879      5F494E54 
 12879      31365F4D 
 12880              	.LASF912:
 12881 0c8f 4932435F 		.ascii	"I2C_I2CONCLR_STAC ((1 << 5))\000"
 12881      4932434F 
 12881      4E434C52 
 12881      5F535441 
 12881      43202828 
 12882              	.LASF212:
 12883 0cac 5F5F554C 		.ascii	"__ULFRACT_FBIT__ 32\000"
 12883      46524143 
 12883      545F4642 
 12883      49545F5F 
 12883      20333200 
 12884              	.LASF942:
 12885 0cc0 4932435F 		.ascii	"I2C_I2STAT_S_RX_PRE_SLA_DAT_NACK ((0x88))\000"
 12885      49325354 
 12885      41545F53 
 12885      5F52585F 
 12885      5052455F 
 12886              	.LASF935:
 12887 0cea 4932435F 		.ascii	"I2C_I2STAT_M_RX_DAT_ACK ((0x50))\000"
 12887      49325354 
 12887      41545F4D 
 12887      5F52585F 
 12887      4441545F 
 12888              	.LASF1197:
 12889 0d0b 72785F64 		.ascii	"rx_data\000"
 12889      61746100 
 12890              	.LASF405:
 12891 0d13 5F5F696E 		.ascii	"__int_fast32_t_defined 1\000"
 12891      745F6661 
 12891      73743332 
 12891      5F745F64 
 12891      6566696E 
 12892              	.LASF996:
 12893 0d2c 53444F5F 		.ascii	"SDO_ABORT_UNSUPPORTED 0x06010000UL\000"
 12893      41424F52 
 12893      545F554E 
 12893      53555050 
 12893      4F525445 
 12894              	.LASF793:
 12895 0d4f 55415254 		.ascii	"UART_LSR_BITMASK (0xFF)\000"
 12895      5F4C5352 
 12895      5F424954 
 12895      4D41534B 
 12895      20283078 
 12896              	.LASF818:
 12897 0d67 55415254 		.ascii	"UART_ICR_IRDAINV (1 << 1)\000"
 12897      5F494352 
 12897      5F495244 
 12897      41494E56 
 12897      20283120 
 12898              	.LASF191:
 12899 0d81 5F5F5346 		.ascii	"__SFRACT_EPSILON__ 0x1P-7HR\000"
ARM GAS  /tmp/ccjsfSlY.s 			page 266


 12899      52414354 
 12899      5F455053 
 12899      494C4F4E 
 12899      5F5F2030 
 12900              	.LASF98:
 12901 0d9d 5F5F494E 		.ascii	"__INT32_C(c) c ## L\000"
 12901      5433325F 
 12901      43286329 
 12901      20632023 
 12901      23204C00 
 12902              	.LASF281:
 12903 0db1 5F5F5553 		.ascii	"__USQ_FBIT__ 32\000"
 12903      515F4642 
 12903      49545F5F 
 12903      20333200 
 12904              	.LASF25:
 12905 0dc1 5F5F4F52 		.ascii	"__ORDER_BIG_ENDIAN__ 4321\000"
 12905      4445525F 
 12905      4249475F 
 12905      454E4449 
 12905      414E5F5F 
 12906              	.LASF1131:
 12907 0ddb 53595343 		.ascii	"SYSCTL_CLOCK_CT32B0\000"
 12907      544C5F43 
 12907      4C4F434B 
 12907      5F435433 
 12907      32423000 
 12908              	.LASF1132:
 12909 0def 53595343 		.ascii	"SYSCTL_CLOCK_CT32B1\000"
 12909      544C5F43 
 12909      4C4F434B 
 12909      5F435433 
 12909      32423100 
 12910              	.LASF271:
 12911 0e03 5F5F5351 		.ascii	"__SQ_FBIT__ 31\000"
 12911      5F464249 
 12911      545F5F20 
 12911      333100
 12912              	.LASF899:
 12913 0e12 5245545F 		.ascii	"RET_SLAVE_TX 6\000"
 12913      534C4156 
 12913      455F5458 
 12913      203600
 12914              	.LASF301:
 12915 0e21 5F5F5554 		.ascii	"__UTA_FBIT__ 64\000"
 12915      415F4642 
 12915      49545F5F 
 12915      20363400 
 12916              	.LASF769:
 12917 0e31 55415254 		.ascii	"UART_LCR_PARITY_EN (1 << 3)\000"
 12917      5F4C4352 
 12917      5F504152 
 12917      4954595F 
 12917      454E2028 
 12918              	.LASF1113:
 12919 0e4d 52455345 		.ascii	"RESET_UART0\000"
 12919      545F5541 
ARM GAS  /tmp/ccjsfSlY.s 			page 267


 12919      52543000 
 12920              	.LASF756:
 12921 0e59 55415254 		.ascii	"UART_TX_FIFO_SIZE (16)\000"
 12921      5F54585F 
 12921      4649464F 
 12921      5F53495A 
 12921      45202831 
 12922              	.LASF279:
 12923 0e70 5F5F5548 		.ascii	"__UHQ_FBIT__ 16\000"
 12923      515F4642 
 12923      49545F5F 
 12923      20313600 
 12924              	.LASF432:
 12925 0e80 494E545F 		.ascii	"INT_LEAST64_MAX (__INT_LEAST64_MAX__)\000"
 12925      4C454153 
 12925      5436345F 
 12925      4D415820 
 12925      285F5F49 
 12926              	.LASF1148:
 12927 0ea6 5353505F 		.ascii	"SSP_STAT_TNF\000"
 12927      53544154 
 12927      5F544E46 
 12927      00
 12928              	.LASF908:
 12929 0eb3 4932435F 		.ascii	"I2C_I2CONSET_I2EN ((0x40))\000"
 12929      4932434F 
 12929      4E534554 
 12929      5F493245 
 12929      4E202828 
 12930              	.LASF264:
 12931 0ece 5F5F554C 		.ascii	"__ULLACCUM_MIN__ 0.0ULLK\000"
 12931      4C414343 
 12931      554D5F4D 
 12931      494E5F5F 
 12931      20302E30 
 12932              	.LASF821:
 12933 0ee7 55415254 		.ascii	"UART_ICR_BITMASK (0x3F)\000"
 12933      5F494352 
 12933      5F424954 
 12933      4D41534B 
 12933      20283078 
 12934              	.LASF68:
 12935 0eff 5F5F5343 		.ascii	"__SCHAR_MAX__ 127\000"
 12935      4841525F 
 12935      4D41585F 
 12935      5F203132 
 12935      3700
 12936              	.LASF171:
 12937 0f11 5F5F4445 		.ascii	"__DEC32_EPSILON__ 1E-6DF\000"
 12937      4333325F 
 12937      45505349 
 12937      4C4F4E5F 
 12937      5F203145 
 12938              	.LASF455:
 12939 0f2a 57434841 		.ascii	"WCHAR_MAX (__WCHAR_MAX__)\000"
 12939      525F4D41 
 12939      5820285F 
ARM GAS  /tmp/ccjsfSlY.s 			page 268


 12939      5F574348 
 12939      41525F4D 
 12940              	.LASF984:
 12941 0f44 43414E5F 		.ascii	"CAN_ERROR_FORM 0x00000010UL\000"
 12941      4552524F 
 12941      525F464F 
 12941      524D2030 
 12941      78303030 
 12942              	.LASF1137:
 12943 0f60 53595343 		.ascii	"SYSCTL_CLOCK_WDT\000"
 12943      544C5F43 
 12943      4C4F434B 
 12943      5F574454 
 12943      00
 12944              	.LASF414:
 12945 0f71 494E545F 		.ascii	"INT_LEAST8_MAX (__INT_LEAST8_MAX__)\000"
 12945      4C454153 
 12945      54385F4D 
 12945      41582028 
 12945      5F5F494E 
 12946              	.LASF502:
 12947 0f95 5F5F4153 		.ascii	"__ASM __asm\000"
 12947      4D205F5F 
 12947      61736D00 
 12948              	.LASF1026:
 12949 0fa1 5F5F7569 		.ascii	"__uint8_t\000"
 12949      6E74385F 
 12949      7400
 12950              	.LASF831:
 12951 0fab 55415254 		.ascii	"UART_TER1_TXEN (1 << 7)\000"
 12951      5F544552 
 12951      315F5458 
 12951      454E2028 
 12951      31203C3C 
 12952              	.LASF650:
 12953 0fc3 53595343 		.ascii	"SYSCTL_SLPWAKE_BOD_PD (1 << 3)\000"
 12953      544C5F53 
 12953      4C505741 
 12953      4B455F42 
 12953      4F445F50 
 12954              	.LASF1205:
 12955 0fe2 70535350 		.ascii	"pSSP\000"
 12955      00
 12956              	.LASF86:
 12957 0fe7 5F5F494E 		.ascii	"__INT16_MAX__ 32767\000"
 12957      5431365F 
 12957      4D41585F 
 12957      5F203332 
 12957      37363700 
 12958              	.LASF1108:
 12959 0ffb 4C50435F 		.ascii	"LPC_SYSCTL_T\000"
 12959      53595343 
 12959      544C5F54 
 12959      00
 12960              	.LASF713:
 12961 1008 54494D45 		.ascii	"TIMER_ENABLE ((uint32_t) (1 << 0))\000"
 12961      525F454E 
ARM GAS  /tmp/ccjsfSlY.s 			page 269


 12961      41424C45 
 12961      20282875 
 12961      696E7433 
 12962              	.LASF1257:
 12963 102b 43686970 		.ascii	"Chip_SSP_SetBitRate\000"
 12963      5F535350 
 12963      5F536574 
 12963      42697452 
 12963      61746500 
 12964              	.LASF392:
 12965 103f 5F5F4C45 		.ascii	"__LEAST32 \"l\"\000"
 12965      41535433 
 12965      3220226C 
 12965      2200
 12966              	.LASF385:
 12967 104d 5F5F494E 		.ascii	"__INT64 \"ll\"\000"
 12967      54363420 
 12967      226C6C22 
 12967      00
 12968              	.LASF682:
 12969 105a 494F434F 		.ascii	"IOCON_SFI2C_EN (0x0 << 8)\000"
 12969      4E5F5346 
 12969      4932435F 
 12969      454E2028 
 12969      30783020 
 12970              	.LASF79:
 12971 1074 5F5F494E 		.ascii	"__INTMAX_MAX__ 9223372036854775807LL\000"
 12971      544D4158 
 12971      5F4D4158 
 12971      5F5F2039 
 12971      32323333 
 12972              	.LASF840:
 12973 1099 5F5F5757 		.ascii	"__WWDT_11XX_H_ \000"
 12973      44545F31 
 12973      3158585F 
 12973      485F2000 
 12974              	.LASF936:
 12975 10a9 4932435F 		.ascii	"I2C_I2STAT_M_RX_DAT_NACK ((0x58))\000"
 12975      49325354 
 12975      41545F4D 
 12975      5F52585F 
 12975      4441545F 
 12976              	.LASF431:
 12977 10cb 494E545F 		.ascii	"INT_LEAST64_MIN (-__INT_LEAST64_MAX__ - 1)\000"
 12977      4C454153 
 12977      5436345F 
 12977      4D494E20 
 12977      282D5F5F 
 12978              	.LASF842:
 12979 10f6 57574454 		.ascii	"WWDT_WDMOD_WDEN ((uint32_t) (1 << 0))\000"
 12979      5F57444D 
 12979      4F445F57 
 12979      44454E20 
 12979      28287569 
 12980              	.LASF885:
 12981 111c 4144435F 		.ascii	"ADC_CR_BURST ((1UL << 16))\000"
 12981      43525F42 
ARM GAS  /tmp/ccjsfSlY.s 			page 270


 12981      55525354 
 12981      20282831 
 12981      554C203C 
 12982              	.LASF758:
 12983 1137 55415254 		.ascii	"UART_FCR_TRG_LEV1 (1 << 6)\000"
 12983      5F464352 
 12983      5F545247 
 12983      5F4C4556 
 12983      31202831 
 12984              	.LASF1020:
 12985 1152 43414E5F 		.ascii	"CAN_SDOSEG_CLOSE 2\000"
 12985      53444F53 
 12985      45475F43 
 12985      4C4F5345 
 12985      203200
 12986              	.LASF781:
 12987 1165 55415254 		.ascii	"UART_MCR_AUTO_RTS_EN (1 << 6)\000"
 12987      5F4D4352 
 12987      5F415554 
 12987      4F5F5254 
 12987      535F454E 
 12988              	.LASF1092:
 12989 1183 50494E54 		.ascii	"PINTSEL\000"
 12989      53454C00 
 12990              	.LASF120:
 12991 118b 5F5F4743 		.ascii	"__GCC_IEC_559_COMPLEX 0\000"
 12991      435F4945 
 12991      435F3535 
 12991      395F434F 
 12991      4D504C45 
 12992              	.LASF170:
 12993 11a3 5F5F4445 		.ascii	"__DEC32_MAX__ 9.999999E96DF\000"
 12993      4333325F 
 12993      4D41585F 
 12993      5F20392E 
 12993      39393939 
 12994              	.LASF811:
 12995 11bf 55415254 		.ascii	"UART_RS485CTRL_RX_DIS (1 << 1)\000"
 12995      5F525334 
 12995      38354354 
 12995      524C5F52 
 12995      585F4449 
 12996              	.LASF165:
 12997 11de 5F5F4C44 		.ascii	"__LDBL_HAS_QUIET_NAN__ 1\000"
 12997      424C5F48 
 12997      41535F51 
 12997      55494554 
 12997      5F4E414E 
 12998              	.LASF857:
 12999 11f7 5353505F 		.ascii	"SSP_CR0_BITMASK ((uint32_t) (0xFFFF))\000"
 12999      4352305F 
 12999      4249544D 
 12999      41534B20 
 12999      28287569 
 13000              	.LASF557:
 13001 121d 5343425F 		.ascii	"SCB_CCR_STKALIGN_Msk (1UL << SCB_CCR_STKALIGN_Pos)\000"
 13001      4343525F 
ARM GAS  /tmp/ccjsfSlY.s 			page 271


 13001      53544B41 
 13001      4C49474E 
 13001      5F4D736B 
 13002              	.LASF673:
 13003 1250 494F434F 		.ascii	"IOCON_FUNC7 0x7\000"
 13003      4E5F4655 
 13003      4E433720 
 13003      30783700 
 13004              	.LASF440:
 13005 1260 494E545F 		.ascii	"INT_FAST32_MIN (-__INT_FAST32_MAX__ - 1)\000"
 13005      46415354 
 13005      33325F4D 
 13005      494E2028 
 13005      2D5F5F49 
 13006              	.LASF566:
 13007 1289 53797354 		.ascii	"SysTick_CTRL_TICKINT_Pos 1\000"
 13007      69636B5F 
 13007      4354524C 
 13007      5F544943 
 13007      4B494E54 
 13008              	.LASF497:
 13009 12a4 5F5F434F 		.ascii	"__CORE_CM0_H_GENERIC \000"
 13009      52455F43 
 13009      4D305F48 
 13009      5F47454E 
 13009      45524943 
 13010              	.LASF51:
 13011 12ba 5F5F5549 		.ascii	"__UINT_LEAST8_TYPE__ unsigned char\000"
 13011      4E545F4C 
 13011      45415354 
 13011      385F5459 
 13011      50455F5F 
 13012              	.LASF944:
 13013 12dd 4932435F 		.ascii	"I2C_I2STAT_S_RX_PRE_GENCALL_DAT_NACK ((0x98))\000"
 13013      49325354 
 13013      41545F53 
 13013      5F52585F 
 13013      5052455F 
 13014              	.LASF237:
 13015 130b 5F5F4143 		.ascii	"__ACCUM_FBIT__ 15\000"
 13015      43554D5F 
 13015      46424954 
 13015      5F5F2031 
 13015      3500
 13016              	.LASF354:
 13017 131d 5F5F474E 		.ascii	"__GNUC_PREREQ(maj,min) ((__GNUC__ << 16) + __GNUC_M"
 13017      55435F50 
 13017      52455245 
 13017      51286D61 
 13017      6A2C6D69 
 13018 1350 494E4F52 		.ascii	"INOR__ >= ((maj) << 16) + (min))\000"
 13018      5F5F203E 
 13018      3D202828 
 13018      6D616A29 
 13018      203C3C20 
 13019              	.LASF628:
 13020 1371 4C50435F 		.ascii	"LPC_CCAN ((LPC_CCAN_T *) LPC_CAN0_BASE)\000"
ARM GAS  /tmp/ccjsfSlY.s 			page 272


 13020      4343414E 
 13020      2028284C 
 13020      50435F43 
 13020      43414E5F 
 13021              	.LASF243:
 13022 1399 5F5F5541 		.ascii	"__UACCUM_IBIT__ 16\000"
 13022      4343554D 
 13022      5F494249 
 13022      545F5F20 
 13022      313600
 13023              	.LASF1029:
 13024 13ac 6C6F6E67 		.ascii	"long int\000"
 13024      20696E74 
 13024      00
 13025              	.LASF116:
 13026 13b5 5F5F5549 		.ascii	"__UINT_FAST64_MAX__ 18446744073709551615ULL\000"
 13026      4E545F46 
 13026      41535436 
 13026      345F4D41 
 13026      585F5F20 
 13027              	.LASF943:
 13028 13e1 4932435F 		.ascii	"I2C_I2STAT_S_RX_PRE_GENCALL_DAT_ACK ((0x90))\000"
 13028      49325354 
 13028      41545F53 
 13028      5F52585F 
 13028      5052455F 
 13029              	.LASF1193:
 13030 140e 5353505F 		.ascii	"SSP_MODE_MASTER\000"
 13030      4D4F4445 
 13030      5F4D4153 
 13030      54455200 
 13031              	.LASF854:
 13032 141e 5353505F 		.ascii	"SSP_CR0_CPHA_FIRST ((uint32_t) (0))\000"
 13032      4352305F 
 13032      43504841 
 13032      5F464952 
 13032      53542028 
 13033              	.LASF146:
 13034 1442 5F5F4442 		.ascii	"__DBL_MIN__ ((double)2.2250738585072014e-308L)\000"
 13034      4C5F4D49 
 13034      4E5F5F20 
 13034      2828646F 
 13034      75626C65 
 13035              	.LASF441:
 13036 1471 494E545F 		.ascii	"INT_FAST32_MAX (__INT_FAST32_MAX__)\000"
 13036      46415354 
 13036      33325F4D 
 13036      41582028 
 13036      5F5F494E 
 13037              	.LASF1009:
 13038 1495 4F445F45 		.ascii	"OD_EXP_RO 0x10\000"
 13038      58505F52 
 13038      4F203078 
 13038      313000
 13039              	.LASF1085:
 13040 14a4 50494F50 		.ascii	"PIOPORCAP\000"
 13040      4F524341 
ARM GAS  /tmp/ccjsfSlY.s 			page 273


 13040      5000
 13041              	.LASF362:
 13042 14ae 5F5F5F69 		.ascii	"___int_least16_t_defined 1\000"
 13042      6E745F6C 
 13042      65617374 
 13042      31365F74 
 13042      5F646566 
 13043              	.LASF73:
 13044 14c9 5F5F5743 		.ascii	"__WCHAR_MAX__ 4294967295U\000"
 13044      4841525F 
 13044      4D41585F 
 13044      5F203432 
 13044      39343936 
 13045              	.LASF181:
 13046 14e3 5F5F4445 		.ascii	"__DEC128_MIN_EXP__ (-6142)\000"
 13046      43313238 
 13046      5F4D494E 
 13046      5F455850 
 13046      5F5F2028 
 13047              	.LASF686:
 13048 14fe 494F434F 		.ascii	"IOCON_OPENDRAIN_EN (0x1 << 10)\000"
 13048      4E5F4F50 
 13048      454E4452 
 13048      41494E5F 
 13048      454E2028 
 13049              	.LASF55:
 13050 151d 5F5F494E 		.ascii	"__INT_FAST8_TYPE__ int\000"
 13050      545F4641 
 13050      5354385F 
 13050      54595045 
 13050      5F5F2069 
 13051              	.LASF1058:
 13052 1534 53595350 		.ascii	"SYSPLLCLKSEL\000"
 13052      4C4C434C 
 13052      4B53454C 
 13052      00
 13053              	.LASF299:
 13054 1541 5F5F5544 		.ascii	"__UDA_FBIT__ 32\000"
 13054      415F4642 
 13054      49545F5F 
 13054      20333200 
 13055              	.LASF1078:
 13056 1551 57445443 		.ascii	"WDTCLKUEN\000"
 13056      4C4B5545 
 13056      4E00
 13057              	.LASF236:
 13058 155b 5F5F5553 		.ascii	"__USACCUM_EPSILON__ 0x1P-8UHK\000"
 13058      41434355 
 13058      4D5F4550 
 13058      53494C4F 
 13058      4E5F5F20 
 13059              	.LASF1216:
 13060 1579 43686970 		.ascii	"Chip_SSP_ClearIntPending\000"
 13060      5F535350 
 13060      5F436C65 
 13060      6172496E 
 13060      7450656E 
ARM GAS  /tmp/ccjsfSlY.s 			page 274


 13061              	.LASF29:
 13062 1592 5F5F5349 		.ascii	"__SIZEOF_POINTER__ 4\000"
 13062      5A454F46 
 13062      5F504F49 
 13062      4E544552 
 13062      5F5F2034 
 13063              	.LASF47:
 13064 15a7 5F5F494E 		.ascii	"__INT_LEAST8_TYPE__ signed char\000"
 13064      545F4C45 
 13064      41535438 
 13064      5F545950 
 13064      455F5F20 
 13065              	.LASF307:
 13066 15c7 5F5F4743 		.ascii	"__GCC_ATOMIC_BOOL_LOCK_FREE 1\000"
 13066      435F4154 
 13066      4F4D4943 
 13066      5F424F4F 
 13066      4C5F4C4F 
 13067              	.LASF599:
 13068 15e5 4C50435F 		.ascii	"LPC_ACMP_BASE 0x40028000\000"
 13068      41434D50 
 13068      5F424153 
 13068      45203078 
 13068      34303032 
 13069              	.LASF409:
 13070 15fe 55494E54 		.ascii	"UINTPTR_MAX (__UINTPTR_MAX__)\000"
 13070      5054525F 
 13070      4D415820 
 13070      285F5F55 
 13070      494E5450 
 13071              	.LASF110:
 13072 161c 5F5F494E 		.ascii	"__INT_FAST16_MAX__ 2147483647\000"
 13072      545F4641 
 13072      53543136 
 13072      5F4D4158 
 13072      5F5F2032 
 13073              	.LASF228:
 13074 163a 5F5F5341 		.ascii	"__SACCUM_IBIT__ 8\000"
 13074      4343554D 
 13074      5F494249 
 13074      545F5F20 
 13074      3800
 13075              	.LASF337:
 13076 164c 5F5F5448 		.ascii	"__THUMB_INTERWORK__ 1\000"
 13076      554D425F 
 13076      494E5445 
 13076      52574F52 
 13076      4B5F5F20 
 13077              	.LASF225:
 13078 1662 5F5F554C 		.ascii	"__ULLFRACT_MAX__ 0XFFFFFFFFFFFFFFFFP-64ULLR\000"
 13078      4C465241 
 13078      43545F4D 
 13078      41585F5F 
 13078      20305846 
 13079              	.LASF974:
 13080 168e 4932435F 		.ascii	"I2C_NAK_RECV (0x10000000 | 0x01)\000"
 13080      4E414B5F 
ARM GAS  /tmp/ccjsfSlY.s 			page 275


 13080      52454356 
 13080      20283078 
 13080      31303030 
 13081              	.LASF1236:
 13082 16af 43686970 		.ascii	"Chip_SYSCTL_PeriphReset\000"
 13082      5F535953 
 13082      43544C5F 
 13082      50657269 
 13082      70685265 
 13083              	.LASF619:
 13084 16c7 4C50435F 		.ascii	"LPC_TIMER32_0 ((LPC_TIMER_T *) LPC_TIMER32_0_BASE)\000"
 13084      54494D45 
 13084      5233325F 
 13084      30202828 
 13084      4C50435F 
 13085              	.LASF891:
 13086 16fa 4144435F 		.ascii	"ADC_CR_START_CTOUT8 ((3UL << 24))\000"
 13086      43525F53 
 13086      54415254 
 13086      5F43544F 
 13086      55543820 
 13087              	.LASF37:
 13088 171c 5F5F4348 		.ascii	"__CHAR32_TYPE__ long unsigned int\000"
 13088      41523332 
 13088      5F545950 
 13088      455F5F20 
 13088      6C6F6E67 
 13089              	.LASF474:
 13090 173e 50415241 		.ascii	"PARAM_SETSTATE(State) ((State == RESET) || (State ="
 13090      4D5F5345 
 13090      54535441 
 13090      54452853 
 13090      74617465 
 13091 1771 3D205345 		.ascii	"= SET))\000"
 13091      54292900 
 13092              	.LASF644:
 13093 1779 53595343 		.ascii	"SYSCTL_NMISRC_ENABLE ((uint32_t) 1 << 31)\000"
 13093      544C5F4E 
 13093      4D495352 
 13093      435F454E 
 13093      41424C45 
 13094              	.LASF749:
 13095 17a3 55415254 		.ascii	"UART_IIR_INTID_THRE (1 << 1)\000"
 13095      5F494952 
 13095      5F494E54 
 13095      49445F54 
 13095      48524520 
 13096              	.LASF692:
 13097 17c0 4D445F49 		.ascii	"MD_INV (0x1 << 6)\000"
 13097      4E562028 
 13097      30783120 
 13097      3C3C2036 
 13097      2900
 13098              	.LASF128:
 13099 17d2 5F5F464C 		.ascii	"__FLT_MAX_EXP__ 128\000"
 13099      545F4D41 
 13099      585F4558 
ARM GAS  /tmp/ccjsfSlY.s 			page 276


 13099      505F5F20 
 13099      31323800 
 13100              	.LASF15:
 13101 17e6 5F5F5349 		.ascii	"__SIZEOF_LONG__ 4\000"
 13101      5A454F46 
 13101      5F4C4F4E 
 13101      475F5F20 
 13101      3400
 13102              	.LASF363:
 13103 17f8 5F5F5F69 		.ascii	"___int_least32_t_defined 1\000"
 13103      6E745F6C 
 13103      65617374 
 13103      33325F74 
 13103      5F646566 
 13104              	.LASF1163:
 13105 1813 5353505F 		.ascii	"SSP_INT_CLEAR_BITMASK\000"
 13105      494E545F 
 13105      434C4541 
 13105      525F4249 
 13105      544D4153 
 13106              	.LASF1192:
 13107 1829 43484950 		.ascii	"CHIP_SSP_MODE\000"
 13107      5F535350 
 13107      5F4D4F44 
 13107      4500
 13108              	.LASF353:
 13109 1837 5F5F4E45 		.ascii	"__NEWLIB_MINOR__ 2\000"
 13109      574C4942 
 13109      5F4D494E 
 13109      4F525F5F 
 13109      203200
 13110              	.LASF589:
 13111 184a 5F49505F 		.ascii	"_IP_IDX(IRQn) ( ((uint32_t)(IRQn) >> 2) )\000"
 13111      49445828 
 13111      4952516E 
 13111      29202820 
 13111      28287569 
 13112              	.LASF813:
 13113 1874 55415254 		.ascii	"UART_RS485CTRL_SEL_DTR (1 << 3)\000"
 13113      5F525334 
 13113      38354354 
 13113      524C5F53 
 13113      454C5F44 
 13114              	.LASF19:
 13115 1894 5F5F5349 		.ascii	"__SIZEOF_DOUBLE__ 8\000"
 13115      5A454F46 
 13115      5F444F55 
 13115      424C455F 
 13115      5F203800 
 13116              	.LASF780:
 13117 18a8 55415254 		.ascii	"UART_MCR_LOOPB_EN (1 << 4)\000"
 13117      5F4D4352 
 13117      5F4C4F4F 
 13117      50425F45 
 13117      4E202831 
 13118              	.LASF948:
 13119 18c3 4932435F 		.ascii	"I2C_I2STAT_S_TX_DAT_ACK ((0xB8))\000"
ARM GAS  /tmp/ccjsfSlY.s 			page 277


 13119      49325354 
 13119      41545F53 
 13119      5F54585F 
 13119      4441545F 
 13120              	.LASF1158:
 13121 18e4 5353505F 		.ascii	"SSP_RAW_INT_STAT_BITMASK\000"
 13121      5241575F 
 13121      494E545F 
 13121      53544154 
 13121      5F424954 
 13122              	.LASF789:
 13123 18fd 55415254 		.ascii	"UART_LSR_THRE (1 << 5)\000"
 13123      5F4C5352 
 13123      5F544852 
 13123      45202831 
 13123      203C3C20 
 13124              	.LASF1007:
 13125 1914 53444F5F 		.ascii	"SDO_ABORT_DEVSTAT 0x08000022UL\000"
 13125      41424F52 
 13125      545F4445 
 13125      56535441 
 13125      54203078 
 13126              	.LASF983:
 13127 1933 43414E5F 		.ascii	"CAN_ERROR_STUF 0x00000008UL\000"
 13127      4552524F 
 13127      525F5354 
 13127      55462030 
 13127      78303030 
 13128              	.LASF832:
 13129 194f 55415254 		.ascii	"UART_TER2_TXEN (1 << 0)\000"
 13129      5F544552 
 13129      325F5458 
 13129      454E2028 
 13129      31203C3C 
 13130              	.LASF747:
 13131 1967 55415254 		.ascii	"UART_IIR_INTID_RDA (2 << 1)\000"
 13131      5F494952 
 13131      5F494E54 
 13131      49445F52 
 13131      44412028 
 13132              	.LASF668:
 13133 1983 494F434F 		.ascii	"IOCON_FUNC2 0x2\000"
 13133      4E5F4655 
 13133      4E433220 
 13133      30783200 
 13134              	.LASF387:
 13135 1993 5F5F4641 		.ascii	"__FAST16 \000"
 13135      53543136 
 13135      2000
 13136              	.LASF1015:
 13137 199d 43414E5F 		.ascii	"CAN_SDOREQ_NOTHANDLED 0\000"
 13137      53444F52 
 13137      45515F4E 
 13137      4F544841 
 13137      4E444C45 
 13138              	.LASF735:
 13139 19b5 55415254 		.ascii	"UART_IER_ABEOINT (1 << 8)\000"
ARM GAS  /tmp/ccjsfSlY.s 			page 278


 13139      5F494552 
 13139      5F414245 
 13139      4F494E54 
 13139      20283120 
 13140              	.LASF177:
 13141 19cf 5F5F4445 		.ascii	"__DEC64_MAX__ 9.999999999999999E384DD\000"
 13141      4336345F 
 13141      4D41585F 
 13141      5F20392E 
 13141      39393939 
 13142              	.LASF1195:
 13143 19f5 74785F64 		.ascii	"tx_data\000"
 13143      61746100 
 13144              	.LASF1105:
 13145 19fd 50445255 		.ascii	"PDRUNCFG\000"
 13145      4E434647 
 13145      00
 13146              	.LASF553:
 13147 1a06 5343425F 		.ascii	"SCB_SCR_SLEEPDEEP_Msk (1UL << SCB_SCR_SLEEPDEEP_Pos"
 13147      5343525F 
 13147      534C4545 
 13147      50444545 
 13147      505F4D73 
 13148 1a39 2900     		.ascii	")\000"
 13149              	.LASF924:
 13150 1a3b 4932435F 		.ascii	"I2C_I2STAT_M_TX_RESTART ((0x10))\000"
 13150      49325354 
 13150      41545F4D 
 13150      5F54585F 
 13150      52455354 
 13151              	.LASF870:
 13152 1a5c 5353505F 		.ascii	"SSP_CPOL_HI SSP_CR0_CPOL_LO\000"
 13152      43504F4C 
 13152      5F484920 
 13152      5353505F 
 13152      4352305F 
 13153              	.LASF127:
 13154 1a78 5F5F464C 		.ascii	"__FLT_MIN_10_EXP__ (-37)\000"
 13154      545F4D49 
 13154      4E5F3130 
 13154      5F455850 
 13154      5F5F2028 
 13155              	.LASF738:
 13156 1a91 55415254 		.ascii	"UART1_IER_BITMASK (0x30F)\000"
 13156      315F4945 
 13156      525F4249 
 13156      544D4153 
 13156      4B202830 
 13157              	.LASF888:
 13158 1aab 4144435F 		.ascii	"ADC_CR_START_MODE_SEL(SEL) ((SEL << 24))\000"
 13158      43525F53 
 13158      54415254 
 13158      5F4D4F44 
 13158      455F5345 
 13159              	.LASF130:
 13160 1ad4 5F5F464C 		.ascii	"__FLT_DECIMAL_DIG__ 9\000"
 13160      545F4445 
ARM GAS  /tmp/ccjsfSlY.s 			page 279


 13160      43494D41 
 13160      4C5F4449 
 13160      475F5F20 
 13161              	.LASF989:
 13162 1aea 43414E5F 		.ascii	"CAN_MSGOBJ_STD 0x00000000UL\000"
 13162      4D53474F 
 13162      424A5F53 
 13162      54442030 
 13162      78303030 
 13163              	.LASF519:
 13164 1b06 5343425F 		.ascii	"SCB_CPUID_PARTNO_Msk (0xFFFUL << SCB_CPUID_PARTNO_P"
 13164      43505549 
 13164      445F5041 
 13164      52544E4F 
 13164      5F4D736B 
 13165 1b39 6F732900 		.ascii	"os)\000"
 13166              	.LASF1023:
 13167 1b3d 7369676E 		.ascii	"signed char\000"
 13167      65642063 
 13167      68617200 
 13168              	.LASF1201:
 13169 1b49 43686970 		.ascii	"Chip_SYSCTL_AssertPeriphReset\000"
 13169      5F535953 
 13169      43544C5F 
 13169      41737365 
 13169      72745065 
 13170              	.LASF877:
 13171 1b67 5F5F4144 		.ascii	"__ADC_11XX_H_ \000"
 13171      435F3131 
 13171      58585F48 
 13171      5F2000
 13172              	.LASF1034:
 13173 1b76 75696E74 		.ascii	"uint8_t\000"
 13173      385F7400 
 13174              	.LASF657:
 13175 1b7e 53595343 		.ascii	"SYSCTL_POWERDOWN_FLASH_PD (1 << 2)\000"
 13175      544C5F50 
 13175      4F574552 
 13175      444F574E 
 13175      5F464C41 
 13176              	.LASF1060:
 13177 1ba1 55534250 		.ascii	"USBPLLCLKSEL\000"
 13177      4C4C434C 
 13177      4B53454C 
 13177      00
 13178              	.LASF491:
 13179 1bae 43484950 		.ascii	"CHIP_LPC11CXX \000"
 13179      5F4C5043 
 13179      31314358 
 13179      582000
 13180              	.LASF1143:
 13181 1bbd 494D5343 		.ascii	"IMSC\000"
 13181      00
 13182              	.LASF677:
 13183 1bc2 494F434F 		.ascii	"IOCON_MODE_REPEATER (0x3 << 3)\000"
 13183      4E5F4D4F 
 13183      44455F52 
ARM GAS  /tmp/ccjsfSlY.s 			page 280


 13183      45504541 
 13183      54455220 
 13184              	.LASF929:
 13185 1be1 4932435F 		.ascii	"I2C_I2STAT_M_TX_ARB_LOST ((0x38))\000"
 13185      49325354 
 13185      41545F4D 
 13185      5F54585F 
 13185      4152425F 
 13186              	.LASF454:
 13187 1c03 57434841 		.ascii	"WCHAR_MIN (__WCHAR_MIN__)\000"
 13187      525F4D49 
 13187      4E20285F 
 13187      5F574348 
 13187      41525F4D 
 13188              	.LASF901:
 13189 1c1d 5245545F 		.ascii	"RET_SLAVE_IDLE 2\000"
 13189      534C4156 
 13189      455F4944 
 13189      4C452032 
 13189      00
 13190              	.LASF197:
 13191 1c2e 5F5F4652 		.ascii	"__FRACT_FBIT__ 15\000"
 13191      4143545F 
 13191      46424954 
 13191      5F5F2031 
 13191      3500
 13192              	.LASF1082:
 13193 1c40 434C4B4F 		.ascii	"CLKOUTUEN\000"
 13193      55545545 
 13193      4E00
 13194              	.LASF137:
 13195 1c4a 5F5F464C 		.ascii	"__FLT_HAS_QUIET_NAN__ 1\000"
 13195      545F4841 
 13195      535F5155 
 13195      4945545F 
 13195      4E414E5F 
 13196              	.LASF479:
 13197 1c62 5F534246 		.ascii	"_SBF(f,v) ((v) << (f))\000"
 13197      28662C76 
 13197      29202828 
 13197      7629203C 
 13197      3C202866 
 13198              	.LASF310:
 13199 1c79 5F5F4743 		.ascii	"__GCC_ATOMIC_CHAR32_T_LOCK_FREE 1\000"
 13199      435F4154 
 13199      4F4D4943 
 13199      5F434841 
 13199      5233325F 
 13200              	.LASF545:
 13201 1c9b 5343425F 		.ascii	"SCB_AIRCR_ENDIANESS_Msk (1UL << SCB_AIRCR_ENDIANESS"
 13201      41495243 
 13201      525F454E 
 13201      4449414E 
 13201      4553535F 
 13202 1cce 5F506F73 		.ascii	"_Pos)\000"
 13202      2900
 13203              	.LASF4:
ARM GAS  /tmp/ccjsfSlY.s 			page 281


 13204 1cd4 5F5F474E 		.ascii	"__GNUC_PATCHLEVEL__ 3\000"
 13204      55435F50 
 13204      41544348 
 13204      4C455645 
 13204      4C5F5F20 
 13205              	.LASF820:
 13206 1cea 55415254 		.ascii	"UART_ICR_PULSEDIV(n) ((n & 0x07) << 3)\000"
 13206      5F494352 
 13206      5F50554C 
 13206      53454449 
 13206      56286E29 
 13207              	.LASF786:
 13208 1d11 55415254 		.ascii	"UART_LSR_PE (1 << 2)\000"
 13208      5F4C5352 
 13208      5F504520 
 13208      2831203C 
 13208      3C203229 
 13209              	.LASF871:
 13210 1d26 5353505F 		.ascii	"SSP_CPOL_LO SSP_CR0_CPOL_HI\000"
 13210      43504F4C 
 13210      5F4C4F20 
 13210      5353505F 
 13210      4352305F 
 13211              	.LASF349:
 13212 1d42 5F535444 		.ascii	"_STDINT_H \000"
 13212      494E545F 
 13212      482000
 13213              	.LASF539:
 13214 1d4d 5343425F 		.ascii	"SCB_ICSR_VECTACTIVE_Msk (0x1FFUL << SCB_ICSR_VECTAC"
 13214      49435352 
 13214      5F564543 
 13214      54414354 
 13214      4956455F 
 13215 1d80 54495645 		.ascii	"TIVE_Pos)\000"
 13215      5F506F73 
 13215      2900
 13216              	.LASF469:
 13217 1d8a 5F535444 		.ascii	"_STDBOOL_H \000"
 13217      424F4F4C 
 13217      5F482000 
 13218              	.LASF776:
 13219 1d96 55415254 		.ascii	"UART_LCR_DLAB_EN (1 << 7)\000"
 13219      5F4C4352 
 13219      5F444C41 
 13219      425F454E 
 13219      20283120 
 13220              	.LASF506:
 13221 1db0 5F5F434F 		.ascii	"__CORE_CMINSTR_H \000"
 13221      52455F43 
 13221      4D494E53 
 13221      54525F48 
 13221      2000
 13222              	.LASF1239:
 13223 1dc2 6672616D 		.ascii	"frameFormat\000"
 13223      65466F72 
 13223      6D617400 
 13224              	.LASF620:
ARM GAS  /tmp/ccjsfSlY.s 			page 282


 13225 1dce 4C50435F 		.ascii	"LPC_TIMER32_1 ((LPC_TIMER_T *) LPC_TIMER32_1_BASE)\000"
 13225      54494D45 
 13225      5233325F 
 13225      31202828 
 13225      4C50435F 
 13226              	.LASF817:
 13227 1e01 55415254 		.ascii	"UART_ICR_IRDAEN (1 << 0)\000"
 13227      5F494352 
 13227      5F495244 
 13227      41454E20 
 13227      2831203C 
 13228              	.LASF1051:
 13229 1e1a 52455345 		.ascii	"RESERVED1\000"
 13229      52564544 
 13229      3100
 13230              	.LASF1024:
 13231 1e24 756E7369 		.ascii	"unsigned char\000"
 13231      676E6564 
 13231      20636861 
 13231      7200
 13232              	.LASF1062:
 13233 1e32 52455345 		.ascii	"RESERVED3\000"
 13233      52564544 
 13233      3300
 13234              	.LASF1066:
 13235 1e3c 52455345 		.ascii	"RESERVED4\000"
 13235      52564544 
 13235      3400
 13236              	.LASF1068:
 13237 1e46 52455345 		.ascii	"RESERVED5\000"
 13237      52564544 
 13237      3500
 13238              	.LASF1072:
 13239 1e50 52455345 		.ascii	"RESERVED6\000"
 13239      52564544 
 13239      3600
 13240              	.LASF1076:
 13241 1e5a 52455345 		.ascii	"RESERVED7\000"
 13241      52564544 
 13241      3700
 13242              	.LASF1080:
 13243 1e64 52455345 		.ascii	"RESERVED8\000"
 13243      52564544 
 13243      3800
 13244              	.LASF1084:
 13245 1e6e 52455345 		.ascii	"RESERVED9\000"
 13245      52564544 
 13245      3900
 13246              	.LASF182:
 13247 1e78 5F5F4445 		.ascii	"__DEC128_MAX_EXP__ 6145\000"
 13247      43313238 
 13247      5F4D4158 
 13247      5F455850 
 13247      5F5F2036 
 13248              	.LASF119:
 13249 1e90 5F5F4743 		.ascii	"__GCC_IEC_559 0\000"
 13249      435F4945 
ARM GAS  /tmp/ccjsfSlY.s 			page 283


 13249      435F3535 
 13249      39203000 
 13250              	.LASF1063:
 13251 1ea0 4D41494E 		.ascii	"MAINCLKSEL\000"
 13251      434C4B53 
 13251      454C00
 13252              	.LASF1180:
 13253 1eab 5353505F 		.ascii	"SSP_BITS_5\000"
 13253      42495453 
 13253      5F3500
 13254              	.LASF500:
 13255 1eb6 5F5F434D 		.ascii	"__CM0_CMSIS_VERSION ((__CM0_CMSIS_VERSION_MAIN << 1"
 13255      305F434D 
 13255      5349535F 
 13255      56455253 
 13255      494F4E20 
 13256 1ee9 3629207C 		.ascii	"6) | __CM0_CMSIS_VERSION_SUB )\000"
 13256      205F5F43 
 13256      4D305F43 
 13256      4D534953 
 13256      5F564552 
 13257              	.LASF1004:
 13258 1f08 53444F5F 		.ascii	"SDO_ABORT_VALUE_RANGE 0x06090030UL\000"
 13258      41424F52 
 13258      545F5641 
 13258      4C55455F 
 13258      52414E47 
 13259              	.LASF835:
 13260 1f2b 55415254 		.ascii	"UART_SYNCCTRL_FES (1 << 2)\000"
 13260      5F53594E 
 13260      43435452 
 13260      4C5F4645 
 13260      53202831 
 13261              	.LASF7:
 13262 1f46 5F5F4154 		.ascii	"__ATOMIC_SEQ_CST 5\000"
 13262      4F4D4943 
 13262      5F534551 
 13262      5F435354 
 13262      203500
 13263              	.LASF555:
 13264 1f59 5343425F 		.ascii	"SCB_SCR_SLEEPONEXIT_Msk (1UL << SCB_SCR_SLEEPONEXIT"
 13264      5343525F 
 13264      534C4545 
 13264      504F4E45 
 13264      5849545F 
 13265 1f8c 5F506F73 		.ascii	"_Pos)\000"
 13265      2900
 13266              	.LASF691:
 13267 1f92 4D445F48 		.ascii	"MD_HYS (0x1 << 5)\000"
 13267      59532028 
 13267      30783120 
 13267      3C3C2035 
 13267      2900
 13268              	.LASF865:
 13269 1fa4 5353505F 		.ascii	"SSP_DR_BITMASK(n) ((n) & 0xFFFF)\000"
 13269      44525F42 
 13269      49544D41 
ARM GAS  /tmp/ccjsfSlY.s 			page 284


 13269      534B286E 
 13269      29202828 
 13270              	.LASF774:
 13271 1fc5 55415254 		.ascii	"UART_LCR_PARITY_F_0 (3 << 4)\000"
 13271      5F4C4352 
 13271      5F504152 
 13271      4954595F 
 13271      465F3020 
 13272              	.LASF621:
 13273 1fe2 4C50435F 		.ascii	"LPC_ADC ((LPC_ADC_T *) LPC_ADC_BASE)\000"
 13273      41444320 
 13273      28284C50 
 13273      435F4144 
 13273      435F5420 
 13274              	.LASF575:
 13275 2007 53797354 		.ascii	"SysTick_CALIB_NOREF_Msk (1UL << SysTick_CALIB_NOREF"
 13275      69636B5F 
 13275      43414C49 
 13275      425F4E4F 
 13275      5245465F 
 13276 203a 5F506F73 		.ascii	"_Pos)\000"
 13276      2900
 13277              	.LASF1155:
 13278 2040 5353505F 		.ascii	"SSP_RTRIS\000"
 13278      52545249 
 13278      5300
 13279              	.LASF435:
 13280 204a 494E545F 		.ascii	"INT_FAST8_MAX (__INT_FAST8_MAX__)\000"
 13280      46415354 
 13280      385F4D41 
 13280      5820285F 
 13280      5F494E54 
 13281              	.LASF977:
 13282 206c 4932435F 		.ascii	"I2C_MONITOR_CFG_MATCHALL I2C_I2MMCTRL_MATCH_ALL\000"
 13282      4D4F4E49 
 13282      544F525F 
 13282      4346475F 
 13282      4D415443 
 13283              	.LASF142:
 13284 209c 5F5F4442 		.ascii	"__DBL_MAX_EXP__ 1024\000"
 13284      4C5F4D41 
 13284      585F4558 
 13284      505F5F20 
 13284      31303234 
 13285              	.LASF113:
 13286 20b1 5F5F5549 		.ascii	"__UINT_FAST8_MAX__ 4294967295U\000"
 13286      4E545F46 
 13286      41535438 
 13286      5F4D4158 
 13286      5F5F2034 
 13287              	.LASF917:
 13288 20d0 4932435F 		.ascii	"I2C_CON_STA (1UL << 5)\000"
 13288      434F4E5F 
 13288      53544120 
 13288      2831554C 
 13288      203C3C20 
 13289              	.LASF275:
ARM GAS  /tmp/ccjsfSlY.s 			page 285


 13290 20e7 5F5F5451 		.ascii	"__TQ_FBIT__ 127\000"
 13290      5F464249 
 13290      545F5F20 
 13290      31323700 
 13291              	.LASF1207:
 13292 20f7 78665F73 		.ascii	"xf_setup\000"
 13292      65747570 
 13292      00
 13293              	.LASF332:
 13294 2100 5F5F5448 		.ascii	"__THUMBEL__ 1\000"
 13294      554D4245 
 13294      4C5F5F20 
 13294      3100
 13295              	.LASF889:
 13296 210e 4144435F 		.ascii	"ADC_CR_START_NOW ((1UL << 24))\000"
 13296      43525F53 
 13296      54415254 
 13296      5F4E4F57 
 13296      20282831 
 13297              	.LASF715:
 13298 212d 54494D45 		.ascii	"TIMER_INT_ON_MATCH(n) (_BIT(((n) * 3)))\000"
 13298      525F494E 
 13298      545F4F4E 
 13298      5F4D4154 
 13298      4348286E 
 13299              	.LASF1146:
 13300 2155 5F535350 		.ascii	"_SSP_STATUS\000"
 13300      5F535441 
 13300      54555300 
 13301              	.LASF406:
 13302 2161 5F5F696E 		.ascii	"__int_fast64_t_defined 1\000"
 13302      745F6661 
 13302      73743634 
 13302      5F745F64 
 13302      6566696E 
 13303              	.LASF613:
 13304 217a 4C50435F 		.ascii	"LPC_ROM_API_BASE_LOC 0x1FFF1FF8\000"
 13304      524F4D5F 
 13304      4150495F 
 13304      42415345 
 13304      5F4C4F43 
 13305              	.LASF343:
 13306 219a 5F5F5553 		.ascii	"__USES_INITFINI__ 1\000"
 13306      45535F49 
 13306      4E495446 
 13306      494E495F 
 13306      5F203100 
 13307              	.LASF516:
 13308 21ae 5343425F 		.ascii	"SCB_CPUID_ARCHITECTURE_Pos 16\000"
 13308      43505549 
 13308      445F4152 
 13308      43484954 
 13308      45435455 
 13309              	.LASF1160:
 13310 21cc 5F535350 		.ascii	"_SSP_INTCLEAR\000"
 13310      5F494E54 
 13310      434C4541 
ARM GAS  /tmp/ccjsfSlY.s 			page 286


 13310      5200
 13311              	.LASF17:
 13312 21da 5F5F5349 		.ascii	"__SIZEOF_SHORT__ 2\000"
 13312      5A454F46 
 13312      5F53484F 
 13312      52545F5F 
 13312      203200
 13313              	.LASF262:
 13314 21ed 5F5F554C 		.ascii	"__ULLACCUM_FBIT__ 32\000"
 13314      4C414343 
 13314      554D5F46 
 13314      4249545F 
 13314      5F203332 
 13315              	.LASF1043:
 13316 2202 5F426F6F 		.ascii	"_Bool\000"
 13316      6C00
 13317              	.LASF755:
 13318 2208 55415254 		.ascii	"UART_FCR_BITMASK (0xCF)\000"
 13318      5F464352 
 13318      5F424954 
 13318      4D41534B 
 13318      20283078 
 13319              	.LASF583:
 13320 2220 5343425F 		.ascii	"SCB_BASE (SCS_BASE + 0x0D00UL)\000"
 13320      42415345 
 13320      20285343 
 13320      535F4241 
 13320      5345202B 
 13321              	.LASF630:
 13322 223f 4C50435F 		.ascii	"LPC_GPIO ((LPC_GPIO_T *) LPC_GPIO_PORT0_BASE)\000"
 13322      4750494F 
 13322      2028284C 
 13322      50435F47 
 13322      50494F5F 
 13323              	.LASF348:
 13324 226d 5F5F4C50 		.ascii	"__LPC_TYPES_H_ \000"
 13324      435F5459 
 13324      5045535F 
 13324      485F2000 
 13325              	.LASF488:
 13326 227d 4D494E28 		.ascii	"MIN(a,b) (((a) < (b)) ? (a) : (b))\000"
 13326      612C6229 
 13326      20282828 
 13326      6129203C 
 13326      20286229 
 13327              	.LASF351:
 13328 22a0 5F535953 		.ascii	"_SYS_FEATURES_H \000"
 13328      5F464541 
 13328      54555245 
 13328      535F4820 
 13328      00
 13329              	.LASF1010:
 13330 22b1 4F445F45 		.ascii	"OD_EXP_WO 0x20\000"
 13330      58505F57 
 13330      4F203078 
 13330      323000
 13331              	.LASF484:
ARM GAS  /tmp/ccjsfSlY.s 			page 287


 13332 22c0 53544154 		.ascii	"STATIC static\000"
 13332      49432073 
 13332      74617469 
 13332      6300
 13333              	.LASF1057:
 13334 22ce 52455345 		.ascii	"RESERVED2\000"
 13334      52564544 
 13334      3200
 13335              	.LASF1156:
 13336 22d8 5353505F 		.ascii	"SSP_RXRIS\000"
 13336      52585249 
 13336      5300
 13337              	.LASF20:
 13338 22e2 5F5F5349 		.ascii	"__SIZEOF_LONG_DOUBLE__ 8\000"
 13338      5A454F46 
 13338      5F4C4F4E 
 13338      475F444F 
 13338      55424C45 
 13339              	.LASF788:
 13340 22fb 55415254 		.ascii	"UART_LSR_BI (1 << 4)\000"
 13340      5F4C5352 
 13340      5F424920 
 13340      2831203C 
 13340      3C203429 
 13341              	.LASF766:
 13342 2310 55415254 		.ascii	"UART_LCR_SBS_MASK (1 << 2)\000"
 13342      5F4C4352 
 13342      5F534253 
 13342      5F4D4153 
 13342      4B202831 
 13343              	.LASF319:
 13344 232b 5F5F5052 		.ascii	"__PRAGMA_REDEFINE_EXTNAME 1\000"
 13344      41474D41 
 13344      5F524544 
 13344      4546494E 
 13344      455F4558 
 13345              	.LASF32:
 13346 2347 5F5F5743 		.ascii	"__WCHAR_TYPE__ unsigned int\000"
 13346      4841525F 
 13346      54595045 
 13346      5F5F2075 
 13346      6E736967 
 13347              	.LASF584:
 13348 2363 53434220 		.ascii	"SCB ((SCB_Type *) SCB_BASE )\000"
 13348      28285343 
 13348      425F5479 
 13348      7065202A 
 13348      29205343 
 13349              	.LASF372:
 13350 2380 63686172 		.ascii	"char\000"
 13350      00
 13351              	.LASF298:
 13352 2385 5F5F5553 		.ascii	"__USA_IBIT__ 16\000"
 13352      415F4942 
 13352      49545F5F 
 13352      20313600 
 13353              	.LASF618:
ARM GAS  /tmp/ccjsfSlY.s 			page 288


 13354 2395 4C50435F 		.ascii	"LPC_TIMER16_1 ((LPC_TIMER_T *) LPC_TIMER16_1_BASE)\000"
 13354      54494D45 
 13354      5231365F 
 13354      31202828 
 13354      4C50435F 
 13355              	.LASF466:
 13356 23c8 494E544D 		.ascii	"INTMAX_C(x) __INTMAX_C(x)\000"
 13356      41585F43 
 13356      28782920 
 13356      5F5F494E 
 13356      544D4158 
 13357              	.LASF453:
 13358 23e2 50545244 		.ascii	"PTRDIFF_MIN (-PTRDIFF_MAX - 1)\000"
 13358      4946465F 
 13358      4D494E20 
 13358      282D5054 
 13358      52444946 
 13359              	.LASF698:
 13360 2401 4D445F53 		.ascii	"MD_STDI2C (0x1 << 8)\000"
 13360      54444932 
 13360      43202830 
 13360      7831203C 
 13360      3C203829 
 13361              	.LASF1070:
 13362 2416 55534152 		.ascii	"USARTCLKDIV\000"
 13362      54434C4B 
 13362      44495600 
 13363              	.LASF67:
 13364 2422 5F5F4758 		.ascii	"__GXX_ABI_VERSION 1002\000"
 13364      585F4142 
 13364      495F5645 
 13364      5253494F 
 13364      4E203130 
 13365              	.LASF62:
 13366 2439 5F5F5549 		.ascii	"__UINT_FAST64_TYPE__ long long unsigned int\000"
 13366      4E545F46 
 13366      41535436 
 13366      345F5459 
 13366      50455F5F 
 13367              	.LASF1133:
 13368 2465 53595343 		.ascii	"SYSCTL_CLOCK_SSP0\000"
 13368      544C5F43 
 13368      4C4F434B 
 13368      5F535350 
 13368      3000
 13369              	.LASF1140:
 13370 2477 53595343 		.ascii	"SYSCTL_CLOCK_SSP1\000"
 13370      544C5F43 
 13370      4C4F434B 
 13370      5F535350 
 13370      3100
 13371              	.LASF860:
 13372 2489 5353505F 		.ascii	"SSP_CR1_SLAVE_EN ((uint32_t) (1 << 2))\000"
 13372      4352315F 
 13372      534C4156 
 13372      455F454E 
 13372      20282875 
ARM GAS  /tmp/ccjsfSlY.s 			page 289


 13373              	.LASF132:
 13374 24b0 5F5F464C 		.ascii	"__FLT_MIN__ 1.1754943508222875e-38F\000"
 13374      545F4D49 
 13374      4E5F5F20 
 13374      312E3137 
 13374      35343934 
 13375              	.LASF1224:
 13376 24d4 43686970 		.ascii	"Chip_SSP_GetPCLKkRate\000"
 13376      5F535350 
 13376      5F476574 
 13376      50434C4B 
 13376      6B526174 
 13377              	.LASF287:
 13378 24ea 5F5F4841 		.ascii	"__HA_FBIT__ 7\000"
 13378      5F464249 
 13378      545F5F20 
 13378      3700
 13379              	.LASF993:
 13380 24f8 53444F5F 		.ascii	"SDO_ABORT_TOGGLE 0x05030000UL\000"
 13380      41424F52 
 13380      545F544F 
 13380      47474C45 
 13380      20307830 
 13381              	.LASF921:
 13382 2516 4932435F 		.ascii	"I2C_I2STAT_NO_INF ((0xF8))\000"
 13382      49325354 
 13382      41545F4E 
 13382      4F5F494E 
 13382      46202828 
 13383              	.LASF626:
 13384 2531 4C50435F 		.ascii	"LPC_SYSCTL ((LPC_SYSCTL_T *) LPC_SYSCTL_BASE)\000"
 13384      53595343 
 13384      544C2028 
 13384      284C5043 
 13384      5F535953 
 13385              	.LASF131:
 13386 255f 5F5F464C 		.ascii	"__FLT_MAX__ 3.4028234663852886e+38F\000"
 13386      545F4D41 
 13386      585F5F20 
 13386      332E3430 
 13386      32383233 
 13387              	.LASF315:
 13388 2583 5F5F4743 		.ascii	"__GCC_ATOMIC_LLONG_LOCK_FREE 1\000"
 13388      435F4154 
 13388      4F4D4943 
 13388      5F4C4C4F 
 13388      4E475F4C 
 13389              	.LASF451:
 13390 25a2 5349475F 		.ascii	"SIG_ATOMIC_MAX (__STDINT_EXP(INT_MAX))\000"
 13390      41544F4D 
 13390      49435F4D 
 13390      41582028 
 13390      5F5F5354 
 13391              	.LASF721:
 13392 25c9 5F5F5541 		.ascii	"__UART_11XX_H_ \000"
 13392      52545F31 
 13392      3158585F 
ARM GAS  /tmp/ccjsfSlY.s 			page 290


 13392      485F2000 
 13393              	.LASF980:
 13394 25d9 43414E5F 		.ascii	"CAN_ERROR_PASS 0x00000001UL\000"
 13394      4552524F 
 13394      525F5041 
 13394      53532030 
 13394      78303030 
 13395              	.LASF904:
 13396 25f5 4932435F 		.ascii	"I2C_I2CONSET_AA ((0x04))\000"
 13396      4932434F 
 13396      4E534554 
 13396      5F414120 
 13396      28283078 
 13397              	.LASF674:
 13398 260e 494F434F 		.ascii	"IOCON_MODE_INACT (0x0 << 3)\000"
 13398      4E5F4D4F 
 13398      44455F49 
 13398      4E414354 
 13398      20283078 
 13399              	.LASF925:
 13400 262a 4932435F 		.ascii	"I2C_I2STAT_M_TX_SLAW_ACK ((0x18))\000"
 13400      49325354 
 13400      41545F4D 
 13400      5F54585F 
 13400      534C4157 
 13401              	.LASF167:
 13402 264c 5F5F4445 		.ascii	"__DEC32_MIN_EXP__ (-94)\000"
 13402      4333325F 
 13402      4D494E5F 
 13402      4558505F 
 13402      5F20282D 
 13403              	.LASF193:
 13404 2664 5F5F5553 		.ascii	"__USFRACT_IBIT__ 0\000"
 13404      46524143 
 13404      545F4942 
 13404      49545F5F 
 13404      203000
 13405              	.LASF477:
 13406 2677 5F424954 		.ascii	"_BIT(n) (1 << (n))\000"
 13406      286E2920 
 13406      2831203C 
 13406      3C20286E 
 13406      292900
 13407              	.LASF1027:
 13408 268a 5F5F7569 		.ascii	"__uint16_t\000"
 13408      6E743136 
 13408      5F7400
 13409              	.LASF161:
 13410 2695 5F5F4C44 		.ascii	"__LDBL_EPSILON__ 2.2204460492503131e-16L\000"
 13410      424C5F45 
 13410      5053494C 
 13410      4F4E5F5F 
 13410      20322E32 
 13411              	.LASF913:
 13412 26be 4932435F 		.ascii	"I2C_I2CONCLR_I2ENC ((1 << 6))\000"
 13412      4932434F 
 13412      4E434C52 
ARM GAS  /tmp/ccjsfSlY.s 			page 291


 13412      5F493245 
 13412      4E432028 
 13413              	.LASF1217:
 13414 26dc 496E7443 		.ascii	"IntClear\000"
 13414      6C656172 
 13414      00
 13415              	.LASF194:
 13416 26e5 5F5F5553 		.ascii	"__USFRACT_MIN__ 0.0UHR\000"
 13416      46524143 
 13416      545F4D49 
 13416      4E5F5F20 
 13416      302E3055 
 13417              	.LASF706:
 13418 26fc 46554E43 		.ascii	"FUNC5 0x5\000"
 13418      35203078 
 13418      3500
 13419              	.LASF808:
 13420 2706 55415254 		.ascii	"UART_ACR_ABTOINT_CLR (1 << 9)\000"
 13420      5F414352 
 13420      5F414254 
 13420      4F494E54 
 13420      5F434C52 
 13421              	.LASF998:
 13422 2724 53444F5F 		.ascii	"SDO_ABORT_READONLY 0x06010002UL\000"
 13422      41424F52 
 13422      545F5245 
 13422      41444F4E 
 13422      4C592030 
 13423              	.LASF358:
 13424 2744 5F5F5F69 		.ascii	"___int16_t_defined 1\000"
 13424      6E743136 
 13424      5F745F64 
 13424      6566696E 
 13424      65642031 
 13425              	.LASF156:
 13426 2759 5F5F4C44 		.ascii	"__LDBL_MAX_EXP__ 1024\000"
 13426      424C5F4D 
 13426      41585F45 
 13426      58505F5F 
 13426      20313032 
 13427              	.LASF672:
 13428 276f 494F434F 		.ascii	"IOCON_FUNC6 0x6\000"
 13428      4E5F4655 
 13428      4E433620 
 13428      30783600 
 13429              	.LASF554:
 13430 277f 5343425F 		.ascii	"SCB_SCR_SLEEPONEXIT_Pos 1\000"
 13430      5343525F 
 13430      534C4545 
 13430      504F4E45 
 13430      5849545F 
 13431              	.LASF744:
 13432 2799 55415254 		.ascii	"UART_IIR_BITMASK (0x3CF)\000"
 13432      5F494952 
 13432      5F424954 
 13432      4D41534B 
 13432      20283078 
ARM GAS  /tmp/ccjsfSlY.s 			page 292


 13433              	.LASF395:
 13434 27b2 5F5F696E 		.ascii	"__int8_t_defined 1\000"
 13434      74385F74 
 13434      5F646566 
 13434      696E6564 
 13434      203100
 13435              	.LASF990:
 13436 27c5 43414E5F 		.ascii	"CAN_MSGOBJ_EXT 0x20000000UL\000"
 13436      4D53474F 
 13436      424A5F45 
 13436      58542030 
 13436      78323030 
 13437              	.LASF149:
 13438 27e1 5F5F4442 		.ascii	"__DBL_HAS_DENORM__ 1\000"
 13438      4C5F4841 
 13438      535F4445 
 13438      4E4F524D 
 13438      5F5F2031 
 13439              	.LASF1021:
 13440 27f6 4C50435F 		.ascii	"LPC_CCAN_API ((CCAN_API_T *) (LPC_ROM_API->candApiB"
 13440      4343414E 
 13440      5F415049 
 13440      20282843 
 13440      43414E5F 
 13441 2829 61736529 		.ascii	"ase))\000"
 13441      2900
 13442              	.LASF1263:
 13443 282f 43686970 		.ascii	"Chip_SSP_DeInit\000"
 13443      5F535350 
 13443      5F446549 
 13443      6E697400 
 13444              	.LASF645:
 13445 283f 53595343 		.ascii	"SYSCTL_DEEPSLP_BOD_PD (1 << 3)\000"
 13445      544C5F44 
 13445      45455053 
 13445      4C505F42 
 13445      4F445F50 
 13446              	.LASF568:
 13447 285e 53797354 		.ascii	"SysTick_CTRL_ENABLE_Pos 0\000"
 13447      69636B5F 
 13447      4354524C 
 13447      5F454E41 
 13447      424C455F 
 13448              	.LASF1212:
 13449 2878 43686970 		.ascii	"Chip_Clock_SetSSP0ClockDiv\000"
 13449      5F436C6F 
 13449      636B5F53 
 13449      65745353 
 13449      5030436C 
 13450              	.LASF446:
 13451 2893 494E544D 		.ascii	"INTMAX_MAX (__INTMAX_MAX__)\000"
 13451      41585F4D 
 13451      41582028 
 13451      5F5F494E 
 13451      544D4158 
 13452              	.LASF423:
 13453 28af 494E5433 		.ascii	"INT32_MAX (__INT32_MAX__)\000"
ARM GAS  /tmp/ccjsfSlY.s 			page 293


 13453      325F4D41 
 13453      5820285F 
 13453      5F494E54 
 13453      33325F4D 
 13454              	.LASF761:
 13455 28c9 55415254 		.ascii	"UART_LCR_WLEN_MASK (3 << 0)\000"
 13455      5F4C4352 
 13455      5F574C45 
 13455      4E5F4D41 
 13455      534B2028 
 13456              	.LASF661:
 13457 28e5 53595343 		.ascii	"SYSCTL_POWERDOWN_WDTOSC_PD (1 << 6)\000"
 13457      544C5F50 
 13457      4F574552 
 13457      444F574E 
 13457      5F574454 
 13458              	.LASF291:
 13459 2909 5F5F4441 		.ascii	"__DA_FBIT__ 31\000"
 13459      5F464249 
 13459      545F5F20 
 13459      333100
 13460              	.LASF689:
 13461 2918 4D445F50 		.ascii	"MD_PUP (0x2 << 3)\000"
 13461      55502028 
 13461      30783220 
 13461      3C3C2033 
 13461      2900
 13462              	.LASF972:
 13463 292a 4932435F 		.ascii	"I2C_RECV_END 0x10\000"
 13463      52454356 
 13463      5F454E44 
 13463      20307831 
 13463      3000
 13464              	.LASF552:
 13465 293c 5343425F 		.ascii	"SCB_SCR_SLEEPDEEP_Pos 2\000"
 13465      5343525F 
 13465      534C4545 
 13465      50444545 
 13465      505F506F 
 13466              	.LASF527:
 13467 2954 5343425F 		.ascii	"SCB_ICSR_PENDSVCLR_Msk (1UL << SCB_ICSR_PENDSVCLR_P"
 13467      49435352 
 13467      5F50454E 
 13467      44535643 
 13467      4C525F4D 
 13468 2987 6F732900 		.ascii	"os)\000"
 13469              	.LASF134:
 13470 298b 5F5F464C 		.ascii	"__FLT_DENORM_MIN__ 1.4012984643248171e-45F\000"
 13470      545F4445 
 13470      4E4F524D 
 13470      5F4D494E 
 13470      5F5F2031 
 13471              	.LASF390:
 13472 29b6 5F5F4C45 		.ascii	"__LEAST8 \"hh\"\000"
 13472      41535438 
 13472      20226868 
 13472      2200
ARM GAS  /tmp/ccjsfSlY.s 			page 294


 13473              	.LASF95:
 13474 29c4 5F5F494E 		.ascii	"__INT_LEAST16_MAX__ 32767\000"
 13474      545F4C45 
 13474      41535431 
 13474      365F4D41 
 13474      585F5F20 
 13475              	.LASF266:
 13476 29de 5F5F554C 		.ascii	"__ULLACCUM_EPSILON__ 0x1P-32ULLK\000"
 13476      4C414343 
 13476      554D5F45 
 13476      5053494C 
 13476      4F4E5F5F 
 13477              	.LASF816:
 13478 29ff 55415254 		.ascii	"UART_RS485CTRL_BITMASK (0x3F)\000"
 13478      5F525334 
 13478      38354354 
 13478      524C5F42 
 13478      49544D41 
 13479              	.LASF66:
 13480 2a1d 5F5F6861 		.ascii	"__has_include_next(STR) __has_include_next__(STR)\000"
 13480      735F696E 
 13480      636C7564 
 13480      655F6E65 
 13480      78742853 
 13481              	.LASF850:
 13482 2a4f 5353505F 		.ascii	"SSP_CR0_FRF_TI ((uint32_t) (1 << 4))\000"
 13482      4352305F 
 13482      4652465F 
 13482      54492028 
 13482      2875696E 
 13483              	.LASF421:
 13484 2a74 55494E54 		.ascii	"UINT_LEAST16_MAX (__UINT_LEAST16_MAX__)\000"
 13484      5F4C4541 
 13484      53543136 
 13484      5F4D4158 
 13484      20285F5F 
 13485              	.LASF106:
 13486 2a9c 5F5F5549 		.ascii	"__UINT32_C(c) c ## UL\000"
 13486      4E543332 
 13486      5F432863 
 13486      29206320 
 13486      23232055 
 13487              	.LASF518:
 13488 2ab2 5343425F 		.ascii	"SCB_CPUID_PARTNO_Pos 4\000"
 13488      43505549 
 13488      445F5041 
 13488      52544E4F 
 13488      5F506F73 
 13489              	.LASF523:
 13490 2ac9 5343425F 		.ascii	"SCB_ICSR_NMIPENDSET_Msk (1UL << SCB_ICSR_NMIPENDSET"
 13490      49435352 
 13490      5F4E4D49 
 13490      50454E44 
 13490      5345545F 
 13491 2afc 5F506F73 		.ascii	"_Pos)\000"
 13491      2900
 13492              	.LASF764:
ARM GAS  /tmp/ccjsfSlY.s 			page 295


 13493 2b02 55415254 		.ascii	"UART_LCR_WLEN7 (2 << 0)\000"
 13493      5F4C4352 
 13493      5F574C45 
 13493      4E372028 
 13493      32203C3C 
 13494              	.LASF478:
 13495 2b1a 5F534246 		.ascii	"_SBF\000"
 13495      00
 13496              	.LASF88:
 13497 2b1f 5F5F494E 		.ascii	"__INT64_MAX__ 9223372036854775807LL\000"
 13497      5436345F 
 13497      4D41585F 
 13497      5F203932 
 13497      32333337 
 13498              	.LASF133:
 13499 2b43 5F5F464C 		.ascii	"__FLT_EPSILON__ 1.1920928955078125e-7F\000"
 13499      545F4550 
 13499      53494C4F 
 13499      4E5F5F20 
 13499      312E3139 
 13500              	.LASF590:
 13501 2b6a 4C50435F 		.ascii	"LPC_I2C_BASE 0x40000000\000"
 13501      4932435F 
 13501      42415345 
 13501      20307834 
 13501      30303030 
 13502              	.LASF614:
 13503 2b82 4C50435F 		.ascii	"LPC_I2C ((LPC_I2C_T *) LPC_I2C_BASE)\000"
 13503      49324320 
 13503      28284C50 
 13503      435F4932 
 13503      435F5420 
 13504              	.LASF1165:
 13505 2ba7 43484950 		.ascii	"CHIP_SSP_CLOCK_FORMAT\000"
 13505      5F535350 
 13505      5F434C4F 
 13505      434B5F46 
 13505      4F524D41 
 13506              	.LASF31:
 13507 2bbd 5F5F5054 		.ascii	"__PTRDIFF_TYPE__ int\000"
 13507      52444946 
 13507      465F5459 
 13507      50455F5F 
 13507      20696E74 
 13508              	.LASF560:
 13509 2bd2 5343425F 		.ascii	"SCB_SHCSR_SVCALLPENDED_Pos 15\000"
 13509      53484353 
 13509      525F5356 
 13509      43414C4C 
 13509      50454E44 
 13510              	.LASF1000:
 13511 2bf0 53444F5F 		.ascii	"SDO_ABORT_PARAINCOMP 0x06040043UL\000"
 13511      41424F52 
 13511      545F5041 
 13511      5241494E 
 13511      434F4D50 
 13512              	.LASF562:
ARM GAS  /tmp/ccjsfSlY.s 			page 296


 13513 2c12 53797354 		.ascii	"SysTick_CTRL_COUNTFLAG_Pos 16\000"
 13513      69636B5F 
 13513      4354524C 
 13513      5F434F55 
 13513      4E54464C 
 13514              	.LASF400:
 13515 2c30 5F5F696E 		.ascii	"__int_least16_t_defined 1\000"
 13515      745F6C65 
 13515      61737431 
 13515      365F745F 
 13515      64656669 
 13516              	.LASF246:
 13517 2c4a 5F5F5541 		.ascii	"__UACCUM_EPSILON__ 0x1P-16UK\000"
 13517      4343554D 
 13517      5F455053 
 13517      494C4F4E 
 13517      5F5F2030 
 13518              	.LASF334:
 13519 2c67 5F5F5646 		.ascii	"__VFP_FP__ 1\000"
 13519      505F4650 
 13519      5F5F2031 
 13519      00
 13520              	.LASF426:
 13521 2c74 494E545F 		.ascii	"INT_LEAST32_MAX (__INT_LEAST32_MAX__)\000"
 13521      4C454153 
 13521      5433325F 
 13521      4D415820 
 13521      285F5F49 
 13522              	.LASF1230:
 13523 2c9a 43686970 		.ascii	"Chip_SSP_GetClockIndex\000"
 13523      5F535350 
 13523      5F476574 
 13523      436C6F63 
 13523      6B496E64 
 13524              	.LASF312:
 13525 2cb1 5F5F4743 		.ascii	"__GCC_ATOMIC_SHORT_LOCK_FREE 1\000"
 13525      435F4154 
 13525      4F4D4943 
 13525      5F53484F 
 13525      52545F4C 
 13526              	.LASF472:
 13527 2cd0 66616C73 		.ascii	"false 0\000"
 13527      65203000 
 13528              	.LASF892:
 13529 2cd8 4144435F 		.ascii	"ADC_CR_START_ADCTRIG0 ((4UL << 24))\000"
 13529      43525F53 
 13529      54415254 
 13529      5F414443 
 13529      54524947 
 13530              	.LASF716:
 13531 2cfc 54494D45 		.ascii	"TIMER_RESET_ON_MATCH(n) (_BIT((((n) * 3) + 1)))\000"
 13531      525F5245 
 13531      5345545F 
 13531      4F4E5F4D 
 13531      41544348 
 13532              	.LASF847:
 13533 2d2c 5F5F5353 		.ascii	"__SSP_11XX_H_ \000"
ARM GAS  /tmp/ccjsfSlY.s 			page 297


 13533      505F3131 
 13533      58585F48 
 13533      5F2000
 13534              	.LASF270:
 13535 2d3b 5F5F4851 		.ascii	"__HQ_IBIT__ 0\000"
 13535      5F494249 
 13535      545F5F20 
 13535      3000
 13536              	.LASF501:
 13537 2d49 5F5F434F 		.ascii	"__CORTEX_M (0x00)\000"
 13537      52544558 
 13537      5F4D2028 
 13537      30783030 
 13537      2900
 13538              	.LASF232:
 13539 2d5b 5F5F5553 		.ascii	"__USACCUM_FBIT__ 8\000"
 13539      41434355 
 13539      4D5F4642 
 13539      49545F5F 
 13539      203800
 13540              	.LASF316:
 13541 2d6e 5F5F4743 		.ascii	"__GCC_ATOMIC_TEST_AND_SET_TRUEVAL 1\000"
 13541      435F4154 
 13541      4F4D4943 
 13541      5F544553 
 13541      545F414E 
 13542              	.LASF932:
 13543 2d92 4932435F 		.ascii	"I2C_I2STAT_M_RX_ARB_LOST ((0x38))\000"
 13543      49325354 
 13543      41545F4D 
 13543      5F52585F 
 13543      4152425F 
 13544              	.LASF537:
 13545 2db4 5343425F 		.ascii	"SCB_ICSR_VECTPENDING_Msk (0x1FFUL << SCB_ICSR_VECTP"
 13545      49435352 
 13545      5F564543 
 13545      5450454E 
 13545      44494E47 
 13546 2de7 454E4449 		.ascii	"ENDING_Pos)\000"
 13546      4E475F50 
 13546      6F732900 
 13547              	.LASF1166:
 13548 2df3 5353505F 		.ascii	"SSP_CLOCK_CPHA0_CPOL0\000"
 13548      434C4F43 
 13548      4B5F4350 
 13548      4841305F 
 13548      43504F4C 
 13549              	.LASF1167:
 13550 2e09 5353505F 		.ascii	"SSP_CLOCK_CPHA0_CPOL1\000"
 13550      434C4F43 
 13550      4B5F4350 
 13550      4841305F 
 13550      43504F4C 
 13551              	.LASF247:
 13552 2e1f 5F5F4C41 		.ascii	"__LACCUM_FBIT__ 31\000"
 13552      4343554D 
 13552      5F464249 
ARM GAS  /tmp/ccjsfSlY.s 			page 298


 13552      545F5F20 
 13552      333100
 13553              	.LASF665:
 13554 2e32 5F5F494F 		.ascii	"__IOCON_11XX_H_ \000"
 13554      434F4E5F 
 13554      31315858 
 13554      5F485F20 
 13554      00
 13555              	.LASF1176:
 13556 2e43 43484950 		.ascii	"CHIP_SSP_FRAME_FORMAT_TI\000"
 13556      5F535350 
 13556      5F465241 
 13556      4D455F46 
 13556      4F524D41 
 13557              	.LASF957:
 13558 2e5c 4932435F 		.ascii	"I2C_I2MMCTRL_BITMASK ((0x07))\000"
 13558      49324D4D 
 13558      4354524C 
 13558      5F424954 
 13558      4D41534B 
 13559              	.LASF712:
 13560 2e7a 54494D45 		.ascii	"TIMER_CAP_INT(n) (_BIT((((n) & 0x0F) + 4)))\000"
 13560      525F4341 
 13560      505F494E 
 13560      54286E29 
 13560      20285F42 
 13561              	.LASF1170:
 13562 2ea6 5353505F 		.ascii	"SSP_CLOCK_MODE0\000"
 13562      434C4F43 
 13562      4B5F4D4F 
 13562      44453000 
 13563              	.LASF1171:
 13564 2eb6 5353505F 		.ascii	"SSP_CLOCK_MODE1\000"
 13564      434C4F43 
 13564      4B5F4D4F 
 13564      44453100 
 13565              	.LASF1047:
 13566 2ec6 53595350 		.ascii	"SYSPLLCTRL\000"
 13566      4C4C4354 
 13566      524C00
 13567              	.LASF1173:
 13568 2ed1 5353505F 		.ascii	"SSP_CLOCK_MODE3\000"
 13568      434C4F43 
 13568      4B5F4D4F 
 13568      44453300 
 13569              	.LASF293:
 13570 2ee1 5F5F5441 		.ascii	"__TA_FBIT__ 63\000"
 13570      5F464249 
 13570      545F5F20 
 13570      363300
 13571              	.LASF733:
 13572 2ef0 55415254 		.ascii	"UART_IER_MSINT (1 << 3)\000"
 13572      5F494552 
 13572      5F4D5349 
 13572      4E542028 
 13572      31203C3C 
 13573              	.LASF937:
ARM GAS  /tmp/ccjsfSlY.s 			page 299


 13574 2f08 4932435F 		.ascii	"I2C_I2STAT_S_RX_SLAW_ACK ((0x60))\000"
 13574      49325354 
 13574      41545F53 
 13574      5F52585F 
 13574      534C4157 
 13575              	.LASF407:
 13576 2f2a 494E5450 		.ascii	"INTPTR_MIN (-__INTPTR_MAX__ - 1)\000"
 13576      54525F4D 
 13576      494E2028 
 13576      2D5F5F49 
 13576      4E545054 
 13577              	.LASF1045:
 13578 2f4b 5359534D 		.ascii	"SYSMEMREMAP\000"
 13578      454D5245 
 13578      4D415000 
 13579              	.LASF1119:
 13580 2f57 52455345 		.ascii	"RESET_DAC0\000"
 13580      545F4441 
 13580      433000
 13581              	.LASF339:
 13582 2f62 5F5F4152 		.ascii	"__ARM_PCS 1\000"
 13582      4D5F5043 
 13582      53203100 
 13583              	.LASF470:
 13584 2f6e 626F6F6C 		.ascii	"bool _Bool\000"
 13584      205F426F 
 13584      6F6C00
 13585              	.LASF907:
 13586 2f79 4932435F 		.ascii	"I2C_I2CONSET_STA ((0x20))\000"
 13586      4932434F 
 13586      4E534554 
 13586      5F535441 
 13586      20282830 
 13587              	.LASF986:
 13588 2f93 43414E5F 		.ascii	"CAN_ERROR_BIT1 0x00000040UL\000"
 13588      4552524F 
 13588      525F4249 
 13588      54312030 
 13588      78303030 
 13589              	.LASF641:
 13590 2faf 53595343 		.ascii	"SYSCTL_RST_WDT (1 << 2)\000"
 13590      544C5F52 
 13590      53545F57 
 13590      44542028 
 13590      31203C3C 
 13591              	.LASF604:
 13592 2fc7 4C50435F 		.ascii	"LPC_SYSCTL_BASE 0x40048000\000"
 13592      53595343 
 13592      544C5F42 
 13592      41534520 
 13592      30783430 
 13593              	.LASF84:
 13594 2fe2 5F5F5349 		.ascii	"__SIG_ATOMIC_MIN__ (-__SIG_ATOMIC_MAX__ - 1)\000"
 13594      475F4154 
 13594      4F4D4943 
 13594      5F4D494E 
 13594      5F5F2028 
ARM GAS  /tmp/ccjsfSlY.s 			page 300


 13595              	.LASF244:
 13596 300f 5F5F5541 		.ascii	"__UACCUM_MIN__ 0.0UK\000"
 13596      4343554D 
 13596      5F4D494E 
 13596      5F5F2030 
 13596      2E30554B 
 13597              	.LASF524:
 13598 3024 5343425F 		.ascii	"SCB_ICSR_PENDSVSET_Pos 28\000"
 13598      49435352 
 13598      5F50454E 
 13598      44535653 
 13598      45545F50 
 13599              	.LASF1245:
 13600 303e 62756666 		.ascii	"buffer\000"
 13600      657200
 13601              	.LASF546:
 13602 3045 5343425F 		.ascii	"SCB_AIRCR_SYSRESETREQ_Pos 2\000"
 13602      41495243 
 13602      525F5359 
 13602      53524553 
 13602      45545245 
 13603              	.LASF510:
 13604 3061 5F5F4F20 		.ascii	"__O volatile\000"
 13604      766F6C61 
 13604      74696C65 
 13604      00
 13605              	.LASF625:
 13606 306e 4C50435F 		.ascii	"LPC_IOCON ((LPC_IOCON_T *) LPC_IOCON_BASE)\000"
 13606      494F434F 
 13606      4E202828 
 13606      4C50435F 
 13606      494F434F 
 13607              	.LASF450:
 13608 3099 5349475F 		.ascii	"SIG_ATOMIC_MIN (-__STDINT_EXP(INT_MAX) - 1)\000"
 13608      41544F4D 
 13608      49435F4D 
 13608      494E2028 
 13608      2D5F5F53 
 13609              	.LASF927:
 13610 30c5 4932435F 		.ascii	"I2C_I2STAT_M_TX_DAT_ACK ((0x28))\000"
 13610      49325354 
 13610      41545F4D 
 13610      5F54585F 
 13610      4441545F 
 13611              	.LASF1206:
 13612 30e6 5353505F 		.ascii	"SSP_Write2BFifo\000"
 13612      57726974 
 13612      65324246 
 13612      69666F00 
 13613              	.LASF1074:
 13614 30f6 55534243 		.ascii	"USBCLKUEN\000"
 13614      4C4B5545 
 13614      4E00
 13615              	.LASF951:
 13616 3100 4932435F 		.ascii	"I2C_SLAVE_TIME_OUT 0x10000000UL\000"
 13616      534C4156 
 13616      455F5449 
ARM GAS  /tmp/ccjsfSlY.s 			page 301


 13616      4D455F4F 
 13616      55542030 
 13617              	.LASF804:
 13618 3120 55415254 		.ascii	"UART_ACR_START (1 << 0)\000"
 13618      5F414352 
 13618      5F535441 
 13618      52542028 
 13618      31203C3C 
 13619              	.LASF346:
 13620 3138 44454255 		.ascii	"DEBUG_ENABLE 1\000"
 13620      475F454E 
 13620      41424C45 
 13620      203100
 13621              	.LASF825:
 13622 3147 55415254 		.ascii	"UART_SCICTRL_PROTSEL_T1 (1 << 2)\000"
 13622      5F534349 
 13622      4354524C 
 13622      5F50524F 
 13622      5453454C 
 13623              	.LASF402:
 13624 3168 5F5F696E 		.ascii	"__int_least64_t_defined 1\000"
 13624      745F6C65 
 13624      61737436 
 13624      345F745F 
 13624      64656669 
 13625              	.LASF1254:
 13626 3182 43686970 		.ascii	"Chip_SSP_Int_FlushData\000"
 13626      5F535350 
 13626      5F496E74 
 13626      5F466C75 
 13626      73684461 
 13627              	.LASF724:
 13628 3199 52425F56 		.ascii	"RB_VTAIL(rb) ((volatile uint32_t)(rb->tail))\000"
 13628      5441494C 
 13628      28726229 
 13628      20282876 
 13628      6F6C6174 
 13629              	.LASF939:
 13630 31c6 4932435F 		.ascii	"I2C_I2STAT_S_RX_GENCALL_ACK ((0x70))\000"
 13630      49325354 
 13630      41545F53 
 13630      5F52585F 
 13630      47454E43 
 13631              	.LASF827:
 13632 31eb 55415254 		.ascii	"UART_SCICTRL_GUARDTIME(n) ((n & 0xFF) << 8)\000"
 13632      5F534349 
 13632      4354524C 
 13632      5F475541 
 13632      52445449 
 13633              	.LASF1093:
 13634 3217 55534243 		.ascii	"USBCLKCTRL\000"
 13634      4C4B4354 
 13634      524C00
 13635              	.LASF179:
 13636 3222 5F5F4445 		.ascii	"__DEC64_SUBNORMAL_MIN__ 0.000000000000001E-383DD\000"
 13636      4336345F 
 13636      5355424E 
ARM GAS  /tmp/ccjsfSlY.s 			page 302


 13636      4F524D41 
 13636      4C5F4D49 
 13637              	.LASF196:
 13638 3253 5F5F5553 		.ascii	"__USFRACT_EPSILON__ 0x1P-8UHR\000"
 13638      46524143 
 13638      545F4550 
 13638      53494C4F 
 13638      4E5F5F20 
 13639              	.LASF690:
 13640 3271 4D445F42 		.ascii	"MD_BUK (0x3 << 3)\000"
 13640      554B2028 
 13640      30783320 
 13640      3C3C2033 
 13640      2900
 13641              	.LASF757:
 13642 3283 55415254 		.ascii	"UART_FCR_TRG_LEV0 (0)\000"
 13642      5F464352 
 13642      5F545247 
 13642      5F4C4556 
 13642      30202830 
 13643              	.LASF480:
 13644 3299 5F424954 		.ascii	"_BITMASK\000"
 13644      4D41534B 
 13644      00
 13645              	.LASF112:
 13646 32a2 5F5F494E 		.ascii	"__INT_FAST64_MAX__ 9223372036854775807LL\000"
 13646      545F4641 
 13646      53543634 
 13646      5F4D4158 
 13646      5F5F2039 
 13647              	.LASF624:
 13648 32cb 4C50435F 		.ascii	"LPC_SSP0 ((LPC_SSP_T *) LPC_SSP0_BASE)\000"
 13648      53535030 
 13648      2028284C 
 13648      50435F53 
 13648      53505F54 
 13649              	.LASF1262:
 13650 32f2 43686970 		.ascii	"Chip_SSP_Init\000"
 13650      5F535350 
 13650      5F496E69 
 13650      7400
 13651              	.LASF260:
 13652 3300 5F5F4C4C 		.ascii	"__LLACCUM_MAX__ 0X7FFFFFFFFFFFFFFFP-31LLK\000"
 13652      41434355 
 13652      4D5F4D41 
 13652      585F5F20 
 13652      30583746 
 13653              	.LASF741:
 13654 332a 55415254 		.ascii	"UART_IIR_FIFO_EN (3 << 6)\000"
 13654      5F494952 
 13654      5F464946 
 13654      4F5F454E 
 13654      20283320 
 13655              	.LASF707:
 13656 3344 46554E43 		.ascii	"FUNC6 0x6\000"
 13656      36203078 
 13656      3600
ARM GAS  /tmp/ccjsfSlY.s 			page 303


 13657              	.LASF1246:
 13658 334e 62756666 		.ascii	"buffer_len\000"
 13658      65725F6C 
 13658      656E00
 13659              	.LASF401:
 13660 3359 5F5F696E 		.ascii	"__int_least32_t_defined 1\000"
 13660      745F6C65 
 13660      61737433 
 13660      325F745F 
 13660      64656669 
 13661              	.LASF304:
 13662 3373 5F5F5553 		.ascii	"__USER_LABEL_PREFIX__ \000"
 13662      45525F4C 
 13662      4142454C 
 13662      5F505245 
 13662      4649585F 
 13663              	.LASF869:
 13664 338a 5353505F 		.ascii	"SSP_CPHA_SECOND SSP_CR0_CPHA_SECOND\000"
 13664      43504841 
 13664      5F534543 
 13664      4F4E4420 
 13664      5353505F 
 13665              	.LASF611:
 13666 33ae 4C50435F 		.ascii	"LPC_GPIO_PORT3_BASE 0x50030000\000"
 13666      4750494F 
 13666      5F504F52 
 13666      54335F42 
 13666      41534520 
 13667              	.LASF952:
 13668 33cd 4932435F 		.ascii	"I2C_I2DAT_BITMASK ((0xFF))\000"
 13668      49324441 
 13668      545F4249 
 13668      544D4153 
 13668      4B202828 
 13669              	.LASF765:
 13670 33e8 55415254 		.ascii	"UART_LCR_WLEN8 (3 << 0)\000"
 13670      5F4C4352 
 13670      5F574C45 
 13670      4E382028 
 13670      33203C3C 
 13671              	.LASF1126:
 13672 3400 53595343 		.ascii	"SYSCTL_CLOCK_FLASHARRAY\000"
 13672      544C5F43 
 13672      4C4F434B 
 13672      5F464C41 
 13672      53484152 
 13673              	.LASF464:
 13674 3418 494E5436 		.ascii	"INT64_C(x) __INT64_C(x)\000"
 13674      345F4328 
 13674      7829205F 
 13674      5F494E54 
 13674      36345F43 
 13675              	.LASF410:
 13676 3430 494E5438 		.ascii	"INT8_MIN (-__INT8_MAX__ - 1)\000"
 13676      5F4D494E 
 13676      20282D5F 
 13676      5F494E54 
ARM GAS  /tmp/ccjsfSlY.s 			page 304


 13676      385F4D41 
 13677              	.LASF845:
 13678 344d 57574454 		.ascii	"WWDT_WDMOD_WDINT ((uint32_t) (1 << 3))\000"
 13678      5F57444D 
 13678      4F445F57 
 13678      44494E54 
 13678      20282875 
 13679              	.LASF878:
 13680 3474 4144435F 		.ascii	"ADC_MAX_SAMPLE_RATE 400000\000"
 13680      4D41585F 
 13680      53414D50 
 13680      4C455F52 
 13680      41544520 
 13681              	.LASF1128:
 13682 348f 53595343 		.ascii	"SYSCTL_CLOCK_GPIO\000"
 13682      544C5F43 
 13682      4C4F434B 
 13682      5F475049 
 13682      4F00
 13683              	.LASF1090:
 13684 34a1 4952514C 		.ascii	"IRQLATENCY\000"
 13684      4154454E 
 13684      435900
 13685              	.LASF8:
 13686 34ac 5F5F4154 		.ascii	"__ATOMIC_ACQUIRE 2\000"
 13686      4F4D4943 
 13686      5F414351 
 13686      55495245 
 13686      203200
 13687              	.LASF1253:
 13688 34bf 43686970 		.ascii	"Chip_SSP_Int_RWFrames16Bits\000"
 13688      5F535350 
 13688      5F496E74 
 13688      5F525746 
 13688      72616D65 
 13689              	.LASF1242:
 13690 34db 43686970 		.ascii	"Chip_Clock_DisablePeriphClock\000"
 13690      5F436C6F 
 13690      636B5F44 
 13690      69736162 
 13690      6C655065 
 13691              	.LASF634:
 13692 34f9 504D555F 		.ascii	"PMU_PCON_PM_DEEPPOWERDOWN (0x2)\000"
 13692      50434F4E 
 13692      5F504D5F 
 13692      44454550 
 13692      504F5745 
 13693              	.LASF861:
 13694 3519 5353505F 		.ascii	"SSP_CR1_MASTER_EN ((uint32_t) (0))\000"
 13694      4352315F 
 13694      4D415354 
 13694      45525F45 
 13694      4E202828 
 13695              	.LASF1050:
 13696 353c 55534250 		.ascii	"USBPLLSTAT\000"
 13696      4C4C5354 
 13696      415400
ARM GAS  /tmp/ccjsfSlY.s 			page 305


 13697              	.LASF324:
 13698 3547 5F5F4152 		.ascii	"__ARM_SIZEOF_WCHAR_T 4\000"
 13698      4D5F5349 
 13698      5A454F46 
 13698      5F574348 
 13698      41525F54 
 13699              	.LASF418:
 13700 355e 55494E54 		.ascii	"UINT16_MAX (__UINT16_MAX__)\000"
 13700      31365F4D 
 13700      41582028 
 13700      5F5F5549 
 13700      4E543136 
 13701              	.LASF65:
 13702 357a 5F5F6861 		.ascii	"__has_include(STR) __has_include__(STR)\000"
 13702      735F696E 
 13702      636C7564 
 13702      65285354 
 13702      5229205F 
 13703              	.LASF1003:
 13704 35a2 53444F5F 		.ascii	"SDO_ABORT_UNKNOWNSUB 0x06090011UL\000"
 13704      41424F52 
 13704      545F554E 
 13704      4B4E4F57 
 13704      4E535542 
 13705              	.LASF856:
 13706 35c4 5353505F 		.ascii	"SSP_CR0_SCR(n) ((uint32_t) ((n & 0xFF) << 8))\000"
 13706      4352305F 
 13706      53435228 
 13706      6E292028 
 13706      2875696E 
 13707              	.LASF1267:
 13708 35f2 43686970 		.ascii	"Chip_SSP_SetClockRate\000"
 13708      5F535350 
 13708      5F536574 
 13708      436C6F63 
 13708      6B526174 
 13709              	.LASF753:
 13710 3608 55415254 		.ascii	"UART_FCR_TX_RS (1 << 2)\000"
 13710      5F464352 
 13710      5F54585F 
 13710      52532028 
 13710      31203C3C 
 13711              	.LASF1218:
 13712 3620 43686970 		.ascii	"Chip_SSP_GetDataSize\000"
 13712      5F535350 
 13712      5F476574 
 13712      44617461 
 13712      53697A65 
 13713              	.LASF147:
 13714 3635 5F5F4442 		.ascii	"__DBL_EPSILON__ ((double)2.2204460492503131e-16L)\000"
 13714      4C5F4550 
 13714      53494C4F 
 13714      4E5F5F20 
 13714      2828646F 
 13715              	.LASF1259:
 13716 3667 7373705F 		.ascii	"ssp_clk\000"
 13716      636C6B00 
ARM GAS  /tmp/ccjsfSlY.s 			page 306


 13717              	.LASF136:
 13718 366f 5F5F464C 		.ascii	"__FLT_HAS_INFINITY__ 1\000"
 13718      545F4841 
 13718      535F494E 
 13718      46494E49 
 13718      54595F5F 
 13719              	.LASF1115:
 13720 3686 52455345 		.ascii	"RESET_TIMER1_16\000"
 13720      545F5449 
 13720      4D455231 
 13720      5F313600 
 13721              	.LASF240:
 13722 3696 5F5F4143 		.ascii	"__ACCUM_MAX__ 0X7FFFFFFFP-15K\000"
 13722      43554D5F 
 13722      4D41585F 
 13722      5F203058 
 13722      37464646 
 13723              	.LASF535:
 13724 36b4 5343425F 		.ascii	"SCB_ICSR_ISRPENDING_Msk (1UL << SCB_ICSR_ISRPENDING"
 13724      49435352 
 13724      5F495352 
 13724      50454E44 
 13724      494E475F 
 13725 36e7 5F506F73 		.ascii	"_Pos)\000"
 13725      2900
 13726              	.LASF155:
 13727 36ed 5F5F4C44 		.ascii	"__LDBL_MIN_10_EXP__ (-307)\000"
 13727      424C5F4D 
 13727      494E5F31 
 13727      305F4558 
 13727      505F5F20 
 13728              	.LASF1214:
 13729 3708 43686970 		.ascii	"Chip_Clock_GetSSP0ClockDiv\000"
 13729      5F436C6F 
 13729      636B5F47 
 13729      65745353 
 13729      5030436C 
 13730              	.LASF617:
 13731 3723 4C50435F 		.ascii	"LPC_TIMER16_0 ((LPC_TIMER_T *) LPC_TIMER16_0_BASE)\000"
 13731      54494D45 
 13731      5231365F 
 13731      30202828 
 13731      4C50435F 
 13732              	.LASF318:
 13733 3756 5F5F4743 		.ascii	"__GCC_HAVE_DWARF2_CFI_ASM 1\000"
 13733      435F4841 
 13733      56455F44 
 13733      57415246 
 13733      325F4346 
 13734              	.LASF357:
 13735 3772 5F5F5F69 		.ascii	"___int8_t_defined 1\000"
 13735      6E74385F 
 13735      745F6465 
 13735      66696E65 
 13735      64203100 
 13736              	.LASF189:
 13737 3786 5F5F5346 		.ascii	"__SFRACT_MIN__ (-0.5HR-0.5HR)\000"
ARM GAS  /tmp/ccjsfSlY.s 			page 307


 13737      52414354 
 13737      5F4D494E 
 13737      5F5F2028 
 13737      2D302E35 
 13738              	.LASF1031:
 13739 37a4 6C6F6E67 		.ascii	"long unsigned int\000"
 13739      20756E73 
 13739      69676E65 
 13739      6420696E 
 13739      7400
 13740              	.LASF290:
 13741 37b6 5F5F5341 		.ascii	"__SA_IBIT__ 16\000"
 13741      5F494249 
 13741      545F5F20 
 13741      313600
 13742              	.LASF60:
 13743 37c5 5F5F5549 		.ascii	"__UINT_FAST16_TYPE__ unsigned int\000"
 13743      4E545F46 
 13743      41535431 
 13743      365F5459 
 13743      50455F5F 
 13744              	.LASF370:
 13745 37e7 7369676E 		.ascii	"signed\000"
 13745      656400
 13746              	.LASF2:
 13747 37ee 5F5F474E 		.ascii	"__GNUC__ 4\000"
 13747      55435F5F 
 13747      203400
 13748              	.LASF866:
 13749 37f9 5353505F 		.ascii	"SSP_SR_BITMASK ((uint32_t) (0x1F))\000"
 13749      53525F42 
 13749      49544D41 
 13749      534B2028 
 13749      2875696E 
 13750              	.LASF711:
 13751 381c 54494D45 		.ascii	"TIMER_MATCH_INT(n) (_BIT((n) & 0x0F))\000"
 13751      525F4D41 
 13751      5443485F 
 13751      494E5428 
 13751      6E292028 
 13752              	.LASF44:
 13753 3842 5F5F5549 		.ascii	"__UINT16_TYPE__ short unsigned int\000"
 13753      4E543136 
 13753      5F545950 
 13753      455F5F20 
 13753      73686F72 
 13754              	.LASF64:
 13755 3865 5F5F5549 		.ascii	"__UINTPTR_TYPE__ unsigned int\000"
 13755      4E545054 
 13755      525F5459 
 13755      50455F5F 
 13755      20756E73 
 13756              	.LASF333:
 13757 3883 5F5F534F 		.ascii	"__SOFTFP__ 1\000"
 13757      46544650 
 13757      5F5F2031 
 13757      00
ARM GAS  /tmp/ccjsfSlY.s 			page 308


 13758              	.LASF397:
 13759 3890 5F5F696E 		.ascii	"__int32_t_defined 1\000"
 13759      7433325F 
 13759      745F6465 
 13759      66696E65 
 13759      64203100 
 13760              	.LASF449:
 13761 38a4 53495A45 		.ascii	"SIZE_MAX (__SIZE_MAX__)\000"
 13761      5F4D4158 
 13761      20285F5F 
 13761      53495A45 
 13761      5F4D4158 
 13762              	.LASF168:
 13763 38bc 5F5F4445 		.ascii	"__DEC32_MAX_EXP__ 97\000"
 13763      4333325F 
 13763      4D41585F 
 13763      4558505F 
 13763      5F203937 
 13764              	.LASF578:
 13765 38d1 53797354 		.ascii	"SysTick_CALIB_TENMS_Pos 0\000"
 13765      69636B5F 
 13765      43414C49 
 13765      425F5445 
 13765      4E4D535F 
 13766              	.LASF834:
 13767 38eb 55415254 		.ascii	"UART_SYNCCTRL_CSRC_MASTER (1 << 1)\000"
 13767      5F53594E 
 13767      43435452 
 13767      4C5F4353 
 13767      52435F4D 
 13768              	.LASF1208:
 13769 390e 5353505F 		.ascii	"SSP_Write1BFifo\000"
 13769      57726974 
 13769      65314246 
 13769      69666F00 
 13770              	.LASF649:
 13771 391e 53595343 		.ascii	"SYSCTL_SLPWAKE_FLASH_PD (1 << 2)\000"
 13771      544C5F53 
 13771      4C505741 
 13771      4B455F46 
 13771      4C415348 
 13772              	.LASF379:
 13773 393f 696E7420 		.ascii	"int +2\000"
 13773      2B3200
 13774              	.LASF742:
 13775 3946 55415254 		.ascii	"UART_IIR_ABEO_INT (1 << 8)\000"
 13775      5F494952 
 13775      5F414245 
 13775      4F5F494E 
 13775      54202831 
 13776              	.LASF1152:
 13777 3961 5353505F 		.ascii	"SSP_STATUS_T\000"
 13777      53544154 
 13777      55535F54 
 13777      00
 13778              	.LASF458:
 13779 396e 494E5438 		.ascii	"INT8_C(x) __INT8_C(x)\000"
ARM GAS  /tmp/ccjsfSlY.s 			page 309


 13779      5F432878 
 13779      29205F5F 
 13779      494E5438 
 13779      5F432878 
 13780              	.LASF59:
 13781 3984 5F5F5549 		.ascii	"__UINT_FAST8_TYPE__ unsigned int\000"
 13781      4E545F46 
 13781      41535438 
 13781      5F545950 
 13781      455F5F20 
 13782              	.LASF258:
 13783 39a5 5F5F4C4C 		.ascii	"__LLACCUM_IBIT__ 32\000"
 13783      41434355 
 13783      4D5F4942 
 13783      49545F5F 
 13783      20333200 
 13784              	.LASF547:
 13785 39b9 5343425F 		.ascii	"SCB_AIRCR_SYSRESETREQ_Msk (1UL << SCB_AIRCR_SYSRESE"
 13785      41495243 
 13785      525F5359 
 13785      53524553 
 13785      45545245 
 13786 39ec 54524551 		.ascii	"TREQ_Pos)\000"
 13786      5F506F73 
 13786      2900
 13787              	.LASF201:
 13788 39f6 5F5F4652 		.ascii	"__FRACT_EPSILON__ 0x1P-15R\000"
 13788      4143545F 
 13788      45505349 
 13788      4C4F4E5F 
 13788      5F203078 
 13789              	.LASF485:
 13790 3a11 45585445 		.ascii	"EXTERN extern\000"
 13790      524E2065 
 13790      78746572 
 13790      6E00
 13791              	.LASF533:
 13792 3a1f 5343425F 		.ascii	"SCB_ICSR_ISRPREEMPT_Msk (1UL << SCB_ICSR_ISRPREEMPT"
 13792      49435352 
 13792      5F495352 
 13792      50524545 
 13792      4D50545F 
 13793 3a52 5F506F73 		.ascii	"_Pos)\000"
 13793      2900
 13794              	.LASF779:
 13795 3a58 55415254 		.ascii	"UART_MCR_RTS_CTRL (1 << 1)\000"
 13795      5F4D4352 
 13795      5F525453 
 13795      5F435452 
 13795      4C202831 
 13796              	.LASF970:
 13797 3a73 4932435F 		.ascii	"I2C_LAST_BYTE_RECV 0x04\000"
 13797      4C415354 
 13797      5F425954 
 13797      455F5245 
 13797      43562030 
 13798              	.LASF341:
ARM GAS  /tmp/ccjsfSlY.s 			page 310


 13799 3a8b 5F5F4758 		.ascii	"__GXX_TYPEINFO_EQUALITY_INLINE 0\000"
 13799      585F5459 
 13799      5045494E 
 13799      464F5F45 
 13799      5155414C 
 13800              	.LASF494:
 13801 3aac 5F5F4D50 		.ascii	"__MPU_PRESENT 0\000"
 13801      555F5052 
 13801      4553454E 
 13801      54203000 
 13802              	.LASF38:
 13803 3abc 5F5F5349 		.ascii	"__SIG_ATOMIC_TYPE__ int\000"
 13803      475F4154 
 13803      4F4D4943 
 13803      5F545950 
 13803      455F5F20 
 13804              	.LASF1120:
 13805 3ad4 52455345 		.ascii	"RESET_ADC0\000"
 13805      545F4144 
 13805      433000
 13806              	.LASF394:
 13807 3adf 5F535953 		.ascii	"_SYS__STDINT_H \000"
 13807      5F5F5354 
 13807      44494E54 
 13807      5F482000 
 13808              	.LASF992:
 13809 3aef 43414E5F 		.ascii	"CAN_MSGOBJ_RTR 0x40000000UL\000"
 13809      4D53474F 
 13809      424A5F52 
 13809      54522030 
 13809      78343030 
 13810              	.LASF541:
 13811 3b0b 5343425F 		.ascii	"SCB_AIRCR_VECTKEY_Msk (0xFFFFUL << SCB_AIRCR_VECTKE"
 13811      41495243 
 13811      525F5645 
 13811      43544B45 
 13811      595F4D73 
 13812 3b3e 595F506F 		.ascii	"Y_Pos)\000"
 13812      732900
 13813              	.LASF70:
 13814 3b45 5F5F494E 		.ascii	"__INT_MAX__ 2147483647\000"
 13814      545F4D41 
 13814      585F5F20 
 13814      32313437 
 13814      34383336 
 13815              	.LASF54:
 13816 3b5c 5F5F5549 		.ascii	"__UINT_LEAST64_TYPE__ long long unsigned int\000"
 13816      4E545F4C 
 13816      45415354 
 13816      36345F54 
 13816      5950455F 
 13817              	.LASF185:
 13818 3b89 5F5F4445 		.ascii	"__DEC128_EPSILON__ 1E-33DL\000"
 13818      43313238 
 13818      5F455053 
 13818      494C4F4E 
 13818      5F5F2031 
ARM GAS  /tmp/ccjsfSlY.s 			page 311


 13819              	.LASF748:
 13820 3ba4 55415254 		.ascii	"UART_IIR_INTID_CTI (6 << 1)\000"
 13820      5F494952 
 13820      5F494E54 
 13820      49445F43 
 13820      54492028 
 13821              	.LASF192:
 13822 3bc0 5F5F5553 		.ascii	"__USFRACT_FBIT__ 8\000"
 13822      46524143 
 13822      545F4642 
 13822      49545F5F 
 13822      203800
 13823              	.LASF87:
 13824 3bd3 5F5F494E 		.ascii	"__INT32_MAX__ 2147483647L\000"
 13824      5433325F 
 13824      4D41585F 
 13824      5F203231 
 13824      34373438 
 13825              	.LASF1013:
 13826 3bed 4F445F53 		.ascii	"OD_SEG_WO 0x50\000"
 13826      45475F57 
 13826      4F203078 
 13826      353000
 13827              	.LASF1150:
 13828 3bfc 5353505F 		.ascii	"SSP_STAT_RFF\000"
 13828      53544154 
 13828      5F524646 
 13828      00
 13829              	.LASF309:
 13830 3c09 5F5F4743 		.ascii	"__GCC_ATOMIC_CHAR16_T_LOCK_FREE 1\000"
 13830      435F4154 
 13830      4F4D4943 
 13830      5F434841 
 13830      5231365F 
 13831              	.LASF389:
 13832 3c2b 5F5F4641 		.ascii	"__FAST64 \"ll\"\000"
 13832      53543634 
 13832      20226C6C 
 13832      2200
 13833              	.LASF9:
 13834 3c39 5F5F4154 		.ascii	"__ATOMIC_RELEASE 3\000"
 13834      4F4D4943 
 13834      5F52454C 
 13834      45415345 
 13834      203300
 13835              	.LASF376:
 13836 3c4c 756E7369 		.ascii	"unsigned +0\000"
 13836      676E6564 
 13836      202B3000 
 13837              	.LASF124:
 13838 3c58 5F5F464C 		.ascii	"__FLT_MANT_DIG__ 24\000"
 13838      545F4D41 
 13838      4E545F44 
 13838      49475F5F 
 13838      20323400 
 13839              	.LASF1145:
 13840 3c6c 43484950 		.ascii	"CHIP_SYSCTL_CLOCK\000"
ARM GAS  /tmp/ccjsfSlY.s 			page 312


 13840      5F535953 
 13840      43544C5F 
 13840      434C4F43 
 13840      4B00
 13841              	.LASF1040:
 13842 3c7e 4552524F 		.ascii	"ERROR\000"
 13842      5200
 13843              	.LASF57:
 13844 3c84 5F5F494E 		.ascii	"__INT_FAST32_TYPE__ int\000"
 13844      545F4641 
 13844      53543332 
 13844      5F545950 
 13844      455F5F20 
 13845              	.LASF1138:
 13846 3c9c 53595343 		.ascii	"SYSCTL_CLOCK_IOCON\000"
 13846      544C5F43 
 13846      4C4F434B 
 13846      5F494F43 
 13846      4F4E00
 13847              	.LASF49:
 13848 3caf 5F5F494E 		.ascii	"__INT_LEAST32_TYPE__ long int\000"
 13848      545F4C45 
 13848      41535433 
 13848      325F5459 
 13848      50455F5F 
 13849              	.LASF448:
 13850 3ccd 55494E54 		.ascii	"UINTMAX_MAX (__UINTMAX_MAX__)\000"
 13850      4D41585F 
 13850      4D415820 
 13850      285F5F55 
 13850      494E544D 
 13851              	.LASF883:
 13852 3ceb 4144435F 		.ascii	"ADC_CR_CH_SEL(n) ((1UL << (n)))\000"
 13852      43525F43 
 13852      485F5345 
 13852      4C286E29 
 13852      20282831 
 13853              	.LASF12:
 13854 3d0b 5F5F4F50 		.ascii	"__OPTIMIZE__ 1\000"
 13854      54494D49 
 13854      5A455F5F 
 13854      203100
 13855              	.LASF768:
 13856 3d1a 55415254 		.ascii	"UART_LCR_SBS_2BIT (1 << 2)\000"
 13856      5F4C4352 
 13856      5F534253 
 13856      5F324249 
 13856      54202831 
 13857              	.LASF631:
 13858 3d35 4C50435F 		.ascii	"LPC_ROM_API (*((LPC_ROM_API_T * *) LPC_ROM_API_BASE"
 13858      524F4D5F 
 13858      41504920 
 13858      282A2828 
 13858      4C50435F 
 13859 3d68 5F4C4F43 		.ascii	"_LOC))\000"
 13859      292900
 13860              	.LASF1012:
ARM GAS  /tmp/ccjsfSlY.s 			page 313


 13861 3d6f 4F445F53 		.ascii	"OD_SEG_RO 0x40\000"
 13861      45475F52 
 13861      4F203078 
 13861      343000
 13862              	.LASF388:
 13863 3d7e 5F5F4641 		.ascii	"__FAST32 \000"
 13863      53543332 
 13863      2000
 13864              	.LASF509:
 13865 3d88 5F5F4920 		.ascii	"__I volatile const\000"
 13865      766F6C61 
 13865      74696C65 
 13865      20636F6E 
 13865      737400
 13866              	.LASF844:
 13867 3d9b 57574454 		.ascii	"WWDT_WDMOD_WDTOF ((uint32_t) (1 << 2))\000"
 13867      5F57444D 
 13867      4F445F57 
 13867      44544F46 
 13867      20282875 
 13868              	.LASF893:
 13869 3dc2 4144435F 		.ascii	"ADC_CR_START_ADCTRIG1 ((5UL << 24))\000"
 13869      43525F53 
 13869      54415254 
 13869      5F414443 
 13869      54524947 
 13870              	.LASF162:
 13871 3de6 5F5F4C44 		.ascii	"__LDBL_DENORM_MIN__ 4.9406564584124654e-324L\000"
 13871      424C5F44 
 13871      454E4F52 
 13871      4D5F4D49 
 13871      4E5F5F20 
 13872              	.LASF868:
 13873 3e13 5353505F 		.ascii	"SSP_CPHA_FIRST SSP_CR0_CPHA_FIRST\000"
 13873      43504841 
 13873      5F464952 
 13873      53542053 
 13873      53505F43 
 13874              	.LASF396:
 13875 3e35 5F5F696E 		.ascii	"__int16_t_defined 1\000"
 13875      7431365F 
 13875      745F6465 
 13875      66696E65 
 13875      64203100 
 13876              	.LASF223:
 13877 3e49 5F5F554C 		.ascii	"__ULLFRACT_IBIT__ 0\000"
 13877      4C465241 
 13877      43545F49 
 13877      4249545F 
 13877      5F203000 
 13878              	.LASF1123:
 13879 3e5d 53595343 		.ascii	"SYSCTL_CLOCK_ROM\000"
 13879      544C5F43 
 13879      4C4F434B 
 13879      5F524F4D 
 13879      00
 13880              	.LASF1117:
ARM GAS  /tmp/ccjsfSlY.s 			page 314


 13881 3e6e 52455345 		.ascii	"RESET_TIMER1_32\000"
 13881      545F5449 
 13881      4D455231 
 13881      5F333200 
 13882              	.LASF794:
 13883 3e7e 55415254 		.ascii	"UART1_LSR_BITMASK (0x1FF)\000"
 13883      315F4C53 
 13883      525F4249 
 13883      544D4153 
 13883      4B202830 
 13884              	.LASF760:
 13885 3e98 55415254 		.ascii	"UART_FCR_TRG_LEV3 (3 << 6)\000"
 13885      5F464352 
 13885      5F545247 
 13885      5F4C4556 
 13885      33202833 
 13886              	.LASF934:
 13887 3eb3 4932435F 		.ascii	"I2C_I2STAT_M_RX_SLAR_NACK ((0x48))\000"
 13887      49325354 
 13887      41545F4D 
 13887      5F52585F 
 13887      534C4152 
 13888              	.LASF627:
 13889 3ed6 4C50435F 		.ascii	"LPC_SSP1 ((LPC_SSP_T *) LPC_SSP1_BASE)\000"
 13889      53535031 
 13889      2028284C 
 13889      50435F53 
 13889      53505F54 
 13890              	.LASF736:
 13891 3efd 55415254 		.ascii	"UART_IER_ABTOINT (1 << 9)\000"
 13891      5F494552 
 13891      5F414254 
 13891      4F494E54 
 13891      20283120 
 13892              	.LASF822:
 13893 3f17 55415254 		.ascii	"UART_HDEN_HDEN ((1 << 0))\000"
 13893      5F484445 
 13893      4E5F4844 
 13893      454E2028 
 13893      2831203C 
 13894              	.LASF520:
 13895 3f31 5343425F 		.ascii	"SCB_CPUID_REVISION_Pos 0\000"
 13895      43505549 
 13895      445F5245 
 13895      56495349 
 13895      4F4E5F50 
 13896              	.LASF504:
 13897 3f4a 5F5F5354 		.ascii	"__STATIC_INLINE static inline\000"
 13897      41544943 
 13897      5F494E4C 
 13897      494E4520 
 13897      73746174 
 13898              	.LASF1231:
 13899 3f68 636C6B53 		.ascii	"clkSSP\000"
 13899      535000
 13900              	.LASF600:
 13901 3f6f 4C50435F 		.ascii	"LPC_PMU_BASE 0x40038000\000"
ARM GAS  /tmp/ccjsfSlY.s 			page 315


 13901      504D555F 
 13901      42415345 
 13901      20307834 
 13901      30303338 
 13902              	.LASF960:
 13903 3f87 4932435F 		.ascii	"I2C_I2ADR_BITMASK ((0xFF))\000"
 13903      49324144 
 13903      525F4249 
 13903      544D4153 
 13903      4B202828 
 13904              	.LASF919:
 13905 3fa2 4932435F 		.ascii	"I2C_STAT_CODE_BITMASK ((0xF8))\000"
 13905      53544154 
 13905      5F434F44 
 13905      455F4249 
 13905      544D4153 
 13906              	.LASF975:
 13907 3fc1 4932435F 		.ascii	"I2C_CheckError(ErrorCode) (ErrorCode & 0x10000000)\000"
 13907      43686563 
 13907      6B457272 
 13907      6F722845 
 13907      72726F72 
 13908              	.LASF1042:
 13909 3ff4 53746174 		.ascii	"Status\000"
 13909      757300
 13910              	.LASF663:
 13911 3ffb 5F5F434C 		.ascii	"__CLOCK_11XX_H_ \000"
 13911      4F434B5F 
 13911      31315858 
 13911      5F485F20 
 13911      00
 13912              	.LASF242:
 13913 400c 5F5F5541 		.ascii	"__UACCUM_FBIT__ 16\000"
 13913      4343554D 
 13913      5F464249 
 13913      545F5F20 
 13913      313600
 13914              	.LASF206:
 13915 401f 5F5F5546 		.ascii	"__UFRACT_EPSILON__ 0x1P-16UR\000"
 13915      52414354 
 13915      5F455053 
 13915      494C4F4E 
 13915      5F5F2030 
 13916              	.LASF74:
 13917 403c 5F5F5743 		.ascii	"__WCHAR_MIN__ 0U\000"
 13917      4841525F 
 13917      4D494E5F 
 13917      5F203055 
 13917      00
 13918              	.LASF91:
 13919 404d 5F5F5549 		.ascii	"__UINT32_MAX__ 4294967295UL\000"
 13919      4E543332 
 13919      5F4D4158 
 13919      5F5F2034 
 13919      32393439 
 13920              	.LASF278:
 13921 4069 5F5F5551 		.ascii	"__UQQ_IBIT__ 0\000"
ARM GAS  /tmp/ccjsfSlY.s 			page 316


 13921      515F4942 
 13921      49545F5F 
 13921      203000
 13922              	.LASF314:
 13923 4078 5F5F4743 		.ascii	"__GCC_ATOMIC_LONG_LOCK_FREE 1\000"
 13923      435F4154 
 13923      4F4D4943 
 13923      5F4C4F4E 
 13923      475F4C4F 
 13924              	.LASF254:
 13925 4096 5F5F554C 		.ascii	"__ULACCUM_MIN__ 0.0ULK\000"
 13925      41434355 
 13925      4D5F4D49 
 13925      4E5F5F20 
 13925      302E3055 
 13926              	.LASF1030:
 13927 40ad 5F5F7569 		.ascii	"__uint32_t\000"
 13927      6E743332 
 13927      5F7400
 13928              	.LASF159:
 13929 40b8 5F5F4C44 		.ascii	"__LDBL_MAX__ 1.7976931348623157e+308L\000"
 13929      424C5F4D 
 13929      41585F5F 
 13929      20312E37 
 13929      39373639 
 13930              	.LASF123:
 13931 40de 5F5F464C 		.ascii	"__FLT_RADIX__ 2\000"
 13931      545F5241 
 13931      4449585F 
 13931      5F203200 
 13932              	.LASF852:
 13933 40ee 5353505F 		.ascii	"SSP_CR0_CPOL_LO ((uint32_t) (0))\000"
 13933      4352305F 
 13933      43504F4C 
 13933      5F4C4F20 
 13933      28287569 
 13934              	.LASF1032:
 13935 410f 6C6F6E67 		.ascii	"long long int\000"
 13935      206C6F6E 
 13935      6720696E 
 13935      7400
 13936              	.LASF705:
 13937 411d 46554E43 		.ascii	"FUNC4 0x4\000"
 13937      34203078 
 13937      3400
 13938              	.LASF424:
 13939 4127 55494E54 		.ascii	"UINT32_MAX (__UINT32_MAX__)\000"
 13939      33325F4D 
 13939      41582028 
 13939      5F5F5549 
 13939      4E543332 
 13940              	.LASF777:
 13941 4143 55415254 		.ascii	"UART_LCR_BITMASK (0xFF)\000"
 13941      5F4C4352 
 13941      5F424954 
 13941      4D41534B 
 13941      20283078 
ARM GAS  /tmp/ccjsfSlY.s 			page 317


 13942              	.LASF75:
 13943 415b 5F5F5749 		.ascii	"__WINT_MAX__ 4294967295U\000"
 13943      4E545F4D 
 13943      41585F5F 
 13943      20343239 
 13943      34393637 
 13944              	.LASF874:
 13945 4174 5F5F524F 		.ascii	"__ROMAPI_11XX_H_ \000"
 13945      4D415049 
 13945      5F313158 
 13945      585F485F 
 13945      2000
 13946              	.LASF966:
 13947 4186 4932435F 		.ascii	"I2C_SETUP_STATUS_DONE (1 << 10)\000"
 13947      53455455 
 13947      505F5354 
 13947      41545553 
 13947      5F444F4E 
 13948              	.LASF652:
 13949 41a6 53595343 		.ascii	"SYSCTL_SLPWAKE_SYSOSC_PD (1 << 5)\000"
 13949      544C5F53 
 13949      4C505741 
 13949      4B455F53 
 13949      59534F53 
 13950              	.LASF456:
 13951 41c8 57494E54 		.ascii	"WINT_MAX (__WINT_MAX__)\000"
 13951      5F4D4158 
 13951      20285F5F 
 13951      57494E54 
 13951      5F4D4158 
 13952              	.LASF981:
 13953 41e0 43414E5F 		.ascii	"CAN_ERROR_WARN 0x00000002UL\000"
 13953      4552524F 
 13953      525F5741 
 13953      524E2030 
 13953      78303030 
 13954              	.LASF622:
 13955 41fc 4C50435F 		.ascii	"LPC_PMU ((LPC_PMU_T *) LPC_PMU_BASE)\000"
 13955      504D5520 
 13955      28284C50 
 13955      435F504D 
 13955      555F5420 
 13956              	.LASF882:
 13957 4221 4144435F 		.ascii	"ADC_DR_OVERRUN(n) ((((n) >> 30) & (1UL)))\000"
 13957      44525F4F 
 13957      56455252 
 13957      554E286E 
 13957      29202828 
 13958              	.LASF288:
 13959 424b 5F5F4841 		.ascii	"__HA_IBIT__ 8\000"
 13959      5F494249 
 13959      545F5F20 
 13959      3800
 13960              	.LASF305:
 13961 4259 5F5F474E 		.ascii	"__GNUC_GNU_INLINE__ 1\000"
 13961      55435F47 
 13961      4E555F49 
ARM GAS  /tmp/ccjsfSlY.s 			page 318


 13961      4E4C494E 
 13961      455F5F20 
 13962              	.LASF916:
 13963 426f 4932435F 		.ascii	"I2C_CON_STO (1UL << 4)\000"
 13963      434F4E5F 
 13963      53544F20 
 13963      2831554C 
 13963      203C3C20 
 13964              	.LASF587:
 13965 4286 5F424954 		.ascii	"_BIT_SHIFT(IRQn) ( (((uint32_t)(IRQn) ) & 0x03) * 8"
 13965      5F534849 
 13965      46542849 
 13965      52516E29 
 13965      20282028 
 13966 42b9 202900   		.ascii	" )\000"
 13967              	.LASF803:
 13968 42bc 55415254 		.ascii	"UART_MSR_BITMASK (0xFF)\000"
 13968      5F4D5352 
 13968      5F424954 
 13968      4D41534B 
 13968      20283078 
 13969              	.LASF1270:
 13970 42d4 43686970 		.ascii	"Chip_Clock_GetMainClockRate\000"
 13970      5F436C6F 
 13970      636B5F47 
 13970      65744D61 
 13970      696E436C 
 13971              	.LASF798:
 13972 42f0 55415254 		.ascii	"UART_MSR_DELTA_DCD (1 << 3)\000"
 13972      5F4D5352 
 13972      5F44454C 
 13972      54415F44 
 13972      43442028 
 13973              	.LASF823:
 13974 430c 55415254 		.ascii	"UART_SCICTRL_SCIEN (1 << 0)\000"
 13974      5F534349 
 13974      4354524C 
 13974      5F534349 
 13974      454E2028 
 13975              	.LASF963:
 13976 4328 4932435F 		.ascii	"I2C_I2SCLL_BITMASK ((0xFFFF))\000"
 13976      49325343 
 13976      4C4C5F42 
 13976      49544D41 
 13976      534B2028 
 13977              	.LASF1056:
 13978 4346 53595352 		.ascii	"SYSRSTSTAT\000"
 13978      53545354 
 13978      415400
 13979              	.LASF359:
 13980 4351 5F5F5F69 		.ascii	"___int32_t_defined 1\000"
 13980      6E743332 
 13980      5F745F64 
 13980      6566696E 
 13980      65642031 
 13981              	.LASF846:
 13982 4366 57574454 		.ascii	"WWDT_WDMOD_WDPROTECT ((uint32_t) (1 << 4))\000"
ARM GAS  /tmp/ccjsfSlY.s 			page 319


 13982      5F57444D 
 13982      4F445F57 
 13982      4450524F 
 13982      54454354 
 13983              	.LASF926:
 13984 4391 4932435F 		.ascii	"I2C_I2STAT_M_TX_SLAW_NACK ((0x20))\000"
 13984      49325354 
 13984      41545F4D 
 13984      5F54585F 
 13984      534C4157 
 13985              	.LASF773:
 13986 43b4 55415254 		.ascii	"UART_LCR_PARITY_F_1 (2 << 4)\000"
 13986      5F4C4352 
 13986      5F504152 
 13986      4954595F 
 13986      465F3120 
 13987              	.LASF1198:
 13988 43d1 72785F63 		.ascii	"rx_cnt\000"
 13988      6E7400
 13989              	.LASF42:
 13990 43d8 5F5F494E 		.ascii	"__INT64_TYPE__ long long int\000"
 13990      5436345F 
 13990      54595045 
 13990      5F5F206C 
 13990      6F6E6720 
 13991              	.LASF1213:
 13992 43f5 43686970 		.ascii	"Chip_Clock_SetSSP1ClockDiv\000"
 13992      5F436C6F 
 13992      636B5F53 
 13992      65745353 
 13992      5031436C 
 13993              	.LASF22:
 13994 4410 5F5F4348 		.ascii	"__CHAR_BIT__ 8\000"
 13994      41525F42 
 13994      49545F5F 
 13994      203800
 13995              	.LASF320:
 13996 441f 5F5F5349 		.ascii	"__SIZEOF_WCHAR_T__ 4\000"
 13996      5A454F46 
 13996      5F574348 
 13996      41525F54 
 13996      5F5F2034 
 13997              	.LASF867:
 13998 4434 5353505F 		.ascii	"SSP_ICR_BITMASK ((uint32_t) (0x03))\000"
 13998      4943525F 
 13998      4249544D 
 13998      41534B20 
 13998      28287569 
 13999              	.LASF601:
 14000 4458 4C50435F 		.ascii	"LPC_FLASH_BASE 0x4003C000\000"
 14000      464C4153 
 14000      485F4241 
 14000      53452030 
 14000      78343030 
 14001              	.LASF419:
 14002 4472 494E545F 		.ascii	"INT_LEAST16_MIN (-__INT_LEAST16_MAX__ - 1)\000"
 14002      4C454153 
ARM GAS  /tmp/ccjsfSlY.s 			page 320


 14002      5431365F 
 14002      4D494E20 
 14002      282D5F5F 
 14003              	.LASF805:
 14004 449d 55415254 		.ascii	"UART_ACR_MODE (1 << 1)\000"
 14004      5F414352 
 14004      5F4D4F44 
 14004      45202831 
 14004      203C3C20 
 14005              	.LASF1161:
 14006 44b4 5353505F 		.ascii	"SSP_RORIC\000"
 14006      524F5249 
 14006      4300
 14007              	.LASF945:
 14008 44be 4932435F 		.ascii	"I2C_I2STAT_S_RX_STA_STO_SLVREC_SLVTRX ((0xA0))\000"
 14008      49325354 
 14008      41545F53 
 14008      5F52585F 
 14008      5354415F 
 14009              	.LASF740:
 14010 44ed 55415254 		.ascii	"UART_IIR_INTSTAT_PEND (1 << 0)\000"
 14010      5F494952 
 14010      5F494E54 
 14010      53544154 
 14010      5F50454E 
 14011              	.LASF536:
 14012 450c 5343425F 		.ascii	"SCB_ICSR_VECTPENDING_Pos 12\000"
 14012      49435352 
 14012      5F564543 
 14012      5450454E 
 14012      44494E47 
 14013              	.LASF890:
 14014 4528 4144435F 		.ascii	"ADC_CR_START_CTOUT15 ((2UL << 24))\000"
 14014      43525F53 
 14014      54415254 
 14014      5F43544F 
 14014      55543135 
 14015              	.LASF205:
 14016 454b 5F5F5546 		.ascii	"__UFRACT_MAX__ 0XFFFFP-16UR\000"
 14016      52414354 
 14016      5F4D4158 
 14016      5F5F2030 
 14016      58464646 
 14017              	.LASF1249:
 14018 4567 43686970 		.ascii	"Chip_SSP_ReadFrames_Blocking\000"
 14018      5F535350 
 14018      5F526561 
 14018      64467261 
 14018      6D65735F 
 14019              	.LASF956:
 14020 4584 4932435F 		.ascii	"I2C_I2MMCTRL_MATCH_ALL ((1 << 2))\000"
 14020      49324D4D 
 14020      4354524C 
 14020      5F4D4154 
 14020      43485F41 
 14021              	.LASF719:
 14022 45a6 54494D45 		.ascii	"TIMER_CAP_FALLING(n) (_BIT((((n) * 3) + 1)))\000"
ARM GAS  /tmp/ccjsfSlY.s 			page 321


 14022      525F4341 
 14022      505F4641 
 14022      4C4C494E 
 14022      47286E29 
 14023              	.LASF295:
 14024 45d3 5F5F5548 		.ascii	"__UHA_FBIT__ 8\000"
 14024      415F4642 
 14024      49545F5F 
 14024      203800
 14025              	.LASF1237:
 14026 45e2 43686970 		.ascii	"Chip_SSP_SetFormat\000"
 14026      5F535350 
 14026      5F536574 
 14026      466F726D 
 14026      617400
 14027              	.LASF1018:
 14028 45f5 43414E5F 		.ascii	"CAN_SDOSEG_SEGMENT 0\000"
 14028      53444F53 
 14028      45475F53 
 14028      45474D45 
 14028      4E542030 
 14029              	.LASF442:
 14030 460a 55494E54 		.ascii	"UINT_FAST32_MAX (__UINT_FAST32_MAX__)\000"
 14030      5F464153 
 14030      5433325F 
 14030      4D415820 
 14030      285F5F55 
 14031              	.LASF367:
 14032 4630 5F5F5354 		.ascii	"__STDINT_EXP(x) __ ##x ##__\000"
 14032      44494E54 
 14032      5F455850 
 14032      28782920 
 14032      5F5F2023 
 14033              	.LASF356:
 14034 464c 5F5F4558 		.ascii	"__EXP(x) __ ##x ##__\000"
 14034      50287829 
 14034      205F5F20 
 14034      23237820 
 14034      23235F5F 
 14035              	.LASF27:
 14036 4661 5F5F4259 		.ascii	"__BYTE_ORDER__ __ORDER_LITTLE_ENDIAN__\000"
 14036      54455F4F 
 14036      52444552 
 14036      5F5F205F 
 14036      5F4F5244 
 14037              	.LASF610:
 14038 4688 4C50435F 		.ascii	"LPC_GPIO_PORT2_BASE 0x50020000\000"
 14038      4750494F 
 14038      5F504F52 
 14038      54325F42 
 14038      41534520 
 14039              	.LASF235:
 14040 46a7 5F5F5553 		.ascii	"__USACCUM_MAX__ 0XFFFFP-8UHK\000"
 14040      41434355 
 14040      4D5F4D41 
 14040      585F5F20 
 14040      30584646 
ARM GAS  /tmp/ccjsfSlY.s 			page 322


 14041              	.LASF795:
 14042 46c4 55415254 		.ascii	"UART_MSR_DELTA_CTS (1 << 0)\000"
 14042      5F4D5352 
 14042      5F44454C 
 14042      54415F43 
 14042      54532028 
 14043              	.LASF699:
 14044 46e0 4D445F46 		.ascii	"MD_FASTI2C (0x2 << 8)\000"
 14044      41535449 
 14044      32432028 
 14044      30783220 
 14044      3C3C2038 
 14045              	.LASF718:
 14046 46f6 54494D45 		.ascii	"TIMER_CAP_RISING(n) (_BIT(((n) * 3)))\000"
 14046      525F4341 
 14046      505F5249 
 14046      53494E47 
 14046      286E2920 
 14047              	.LASF1209:
 14048 471c 43686970 		.ascii	"Chip_SSP_ReceiveFrame\000"
 14048      5F535350 
 14048      5F526563 
 14048      65697665 
 14048      4672616D 
 14049              	.LASF988:
 14050 4732 43414E5F 		.ascii	"CAN_ERROR_CRC 0x00000100UL\000"
 14050      4552524F 
 14050      525F4352 
 14050      43203078 
 14050      30303030 
 14051              	.LASF1221:
 14052 474d 5353505F 		.ascii	"SSP_Read2BFifo\000"
 14052      52656164 
 14052      32424669 
 14052      666F00
 14053              	.LASF790:
 14054 475c 55415254 		.ascii	"UART_LSR_TEMT (1 << 6)\000"
 14054      5F4C5352 
 14054      5F54454D 
 14054      54202831 
 14054      203C3C20 
 14055              	.LASF658:
 14056 4773 53595343 		.ascii	"SYSCTL_POWERDOWN_BOD_PD (1 << 3)\000"
 14056      544C5F50 
 14056      4F574552 
 14056      444F574E 
 14056      5F424F44 
 14057              	.LASF483:
 14058 4794 4E454C45 		.ascii	"NELEMENTS(array) (sizeof(array) / sizeof(array[0]))"
 14058      4D454E54 
 14058      53286172 
 14058      72617929 
 14058      20287369 
 14059 47c7 00       		.ascii	"\000"
 14060              	.LASF33:
 14061 47c8 5F5F5749 		.ascii	"__WINT_TYPE__ unsigned int\000"
 14061      4E545F54 
ARM GAS  /tmp/ccjsfSlY.s 			page 323


 14061      5950455F 
 14061      5F20756E 
 14061      7369676E 
 14062              	.LASF771:
 14063 47e3 55415254 		.ascii	"UART_LCR_PARITY_ODD (0 << 4)\000"
 14063      5F4C4352 
 14063      5F504152 
 14063      4954595F 
 14063      4F444420 
 14064              	.LASF283:
 14065 4800 5F5F5544 		.ascii	"__UDQ_FBIT__ 64\000"
 14065      515F4642 
 14065      49545F5F 
 14065      20363400 
 14066              	.LASF503:
 14067 4810 5F5F494E 		.ascii	"__INLINE inline\000"
 14067      4C494E45 
 14067      20696E6C 
 14067      696E6500 
 14068              	.LASF404:
 14069 4820 5F5F696E 		.ascii	"__int_fast16_t_defined 1\000"
 14069      745F6661 
 14069      73743136 
 14069      5F745F64 
 14069      6566696E 
 14070              	.LASF732:
 14071 4839 55415254 		.ascii	"UART_IER_RLSINT (1 << 2)\000"
 14071      5F494552 
 14071      5F524C53 
 14071      494E5420 
 14071      2831203C 
 14072              	.LASF157:
 14073 4852 5F5F4C44 		.ascii	"__LDBL_MAX_10_EXP__ 308\000"
 14073      424C5F4D 
 14073      41585F31 
 14073      305F4558 
 14073      505F5F20 
 14074              	.LASF909:
 14075 486a 4932435F 		.ascii	"I2C_I2CONCLR_AAC ((1 << 2))\000"
 14075      4932434F 
 14075      4E434C52 
 14075      5F414143 
 14075      20282831 
 14076              	.LASF586:
 14077 4886 4E564943 		.ascii	"NVIC ((NVIC_Type *) NVIC_BASE )\000"
 14077      2028284E 
 14077      5649435F 
 14077      54797065 
 14077      202A2920 
 14078              	.LASF429:
 14079 48a6 494E5436 		.ascii	"INT64_MAX (__INT64_MAX__)\000"
 14079      345F4D41 
 14079      5820285F 
 14079      5F494E54 
 14079      36345F4D 
 14080              	.LASF1121:
 14081 48c0 43484950 		.ascii	"CHIP_SYSCTL_PERIPH_RESET_T\000"
ARM GAS  /tmp/ccjsfSlY.s 			page 324


 14081      5F535953 
 14081      43544C5F 
 14081      50455249 
 14081      50485F52 
 14082              	.LASF1019:
 14083 48db 43414E5F 		.ascii	"CAN_SDOSEG_OPEN 1\000"
 14083      53444F53 
 14083      45475F4F 
 14083      50454E20 
 14083      3100
 14084              	.LASF164:
 14085 48ed 5F5F4C44 		.ascii	"__LDBL_HAS_INFINITY__ 1\000"
 14085      424C5F48 
 14085      41535F49 
 14085      4E46494E 
 14085      4954595F 
 14086              	.LASF530:
 14087 4905 5343425F 		.ascii	"SCB_ICSR_PENDSTCLR_Pos 25\000"
 14087      49435352 
 14087      5F50454E 
 14087      44535443 
 14087      4C525F50 
 14088              	.LASF1022:
 14089 491f 756E7369 		.ascii	"unsigned int\000"
 14089      676E6564 
 14089      20696E74 
 14089      00
 14090              	.LASF1252:
 14091 492c 43686970 		.ascii	"Chip_SSP_Int_RWFrames8Bits\000"
 14091      5F535350 
 14091      5F496E74 
 14091      5F525746 
 14091      72616D65 
 14092              	.LASF200:
 14093 4947 5F5F4652 		.ascii	"__FRACT_MAX__ 0X7FFFP-15R\000"
 14093      4143545F 
 14093      4D41585F 
 14093      5F203058 
 14093      37464646 
 14094              	.LASF1059:
 14095 4961 53595350 		.ascii	"SYSPLLCLKUEN\000"
 14095      4C4C434C 
 14095      4B55454E 
 14095      00
 14096              	.LASF126:
 14097 496e 5F5F464C 		.ascii	"__FLT_MIN_EXP__ (-125)\000"
 14097      545F4D49 
 14097      4E5F4558 
 14097      505F5F20 
 14097      282D3132 
 14098              	.LASF122:
 14099 4985 5F5F4445 		.ascii	"__DEC_EVAL_METHOD__ 2\000"
 14099      435F4556 
 14099      414C5F4D 
 14099      4554484F 
 14099      445F5F20 
 14100              	.LASF463:
ARM GAS  /tmp/ccjsfSlY.s 			page 325


 14101 499b 55494E54 		.ascii	"UINT32_C(x) __UINT32_C(x)\000"
 14101      33325F43 
 14101      28782920 
 14101      5F5F5549 
 14101      4E543332 
 14102              	.LASF515:
 14103 49b5 5343425F 		.ascii	"SCB_CPUID_VARIANT_Msk (0xFUL << SCB_CPUID_VARIANT_P"
 14103      43505549 
 14103      445F5641 
 14103      5249414E 
 14103      545F4D73 
 14104 49e8 6F732900 		.ascii	"os)\000"
 14105              	.LASF655:
 14106 49ec 53595343 		.ascii	"SYSCTL_POWERDOWN_IRCOUT_PD (1 << 0)\000"
 14106      544C5F50 
 14106      4F574552 
 14106      444F574E 
 14106      5F495243 
 14107              	.LASF694:
 14108 4a10 4D445F44 		.ascii	"MD_DIGMODE (0x1 << 7)\000"
 14108      49474D4F 
 14108      44452028 
 14108      30783120 
 14108      3C3C2037 
 14109              	.LASF233:
 14110 4a26 5F5F5553 		.ascii	"__USACCUM_IBIT__ 8\000"
 14110      41434355 
 14110      4D5F4942 
 14110      49545F5F 
 14110      203800
 14111              	.LASF1014:
 14112 4a39 4F445F53 		.ascii	"OD_SEG_RW 0x60\000"
 14112      45475F52 
 14112      57203078 
 14112      363000
 14113              	.LASF434:
 14114 4a48 494E545F 		.ascii	"INT_FAST8_MIN (-__INT_FAST8_MAX__ - 1)\000"
 14114      46415354 
 14114      385F4D49 
 14114      4E20282D 
 14114      5F5F494E 
 14115              	.LASF118:
 14116 4a6f 5F5F5549 		.ascii	"__UINTPTR_MAX__ 4294967295U\000"
 14116      4E545054 
 14116      525F4D41 
 14116      585F5F20 
 14116      34323934 
 14117              	.LASF697:
 14118 4a8b 4D445F53 		.ascii	"MD_SFI2C (0x0 << 8)\000"
 14118      46493243 
 14118      20283078 
 14118      30203C3C 
 14118      20382900 
 14119              	.LASF125:
 14120 4a9f 5F5F464C 		.ascii	"__FLT_DIG__ 6\000"
 14120      545F4449 
 14120      475F5F20 
ARM GAS  /tmp/ccjsfSlY.s 			page 326


 14120      3600
 14121              	.LASF35:
 14122 4aad 5F5F5549 		.ascii	"__UINTMAX_TYPE__ long long unsigned int\000"
 14122      4E544D41 
 14122      585F5459 
 14122      50455F5F 
 14122      206C6F6E 
 14123              	.LASF814:
 14124 4ad5 55415254 		.ascii	"UART_RS485CTRL_DCTRL_EN (1 << 4)\000"
 14124      5F525334 
 14124      38354354 
 14124      524C5F44 
 14124      4354524C 
 14125              	.LASF1168:
 14126 4af6 5353505F 		.ascii	"SSP_CLOCK_CPHA1_CPOL0\000"
 14126      434C4F43 
 14126      4B5F4350 
 14126      4841315F 
 14126      43504F4C 
 14127              	.LASF1169:
 14128 4b0c 5353505F 		.ascii	"SSP_CLOCK_CPHA1_CPOL1\000"
 14128      434C4F43 
 14128      4B5F4350 
 14128      4841315F 
 14128      43504F4C 
 14129              	.LASF121:
 14130 4b22 5F5F464C 		.ascii	"__FLT_EVAL_METHOD__ 0\000"
 14130      545F4556 
 14130      414C5F4D 
 14130      4554484F 
 14130      445F5F20 
 14131              	.LASF837:
 14132 4b38 55415254 		.ascii	"UART_SYNCCTRL_CSCEN (1 << 4)\000"
 14132      5F53594E 
 14132      43435452 
 14132      4C5F4353 
 14132      43454E20 
 14133              	.LASF784:
 14134 4b55 55415254 		.ascii	"UART_LSR_RDR (1 << 0)\000"
 14134      5F4C5352 
 14134      5F524452 
 14134      20283120 
 14134      3C3C2030 
 14135              	.LASF751:
 14136 4b6b 55415254 		.ascii	"UART_FCR_FIFO_EN (1 << 0)\000"
 14136      5F464352 
 14136      5F464946 
 14136      4F5F454E 
 14136      20283120 
 14137              	.LASF807:
 14138 4b85 55415254 		.ascii	"UART_ACR_ABEOINT_CLR (1 << 8)\000"
 14138      5F414352 
 14138      5F414245 
 14138      4F494E54 
 14138      5F434C52 
 14139              	.LASF383:
 14140 4ba3 5F5F494E 		.ascii	"__INT16 \"h\"\000"
ARM GAS  /tmp/ccjsfSlY.s 			page 327


 14140      54313620 
 14140      22682200 
 14141              	.LASF117:
 14142 4baf 5F5F494E 		.ascii	"__INTPTR_MAX__ 2147483647\000"
 14142      54505452 
 14142      5F4D4158 
 14142      5F5F2032 
 14142      31343734 
 14143              	.LASF880:
 14144 4bc9 4144435F 		.ascii	"ADC_CR_BITACC(n) ((((n) & 0x7) << 17))\000"
 14144      43525F42 
 14144      49544143 
 14144      43286E29 
 14144      20282828 
 14145              	.LASF1118:
 14146 4bf0 52455345 		.ascii	"RESET_ACMP\000"
 14146      545F4143 
 14146      4D5000
 14147              	.LASF277:
 14148 4bfb 5F5F5551 		.ascii	"__UQQ_FBIT__ 8\000"
 14148      515F4642 
 14148      49545F5F 
 14148      203800
 14149              	.LASF573:
 14150 4c0a 53797354 		.ascii	"SysTick_VAL_CURRENT_Msk (0xFFFFFFUL << SysTick_VAL_"
 14150      69636B5F 
 14150      56414C5F 
 14150      43555252 
 14150      454E545F 
 14151 4c3d 43555252 		.ascii	"CURRENT_Pos)\000"
 14151      454E545F 
 14151      506F7329 
 14151      00
 14152              	.LASF1202:
 14153 4c4a 43686970 		.ascii	"Chip_SYSCTL_DeassertPeriphReset\000"
 14153      5F535953 
 14153      43544C5F 
 14153      44656173 
 14153      73657274 
 14154              	.LASF1065:
 14155 4c6a 53595341 		.ascii	"SYSAHBCLKDIV\000"
 14155      4842434C 
 14155      4B444956 
 14155      00
 14156              	.LASF923:
 14157 4c77 4932435F 		.ascii	"I2C_I2STAT_M_TX_START ((0x08))\000"
 14157      49325354 
 14157      41545F4D 
 14157      5F54585F 
 14157      53544152 
 14158              	.LASF731:
 14159 4c96 55415254 		.ascii	"UART_IER_THREINT (1 << 1)\000"
 14159      5F494552 
 14159      5F544852 
 14159      45494E54 
 14159      20283120 
 14160              	.LASF377:
ARM GAS  /tmp/ccjsfSlY.s 			page 328


 14161 4cb0 63686172 		.ascii	"char +0\000"
 14161      202B3000 
 14162              	.LASF210:
 14163 4cb8 5F5F4C46 		.ascii	"__LFRACT_MAX__ 0X7FFFFFFFP-31LR\000"
 14163      52414354 
 14163      5F4D4158 
 14163      5F5F2030 
 14163      58374646 
 14164              	.LASF322:
 14165 4cd8 5F5F5349 		.ascii	"__SIZEOF_PTRDIFF_T__ 4\000"
 14165      5A454F46 
 14165      5F505452 
 14165      44494646 
 14165      5F545F5F 
 14166              	.LASF1238:
 14167 4cef 62697473 		.ascii	"bits\000"
 14167      00
 14168              	.LASF0:
 14169 4cf4 5F5F5354 		.ascii	"__STDC__ 1\000"
 14169      44435F5F 
 14169      203100
 14170              	.LASF1103:
 14171 4cff 5044534C 		.ascii	"PDSLEEPCFG\000"
 14171      45455043 
 14171      464700
 14172              	.LASF361:
 14173 4d0a 5F5F5F69 		.ascii	"___int_least8_t_defined 1\000"
 14173      6E745F6C 
 14173      65617374 
 14173      385F745F 
 14173      64656669 
 14174              	.LASF28:
 14175 4d24 5F5F464C 		.ascii	"__FLOAT_WORD_ORDER__ __ORDER_LITTLE_ENDIAN__\000"
 14175      4F41545F 
 14175      574F5244 
 14175      5F4F5244 
 14175      45525F5F 
 14176              	.LASF1256:
 14177 4d51 6D617374 		.ascii	"master\000"
 14177      657200
 14178              	.LASF447:
 14179 4d58 494E544D 		.ascii	"INTMAX_MIN (-INTMAX_MAX - 1)\000"
 14179      41585F4D 
 14179      494E2028 
 14179      2D494E54 
 14179      4D41585F 
 14180              	.LASF43:
 14181 4d75 5F5F5549 		.ascii	"__UINT8_TYPE__ unsigned char\000"
 14181      4E54385F 
 14181      54595045 
 14181      5F5F2075 
 14181      6E736967 
 14182              	.LASF914:
 14183 4d92 4932435F 		.ascii	"I2C_CON_AA (1UL << 2)\000"
 14183      434F4E5F 
 14183      41412028 
 14183      31554C20 
ARM GAS  /tmp/ccjsfSlY.s 			page 329


 14183      3C3C2032 
 14184              	.LASF848:
 14185 4da8 5353505F 		.ascii	"SSP_CR0_DSS(n) ((uint32_t) ((n) & 0xF))\000"
 14185      4352305F 
 14185      44535328 
 14185      6E292028 
 14185      2875696E 
 14186              	.LASF403:
 14187 4dd0 5F5F696E 		.ascii	"__int_fast8_t_defined 1\000"
 14187      745F6661 
 14187      7374385F 
 14187      745F6465 
 14187      66696E65 
 14188              	.LASF881:
 14189 4de8 4144435F 		.ascii	"ADC_DR_DONE(n) (((n) >> 31))\000"
 14189      44525F44 
 14189      4F4E4528 
 14189      6E292028 
 14189      28286E29 
 14190              	.LASF5:
 14191 4e05 5F5F5645 		.ascii	"__VERSION__ \"4.9.3 20150529 (release) [ARM/embedde"
 14191      5253494F 
 14191      4E5F5F20 
 14191      22342E39 
 14191      2E332032 
 14192 4e37 642D345F 		.ascii	"d-4_9-branch revision 227977]\"\000"
 14192      392D6272 
 14192      616E6368 
 14192      20726576 
 14192      6973696F 
 14193              	.LASF704:
 14194 4e56 46554E43 		.ascii	"FUNC3 0x3\000"
 14194      33203078 
 14194      3300
 14195              	.LASF1250:
 14196 4e60 72646174 		.ascii	"rdata8\000"
 14196      613800
 14197              	.LASF662:
 14198 4e67 53595343 		.ascii	"SYSCTL_POWERDOWN_SYSPLL_PD (1 << 7)\000"
 14198      544C5F50 
 14198      4F574552 
 14198      444F574E 
 14198      5F535953 
 14199              	.LASF1096:
 14200 4e8b 53544152 		.ascii	"STARTAPRP0\000"
 14200      54415052 
 14200      503000
 14201              	.LASF180:
 14202 4e96 5F5F4445 		.ascii	"__DEC128_MANT_DIG__ 34\000"
 14202      43313238 
 14202      5F4D414E 
 14202      545F4449 
 14202      475F5F20 
 14203              	.LASF83:
 14204 4ead 5F5F5349 		.ascii	"__SIG_ATOMIC_MAX__ 2147483647\000"
 14204      475F4154 
 14204      4F4D4943 
ARM GAS  /tmp/ccjsfSlY.s 			page 330


 14204      5F4D4158 
 14204      5F5F2032 
 14205              	.LASF918:
 14206 4ecb 4932435F 		.ascii	"I2C_CON_I2EN (1UL << 6)\000"
 14206      434F4E5F 
 14206      4932454E 
 14206      20283155 
 14206      4C203C3C 
 14207              	.LASF471:
 14208 4ee3 74727565 		.ascii	"true 1\000"
 14208      203100
 14209              	.LASF670:
 14210 4eea 494F434F 		.ascii	"IOCON_FUNC4 0x4\000"
 14210      4E5F4655 
 14210      4E433420 
 14210      30783400 
 14211              	.LASF297:
 14212 4efa 5F5F5553 		.ascii	"__USA_FBIT__ 16\000"
 14212      415F4642 
 14212      49545F5F 
 14212      20313600 
 14213              	.LASF1211:
 14214 4f0a 53746174 		.ascii	"Stat\000"
 14214      00
 14215              	.LASF581:
 14216 4f0f 53797354 		.ascii	"SysTick_BASE (SCS_BASE + 0x0010UL)\000"
 14216      69636B5F 
 14216      42415345 
 14216      20285343 
 14216      535F4241 
 14217              	.LASF770:
 14218 4f32 55415254 		.ascii	"UART_LCR_PARITY_DIS (0 << 3)\000"
 14218      5F4C4352 
 14218      5F504152 
 14218      4954595F 
 14218      44495320 
 14219              	.LASF656:
 14220 4f4f 53595343 		.ascii	"SYSCTL_POWERDOWN_IRC_PD (1 << 1)\000"
 14220      544C5F50 
 14220      4F574552 
 14220      444F574E 
 14220      5F495243 
 14221              	.LASF815:
 14222 4f70 55415254 		.ascii	"UART_RS485CTRL_OINV_1 (1 << 5)\000"
 14222      5F525334 
 14222      38354354 
 14222      524C5F4F 
 14222      494E565F 
 14223              	.LASF308:
 14224 4f8f 5F5F4743 		.ascii	"__GCC_ATOMIC_CHAR_LOCK_FREE 1\000"
 14224      435F4154 
 14224      4F4D4943 
 14224      5F434841 
 14224      525F4C4F 
 14225              	.LASF1061:
 14226 4fad 55534250 		.ascii	"USBPLLCLKUEN\000"
 14226      4C4C434C 
ARM GAS  /tmp/ccjsfSlY.s 			page 331


 14226      4B55454E 
 14226      00
 14227              	.LASF632:
 14228 4fba 5F5F504D 		.ascii	"__PMU_11XX_H_ \000"
 14228      555F3131 
 14228      58585F48 
 14228      5F2000
 14229              	.LASF211:
 14230 4fc9 5F5F4C46 		.ascii	"__LFRACT_EPSILON__ 0x1P-31LR\000"
 14230      52414354 
 14230      5F455053 
 14230      494C4F4E 
 14230      5F5F2030 
 14231              	.LASF558:
 14232 4fe6 5343425F 		.ascii	"SCB_CCR_UNALIGN_TRP_Pos 3\000"
 14232      4343525F 
 14232      554E414C 
 14232      49474E5F 
 14232      5452505F 
 14233              	.LASF1154:
 14234 5000 5353505F 		.ascii	"SSP_RORRIS\000"
 14234      524F5252 
 14234      495300
 14235              	.LASF93:
 14236 500b 5F5F494E 		.ascii	"__INT_LEAST8_MAX__ 127\000"
 14236      545F4C45 
 14236      41535438 
 14236      5F4D4158 
 14236      5F5F2031 
 14237              	.LASF561:
 14238 5022 5343425F 		.ascii	"SCB_SHCSR_SVCALLPENDED_Msk (1UL << SCB_SHCSR_SVCALL"
 14238      53484353 
 14238      525F5356 
 14238      43414C4C 
 14238      50454E44 
 14239 5055 50454E44 		.ascii	"PENDED_Pos)\000"
 14239      45445F50 
 14239      6F732900 
 14240              	.LASF326:
 14241 5061 5F5F6172 		.ascii	"__arm__ 1\000"
 14241      6D5F5F20 
 14241      3100
 14242              	.LASF675:
 14243 506b 494F434F 		.ascii	"IOCON_MODE_PULLDOWN (0x1 << 3)\000"
 14243      4E5F4D4F 
 14243      44455F50 
 14243      554C4C44 
 14243      4F574E20 
 14244              	.LASF851:
 14245 508a 5353505F 		.ascii	"SSP_CR0_FRF_MICROWIRE ((uint32_t) (2 << 4))\000"
 14245      4352305F 
 14245      4652465F 
 14245      4D494352 
 14245      4F574952 
 14246              	.LASF602:
 14247 50b6 4C50435F 		.ascii	"LPC_SSP0_BASE 0x40040000\000"
 14247      53535030 
ARM GAS  /tmp/ccjsfSlY.s 			page 332


 14247      5F424153 
 14247      45203078 
 14247      34303034 
 14248              	.LASF725:
 14249 50cf 55415254 		.ascii	"UART_RBR_MASKBIT (0xFF)\000"
 14249      5F524252 
 14249      5F4D4153 
 14249      4B424954 
 14249      20283078 
 14250              	.LASF947:
 14251 50e7 4932435F 		.ascii	"I2C_I2STAT_S_TX_ARB_LOST_M_SLA ((0xB0))\000"
 14251      49325354 
 14251      41545F53 
 14251      5F54585F 
 14251      4152425F 
 14252              	.LASF940:
 14253 510f 4932435F 		.ascii	"I2C_I2STAT_S_RX_ARB_LOST_M_GENCALL ((0x78))\000"
 14253      49325354 
 14253      41545F53 
 14253      5F52585F 
 14253      4152425F 
 14254              	.LASF492:
 14255 513b 5F5F434D 		.ascii	"__CMSIS_H_ \000"
 14255      5349535F 
 14255      485F2000 
 14256              	.LASF1204:
 14257 5147 43686970 		.ascii	"Chip_SSP_SendFrame\000"
 14257      5F535350 
 14257      5F53656E 
 14257      64467261 
 14257      6D6500
 14258              	.LASF1011:
 14259 515a 4F445F45 		.ascii	"OD_EXP_RW 0x30\000"
 14259      58505F52 
 14259      57203078 
 14259      333000
 14260              	.LASF416:
 14261 5169 494E5431 		.ascii	"INT16_MIN (-__INT16_MAX__ - 1)\000"
 14261      365F4D49 
 14261      4E20282D 
 14261      5F5F494E 
 14261      5431365F 
 14262              	.LASF629:
 14263 5188 4C50435F 		.ascii	"LPC_USB ((LPC_USB_T *) LPC_USB0_BASE)\000"
 14263      55534220 
 14263      28284C50 
 14263      435F5553 
 14263      425F5420 
 14264              	.LASF609:
 14265 51ae 4C50435F 		.ascii	"LPC_GPIO_PORT1_BASE 0x50010000\000"
 14265      4750494F 
 14265      5F504F52 
 14265      54315F42 
 14265      41534520 
 14266              	.LASF607:
 14267 51cd 4C50435F 		.ascii	"LPC_SSP1_BASE 0x40058000\000"
 14267      53535031 
ARM GAS  /tmp/ccjsfSlY.s 			page 333


 14267      5F424153 
 14267      45203078 
 14267      34303035 
 14268              	.LASF920:
 14269 51e6 4932435F 		.ascii	"I2C_STAT_CODE_ERROR ((0xFF))\000"
 14269      53544154 
 14269      5F434F44 
 14269      455F4552 
 14269      524F5220 
 14270              	.LASF828:
 14271 5203 55415254 		.ascii	"UART_FDR_DIVADDVAL(n) (n & 0x0F)\000"
 14271      5F464452 
 14271      5F444956 
 14271      41444456 
 14271      414C286E 
 14272              	.LASF1219:
 14273 5224 43686970 		.ascii	"Chip_SSP_GetRawIntStatus\000"
 14273      5F535350 
 14273      5F476574 
 14273      52617749 
 14273      6E745374 
 14274              	.LASF166:
 14275 523d 5F5F4445 		.ascii	"__DEC32_MANT_DIG__ 7\000"
 14275      4333325F 
 14275      4D414E54 
 14275      5F444947 
 14275      5F5F2037 
 14276              	.LASF443:
 14277 5252 494E545F 		.ascii	"INT_FAST64_MIN (-__INT_FAST64_MAX__ - 1)\000"
 14277      46415354 
 14277      36345F4D 
 14277      494E2028 
 14277      2D5F5F49 
 14278              	.LASF1265:
 14279 527b 2E2E2F2E 		.ascii	"../../lpc11cx4-library/lpc_chip_11cxx_lib/src/ssp_1"
 14279      2E2F6C70 
 14279      63313163 
 14279      78342D6C 
 14279      69627261 
 14280 52ae 3178782E 		.ascii	"1xx.c\000"
 14280      6300
 14281              	.LASF350:
 14282 52b4 5F4D4143 		.ascii	"_MACHINE__DEFAULT_TYPES_H \000"
 14282      48494E45 
 14282      5F5F4445 
 14282      4641554C 
 14282      545F5459 
 14283              	.LASF23:
 14284 52cf 5F5F4249 		.ascii	"__BIGGEST_ALIGNMENT__ 8\000"
 14284      47474553 
 14284      545F414C 
 14284      49474E4D 
 14284      454E545F 
 14285              	.LASF949:
 14286 52e7 4932435F 		.ascii	"I2C_I2STAT_S_TX_DAT_NACK ((0xC0))\000"
 14286      49325354 
 14286      41545F53 
ARM GAS  /tmp/ccjsfSlY.s 			page 334


 14286      5F54585F 
 14286      4441545F 
 14287              	.LASF234:
 14288 5309 5F5F5553 		.ascii	"__USACCUM_MIN__ 0.0UHK\000"
 14288      41434355 
 14288      4D5F4D49 
 14288      4E5F5F20 
 14288      302E3055 
 14289              	.LASF550:
 14290 5320 5343425F 		.ascii	"SCB_SCR_SEVONPEND_Pos 4\000"
 14290      5343525F 
 14290      5345564F 
 14290      4E50454E 
 14290      445F506F 
 14291              	.LASF678:
 14292 5338 494F434F 		.ascii	"IOCON_HYS_EN (0x1 << 5)\000"
 14292      4E5F4859 
 14292      535F454E 
 14292      20283078 
 14292      31203C3C 
 14293              	.LASF1215:
 14294 5350 43686970 		.ascii	"Chip_Clock_GetSSP1ClockDiv\000"
 14294      5F436C6F 
 14294      636B5F47 
 14294      65745353 
 14294      5031436C 
 14295              	.LASF875:
 14296 536b 5F5F4C50 		.ascii	"__LPC_ERROR_H__ \000"
 14296      435F4552 
 14296      524F525F 
 14296      485F5F20 
 14296      00
 14297              	.LASF393:
 14298 537c 5F5F4C45 		.ascii	"__LEAST64 \"ll\"\000"
 14298      41535436 
 14298      3420226C 
 14298      6C2200
 14299              	.LASF1064:
 14300 538b 4D41494E 		.ascii	"MAINCLKUEN\000"
 14300      434C4B55 
 14300      454E00
 14301              	.LASF976:
 14302 5396 4932435F 		.ascii	"I2C_MONITOR_CFG_SCL_OUTPUT I2C_I2MMCTRL_ENA_SCL\000"
 14302      4D4F4E49 
 14302      544F525F 
 14302      4346475F 
 14302      53434C5F 
 14303              	.LASF928:
 14304 53c6 4932435F 		.ascii	"I2C_I2STAT_M_TX_DAT_NACK ((0x30))\000"
 14304      49325354 
 14304      41545F4D 
 14304      5F54585F 
 14304      4441545F 
 14305              	.LASF858:
 14306 53e8 5353505F 		.ascii	"SSP_CR1_LBM_EN ((uint32_t) (1 << 0))\000"
 14306      4352315F 
 14306      4C424D5F 
ARM GAS  /tmp/ccjsfSlY.s 			page 335


 14306      454E2028 
 14306      2875696E 
 14307              	.LASF532:
 14308 540d 5343425F 		.ascii	"SCB_ICSR_ISRPREEMPT_Pos 23\000"
 14308      49435352 
 14308      5F495352 
 14308      50524545 
 14308      4D50545F 
 14309              	.LASF1248:
 14310 5428 77646174 		.ascii	"wdata16\000"
 14310      61313600 
 14311              	.LASF522:
 14312 5430 5343425F 		.ascii	"SCB_ICSR_NMIPENDSET_Pos 31\000"
 14312      49435352 
 14312      5F4E4D49 
 14312      50454E44 
 14312      5345545F 
 14313              	.LASF1006:
 14314 544b 53444F5F 		.ascii	"SDO_ABORT_LOCAL 0x08000021UL\000"
 14314      41424F52 
 14314      545F4C4F 
 14314      43414C20 
 14314      30783038 
 14315              	.LASF722:
 14316 5468 5F5F5249 		.ascii	"__RING_BUFFER_H_ \000"
 14316      4E475F42 
 14316      55464645 
 14316      525F485F 
 14316      2000
 14317              	.LASF330:
 14318 547a 5F5F4152 		.ascii	"__ARM_ARCH_ISA_THUMB 1\000"
 14318      4D5F4152 
 14318      43485F49 
 14318      53415F54 
 14318      48554D42 
 14319              	.LASF107:
 14320 5491 5F5F5549 		.ascii	"__UINT_LEAST64_MAX__ 18446744073709551615ULL\000"
 14320      4E545F4C 
 14320      45415354 
 14320      36345F4D 
 14320      41585F5F 
 14321              	.LASF498:
 14322 54be 5F5F434D 		.ascii	"__CM0_CMSIS_VERSION_MAIN (0x03)\000"
 14322      305F434D 
 14322      5349535F 
 14322      56455253 
 14322      494F4E5F 
 14323              	.LASF109:
 14324 54de 5F5F494E 		.ascii	"__INT_FAST8_MAX__ 2147483647\000"
 14324      545F4641 
 14324      5354385F 
 14324      4D41585F 
 14324      5F203231 
 14325              	.LASF374:
 14326 54fb 6C6F6E67 		.ascii	"long\000"
 14326      00
 14327              	.LASF1052:
ARM GAS  /tmp/ccjsfSlY.s 			page 336


 14328 5500 5359534F 		.ascii	"SYSOSCCTRL\000"
 14328      53434354 
 14328      524C00
 14329              	.LASF373:
 14330 550b 73686F72 		.ascii	"short\000"
 14330      7400
 14331              	.LASF1200:
 14332 5511 43686970 		.ascii	"Chip_SSP_DATA_SETUP_T\000"
 14332      5F535350 
 14332      5F444154 
 14332      415F5345 
 14332      5455505F 
 14333              	.LASF915:
 14334 5527 4932435F 		.ascii	"I2C_CON_SI (1UL << 3)\000"
 14334      434F4E5F 
 14334      53492028 
 14334      31554C20 
 14334      3C3C2033 
 14335              	.LASF203:
 14336 553d 5F5F5546 		.ascii	"__UFRACT_IBIT__ 0\000"
 14336      52414354 
 14336      5F494249 
 14336      545F5F20 
 14336      3000
 14337              	.LASF911:
 14338 554f 4932435F 		.ascii	"I2C_I2CONCLR_STOC ((1 << 4))\000"
 14338      4932434F 
 14338      4E434C52 
 14338      5F53544F 
 14338      43202828 
 14339              	.LASF580:
 14340 556c 5343535F 		.ascii	"SCS_BASE (0xE000E000UL)\000"
 14340      42415345 
 14340      20283078 
 14340      45303030 
 14340      45303030 
 14341              	.LASF94:
 14342 5584 5F5F494E 		.ascii	"__INT8_C(c) c\000"
 14342      54385F43 
 14342      28632920 
 14342      6300
 14343              	.LASF208:
 14344 5592 5F5F4C46 		.ascii	"__LFRACT_IBIT__ 0\000"
 14344      52414354 
 14344      5F494249 
 14344      545F5F20 
 14344      3000
 14345              	.LASF895:
 14346 55a4 4144435F 		.ascii	"ADC_CR_EDGE ((1UL << 27))\000"
 14346      43525F45 
 14346      44474520 
 14346      28283155 
 14346      4C203C3C 
 14347              	.LASF496:
 14348 55be 5F5F5665 		.ascii	"__Vendor_SysTickConfig 0\000"
 14348      6E646F72 
 14348      5F537973 
ARM GAS  /tmp/ccjsfSlY.s 			page 337


 14348      5469636B 
 14348      436F6E66 
 14349              	.LASF726:
 14350 55d7 55415254 		.ascii	"UART_LOAD_DLL(div) ((div) & 0xFF)\000"
 14350      5F4C4F41 
 14350      445F444C 
 14350      4C286469 
 14350      76292028 
 14351              	.LASF521:
 14352 55f9 5343425F 		.ascii	"SCB_CPUID_REVISION_Msk (0xFUL << SCB_CPUID_REVISION"
 14352      43505549 
 14352      445F5245 
 14352      56495349 
 14352      4F4E5F4D 
 14353 562c 5F506F73 		.ascii	"_Pos)\000"
 14353      2900
 14354              	.LASF317:
 14355 5632 5F5F4743 		.ascii	"__GCC_ATOMIC_POINTER_LOCK_FREE 1\000"
 14355      435F4154 
 14355      4F4D4943 
 14355      5F504F49 
 14355      4E544552 
 14356              	.LASF140:
 14357 5653 5F5F4442 		.ascii	"__DBL_MIN_EXP__ (-1021)\000"
 14357      4C5F4D49 
 14357      4E5F4558 
 14357      505F5F20 
 14357      282D3130 
 14358              	.LASF700:
 14359 566b 4D445F4F 		.ascii	"MD_OPENDRAIN (0x1 << 10)\000"
 14359      50454E44 
 14359      5241494E 
 14359      20283078 
 14359      31203C3C 
 14360              	.LASF482:
 14361 5684 4E554C4C 		.ascii	"NULL ((void *) 0)\000"
 14361      20282876 
 14361      6F696420 
 14361      2A292030 
 14361      2900
 14362              	.LASF967:
 14363 5696 4932435F 		.ascii	"I2C_OK 0x00\000"
 14363      4F4B2030 
 14363      78303000 
 14364              	.LASF173:
 14365 56a2 5F5F4445 		.ascii	"__DEC64_MANT_DIG__ 16\000"
 14365      4336345F 
 14365      4D414E54 
 14365      5F444947 
 14365      5F5F2031 
 14366              	.LASF1151:
 14367 56b8 5353505F 		.ascii	"SSP_STAT_BSY\000"
 14367      53544154 
 14367      5F425359 
 14367      00
 14368              	.LASF979:
 14369 56c5 43414E5F 		.ascii	"CAN_ERROR_NONE 0x00000000UL\000"
ARM GAS  /tmp/ccjsfSlY.s 			page 338


 14369      4552524F 
 14369      525F4E4F 
 14369      4E452030 
 14369      78303030 
 14370              	.LASF1125:
 14371 56e1 53595343 		.ascii	"SYSCTL_CLOCK_FLASHREG\000"
 14371      544C5F43 
 14371      4C4F434B 
 14371      5F464C41 
 14371      53485245 
 14372              	.LASF378:
 14373 56f7 73686F72 		.ascii	"short +1\000"
 14373      74202B31 
 14373      00
 14374              	.LASF800:
 14375 5700 55415254 		.ascii	"UART_MSR_DSR (1 << 5)\000"
 14375      5F4D5352 
 14375      5F445352 
 14375      20283120 
 14375      3C3C2035 
 14376              	.LASF176:
 14377 5716 5F5F4445 		.ascii	"__DEC64_MIN__ 1E-383DD\000"
 14377      4336345F 
 14377      4D494E5F 
 14377      5F203145 
 14377      2D333833 
 14378              	.LASF702:
 14379 572d 46554E43 		.ascii	"FUNC1 0x1\000"
 14379      31203078 
 14379      3100
 14380              	.LASF467:
 14381 5737 55494E54 		.ascii	"UINTMAX_C(x) __UINTMAX_C(x)\000"
 14381      4D41585F 
 14381      43287829 
 14381      205F5F55 
 14381      494E544D 
 14382              	.LASF1269:
 14383 5753 4F736352 		.ascii	"OscRateIn\000"
 14383      61746549 
 14383      6E00
 14384              	.LASF365:
 14385 575d 5F5F4558 		.ascii	"__EXP\000"
 14385      5000
 14386              	.LASF680:
 14387 5763 494F434F 		.ascii	"IOCON_ADMODE_EN (0x0 << 7)\000"
 14387      4E5F4144 
 14387      4D4F4445 
 14387      5F454E20 
 14387      28307830 
 14388              	.LASF360:
 14389 577e 5F5F5F69 		.ascii	"___int64_t_defined 1\000"
 14389      6E743634 
 14389      5F745F64 
 14389      6566696E 
 14389      65642031 
 14390              	.LASF163:
 14391 5793 5F5F4C44 		.ascii	"__LDBL_HAS_DENORM__ 1\000"
ARM GAS  /tmp/ccjsfSlY.s 			page 339


 14391      424C5F48 
 14391      41535F44 
 14391      454E4F52 
 14391      4D5F5F20 
 14392              	.LASF227:
 14393 57a9 5F5F5341 		.ascii	"__SACCUM_FBIT__ 7\000"
 14393      4343554D 
 14393      5F464249 
 14393      545F5F20 
 14393      3700
 14394              	.LASF1159:
 14395 57bb 5353505F 		.ascii	"SSP_RAWINTSTATUS_T\000"
 14395      52415749 
 14395      4E545354 
 14395      41545553 
 14395      5F5400
 14396              	.LASF728:
 14397 57ce 55415254 		.ascii	"UART_LOAD_DLM(div) (((div) >> 8) & 0xFF)\000"
 14397      5F4C4F41 
 14397      445F444C 
 14397      4D286469 
 14397      76292028 
 14398              	.LASF730:
 14399 57f7 55415254 		.ascii	"UART_IER_RBRINT (1 << 0)\000"
 14399      5F494552 
 14399      5F524252 
 14399      494E5420 
 14399      2831203C 
 14400              	.LASF108:
 14401 5810 5F5F5549 		.ascii	"__UINT64_C(c) c ## ULL\000"
 14401      4E543634 
 14401      5F432863 
 14401      29206320 
 14401      23232055 
 14402              	.LASF579:
 14403 5827 53797354 		.ascii	"SysTick_CALIB_TENMS_Msk (0xFFFFFFUL << SysTick_VAL_"
 14403      69636B5F 
 14403      43414C49 
 14403      425F5445 
 14403      4E4D535F 
 14404 585a 43555252 		.ascii	"CURRENT_Pos)\000"
 14404      454E545F 
 14404      506F7329 
 14404      00
 14405              	.LASF606:
 14406 5867 4C50435F 		.ascii	"LPC_CAN0_BASE 0x40050000\000"
 14406      43414E30 
 14406      5F424153 
 14406      45203078 
 14406      34303035 
 14407              	.LASF1135:
 14408 5880 53595343 		.ascii	"SYSCTL_CLOCK_ADC\000"
 14408      544C5F43 
 14408      4C4F434B 
 14408      5F414443 
 14408      00
 14409              	.LASF696:
ARM GAS  /tmp/ccjsfSlY.s 			page 340


 14410 5891 4D445F45 		.ascii	"MD_ENFIL (0x1 << 8)\000"
 14410      4E46494C 
 14410      20283078 
 14410      31203C3C 
 14410      20382900 
 14411              	.LASF1001:
 14412 58a5 53444F5F 		.ascii	"SDO_ABORT_ACCINCOMP 0x06040047UL\000"
 14412      41424F52 
 14412      545F4143 
 14412      43494E43 
 14412      4F4D5020 
 14413              	.LASF826:
 14414 58c6 55415254 		.ascii	"UART_SCICTRL_TXRETRY(n) ((n & 0x07) << 5)\000"
 14414      5F534349 
 14414      4354524C 
 14414      5F545852 
 14414      45545259 
 14415              	.LASF198:
 14416 58f0 5F5F4652 		.ascii	"__FRACT_IBIT__ 0\000"
 14416      4143545F 
 14416      49424954 
 14416      5F5F2030 
 14416      00
 14417              	.LASF90:
 14418 5901 5F5F5549 		.ascii	"__UINT16_MAX__ 65535\000"
 14418      4E543136 
 14418      5F4D4158 
 14418      5F5F2036 
 14418      35353335 
 14419              	.LASF710:
 14420 5916 54494D45 		.ascii	"TIMER_IR_CLR(n) _BIT(n)\000"
 14420      525F4952 
 14420      5F434C52 
 14420      286E2920 
 14420      5F424954 
 14421              	.LASF997:
 14422 592e 53444F5F 		.ascii	"SDO_ABORT_WRITEONLY 0x06010001UL\000"
 14422      41424F52 
 14422      545F5752 
 14422      4954454F 
 14422      4E4C5920 
 14423              	.LASF843:
 14424 594f 57574454 		.ascii	"WWDT_WDMOD_WDRESET ((uint32_t) (1 << 1))\000"
 14424      5F57444D 
 14424      4F445F57 
 14424      44524553 
 14424      45542028 
 14425              	.LASF24:
 14426 5978 5F5F4F52 		.ascii	"__ORDER_LITTLE_ENDIAN__ 1234\000"
 14426      4445525F 
 14426      4C495454 
 14426      4C455F45 
 14426      4E444941 
 14427              	.LASF961:
 14428 5995 4932435F 		.ascii	"I2C_I2MASK_MASK(n) ((n & 0xFE))\000"
 14428      49324D41 
 14428      534B5F4D 
ARM GAS  /tmp/ccjsfSlY.s 			page 341


 14428      41534B28 
 14428      6E292028 
 14429              	.LASF1033:
 14430 59b5 6C6F6E67 		.ascii	"long long unsigned int\000"
 14430      206C6F6E 
 14430      6720756E 
 14430      7369676E 
 14430      65642069 
 14431              	.LASF433:
 14432 59cc 55494E54 		.ascii	"UINT_LEAST64_MAX (__UINT_LEAST64_MAX__)\000"
 14432      5F4C4541 
 14432      53543634 
 14432      5F4D4158 
 14432      20285F5F 
 14433              	.LASF253:
 14434 59f4 5F5F554C 		.ascii	"__ULACCUM_IBIT__ 32\000"
 14434      41434355 
 14434      4D5F4942 
 14434      49545F5F 
 14434      20333200 
 14435              	.LASF436:
 14436 5a08 55494E54 		.ascii	"UINT_FAST8_MAX (__UINT_FAST8_MAX__)\000"
 14436      5F464153 
 14436      54385F4D 
 14436      41582028 
 14436      5F5F5549 
 14437              	.LASF1136:
 14438 5a2c 53595343 		.ascii	"SYSCTL_CLOCK_RESERVED14\000"
 14438      544C5F43 
 14438      4C4F434B 
 14438      5F524553 
 14438      45525645 
 14439              	.LASF1260:
 14440 5a44 6372305F 		.ascii	"cr0_div\000"
 14440      64697600 
 14441              	.LASF328:
 14442 5a4c 5F5F4150 		.ascii	"__APCS_32__ 1\000"
 14442      43535F33 
 14442      325F5F20 
 14442      3100
 14443              	.LASF1232:
 14444 5a5a 43686970 		.ascii	"Chip_Clock_EnablePeriphClock\000"
 14444      5F436C6F 
 14444      636B5F45 
 14444      6E61626C 
 14444      65506572 
 14445              	.LASF879:
 14446 5a77 4144435F 		.ascii	"ADC_DR_RESULT(n) ((((n) >> 6) & 0x3FF))\000"
 14446      44525F52 
 14446      4553554C 
 14446      54286E29 
 14446      20282828 
 14447              	.LASF1199:
 14448 5a9f 6C656E67 		.ascii	"length\000"
 14448      746800
 14449              	.LASF1035:
 14450 5aa6 75696E74 		.ascii	"uint16_t\000"
ARM GAS  /tmp/ccjsfSlY.s 			page 342


 14450      31365F74 
 14450      00
 14451              	.LASF273:
 14452 5aaf 5F5F4451 		.ascii	"__DQ_FBIT__ 63\000"
 14452      5F464249 
 14452      545F5F20 
 14452      363300
 14453              	.LASF1134:
 14454 5abe 53595343 		.ascii	"SYSCTL_CLOCK_UART0\000"
 14454      544C5F43 
 14454      4C4F434B 
 14454      5F554152 
 14454      543000
 14455              	.LASF1127:
 14456 5ad1 53595343 		.ascii	"SYSCTL_CLOCK_I2C\000"
 14456      544C5F43 
 14456      4C4F434B 
 14456      5F493243 
 14456      00
 14457              	.LASF61:
 14458 5ae2 5F5F5549 		.ascii	"__UINT_FAST32_TYPE__ unsigned int\000"
 14458      4E545F46 
 14458      41535433 
 14458      325F5459 
 14458      50455F5F 
 14459              	.LASF56:
 14460 5b04 5F5F494E 		.ascii	"__INT_FAST16_TYPE__ int\000"
 14460      545F4641 
 14460      53543136 
 14460      5F545950 
 14460      455F5F20 
 14461              	.LASF651:
 14462 5b1c 53595343 		.ascii	"SYSCTL_SLPWAKE_ADC_PD (1 << 4)\000"
 14462      544C5F53 
 14462      4C505741 
 14462      4B455F41 
 14462      44435F50 
 14463              	.LASF640:
 14464 5b3b 53595343 		.ascii	"SYSCTL_RST_EXTRST (1 << 1)\000"
 14464      544C5F52 
 14464      53545F45 
 14464      58545253 
 14464      54202831 
 14465              	.LASF1017:
 14466 5b56 43414E5F 		.ascii	"CAN_SDOREQ_HANDLED_NOSEND 2\000"
 14466      53444F52 
 14466      45515F48 
 14466      414E444C 
 14466      45445F4E 
 14467              	.LASF229:
 14468 5b72 5F5F5341 		.ascii	"__SACCUM_MIN__ (-0X1P7HK-0X1P7HK)\000"
 14468      4343554D 
 14468      5F4D494E 
 14468      5F5F2028 
 14468      2D305831 
 14469              	.LASF215:
 14470 5b94 5F5F554C 		.ascii	"__ULFRACT_MAX__ 0XFFFFFFFFP-32ULR\000"
ARM GAS  /tmp/ccjsfSlY.s 			page 343


 14470      46524143 
 14470      545F4D41 
 14470      585F5F20 
 14470      30584646 
 14471              	.LASF572:
 14472 5bb6 53797354 		.ascii	"SysTick_VAL_CURRENT_Pos 0\000"
 14472      69636B5F 
 14472      56414C5F 
 14472      43555252 
 14472      454E545F 
 14473              	.LASF52:
 14474 5bd0 5F5F5549 		.ascii	"__UINT_LEAST16_TYPE__ short unsigned int\000"
 14474      4E545F4C 
 14474      45415354 
 14474      31365F54 
 14474      5950455F 
 14475              	.LASF896:
 14476 5bf9 4144435F 		.ascii	"ADC_SAMPLE_RATE_CONFIG_MASK (ADC_CR_CLKDIV(0xFF) | "
 14476      53414D50 
 14476      4C455F52 
 14476      4154455F 
 14476      434F4E46 
 14477 5c2c 4144435F 		.ascii	"ADC_CR_BITACC(0x07))\000"
 14477      43525F42 
 14477      49544143 
 14477      43283078 
 14477      30372929 
 14478              	.LASF1086:
 14479 5c41 52455345 		.ascii	"RESERVED10\000"
 14479      52564544 
 14479      313000
 14480              	.LASF1089:
 14481 5c4c 52455345 		.ascii	"RESERVED11\000"
 14481      52564544 
 14481      313100
 14482              	.LASF1095:
 14483 5c57 52455345 		.ascii	"RESERVED12\000"
 14483      52564544 
 14483      313200
 14484              	.LASF1100:
 14485 5c62 52455345 		.ascii	"RESERVED13\000"
 14485      52564544 
 14485      313300
 14486              	.LASF1102:
 14487 5c6d 52455345 		.ascii	"RESERVED14\000"
 14487      52564544 
 14487      313400
 14488              	.LASF1106:
 14489 5c78 52455345 		.ascii	"RESERVED15\000"
 14489      52564544 
 14489      313500
 14490              	.LASF1255:
 14491 5c83 43686970 		.ascii	"Chip_SSP_SetMaster\000"
 14491      5F535350 
 14491      5F536574 
 14491      4D617374 
 14491      657200
ARM GAS  /tmp/ccjsfSlY.s 			page 344


 14492              	.LASF1149:
 14493 5c96 5353505F 		.ascii	"SSP_STAT_RNE\000"
 14493      53544154 
 14493      5F524E45 
 14493      00
 14494              	.LASF103:
 14495 5ca3 5F5F5549 		.ascii	"__UINT_LEAST16_MAX__ 65535\000"
 14495      4E545F4C 
 14495      45415354 
 14495      31365F4D 
 14495      41585F5F 
 14496              	.LASF285:
 14497 5cbe 5F5F5554 		.ascii	"__UTQ_FBIT__ 128\000"
 14497      515F4642 
 14497      49545F5F 
 14497      20313238 
 14497      00
 14498              	.LASF576:
 14499 5ccf 53797354 		.ascii	"SysTick_CALIB_SKEW_Pos 30\000"
 14499      69636B5F 
 14499      43414C49 
 14499      425F534B 
 14499      45575F50 
 14500              	.LASF717:
 14501 5ce9 54494D45 		.ascii	"TIMER_STOP_ON_MATCH(n) (_BIT((((n) * 3) + 2)))\000"
 14501      525F5354 
 14501      4F505F4F 
 14501      4E5F4D41 
 14501      54434828 
 14502              	.LASF971:
 14503 5d18 4932435F 		.ascii	"I2C_SEND_END 0x08\000"
 14503      53454E44 
 14503      5F454E44 
 14503      20307830 
 14503      3800
 14504              	.LASF964:
 14505 5d2a 4932435F 		.ascii	"I2C_SETUP_STATUS_ARBF (1 << 8)\000"
 14505      53455455 
 14505      505F5354 
 14505      41545553 
 14505      5F415242 
 14506              	.LASF261:
 14507 5d49 5F5F4C4C 		.ascii	"__LLACCUM_EPSILON__ 0x1P-31LLK\000"
 14507      41434355 
 14507      4D5F4550 
 14507      53494C4F 
 14507      4E5F5F20 
 14508              	.LASF13:
 14509 5d68 5F5F4649 		.ascii	"__FINITE_MATH_ONLY__ 0\000"
 14509      4E495445 
 14509      5F4D4154 
 14509      485F4F4E 
 14509      4C595F5F 
 14510              	.LASF737:
 14511 5d7f 55415254 		.ascii	"UART_IER_BITMASK (0x307)\000"
 14511      5F494552 
 14511      5F424954 
ARM GAS  /tmp/ccjsfSlY.s 			page 345


 14511      4D41534B 
 14511      20283078 
 14512              	.LASF368:
 14513 5d98 5F5F6861 		.ascii	"__have_longlong64 1\000"
 14513      76655F6C 
 14513      6F6E676C 
 14513      6F6E6736 
 14513      34203100 
 14514              	.LASF512:
 14515 5dac 5343425F 		.ascii	"SCB_CPUID_IMPLEMENTER_Pos 24\000"
 14515      43505549 
 14515      445F494D 
 14515      504C454D 
 14515      454E5445 
 14516              	.LASF1175:
 14517 5dc9 5353505F 		.ascii	"SSP_FRAMEFORMAT_SPI\000"
 14517      4652414D 
 14517      45464F52 
 14517      4D41545F 
 14517      53504900 
 14518              	.LASF1067:
 14519 5ddd 53595341 		.ascii	"SYSAHBCLKCTRL\000"
 14519      4842434C 
 14519      4B435452 
 14519      4C00
 14520              	.LASF490:
 14521 5deb 5F5F5359 		.ascii	"__SYS_CONFIG_H_ \000"
 14521      535F434F 
 14521      4E464947 
 14521      5F485F20 
 14521      00
 14522              	.LASF623:
 14523 5dfc 4C50435F 		.ascii	"LPC_FMC ((LPC_FMC_T *) LPC_FLASH_BASE)\000"
 14523      464D4320 
 14523      28284C50 
 14523      435F464D 
 14523      435F5420 
 14524              	.LASF1054:
 14525 5e23 49524343 		.ascii	"IRCCTRL\000"
 14525      54524C00 
 14526              	.LASF833:
 14527 5e2b 55415254 		.ascii	"UART_SYNCCTRL_SYNC (1 << 0)\000"
 14527      5F53594E 
 14527      43435452 
 14527      4C5F5359 
 14527      4E432028 
 14528              	.LASF327:
 14529 5e47 5F5F4152 		.ascii	"__ARM_ARCH 6\000"
 14529      4D5F4152 
 14529      43482036 
 14529      00
 14530              	.LASF382:
 14531 5e54 5F5F494E 		.ascii	"__INT8 \"hh\"\000"
 14531      54382022 
 14531      68682200 
 14532              	.LASF968:
 14533 5e60 4932435F 		.ascii	"I2C_BYTE_SENT 0x01\000"
ARM GAS  /tmp/ccjsfSlY.s 			page 346


 14533      42595445 
 14533      5F53454E 
 14533      54203078 
 14533      303100
 14534              	.LASF255:
 14535 5e73 5F5F554C 		.ascii	"__ULACCUM_MAX__ 0XFFFFFFFFFFFFFFFFP-32ULK\000"
 14535      41434355 
 14535      4D5F4D41 
 14535      585F5F20 
 14535      30584646 
 14536              	.LASF1041:
 14537 5e9d 53554343 		.ascii	"SUCCESS\000"
 14537      45535300 
 14538              	.LASF605:
 14539 5ea5 4C50435F 		.ascii	"LPC_USB0_BASE 0x40080000\000"
 14539      55534230 
 14539      5F424153 
 14539      45203078 
 14539      34303038 
 14540              	.LASF214:
 14541 5ebe 5F5F554C 		.ascii	"__ULFRACT_MIN__ 0.0ULR\000"
 14541      46524143 
 14541      545F4D49 
 14541      4E5F5F20 
 14541      302E3055 
 14542              	.LASF1104:
 14543 5ed5 50445741 		.ascii	"PDWAKECFG\000"
 14543      4B454346 
 14543      4700
 14544              	.LASF274:
 14545 5edf 5F5F4451 		.ascii	"__DQ_IBIT__ 0\000"
 14545      5F494249 
 14545      545F5F20 
 14545      3000
 14546              	.LASF1094:
 14547 5eed 55534243 		.ascii	"USBCLKST\000"
 14547      4C4B5354 
 14547      00
 14548              	.LASF1046:
 14549 5ef6 50524553 		.ascii	"PRESETCTRL\000"
 14549      45544354 
 14549      524C00
 14550              	.LASF654:
 14551 5f01 53595343 		.ascii	"SYSCTL_SLPWAKE_SYSPLL_PD (1 << 7)\000"
 14551      544C5F53 
 14551      4C505741 
 14551      4B455F53 
 14551      5953504C 
 14552              	.LASF681:
 14553 5f23 494F434F 		.ascii	"IOCON_DIGMODE_EN (0x1 << 7)\000"
 14553      4E5F4449 
 14553      474D4F44 
 14553      455F454E 
 14553      20283078 
 14554              	.LASF514:
 14555 5f3f 5343425F 		.ascii	"SCB_CPUID_VARIANT_Pos 20\000"
 14555      43505549 
ARM GAS  /tmp/ccjsfSlY.s 			page 347


 14555      445F5641 
 14555      5249414E 
 14555      545F506F 
 14556              	.LASF646:
 14557 5f58 53595343 		.ascii	"SYSCTL_DEEPSLP_WDTOSC_PD (1 << 6)\000"
 14557      544C5F44 
 14557      45455053 
 14557      4C505F57 
 14557      44544F53 
 14558              	.LASF746:
 14559 5f7a 55415254 		.ascii	"UART_IIR_INTID_RLS (3 << 1)\000"
 14559      5F494952 
 14559      5F494E54 
 14559      49445F52 
 14559      4C532028 
 14560              	.LASF99:
 14561 5f96 5F5F494E 		.ascii	"__INT_LEAST64_MAX__ 9223372036854775807LL\000"
 14561      545F4C45 
 14561      41535436 
 14561      345F4D41 
 14561      585F5F20 
 14562              	.LASF588:
 14563 5fc0 5F534850 		.ascii	"_SHP_IDX(IRQn) ( ((((uint32_t)(IRQn) & 0x0F)-8) >> "
 14563      5F494458 
 14563      28495251 
 14563      6E292028 
 14563      20282828 
 14564 5ff3 32292029 		.ascii	"2) )\000"
 14564      00
 14565              	.LASF615:
 14566 5ff8 4C50435F 		.ascii	"LPC_WWDT ((LPC_WWDT_T *) LPC_WWDT_BASE)\000"
 14566      57574454 
 14566      2028284C 
 14566      50435F57 
 14566      5744545F 
 14567              	.LASF567:
 14568 6020 53797354 		.ascii	"SysTick_CTRL_TICKINT_Msk (1UL << SysTick_CTRL_TICKI"
 14568      69636B5F 
 14568      4354524C 
 14568      5F544943 
 14568      4B494E54 
 14569 6053 4E545F50 		.ascii	"NT_Pos)\000"
 14569      6F732900 
 14570              	.LASF801:
 14571 605b 55415254 		.ascii	"UART_MSR_RI (1 << 6)\000"
 14571      5F4D5352 
 14571      5F524920 
 14571      2831203C 
 14571      3C203629 
 14572              	.LASF335:
 14573 6070 5F5F4152 		.ascii	"__ARM_FP 12\000"
 14573      4D5F4650 
 14573      20313200 
 14574              	.LASF78:
 14575 607c 5F5F5349 		.ascii	"__SIZE_MAX__ 4294967295U\000"
 14575      5A455F4D 
 14575      41585F5F 
ARM GAS  /tmp/ccjsfSlY.s 			page 348


 14575      20343239 
 14575      34393637 
 14576              	.LASF1037:
 14577 6095 52455345 		.ascii	"RESET\000"
 14577      5400
 14578              	.LASF286:
 14579 609b 5F5F5554 		.ascii	"__UTQ_IBIT__ 0\000"
 14579      515F4942 
 14579      49545F5F 
 14579      203000
 14580              	.LASF289:
 14581 60aa 5F5F5341 		.ascii	"__SA_FBIT__ 15\000"
 14581      5F464249 
 14581      545F5F20 
 14581      313500
 14582              	.LASF221:
 14583 60b9 5F5F4C4C 		.ascii	"__LLFRACT_EPSILON__ 0x1P-63LLR\000"
 14583      46524143 
 14583      545F4550 
 14583      53494C4F 
 14583      4E5F5F20 
 14584              	.LASF829:
 14585 60d8 55415254 		.ascii	"UART_FDR_MULVAL(n) ((n << 4) & 0xF0)\000"
 14585      5F464452 
 14585      5F4D554C 
 14585      56414C28 
 14585      6E292028 
 14586              	.LASF1196:
 14587 60fd 74785F63 		.ascii	"tx_cnt\000"
 14587      6E7400
 14588              	.LASF703:
 14589 6104 46554E43 		.ascii	"FUNC2 0x2\000"
 14589      32203078 
 14589      3200
 14590              	.LASF1077:
 14591 610e 57445443 		.ascii	"WDTCLKSEL\000"
 14591      4C4B5345 
 14591      4C00
 14592              	.LASF608:
 14593 6118 4C50435F 		.ascii	"LPC_GPIO_PORT0_BASE 0x50000000\000"
 14593      4750494F 
 14593      5F504F52 
 14593      54305F42 
 14593      41534520 
 14594              	.LASF806:
 14595 6137 55415254 		.ascii	"UART_ACR_AUTO_RESTART (1 << 2)\000"
 14595      5F414352 
 14595      5F415554 
 14595      4F5F5245 
 14595      53544152 
 14596              	.LASF342:
 14597 6156 5F5F454C 		.ascii	"__ELF__ 1\000"
 14597      465F5F20 
 14597      3100
 14598              	.LASF422:
 14599 6160 494E5433 		.ascii	"INT32_MIN (-__INT32_MAX__ - 1)\000"
 14599      325F4D49 
ARM GAS  /tmp/ccjsfSlY.s 			page 349


 14599      4E20282D 
 14599      5F5F494E 
 14599      5433325F 
 14600              	.LASF85:
 14601 617f 5F5F494E 		.ascii	"__INT8_MAX__ 127\000"
 14601      54385F4D 
 14601      41585F5F 
 14601      20313237 
 14601      00
 14602              	.LASF669:
 14603 6190 494F434F 		.ascii	"IOCON_FUNC3 0x3\000"
 14603      4E5F4655 
 14603      4E433320 
 14603      30783300 
 14604              	.LASF1008:
 14605 61a0 4F445F4E 		.ascii	"OD_NONE 0x00\000"
 14605      4F4E4520 
 14605      30783030 
 14605      00
 14606              	.LASF268:
 14607 61ad 5F5F5151 		.ascii	"__QQ_IBIT__ 0\000"
 14607      5F494249 
 14607      545F5F20 
 14607      3000
 14608              	.LASF894:
 14609 61bb 4144435F 		.ascii	"ADC_CR_START_MCOA2 ((6UL << 24))\000"
 14609      43525F53 
 14609      54415254 
 14609      5F4D434F 
 14609      41322028 
 14610              	.LASF887:
 14611 61dc 4144435F 		.ascii	"ADC_CR_START_MASK ((7UL << 24))\000"
 14611      43525F53 
 14611      54415254 
 14611      5F4D4153 
 14611      4B202828 
 14612              	.LASF593:
 14613 61fc 4C50435F 		.ascii	"LPC_TIMER16_0_BASE 0x4000C000\000"
 14613      54494D45 
 14613      5231365F 
 14613      305F4241 
 14613      53452030 
 14614              	.LASF941:
 14615 621a 4932435F 		.ascii	"I2C_I2STAT_S_RX_PRE_SLA_DAT_ACK ((0x80))\000"
 14615      49325354 
 14615      41545F53 
 14615      5F52585F 
 14615      5052455F 
 14616              	.LASF465:
 14617 6243 55494E54 		.ascii	"UINT64_C(x) __UINT64_C(x)\000"
 14617      36345F43 
 14617      28782920 
 14617      5F5F5549 
 14617      4E543634 
 14618              	.LASF257:
 14619 625d 5F5F4C4C 		.ascii	"__LLACCUM_FBIT__ 31\000"
 14619      41434355 
ARM GAS  /tmp/ccjsfSlY.s 			page 350


 14619      4D5F4642 
 14619      49545F5F 
 14619      20333100 
 14620              	.LASF81:
 14621 6271 5F5F5549 		.ascii	"__UINTMAX_MAX__ 18446744073709551615ULL\000"
 14621      4E544D41 
 14621      585F4D41 
 14621      585F5F20 
 14621      31383434 
 14622              	.LASF129:
 14623 6299 5F5F464C 		.ascii	"__FLT_MAX_10_EXP__ 38\000"
 14623      545F4D41 
 14623      585F3130 
 14623      5F455850 
 14623      5F5F2033 
 14624              	.LASF415:
 14625 62af 55494E54 		.ascii	"UINT_LEAST8_MAX (__UINT_LEAST8_MAX__)\000"
 14625      5F4C4541 
 14625      5354385F 
 14625      4D415820 
 14625      285F5F55 
 14626              	.LASF282:
 14627 62d5 5F5F5553 		.ascii	"__USQ_IBIT__ 0\000"
 14627      515F4942 
 14627      49545F5F 
 14627      203000
 14628              	.LASF53:
 14629 62e4 5F5F5549 		.ascii	"__UINT_LEAST32_TYPE__ long unsigned int\000"
 14629      4E545F4C 
 14629      45415354 
 14629      33325F54 
 14629      5950455F 
 14630              	.LASF280:
 14631 630c 5F5F5548 		.ascii	"__UHQ_IBIT__ 0\000"
 14631      515F4942 
 14631      49545F5F 
 14631      203000
 14632              	.LASF3:
 14633 631b 5F5F474E 		.ascii	"__GNUC_MINOR__ 9\000"
 14633      55435F4D 
 14633      494E4F52 
 14633      5F5F2039 
 14633      00
 14634              	.LASF1038:
 14635 632c 466C6167 		.ascii	"FlagStatus\000"
 14635      53746174 
 14635      757300
 14636              	.LASF313:
 14637 6337 5F5F4743 		.ascii	"__GCC_ATOMIC_INT_LOCK_FREE 1\000"
 14637      435F4154 
 14637      4F4D4943 
 14637      5F494E54 
 14637      5F4C4F43 
 14638              	.LASF97:
 14639 6354 5F5F494E 		.ascii	"__INT_LEAST32_MAX__ 2147483647L\000"
 14639      545F4C45 
 14639      41535433 
ARM GAS  /tmp/ccjsfSlY.s 			page 351


 14639      325F4D41 
 14639      585F5F20 
 14640              	.LASF306:
 14641 6374 5F5F4348 		.ascii	"__CHAR_UNSIGNED__ 1\000"
 14641      41525F55 
 14641      4E534947 
 14641      4E45445F 
 14641      5F203100 
 14642              	.LASF1258:
 14643 6388 62697452 		.ascii	"bitRate\000"
 14643      61746500 
 14644              	.LASF1203:
 14645 6390 70657269 		.ascii	"periph\000"
 14645      706800
 14646              	.LASF933:
 14647 6397 4932435F 		.ascii	"I2C_I2STAT_M_RX_SLAR_ACK ((0x40))\000"
 14647      49325354 
 14647      41545F4D 
 14647      5F52585F 
 14647      534C4152 
 14648              	.LASF676:
 14649 63b9 494F434F 		.ascii	"IOCON_MODE_PULLUP (0x2 << 3)\000"
 14649      4E5F4D4F 
 14649      44455F50 
 14649      554C4C55 
 14649      50202830 
 14650              	.LASF762:
 14651 63d6 55415254 		.ascii	"UART_LCR_WLEN5 (0 << 0)\000"
 14651      5F4C4352 
 14651      5F574C45 
 14651      4E352028 
 14651      30203C3C 
 14652              	.LASF1185:
 14653 63ee 5353505F 		.ascii	"SSP_BITS_10\000"
 14653      42495453 
 14653      5F313000 
 14654              	.LASF1186:
 14655 63fa 5353505F 		.ascii	"SSP_BITS_11\000"
 14655      42495453 
 14655      5F313100 
 14656              	.LASF1177:
 14657 6406 5353505F 		.ascii	"SSP_FRAMEFORMAT_MICROWIRE\000"
 14657      4652414D 
 14657      45464F52 
 14657      4D41545F 
 14657      4D494352 
 14658              	.LASF1188:
 14659 6420 5353505F 		.ascii	"SSP_BITS_13\000"
 14659      42495453 
 14659      5F313300 
 14660              	.LASF1189:
 14661 642c 5353505F 		.ascii	"SSP_BITS_14\000"
 14661      42495453 
 14661      5F313400 
 14662              	.LASF1190:
 14663 6438 5353505F 		.ascii	"SSP_BITS_15\000"
 14663      42495453 
ARM GAS  /tmp/ccjsfSlY.s 			page 352


 14663      5F313500 
 14664              	.LASF1191:
 14665 6444 5353505F 		.ascii	"SSP_BITS_16\000"
 14665      42495453 
 14665      5F313600 
 14666              	.LASF462:
 14667 6450 494E5433 		.ascii	"INT32_C(x) __INT32_C(x)\000"
 14667      325F4328 
 14667      7829205F 
 14667      5F494E54 
 14667      33325F43 
 14668              	.LASF439:
 14669 6468 55494E54 		.ascii	"UINT_FAST16_MAX (__UINT_FAST16_MAX__)\000"
 14669      5F464153 
 14669      5431365F 
 14669      4D415820 
 14669      285F5F55 
 14670              	.LASF220:
 14671 648e 5F5F4C4C 		.ascii	"__LLFRACT_MAX__ 0X7FFFFFFFFFFFFFFFP-63LLR\000"
 14671      46524143 
 14671      545F4D41 
 14671      585F5F20 
 14671      30583746 
 14672              	.LASF571:
 14673 64b8 53797354 		.ascii	"SysTick_LOAD_RELOAD_Msk (0xFFFFFFUL << SysTick_LOAD"
 14673      69636B5F 
 14673      4C4F4144 
 14673      5F52454C 
 14673      4F41445F 
 14674 64eb 5F52454C 		.ascii	"_RELOAD_Pos)\000"
 14674      4F41445F 
 14674      506F7329 
 14674      00
 14675              	.LASF427:
 14676 64f8 55494E54 		.ascii	"UINT_LEAST32_MAX (__UINT_LEAST32_MAX__)\000"
 14676      5F4C4541 
 14676      53543332 
 14676      5F4D4158 
 14676      20285F5F 
 14677              	.LASF1142:
 14678 6520 43505352 		.ascii	"CPSR\000"
 14678      00
 14679              	.LASF664:
 14680 6525 53595343 		.ascii	"SYSCTL_IRC_FREQ (12000000)\000"
 14680      544C5F49 
 14680      52435F46 
 14680      52455120 
 14680      28313230 
 14681              	.LASF77:
 14682 6540 5F5F5054 		.ascii	"__PTRDIFF_MAX__ 2147483647\000"
 14682      52444946 
 14682      465F4D41 
 14682      585F5F20 
 14682      32313437 
 14683              	.LASF525:
 14684 655b 5343425F 		.ascii	"SCB_ICSR_PENDSVSET_Msk (1UL << SCB_ICSR_PENDSVSET_P"
 14684      49435352 
ARM GAS  /tmp/ccjsfSlY.s 			page 353


 14684      5F50454E 
 14684      44535653 
 14684      45545F4D 
 14685 658e 6F732900 		.ascii	"os)\000"
 14686              	.LASF574:
 14687 6592 53797354 		.ascii	"SysTick_CALIB_NOREF_Pos 31\000"
 14687      69636B5F 
 14687      43414C49 
 14687      425F4E4F 
 14687      5245465F 
 14688              	.LASF230:
 14689 65ad 5F5F5341 		.ascii	"__SACCUM_MAX__ 0X7FFFP-7HK\000"
 14689      4343554D 
 14689      5F4D4158 
 14689      5F5F2030 
 14689      58374646 
 14690              	.LASF63:
 14691 65c8 5F5F494E 		.ascii	"__INTPTR_TYPE__ int\000"
 14691      54505452 
 14691      5F545950 
 14691      455F5F20 
 14691      696E7400 
 14692              	.LASF36:
 14693 65dc 5F5F4348 		.ascii	"__CHAR16_TYPE__ short unsigned int\000"
 14693      41523136 
 14693      5F545950 
 14693      455F5F20 
 14693      73686F72 
 14694              	.LASF1233:
 14695 65ff 43686970 		.ascii	"Chip_SSP_SetSSPClkDivider\000"
 14695      5F535350 
 14695      5F536574 
 14695      53535043 
 14695      6C6B4469 
 14696              	.LASF569:
 14697 6619 53797354 		.ascii	"SysTick_CTRL_ENABLE_Msk (1UL << SysTick_CTRL_ENABLE"
 14697      69636B5F 
 14697      4354524C 
 14697      5F454E41 
 14697      424C455F 
 14698 664c 5F506F73 		.ascii	"_Pos)\000"
 14698      2900
 14699              	.LASF303:
 14700 6652 5F5F5245 		.ascii	"__REGISTER_PREFIX__ \000"
 14700      47495354 
 14700      45525F50 
 14700      52454649 
 14700      585F5F20 
 14701              	.LASF186:
 14702 6667 5F5F4445 		.ascii	"__DEC128_SUBNORMAL_MIN__ 0.000000000000000000000000"
 14702      43313238 
 14702      5F535542 
 14702      4E4F524D 
 14702      414C5F4D 
 14703 669a 30303030 		.ascii	"000000001E-6143DL\000"
 14703      30303030 
 14703      31452D36 
ARM GAS  /tmp/ccjsfSlY.s 			page 354


 14703      31343344 
 14703      4C00
 14704              	.LASF1055:
 14705 66ac 4C464F53 		.ascii	"LFOSCCTRL\000"
 14705      43435452 
 14705      4C00
 14706              	.LASF216:
 14707 66b6 5F5F554C 		.ascii	"__ULFRACT_EPSILON__ 0x1P-32ULR\000"
 14707      46524143 
 14707      545F4550 
 14707      53494C4F 
 14707      4E5F5F20 
 14708              	.LASF1016:
 14709 66d5 43414E5F 		.ascii	"CAN_SDOREQ_HANDLED_SEND 1\000"
 14709      53444F52 
 14709      45515F48 
 14709      414E444C 
 14709      45445F53 
 14710              	.LASF338:
 14711 66ef 5F5F4152 		.ascii	"__ARM_ARCH_6M__ 1\000"
 14711      4D5F4152 
 14711      43485F36 
 14711      4D5F5F20 
 14711      3100
 14712              	.LASF21:
 14713 6701 5F5F5349 		.ascii	"__SIZEOF_SIZE_T__ 4\000"
 14713      5A454F46 
 14713      5F53495A 
 14713      455F545F 
 14713      5F203400 
 14714              	.LASF787:
 14715 6715 55415254 		.ascii	"UART_LSR_FE (1 << 3)\000"
 14715      5F4C5352 
 14715      5F464520 
 14715      2831203C 
 14715      3C203329 
 14716              	.LASF841:
 14717 672a 57574454 		.ascii	"WWDT_WDMOD_BITMASK ((uint32_t) 0x1F)\000"
 14717      5F57444D 
 14717      4F445F42 
 14717      49544D41 
 14717      534B2028 
 14718              	.LASF46:
 14719 674f 5F5F5549 		.ascii	"__UINT64_TYPE__ long long unsigned int\000"
 14719      4E543634 
 14719      5F545950 
 14719      455F5F20 
 14719      6C6F6E67 
 14720              	.LASF183:
 14721 6776 5F5F4445 		.ascii	"__DEC128_MIN__ 1E-6143DL\000"
 14721      43313238 
 14721      5F4D494E 
 14721      5F5F2031 
 14721      452D3631 
 14722              	.LASF100:
 14723 678f 5F5F494E 		.ascii	"__INT64_C(c) c ## LL\000"
 14723      5436345F 
ARM GAS  /tmp/ccjsfSlY.s 			page 355


 14723      43286329 
 14723      20632023 
 14723      23204C4C 
 14724              	.LASF248:
 14725 67a4 5F5F4C41 		.ascii	"__LACCUM_IBIT__ 32\000"
 14725      4343554D 
 14725      5F494249 
 14725      545F5F20 
 14725      333200
 14726              	.LASF1107:
 14727 67b7 44455649 		.ascii	"DEVICEID\000"
 14727      43454944 
 14727      00
 14728              	.LASF759:
 14729 67c0 55415254 		.ascii	"UART_FCR_TRG_LEV2 (2 << 6)\000"
 14729      5F464352 
 14729      5F545247 
 14729      5F4C4556 
 14729      32202832 
 14730              	.LASF425:
 14731 67db 494E545F 		.ascii	"INT_LEAST32_MIN (-__INT_LEAST32_MAX__ - 1)\000"
 14731      4C454153 
 14731      5433325F 
 14731      4D494E20 
 14731      282D5F5F 
 14732              	.LASF683:
 14733 6806 494F434F 		.ascii	"IOCON_STDI2C_EN (0x1 << 8)\000"
 14733      4E5F5354 
 14733      44493243 
 14733      5F454E20 
 14733      28307831 
 14734              	.LASF468:
 14735 6821 5F474343 		.ascii	"_GCC_WRAP_STDINT_H \000"
 14735      5F575241 
 14735      505F5354 
 14735      44494E54 
 14735      5F482000 
 14736              	.LASF959:
 14737 6835 4932435F 		.ascii	"I2C_I2ADR_GC ((1 << 0))\000"
 14737      49324144 
 14737      525F4743 
 14737      20282831 
 14737      203C3C20 
 14738              	.LASF1081:
 14739 684d 434C4B4F 		.ascii	"CLKOUTSEL\000"
 14739      55545345 
 14739      4C00
 14740              	.LASF160:
 14741 6857 5F5F4C44 		.ascii	"__LDBL_MIN__ 2.2250738585072014e-308L\000"
 14741      424C5F4D 
 14741      494E5F5F 
 14741      20322E32 
 14741      32353037 
 14742              	.LASF238:
 14743 687d 5F5F4143 		.ascii	"__ACCUM_IBIT__ 16\000"
 14743      43554D5F 
 14743      49424954 
ARM GAS  /tmp/ccjsfSlY.s 			page 356


 14743      5F5F2031 
 14743      3600
 14744              	.LASF987:
 14745 688f 43414E5F 		.ascii	"CAN_ERROR_BIT0 0x00000080UL\000"
 14745      4552524F 
 14745      525F4249 
 14745      54302030 
 14745      78303030 
 14746              	.LASF897:
 14747 68ab 5F5F4750 		.ascii	"__GPIO_11XX_2_H_ \000"
 14747      494F5F31 
 14747      3158585F 
 14747      325F485F 
 14747      2000
 14748              	.LASF1268:
 14749 68bd 5353505F 		.ascii	"SSP_Read1BFifo\000"
 14749      52656164 
 14749      31424669 
 14749      666F00
 14750              	.LASF679:
 14751 68cc 494F434F 		.ascii	"IOCON_INV_EN (0x1 << 6)\000"
 14751      4E5F494E 
 14751      565F454E 
 14751      20283078 
 14751      31203C3C 
 14752              	.LASF1025:
 14753 68e4 73686F72 		.ascii	"short int\000"
 14753      7420696E 
 14753      7400
 14754              	.LASF684:
 14755 68ee 494F434F 		.ascii	"IOCON_FASTI2C_EN (0x2 << 8)\000"
 14755      4E5F4641 
 14755      53544932 
 14755      435F454E 
 14755      20283078 
 14756              	.LASF460:
 14757 690a 494E5431 		.ascii	"INT16_C(x) __INT16_C(x)\000"
 14757      365F4328 
 14757      7829205F 
 14757      5F494E54 
 14757      31365F43 
 14758              	.LASF991:
 14759 6922 43414E5F 		.ascii	"CAN_MSGOBJ_DAT 0x00000000UL\000"
 14759      4D53474F 
 14759      424A5F44 
 14759      41542030 
 14759      78303030 
 14760              	.LASF754:
 14761 693e 55415254 		.ascii	"UART_FCR_DMAMODE_SEL (1 << 3)\000"
 14761      5F464352 
 14761      5F444D41 
 14761      4D4F4445 
 14761      5F53454C 
 14762              	.LASF202:
 14763 695c 5F5F5546 		.ascii	"__UFRACT_FBIT__ 16\000"
 14763      52414354 
 14763      5F464249 
ARM GAS  /tmp/ccjsfSlY.s 			page 357


 14763      545F5F20 
 14763      313600
 14764              	.LASF104:
 14765 696f 5F5F5549 		.ascii	"__UINT16_C(c) c\000"
 14765      4E543136 
 14765      5F432863 
 14765      29206300 
 14766              	.LASF487:
 14767 697f 4D415828 		.ascii	"MAX(a,b) (((a) > (b)) ? (a) : (b))\000"
 14767      612C6229 
 14767      20282828 
 14767      6129203E 
 14767      20286229 
 14768              	.LASF685:
 14769 69a2 494F434F 		.ascii	"IOCON_FILT_DIS (0x1 << 8)\000"
 14769      4E5F4649 
 14769      4C545F44 
 14769      49532028 
 14769      30783120 
 14770              	.LASF300:
 14771 69bc 5F5F5544 		.ascii	"__UDA_IBIT__ 32\000"
 14771      415F4942 
 14771      49545F5F 
 14771      20333200 
 14772              	.LASF1223:
 14773 69cc 6D6F6465 		.ascii	"mode\000"
 14773      00
 14774              	.LASF836:
 14775 69d1 55415254 		.ascii	"UART_SYNCCTRL_TSBYPASS (1 << 3)\000"
 14775      5F53594E 
 14775      43435452 
 14775      4C5F5453 
 14775      42595041 
 14776              	.LASF408:
 14777 69f1 494E5450 		.ascii	"INTPTR_MAX (__INTPTR_MAX__)\000"
 14777      54525F4D 
 14777      41582028 
 14777      5F5F494E 
 14777      54505452 
 14778              	.LASF352:
 14779 6a0d 5F5F4E45 		.ascii	"__NEWLIB__ 2\000"
 14779      574C4942 
 14779      5F5F2032 
 14779      00
 14780              	.LASF1073:
 14781 6a1a 55534243 		.ascii	"USBCLKSEL\000"
 14781      4C4B5345 
 14781      4C00
 14782              	.LASF428:
 14783 6a24 494E5436 		.ascii	"INT64_MIN (-__INT64_MAX__ - 1)\000"
 14783      345F4D49 
 14783      4E20282D 
 14783      5F5F494E 
 14783      5436345F 
 14784              	.LASF6:
 14785 6a43 5F5F4154 		.ascii	"__ATOMIC_RELAXED 0\000"
 14785      4F4D4943 
ARM GAS  /tmp/ccjsfSlY.s 			page 358


 14785      5F52454C 
 14785      41584544 
 14785      203000
 14786              	.LASF752:
 14787 6a56 55415254 		.ascii	"UART_FCR_RX_RS (1 << 1)\000"
 14787      5F464352 
 14787      5F52585F 
 14787      52532028 
 14787      31203C3C 
 14788              	.LASF637:
 14789 6a6e 5F5F464D 		.ascii	"__FMC_11XX_H_ \000"
 14789      435F3131 
 14789      58585F48 
 14789      5F2000
 14790              	.LASF734:
 14791 6a7d 55415254 		.ascii	"UART_IER_CTSINT (1 << 7)\000"
 14791      5F494552 
 14791      5F435453 
 14791      494E5420 
 14791      2831203C 
 14792              	.LASF150:
 14793 6a96 5F5F4442 		.ascii	"__DBL_HAS_INFINITY__ 1\000"
 14793      4C5F4841 
 14793      535F494E 
 14793      46494E49 
 14793      54595F5F 
 14794              	.LASF633:
 14795 6aad 504D555F 		.ascii	"PMU_PCON_PM_SLEEP (0x0)\000"
 14795      50434F4E 
 14795      5F504D5F 
 14795      534C4545 
 14795      50202830 
 14796              	.LASF445:
 14797 6ac5 55494E54 		.ascii	"UINT_FAST64_MAX (__UINT_FAST64_MAX__)\000"
 14797      5F464153 
 14797      5436345F 
 14797      4D415820 
 14797      285F5F55 
 14798              	.LASF430:
 14799 6aeb 55494E54 		.ascii	"UINT64_MAX (__UINT64_MAX__)\000"
 14799      36345F4D 
 14799      41582028 
 14799      5F5F5549 
 14799      4E543634 
 14800              	.LASF903:
 14801 6b07 4932435F 		.ascii	"I2C_STA_STO_RECV 0x20\000"
 14801      5354415F 
 14801      53544F5F 
 14801      52454356 
 14801      20307832 
 14802              	.LASF772:
 14803 6b1d 55415254 		.ascii	"UART_LCR_PARITY_EVEN (1 << 4)\000"
 14803      5F4C4352 
 14803      5F504152 
 14803      4954595F 
 14803      4556454E 
 14804              	.LASF1097:
ARM GAS  /tmp/ccjsfSlY.s 			page 359


 14805 6b3b 53544152 		.ascii	"STARTERP0\000"
 14805      54455250 
 14805      3000
 14806              	.LASF1101:
 14807 6b45 53544152 		.ascii	"STARTERP1\000"
 14807      54455250 
 14807      3100
 14808              	.LASF511:
 14809 6b4f 5F5F494F 		.ascii	"__IO volatile\000"
 14809      20766F6C 
 14809      6174696C 
 14809      6500
 14810              	.LASF688:
 14811 6b5d 4D445F50 		.ascii	"MD_PDN (0x1 << 3)\000"
 14811      444E2028 
 14811      30783120 
 14811      3C3C2033 
 14811      2900
 14812              	.LASF729:
 14813 6b6f 55415254 		.ascii	"UART_DLM_MASKBIT (0xFF)\000"
 14813      5F444C4D 
 14813      5F4D4153 
 14813      4B424954 
 14813      20283078 
 14814              	.LASF902:
 14815 6b87 5245545F 		.ascii	"RET_SLAVE_BUSY 0\000"
 14815      534C4156 
 14815      455F4255 
 14815      53592030 
 14815      00
 14816              	.LASF18:
 14817 6b98 5F5F5349 		.ascii	"__SIZEOF_FLOAT__ 4\000"
 14817      5A454F46 
 14817      5F464C4F 
 14817      41545F5F 
 14817      203400
 14818              	.LASF459:
 14819 6bab 55494E54 		.ascii	"UINT8_C(x) __UINT8_C(x)\000"
 14819      385F4328 
 14819      7829205F 
 14819      5F55494E 
 14819      54385F43 
 14820              	.LASF69:
 14821 6bc3 5F5F5348 		.ascii	"__SHRT_MAX__ 32767\000"
 14821      52545F4D 
 14821      41585F5F 
 14821      20333237 
 14821      363700
 14822              	.LASF585:
 14823 6bd6 53797354 		.ascii	"SysTick ((SysTick_Type *) SysTick_BASE )\000"
 14823      69636B20 
 14823      28285379 
 14823      73546963 
 14823      6B5F5479 
 14824              	.LASF144:
 14825 6bff 5F5F4442 		.ascii	"__DBL_DECIMAL_DIG__ 17\000"
 14825      4C5F4445 
ARM GAS  /tmp/ccjsfSlY.s 			page 360


 14825      43494D41 
 14825      4C5F4449 
 14825      475F5F20 
 14826              	.LASF526:
 14827 6c16 5343425F 		.ascii	"SCB_ICSR_PENDSVCLR_Pos 27\000"
 14827      49435352 
 14827      5F50454E 
 14827      44535643 
 14827      4C525F50 
 14828              	.LASF369:
 14829 6c30 5F5F6861 		.ascii	"__have_long32 1\000"
 14829      76655F6C 
 14829      6F6E6733 
 14829      32203100 
 14830              	.LASF413:
 14831 6c40 494E545F 		.ascii	"INT_LEAST8_MIN (-__INT_LEAST8_MAX__ - 1)\000"
 14831      4C454153 
 14831      54385F4D 
 14831      494E2028 
 14831      2D5F5F49 
 14832              	.LASF105:
 14833 6c69 5F5F5549 		.ascii	"__UINT_LEAST32_MAX__ 4294967295UL\000"
 14833      4E545F4C 
 14833      45415354 
 14833      33325F4D 
 14833      41585F5F 
 14834              	.LASF252:
 14835 6c8b 5F5F554C 		.ascii	"__ULACCUM_FBIT__ 32\000"
 14835      41434355 
 14835      4D5F4642 
 14835      49545F5F 
 14835      20333200 
 14836              	.LASF544:
 14837 6c9f 5343425F 		.ascii	"SCB_AIRCR_ENDIANESS_Pos 15\000"
 14837      41495243 
 14837      525F454E 
 14837      4449414E 
 14837      4553535F 
 14838              	.LASF653:
 14839 6cba 53595343 		.ascii	"SYSCTL_SLPWAKE_WDTOSC_PD (1 << 6)\000"
 14839      544C5F53 
 14839      4C505741 
 14839      4B455F57 
 14839      44544F53 
 14840              	.LASF549:
 14841 6cdc 5343425F 		.ascii	"SCB_AIRCR_VECTCLRACTIVE_Msk (1UL << SCB_AIRCR_VECTC"
 14841      41495243 
 14841      525F5645 
 14841      4354434C 
 14841      52414354 
 14842 6d0f 4C524143 		.ascii	"LRACTIVE_Pos)\000"
 14842      54495645 
 14842      5F506F73 
 14842      2900
 14843              	.LASF659:
 14844 6d1d 53595343 		.ascii	"SYSCTL_POWERDOWN_ADC_PD (1 << 4)\000"
 14844      544C5F50 
ARM GAS  /tmp/ccjsfSlY.s 			page 361


 14844      4F574552 
 14844      444F574E 
 14844      5F414443 
 14845              	.LASF398:
 14846 6d3e 5F5F696E 		.ascii	"__int64_t_defined 1\000"
 14846      7436345F 
 14846      745F6465 
 14846      66696E65 
 14846      64203100 
 14847              	.LASF570:
 14848 6d52 53797354 		.ascii	"SysTick_LOAD_RELOAD_Pos 0\000"
 14848      69636B5F 
 14848      4C4F4144 
 14848      5F52454C 
 14848      4F41445F 
 14849              	.LASF331:
 14850 6d6c 5F5F4152 		.ascii	"__ARMEL__ 1\000"
 14850      4D454C5F 
 14850      5F203100 
 14851              	.LASF1110:
 14852 6d78 52455345 		.ascii	"RESET_I2C0\000"
 14852      545F4932 
 14852      433000
 14853              	.LASF1147:
 14854 6d83 5353505F 		.ascii	"SSP_STAT_TFE\000"
 14854      53544154 
 14854      5F544645 
 14854      00
 14855              	.LASF386:
 14856 6d90 5F5F4641 		.ascii	"__FAST8 \000"
 14856      53543820 
 14856      00
 14857              	.LASF1091:
 14858 6d99 4E4D4953 		.ascii	"NMISRC\000"
 14858      524300
 14859              	.LASF71:
 14860 6da0 5F5F4C4F 		.ascii	"__LONG_MAX__ 2147483647L\000"
 14860      4E475F4D 
 14860      41585F5F 
 14860      20323134 
 14860      37343833 
 14861              	.LASF267:
 14862 6db9 5F5F5151 		.ascii	"__QQ_FBIT__ 7\000"
 14862      5F464249 
 14862      545F5F20 
 14862      3700
 14863              	.LASF973:
 14864 6dc7 4932435F 		.ascii	"I2C_ERR (0x10000000)\000"
 14864      45525220 
 14864      28307831 
 14864      30303030 
 14864      30303029 
 14865              	.LASF953:
 14866 6ddc 4932435F 		.ascii	"I2C_I2DAT_IDLE_CHAR (0xFF)\000"
 14866      49324441 
 14866      545F4944 
 14866      4C455F43 
ARM GAS  /tmp/ccjsfSlY.s 			page 362


 14866      48415220 
 14867              	.LASF226:
 14868 6df7 5F5F554C 		.ascii	"__ULLFRACT_EPSILON__ 0x1P-64ULLR\000"
 14868      4C465241 
 14868      43545F45 
 14868      5053494C 
 14868      4F4E5F5F 
 14869              	.LASF489:
 14870 6e18 494E4C49 		.ascii	"INLINE inline\000"
 14870      4E452069 
 14870      6E6C696E 
 14870      6500
 14871              	.LASF556:
 14872 6e26 5343425F 		.ascii	"SCB_CCR_STKALIGN_Pos 9\000"
 14872      4343525F 
 14872      53544B41 
 14872      4C49474E 
 14872      5F506F73 
 14873              	.LASF898:
 14874 6e3d 5F5F4932 		.ascii	"__I2C_11XX_H_ \000"
 14874      435F3131 
 14874      58585F48 
 14874      5F2000
 14875              	.LASF791:
 14876 6e4c 55415254 		.ascii	"UART_LSR_RXFE (1 << 7)\000"
 14876      5F4C5352 
 14876      5F525846 
 14876      45202831 
 14876      203C3C20 
 14877              	.LASF355:
 14878 6e63 5F5F474E 		.ascii	"__GNUC_PREREQ__(ma,mi) __GNUC_PREREQ(ma, mi)\000"
 14878      55435F50 
 14878      52455245 
 14878      515F5F28 
 14878      6D612C6D 
 14879              	.LASF592:
 14880 6e90 4C50435F 		.ascii	"LPC_USART_BASE 0x40008000\000"
 14880      55534152 
 14880      545F4241 
 14880      53452030 
 14880      78343030 
 14881              	.LASF302:
 14882 6eaa 5F5F5554 		.ascii	"__UTA_IBIT__ 64\000"
 14882      415F4942 
 14882      49545F5F 
 14882      20363400 
 14883              	.LASF263:
 14884 6eba 5F5F554C 		.ascii	"__ULLACCUM_IBIT__ 32\000"
 14884      4C414343 
 14884      554D5F49 
 14884      4249545F 
 14884      5F203332 
 14885              	.LASF505:
 14886 6ecf 5F5F4650 		.ascii	"__FPU_USED 0\000"
 14886      555F5553 
 14886      45442030 
 14886      00
ARM GAS  /tmp/ccjsfSlY.s 			page 363


 14887              	.LASF207:
 14888 6edc 5F5F4C46 		.ascii	"__LFRACT_FBIT__ 31\000"
 14888      52414354 
 14888      5F464249 
 14888      545F5F20 
 14888      333100
 14889              	.LASF1162:
 14890 6eef 5353505F 		.ascii	"SSP_RTIC\000"
 14890      52544943 
 14890      00
 14891              	.LASF1079:
 14892 6ef8 57445443 		.ascii	"WDTCLKDIV\000"
 14892      4C4B4449 
 14892      5600
 14893              	.LASF499:
 14894 6f02 5F5F434D 		.ascii	"__CM0_CMSIS_VERSION_SUB (0x01)\000"
 14894      305F434D 
 14894      5349535F 
 14894      56455253 
 14894      494F4E5F 
 14895              	.LASF321:
 14896 6f21 5F5F5349 		.ascii	"__SIZEOF_WINT_T__ 4\000"
 14896      5A454F46 
 14896      5F57494E 
 14896      545F545F 
 14896      5F203400 
 14897              	.LASF636:
 14898 6f35 504D555F 		.ascii	"PMU_PCON_DPDFLAG (1 << 11)\000"
 14898      50434F4E 
 14898      5F445044 
 14898      464C4147 
 14898      20283120 
 14899              	.LASF563:
 14900 6f50 53797354 		.ascii	"SysTick_CTRL_COUNTFLAG_Msk (1UL << SysTick_CTRL_COU"
 14900      69636B5F 
 14900      4354524C 
 14900      5F434F55 
 14900      4E54464C 
 14901 6f83 4E54464C 		.ascii	"NTFLAG_Pos)\000"
 14901      41475F50 
 14901      6F732900 
 14902              	.LASF219:
 14903 6f8f 5F5F4C4C 		.ascii	"__LLFRACT_MIN__ (-0.5LLR-0.5LLR)\000"
 14903      46524143 
 14903      545F4D49 
 14903      4E5F5F20 
 14903      282D302E 
 14904              	.LASF1049:
 14905 6fb0 55534250 		.ascii	"USBPLLCTRL\000"
 14905      4C4C4354 
 14905      524C00
 14906              	.LASF1098:
 14907 6fbb 53544152 		.ascii	"STARTRSRP0CLR\000"
 14907      54525352 
 14907      5030434C 
 14907      5200
 14908              	.LASF1048:
ARM GAS  /tmp/ccjsfSlY.s 			page 364


 14909 6fc9 53595350 		.ascii	"SYSPLLSTAT\000"
 14909      4C4C5354 
 14909      415400
 14910              	.LASF249:
 14911 6fd4 5F5F4C41 		.ascii	"__LACCUM_MIN__ (-0X1P31LK-0X1P31LK)\000"
 14911      4343554D 
 14911      5F4D494E 
 14911      5F5F2028 
 14911      2D305831 
 14912              	.LASF612:
 14913 6ff8 4941505F 		.ascii	"IAP_ENTRY_LOCATION 0X1FFF1FF1\000"
 14913      454E5452 
 14913      595F4C4F 
 14913      43415449 
 14913      4F4E2030 
 14914              	.LASF340:
 14915 7016 5F5F4152 		.ascii	"__ARM_EABI__ 1\000"
 14915      4D5F4541 
 14915      42495F5F 
 14915      203100
 14916              	.LASF1264:
 14917 7025 474E5520 		.ascii	"GNU C 4.9.3 20150529 (release) [ARM/embedded-4_9-br"
 14917      4320342E 
 14917      392E3320 
 14917      32303135 
 14917      30353239 
 14918 7058 616E6368 		.ascii	"anch revision 227977] -mcpu=cortex-m0 -mthumb -g -g"
 14918      20726576 
 14918      6973696F 
 14918      6E203232 
 14918      37393737 
 14919 708b 67646233 		.ascii	"gdb3 -O2 -std=gnu90 -ffunction-sections -fdata-sect"
 14919      202D4F32 
 14919      202D7374 
 14919      643D676E 
 14919      75393020 
 14920 70be 696F6E73 		.ascii	"ions\000"
 14920      00
 14921              	.LASF148:
 14922 70c3 5F5F4442 		.ascii	"__DBL_DENORM_MIN__ ((double)4.9406564584124654e-324"
 14922      4C5F4445 
 14922      4E4F524D 
 14922      5F4D494E 
 14922      5F5F2028 
 14923 70f6 4C2900   		.ascii	"L)\000"
 14924              	.LASF1069:
 14925 70f9 53535030 		.ascii	"SSP0CLKDIV\000"
 14925      434C4B44 
 14925      495600
 14926              	.LASF1222:
 14927 7104 43686970 		.ascii	"Chip_SSP_Set_Mode\000"
 14927      5F535350 
 14927      5F536574 
 14927      5F4D6F64 
 14927      6500
 14928              	.LASF598:
 14929 7116 4C50435F 		.ascii	"LPC_DAC_BASE 0x40024000\000"
ARM GAS  /tmp/ccjsfSlY.s 			page 365


 14929      4441435F 
 14929      42415345 
 14929      20307834 
 14929      30303234 
 14930              	.LASF384:
 14931 712e 5F5F494E 		.ascii	"__INT32 \"l\"\000"
 14931      54333220 
 14931      226C2200 
 14932              	.LASF862:
 14933 713a 5353505F 		.ascii	"SSP_CR1_SO_DISABLE ((uint32_t) (1 << 3))\000"
 14933      4352315F 
 14933      534F5F44 
 14933      49534142 
 14933      4C452028 
 14934              	.LASF540:
 14935 7163 5343425F 		.ascii	"SCB_AIRCR_VECTKEY_Pos 16\000"
 14935      41495243 
 14935      525F5645 
 14935      43544B45 
 14935      595F506F 
 14936              	.LASF481:
 14937 717c 5F424954 		.ascii	"_BITMASK(field_width) ( _BIT(field_width) - 1)\000"
 14937      4D41534B 
 14937      28666965 
 14937      6C645F77 
 14937      69647468 
 14938              	.LASF642:
 14939 71ab 53595343 		.ascii	"SYSCTL_RST_BOD (1 << 3)\000"
 14939      544C5F52 
 14939      53545F42 
 14939      4F442028 
 14939      31203C3C 
 14940              	.LASF1210:
 14941 71c3 43686970 		.ascii	"Chip_SSP_GetStatus\000"
 14941      5F535350 
 14941      5F476574 
 14941      53746174 
 14941      757300
 14942              	.LASF45:
 14943 71d6 5F5F5549 		.ascii	"__UINT32_TYPE__ long unsigned int\000"
 14943      4E543332 
 14943      5F545950 
 14943      455F5F20 
 14943      6C6F6E67 
 14944              	.LASF638:
 14945 71f8 5F5F5359 		.ascii	"__SYSCTL_11XX_H_ \000"
 14945      5343544C 
 14945      5F313158 
 14945      585F485F 
 14945      2000
 14946              	.LASF345:
 14947 720a 434F5245 		.ascii	"CORE_M0 1\000"
 14947      5F4D3020 
 14947      3100
 14948              	.LASF855:
 14949 7214 5353505F 		.ascii	"SSP_CR0_CPHA_SECOND ((uint32_t) (1 << 7))\000"
 14949      4352305F 
ARM GAS  /tmp/ccjsfSlY.s 			page 366


 14949      43504841 
 14949      5F534543 
 14949      4F4E4420 
 14950              	.LASF709:
 14951 723e 5F5F5449 		.ascii	"__TIMER_11XX_H_ \000"
 14951      4D45525F 
 14951      31315858 
 14951      5F485F20 
 14951      00
 14952              	.LASF597:
 14953 724f 4C50435F 		.ascii	"LPC_ADC_BASE 0x4001C000\000"
 14953      4144435F 
 14953      42415345 
 14953      20307834 
 14953      30303143 
 14954              	.LASF151:
 14955 7267 5F5F4442 		.ascii	"__DBL_HAS_QUIET_NAN__ 1\000"
 14955      4C5F4841 
 14955      535F5155 
 14955      4945545F 
 14955      4E414E5F 
 14956              	.LASF701:
 14957 727f 46554E43 		.ascii	"FUNC0 0x0\000"
 14957      30203078 
 14957      3000
 14958              	.LASF994:
 14959 7289 53444F5F 		.ascii	"SDO_ABORT_SDOTIMEOUT 0x05040000UL\000"
 14959      41424F52 
 14959      545F5344 
 14959      4F54494D 
 14959      454F5554 
 14960              	.LASF796:
 14961 72ab 55415254 		.ascii	"UART_MSR_DELTA_DSR (1 << 1)\000"
 14961      5F4D5352 
 14961      5F44454C 
 14961      54415F44 
 14961      53522028 
 14962              	.LASF224:
 14963 72c7 5F5F554C 		.ascii	"__ULLFRACT_MIN__ 0.0ULLR\000"
 14963      4C465241 
 14963      43545F4D 
 14963      494E5F5F 
 14963      20302E30 
 14964              	.LASF1235:
 14965 72e0 72657365 		.ascii	"resetSSP\000"
 14965      74535350 
 14965      00
 14966              	.LASF643:
 14967 72e9 53595343 		.ascii	"SYSCTL_RST_SYSRST (1 << 4)\000"
 14967      544C5F52 
 14967      53545F53 
 14967      59535253 
 14967      54202831 
 14968              	.LASF647:
 14969 7304 53595343 		.ascii	"SYSCTL_SLPWAKE_IRCOUT_PD (1 << 0)\000"
 14969      544C5F53 
 14969      4C505741 
ARM GAS  /tmp/ccjsfSlY.s 			page 367


 14969      4B455F49 
 14969      52434F55 
 14970              	.LASF616:
 14971 7326 4C50435F 		.ascii	"LPC_USART ((LPC_USART_T *) LPC_USART_BASE)\000"
 14971      55534152 
 14971      54202828 
 14971      4C50435F 
 14971      55534152 
 14972              	.LASF284:
 14973 7351 5F5F5544 		.ascii	"__UDQ_IBIT__ 0\000"
 14973      515F4942 
 14973      49545F5F 
 14973      203000
 14974              	.LASF14:
 14975 7360 5F5F5349 		.ascii	"__SIZEOF_INT__ 4\000"
 14975      5A454F46 
 14975      5F494E54 
 14975      5F5F2034 
 14975      00
 14976              	.LASF218:
 14977 7371 5F5F4C4C 		.ascii	"__LLFRACT_IBIT__ 0\000"
 14977      46524143 
 14977      545F4942 
 14977      49545F5F 
 14977      203000
 14978              	.LASF461:
 14979 7384 55494E54 		.ascii	"UINT16_C(x) __UINT16_C(x)\000"
 14979      31365F43 
 14979      28782920 
 14979      5F5F5549 
 14979      4E543136 
 14980              	.LASF950:
 14981 739e 4932435F 		.ascii	"I2C_I2STAT_S_TX_LAST_DAT_ACK ((0xC8))\000"
 14981      49325354 
 14981      41545F53 
 14981      5F54585F 
 14981      4C415354 
 14982              	.LASF1129:
 14983 73c4 53595343 		.ascii	"SYSCTL_CLOCK_CT16B0\000"
 14983      544C5F43 
 14983      4C4F434B 
 14983      5F435431 
 14983      36423000 
 14984              	.LASF1036:
 14985 73d8 75696E74 		.ascii	"uint32_t\000"
 14985      33325F74 
 14985      00
 14986              	.LASF1114:
 14987 73e1 52455345 		.ascii	"RESET_TIMER0_16\000"
 14987      545F5449 
 14987      4D455230 
 14987      5F313600 
 14988              	.LASF824:
 14989 73f1 55415254 		.ascii	"UART_SCICTRL_NACKDIS (1 << 1)\000"
 14989      5F534349 
 14989      4354524C 
 14989      5F4E4143 
ARM GAS  /tmp/ccjsfSlY.s 			page 368


 14989      4B444953 
 14990              	.LASF366:
 14991 740f 5F535953 		.ascii	"_SYS__INTSUP_H \000"
 14991      5F5F494E 
 14991      54535550 
 14991      5F482000 
 14992              	.LASF1099:
 14993 741f 53544152 		.ascii	"STARTSRP0\000"
 14993      54535250 
 14993      3000
 14994              	.LASF231:
 14995 7429 5F5F5341 		.ascii	"__SACCUM_EPSILON__ 0x1P-7HK\000"
 14995      4343554D 
 14995      5F455053 
 14995      494C4F4E 
 14995      5F5F2030 
 14996              	.LASF635:
 14997 7445 504D555F 		.ascii	"PMU_PCON_SLEEPFLAG (1 << 8)\000"
 14997      50434F4E 
 14997      5F534C45 
 14997      4550464C 
 14997      41472028 
 14998              	.LASF364:
 14999 7461 5F5F5F69 		.ascii	"___int_least64_t_defined 1\000"
 14999      6E745F6C 
 14999      65617374 
 14999      36345F74 
 14999      5F646566 
 15000              	.LASF444:
 15001 747c 494E545F 		.ascii	"INT_FAST64_MAX (__INT_FAST64_MAX__)\000"
 15001      46415354 
 15001      36345F4D 
 15001      41582028 
 15001      5F5F494E 
 15002              	.LASF1243:
 15003 74a0 43686970 		.ascii	"Chip_SSP_RWFrames_Blocking\000"
 15003      5F535350 
 15003      5F525746 
 15003      72616D65 
 15003      735F426C 
 15004              	.LASF727:
 15005 74bb 55415254 		.ascii	"UART_DLL_MASKBIT (0xFF)\000"
 15005      5F444C4C 
 15005      5F4D4153 
 15005      4B424954 
 15005      20283078 
 15006              	.LASF1225:
 15007 74d3 72446174 		.ascii	"rDat\000"
 15007      00
 15008              	.LASF495:
 15009 74d8 5F5F4E56 		.ascii	"__NVIC_PRIO_BITS 2\000"
 15009      49435F50 
 15009      52494F5F 
 15009      42495453 
 15009      203200
 15010              	.LASF1226:
 15011 74eb 73737043 		.ascii	"sspCLK\000"
ARM GAS  /tmp/ccjsfSlY.s 			page 369


 15011      4C4B00
 15012              	.LASF1234:
 15013 74f2 43686970 		.ascii	"Chip_SSP_GetResetIndex\000"
 15013      5F535350 
 15013      5F476574 
 15013      52657365 
 15013      74496E64 
 15014              	.LASF577:
 15015 7509 53797354 		.ascii	"SysTick_CALIB_SKEW_Msk (1UL << SysTick_CALIB_SKEW_P"
 15015      69636B5F 
 15015      43414C49 
 15015      425F534B 
 15015      45575F4D 
 15016 753c 6F732900 		.ascii	"os)\000"
 15017              	.LASF296:
 15018 7540 5F5F5548 		.ascii	"__UHA_IBIT__ 8\000"
 15018      415F4942 
 15018      49545F5F 
 15018      203800
 15019              	.LASF962:
 15020 754f 4932435F 		.ascii	"I2C_I2SCLH_BITMASK ((0xFFFF))\000"
 15020      49325343 
 15020      4C485F42 
 15020      49544D41 
 15020      534B2028 
 15021              	.LASF241:
 15022 756d 5F5F4143 		.ascii	"__ACCUM_EPSILON__ 0x1P-15K\000"
 15022      43554D5F 
 15022      45505349 
 15022      4C4F4E5F 
 15022      5F203078 
 15023              	.LASF256:
 15024 7588 5F5F554C 		.ascii	"__ULACCUM_EPSILON__ 0x1P-32ULK\000"
 15024      41434355 
 15024      4D5F4550 
 15024      53494C4F 
 15024      4E5F5F20 
 15025              	.LASF153:
 15026 75a7 5F5F4C44 		.ascii	"__LDBL_DIG__ 15\000"
 15026      424C5F44 
 15026      49475F5F 
 15026      20313500 
 15027              	.LASF1053:
 15028 75b7 5744544F 		.ascii	"WDTOSCCTRL\000"
 15028      53434354 
 15028      524C00
 15029              	.LASF785:
 15030 75c2 55415254 		.ascii	"UART_LSR_OE (1 << 1)\000"
 15030      5F4C5352 
 15030      5F4F4520 
 15030      2831203C 
 15030      3C203129 
 15031              	.LASF955:
 15032 75d7 4932435F 		.ascii	"I2C_I2MMCTRL_ENA_SCL ((1 << 1))\000"
 15032      49324D4D 
 15032      4354524C 
 15032      5F454E41 
ARM GAS  /tmp/ccjsfSlY.s 			page 370


 15032      5F53434C 
 15033              	.LASF1083:
 15034 75f7 434C4B4F 		.ascii	"CLKOUTDIV\000"
 15034      55544449 
 15034      5600
 15035              	.LASF76:
 15036 7601 5F5F5749 		.ascii	"__WINT_MIN__ 0U\000"
 15036      4E545F4D 
 15036      494E5F5F 
 15036      20305500 
 15037              	.LASF1164:
 15038 7611 5353505F 		.ascii	"SSP_INTCLEAR_T\000"
 15038      494E5443 
 15038      4C454152 
 15038      5F5400
 15039              	.LASF178:
 15040 7620 5F5F4445 		.ascii	"__DEC64_EPSILON__ 1E-15DD\000"
 15040      4336345F 
 15040      45505349 
 15040      4C4F4E5F 
 15040      5F203145 
 15041              	.LASF723:
 15042 763a 52425F56 		.ascii	"RB_VHEAD(rb) ((volatile uint32_t)(rb->head))\000"
 15042      48454144 
 15042      28726229 
 15042      20282876 
 15042      6F6C6174 
 15043              	.LASF391:
 15044 7667 5F5F4C45 		.ascii	"__LEAST16 \"h\"\000"
 15044      41535431 
 15044      36202268 
 15044      2200
 15045              	.LASF48:
 15046 7675 5F5F494E 		.ascii	"__INT_LEAST16_TYPE__ short int\000"
 15046      545F4C45 
 15046      41535431 
 15046      365F5459 
 15046      50455F5F 
 15047              	.LASF1071:
 15048 7694 53535031 		.ascii	"SSP1CLKDIV\000"
 15048      434C4B44 
 15048      495600
 15049              	.LASF648:
 15050 769f 53595343 		.ascii	"SYSCTL_SLPWAKE_IRC_PD (1 << 1)\000"
 15050      544C5F53 
 15050      4C505741 
 15050      4B455F49 
 15050      52435F50 
 15051              	.LASF145:
 15052 76be 5F5F4442 		.ascii	"__DBL_MAX__ ((double)1.7976931348623157e+308L)\000"
 15052      4C5F4D41 
 15052      585F5F20 
 15052      2828646F 
 15052      75626C65 
 15053              	.LASF1028:
 15054 76ed 73686F72 		.ascii	"short unsigned int\000"
 15054      7420756E 
ARM GAS  /tmp/ccjsfSlY.s 			page 371


 15054      7369676E 
 15054      65642069 
 15054      6E7400
 15055              	.LASF217:
 15056 7700 5F5F4C4C 		.ascii	"__LLFRACT_FBIT__ 63\000"
 15056      46524143 
 15056      545F4642 
 15056      49545F5F 
 15056      20363300 
 15057              	.LASF513:
 15058 7714 5343425F 		.ascii	"SCB_CPUID_IMPLEMENTER_Msk (0xFFUL << SCB_CPUID_IMPL"
 15058      43505549 
 15058      445F494D 
 15058      504C454D 
 15058      454E5445 
 15059 7747 454D454E 		.ascii	"EMENTER_Pos)\000"
 15059      5445525F 
 15059      506F7329 
 15059      00
 15060              	.LASF329:
 15061 7754 5F5F7468 		.ascii	"__thumb__ 1\000"
 15061      756D625F 
 15061      5F203100 
 15062              	.LASF886:
 15063 7760 4144435F 		.ascii	"ADC_CR_PDN ((1UL << 21))\000"
 15063      43525F50 
 15063      444E2028 
 15063      2831554C 
 15063      203C3C20 
 15064              	.LASF114:
 15065 7779 5F5F5549 		.ascii	"__UINT_FAST16_MAX__ 4294967295U\000"
 15065      4E545F46 
 15065      41535431 
 15065      365F4D41 
 15065      585F5F20 
 15066              	.LASF839:
 15067 7799 55415254 		.ascii	"UART_SYNCCTRL_CCCLR (1 << 6)\000"
 15067      5F53594E 
 15067      43435452 
 15067      4C5F4343 
 15067      434C5220 
 15068              	.LASF269:
 15069 77b6 5F5F4851 		.ascii	"__HQ_FBIT__ 15\000"
 15069      5F464249 
 15069      545F5F20 
 15069      313500
 15070              	.LASF473:
 15071 77c5 5F5F626F 		.ascii	"__bool_true_false_are_defined 1\000"
 15071      6F6C5F74 
 15071      7275655F 
 15071      66616C73 
 15071      655F6172 
 15072              	.LASF938:
 15073 77e5 4932435F 		.ascii	"I2C_I2STAT_S_RX_ARB_LOST_M_SLA ((0x68))\000"
 15073      49325354 
 15073      41545F53 
 15073      5F52585F 
ARM GAS  /tmp/ccjsfSlY.s 			page 372


 15073      4152425F 
 15074              	.LASF1039:
 15075 780d 496E7453 		.ascii	"IntStatus\000"
 15075      74617475 
 15075      7300
 15076              	.LASF548:
 15077 7817 5343425F 		.ascii	"SCB_AIRCR_VECTCLRACTIVE_Pos 1\000"
 15077      41495243 
 15077      525F5645 
 15077      4354434C 
 15077      52414354 
 15078              	.LASF958:
 15079 7835 49324441 		.ascii	"I2DATA_BUFFER_BITMASK ((0xFF))\000"
 15079      54415F42 
 15079      55464645 
 15079      525F4249 
 15079      544D4153 
 15080              	.LASF1261:
 15081 7854 636D705F 		.ascii	"cmp_clk\000"
 15081      636C6B00 
 15082              	.LASF493:
 15083 785c 5F5F434D 		.ascii	"__CMSIS_11CXX_H_ \000"
 15083      5349535F 
 15083      31314358 
 15083      585F485F 
 15083      2000
 15084              	.LASF999:
 15085 786e 53444F5F 		.ascii	"SDO_ABORT_NOT_EXISTS 0x06020000UL\000"
 15085      41424F52 
 15085      545F4E4F 
 15085      545F4558 
 15085      49535453 
 15086              	.LASF1244:
 15087 7890 43686970 		.ascii	"Chip_SSP_WriteFrames_Blocking\000"
 15087      5F535350 
 15087      5F577269 
 15087      74654672 
 15087      616D6573 
 15088              	.LASF819:
 15089 78ae 55415254 		.ascii	"UART_ICR_FIXPULSE_EN (1 << 2)\000"
 15089      5F494352 
 15089      5F464958 
 15089      50554C53 
 15089      455F454E 
 15090              	.LASF412:
 15091 78cc 55494E54 		.ascii	"UINT8_MAX (__UINT8_MAX__)\000"
 15091      385F4D41 
 15091      5820285F 
 15091      5F55494E 
 15091      54385F4D 
 15092              	.LASF188:
 15093 78e6 5F5F5346 		.ascii	"__SFRACT_IBIT__ 0\000"
 15093      52414354 
 15093      5F494249 
 15093      545F5F20 
 15093      3000
 15094              	.LASF508:
ARM GAS  /tmp/ccjsfSlY.s 			page 373


 15095 78f8 5F5F434F 		.ascii	"__CORE_CM0_H_DEPENDANT \000"
 15095      52455F43 
 15095      4D305F48 
 15095      5F444550 
 15095      454E4441 
 15096              	.LASF399:
 15097 7910 5F5F696E 		.ascii	"__int_least8_t_defined 1\000"
 15097      745F6C65 
 15097      61737438 
 15097      5F745F64 
 15097      6566696E 
 15098              	.LASF1178:
 15099 7929 43484950 		.ascii	"CHIP_SSP_BITS\000"
 15099      5F535350 
 15099      5F424954 
 15099      5300
 15100              	.LASF666:
 15101 7937 494F434F 		.ascii	"IOCON_FUNC0 0x0\000"
 15101      4E5F4655 
 15101      4E433020 
 15101      30783000 
 15102              	.LASF380:
 15103 7947 6C6F6E67 		.ascii	"long +4\000"
 15103      202B3400 
 15104              	.LASF1157:
 15105 794f 5353505F 		.ascii	"SSP_TXRIS\000"
 15105      54585249 
 15105      5300
 15106              	.LASF594:
 15107 7959 4C50435F 		.ascii	"LPC_TIMER16_1_BASE 0x40010000\000"
 15107      54494D45 
 15107      5231365F 
 15107      315F4241 
 15107      53452030 
 15108              	.LASF1228:
 15109 7977 70726573 		.ascii	"prescale\000"
 15109      63616C65 
 15109      00
 15110              	.LASF946:
 15111 7980 4932435F 		.ascii	"I2C_I2STAT_S_TX_SLAR_ACK ((0xA8))\000"
 15111      49325354 
 15111      41545F53 
 15111      5F54585F 
 15111      534C4152 
 15112              	.LASF1088:
 15113 79a2 53595354 		.ascii	"SYSTCKCAL\000"
 15113      434B4341 
 15113      4C00
 15114              	.LASF864:
 15115 79ac 5353505F 		.ascii	"SSP_CPSR_BITMASK ((uint32_t) (0xFF))\000"
 15115      43505352 
 15115      5F424954 
 15115      4D41534B 
 15115      20282875 
 15116              	.LASF30:
 15117 79d1 5F5F5349 		.ascii	"__SIZE_TYPE__ unsigned int\000"
 15117      5A455F54 
ARM GAS  /tmp/ccjsfSlY.s 			page 374


 15117      5950455F 
 15117      5F20756E 
 15117      7369676E 
 15118              	.LASF34:
 15119 79ec 5F5F494E 		.ascii	"__INTMAX_TYPE__ long long int\000"
 15119      544D4158 
 15119      5F545950 
 15119      455F5F20 
 15119      6C6F6E67 
 15120              	.LASF838:
 15121 7a0a 55415254 		.ascii	"UART_SYNCCTRL_STARTSTOPDISABLE (1 << 5)\000"
 15121      5F53594E 
 15121      43435452 
 15121      4C5F5354 
 15121      41525453 
 15122              	.LASF1266:
 15123 7a32 2F686F6D 		.ascii	"/home/evt/opel_EE/opel_velocity_interface/firmware\000"
 15123      652F6576 
 15123      742F6F70 
 15123      656C5F45 
 15123      452F6F70 
 15124              	.LASF1005:
 15125 7a65 53444F5F 		.ascii	"SDO_ABORT_TRANSFER 0x08000020UL\000"
 15125      41424F52 
 15125      545F5452 
 15125      414E5346 
 15125      45522030 
 15126              	.LASF190:
 15127 7a85 5F5F5346 		.ascii	"__SFRACT_MAX__ 0X7FP-7HR\000"
 15127      52414354 
 15127      5F4D4158 
 15127      5F5F2030 
 15127      58374650 
 15128              	.LASF720:
 15129 7a9e 54494D45 		.ascii	"TIMER_INT_ON_CAP(n) (_BIT((((n) * 3) + 2)))\000"
 15129      525F494E 
 15129      545F4F4E 
 15129      5F434150 
 15129      286E2920 
 15130              	.LASF982:
 15131 7aca 43414E5F 		.ascii	"CAN_ERROR_BOFF 0x00000004UL\000"
 15131      4552524F 
 15131      525F424F 
 15131      46462030 
 15131      78303030 
 15132              	.LASF1229:
 15133 7ae6 74656D70 		.ascii	"temp\000"
 15133      00
 15134              	.LASF863:
 15135 7aeb 5353505F 		.ascii	"SSP_CR1_BITMASK ((uint32_t) (0x0F))\000"
 15135      4352315F 
 15135      4249544D 
 15135      41534B20 
 15135      28287569 
 15136              	.LASF812:
 15137 7b0f 55415254 		.ascii	"UART_RS485CTRL_AADEN (1 << 2)\000"
 15137      5F525334 
ARM GAS  /tmp/ccjsfSlY.s 			page 375


 15137      38354354 
 15137      524C5F41 
 15137      4144454E 
 15138              	.LASF96:
 15139 7b2d 5F5F494E 		.ascii	"__INT16_C(c) c\000"
 15139      5431365F 
 15139      43286329 
 15139      206300
 15140              	.LASF1116:
 15141 7b3c 52455345 		.ascii	"RESET_TIMER0_32\000"
 15141      545F5449 
 15141      4D455230 
 15141      5F333200 
 15142              	.LASF292:
 15143 7b4c 5F5F4441 		.ascii	"__DA_IBIT__ 32\000"
 15143      5F494249 
 15143      545F5F20 
 15143      333200
 15144              	.LASF985:
 15145 7b5b 43414E5F 		.ascii	"CAN_ERROR_ACK 0x00000020UL\000"
 15145      4552524F 
 15145      525F4143 
 15145      4B203078 
 15145      30303030 
 15146              	.LASF1240:
 15147 7b76 636C6F63 		.ascii	"clockMode\000"
 15147      6B4D6F64 
 15147      6500
 15148              	.LASF174:
 15149 7b80 5F5F4445 		.ascii	"__DEC64_MIN_EXP__ (-382)\000"
 15149      4336345F 
 15149      4D494E5F 
 15149      4558505F 
 15149      5F20282D 
 15150              	.LASF551:
 15151 7b99 5343425F 		.ascii	"SCB_SCR_SEVONPEND_Msk (1UL << SCB_SCR_SEVONPEND_Pos"
 15151      5343525F 
 15151      5345564F 
 15151      4E50454E 
 15151      445F4D73 
 15152 7bcc 2900     		.ascii	")\000"
 15153              	.LASF745:
 15154 7bce 55415254 		.ascii	"UART_IIR_INTID_MASK (7 << 1)\000"
 15154      5F494952 
 15154      5F494E54 
 15154      49445F4D 
 15154      41534B20 
 15155              	.LASF10:
 15156 7beb 5F5F4154 		.ascii	"__ATOMIC_ACQ_REL 4\000"
 15156      4F4D4943 
 15156      5F414351 
 15156      5F52454C 
 15156      203400
 15157              	.LASF41:
 15158 7bfe 5F5F494E 		.ascii	"__INT32_TYPE__ long int\000"
 15158      5433325F 
 15158      54595045 
ARM GAS  /tmp/ccjsfSlY.s 			page 376


 15158      5F5F206C 
 15158      6F6E6720 
 15159              	.LASF347:
 15160 7c16 5F5F4348 		.ascii	"__CHIP_H_ \000"
 15160      49505F48 
 15160      5F2000
 15161              	.LASF141:
 15162 7c21 5F5F4442 		.ascii	"__DBL_MIN_10_EXP__ (-307)\000"
 15162      4C5F4D49 
 15162      4E5F3130 
 15162      5F455850 
 15162      5F5F2028 
 15163              	.LASF872:
 15164 7c3b 5353505F 		.ascii	"SSP_SLAVE_MODE SSP_CR1_SLAVE_EN\000"
 15164      534C4156 
 15164      455F4D4F 
 15164      44452053 
 15164      53505F43 
 15165              	.LASF543:
 15166 7c5b 5343425F 		.ascii	"SCB_AIRCR_VECTKEYSTAT_Msk (0xFFFFUL << SCB_AIRCR_VE"
 15166      41495243 
 15166      525F5645 
 15166      43544B45 
 15166      59535441 
 15167 7c8e 43544B45 		.ascii	"CTKEYSTAT_Pos)\000"
 15167      59535441 
 15167      545F506F 
 15167      732900
 15168              	.LASF708:
 15169 7c9d 46554E43 		.ascii	"FUNC7 0x7\000"
 15169      37203078 
 15169      3700
 15170              	.LASF1109:
 15171 7ca7 52455345 		.ascii	"RESET_SSP0\000"
 15171      545F5353 
 15171      503000
 15172              	.LASF1111:
 15173 7cb2 52455345 		.ascii	"RESET_SSP1\000"
 15173      545F5353 
 15173      503100
 15174              	.LASF89:
 15175 7cbd 5F5F5549 		.ascii	"__UINT8_MAX__ 255\000"
 15175      4E54385F 
 15175      4D41585F 
 15175      5F203235 
 15175      3500
 15176              	.LASF802:
 15177 7ccf 55415254 		.ascii	"UART_MSR_DCD (1 << 7)\000"
 15177      5F4D5352 
 15177      5F444344 
 15177      20283120 
 15177      3C3C2037 
 15178              	.LASF115:
 15179 7ce5 5F5F5549 		.ascii	"__UINT_FAST32_MAX__ 4294967295U\000"
 15179      4E545F46 
 15179      41535433 
 15179      325F4D41 
ARM GAS  /tmp/ccjsfSlY.s 			page 377


 15179      585F5F20 
 15180              	.LASF101:
 15181 7d05 5F5F5549 		.ascii	"__UINT_LEAST8_MAX__ 255\000"
 15181      4E545F4C 
 15181      45415354 
 15181      385F4D41 
 15181      585F5F20 
 15182              	.LASF1139:
 15183 7d1d 53595343 		.ascii	"SYSCTL_CLOCK_CAN\000"
 15183      544C5F43 
 15183      4C4F434B 
 15183      5F43414E 
 15183      00
 15184              	.LASF138:
 15185 7d2e 5F5F4442 		.ascii	"__DBL_MANT_DIG__ 53\000"
 15185      4C5F4D41 
 15185      4E545F44 
 15185      49475F5F 
 15185      20353300 
 15186              	.LASF213:
 15187 7d42 5F5F554C 		.ascii	"__ULFRACT_IBIT__ 0\000"
 15187      46524143 
 15187      545F4942 
 15187      49545F5F 
 15187      203000
 15188              	.LASF1194:
 15189 7d55 5353505F 		.ascii	"SSP_MODE_SLAVE\000"
 15189      4D4F4445 
 15189      5F534C41 
 15189      564500
 15190              	.LASF884:
 15191 7d64 4144435F 		.ascii	"ADC_CR_CLKDIV(n) ((((n) & 0xFF) << 8))\000"
 15191      43525F43 
 15191      4C4B4449 
 15191      56286E29 
 15191      20282828 
 15192              	.LASF714:
 15193 7d8b 54494D45 		.ascii	"TIMER_RESET ((uint32_t) (1 << 1))\000"
 15193      525F5245 
 15193      53455420 
 15193      28287569 
 15193      6E743332 
 15194              	.LASF767:
 15195 7dad 55415254 		.ascii	"UART_LCR_SBS_1BIT (0 << 2)\000"
 15195      5F4C4352 
 15195      5F534253 
 15195      5F314249 
 15195      54202830 
 15196              	.LASF381:
 15197 7dc8 5F494E54 		.ascii	"_INT32_EQ_LONG \000"
 15197      33325F45 
 15197      515F4C4F 
 15197      4E472000 
 15198              	.LASF204:
 15199 7dd8 5F5F5546 		.ascii	"__UFRACT_MIN__ 0.0UR\000"
 15199      52414354 
 15199      5F4D494E 
ARM GAS  /tmp/ccjsfSlY.s 			page 378


 15199      5F5F2030 
 15199      2E305552 
 15200              	.LASF50:
 15201 7ded 5F5F494E 		.ascii	"__INT_LEAST64_TYPE__ long long int\000"
 15201      545F4C45 
 15201      41535436 
 15201      345F5459 
 15201      50455F5F 
 15202              	.LASF743:
 15203 7e10 55415254 		.ascii	"UART_IIR_ABTO_INT (1 << 9)\000"
 15203      5F494952 
 15203      5F414254 
 15203      4F5F494E 
 15203      54202831 
 15204              	.LASF1179:
 15205 7e2b 5353505F 		.ascii	"SSP_BITS_4\000"
 15205      42495453 
 15205      5F3400
 15206              	.LASF1153:
 15207 7e36 5F535350 		.ascii	"_SSP_RAWINTSTATUS\000"
 15207      5F524157 
 15207      494E5453 
 15207      54415455 
 15207      5300
 15208              	.LASF1181:
 15209 7e48 5353505F 		.ascii	"SSP_BITS_6\000"
 15209      42495453 
 15209      5F3600
 15210              	.LASF1182:
 15211 7e53 5353505F 		.ascii	"SSP_BITS_7\000"
 15211      42495453 
 15211      5F3700
 15212              	.LASF1183:
 15213 7e5e 5353505F 		.ascii	"SSP_BITS_8\000"
 15213      42495453 
 15213      5F3800
 15214              	.LASF1184:
 15215 7e69 5353505F 		.ascii	"SSP_BITS_9\000"
 15215      42495453 
 15215      5F3900
 15216              	.LASF92:
 15217 7e74 5F5F5549 		.ascii	"__UINT64_MAX__ 18446744073709551615ULL\000"
 15217      4E543634 
 15217      5F4D4158 
 15217      5F5F2031 
 15217      38343436 
 15218              	.LASF799:
 15219 7e9b 55415254 		.ascii	"UART_MSR_CTS (1 << 4)\000"
 15219      5F4D5352 
 15219      5F435453 
 15219      20283120 
 15219      3C3C2034 
 15220              	.LASF965:
 15221 7eb1 4932435F 		.ascii	"I2C_SETUP_STATUS_NOACKF (1 << 9)\000"
 15221      53455455 
 15221      505F5354 
 15221      41545553 
ARM GAS  /tmp/ccjsfSlY.s 			page 379


 15221      5F4E4F41 
 15222              		.ident	"GCC: (GNU Tools for ARM Embedded Processors) 4.9.3 20150529 (release) [ARM/embedded-4_9-br
ARM GAS  /tmp/ccjsfSlY.s 			page 380


DEFINED SYMBOLS
                            *ABS*:00000000 ssp_11xx.c
     /tmp/ccjsfSlY.s:69     .text.SSP_Read1BFifo:00000000 $t
     /tmp/ccjsfSlY.s:73     .text.SSP_Read1BFifo:00000000 SSP_Read1BFifo
     /tmp/ccjsfSlY.s:152    .text.Chip_SSP_SetClockRate:00000000 $t
     /tmp/ccjsfSlY.s:157    .text.Chip_SSP_SetClockRate:00000000 Chip_SSP_SetClockRate
     /tmp/ccjsfSlY.s:189    .text.Chip_SSP_SetClockRate:00000014 $d
     /tmp/ccjsfSlY.s:194    .text.Chip_SSP_RWFrames_Blocking:00000000 $t
     /tmp/ccjsfSlY.s:199    .text.Chip_SSP_RWFrames_Blocking:00000000 Chip_SSP_RWFrames_Blocking
     /tmp/ccjsfSlY.s:641    .text.Chip_SSP_RWFrames_Blocking:00000114 $d
     /tmp/ccjsfSlY.s:650    .text.Chip_SSP_WriteFrames_Blocking:00000000 $t
     /tmp/ccjsfSlY.s:655    .text.Chip_SSP_WriteFrames_Blocking:00000000 Chip_SSP_WriteFrames_Blocking
     /tmp/ccjsfSlY.s:1023   .text.Chip_SSP_ReadFrames_Blocking:00000000 $t
     /tmp/ccjsfSlY.s:1028   .text.Chip_SSP_ReadFrames_Blocking:00000000 Chip_SSP_ReadFrames_Blocking
     /tmp/ccjsfSlY.s:1427   .text.Chip_SSP_ReadFrames_Blocking:000000d8 $d
     /tmp/ccjsfSlY.s:1433   .text.Chip_SSP_Int_FlushData:00000000 $t
     /tmp/ccjsfSlY.s:1438   .text.Chip_SSP_Int_FlushData:00000000 Chip_SSP_Int_FlushData
     /tmp/ccjsfSlY.s:1515   .text.Chip_SSP_Int_RWFrames8Bits:00000000 $t
     /tmp/ccjsfSlY.s:1520   .text.Chip_SSP_Int_RWFrames8Bits:00000000 Chip_SSP_Int_RWFrames8Bits
     /tmp/ccjsfSlY.s:1712   .text.Chip_SSP_Int_RWFrames16Bits:00000000 $t
     /tmp/ccjsfSlY.s:1717   .text.Chip_SSP_Int_RWFrames16Bits:00000000 Chip_SSP_Int_RWFrames16Bits
     /tmp/ccjsfSlY.s:2052   .text.Chip_SSP_Int_RWFrames16Bits:000000c4 $d
     /tmp/ccjsfSlY.s:2057   .text.Chip_SSP_SetMaster:00000000 $t
     /tmp/ccjsfSlY.s:2062   .text.Chip_SSP_SetMaster:00000000 Chip_SSP_SetMaster
     /tmp/ccjsfSlY.s:2102   .text.Chip_SSP_SetBitRate:00000000 $t
     /tmp/ccjsfSlY.s:2107   .text.Chip_SSP_SetBitRate:00000000 Chip_SSP_SetBitRate
     /tmp/ccjsfSlY.s:2268   .text.Chip_SSP_SetBitRate:00000084 $d
     /tmp/ccjsfSlY.s:2275   .text.Chip_SSP_Init:00000000 $t
     /tmp/ccjsfSlY.s:2280   .text.Chip_SSP_Init:00000000 Chip_SSP_Init
     /tmp/ccjsfSlY.s:2423   .text.Chip_SSP_Init:00000064 $d
     /tmp/ccjsfSlY.s:2433   .text.Chip_SSP_DeInit:00000000 $t
     /tmp/ccjsfSlY.s:2438   .text.Chip_SSP_DeInit:00000000 Chip_SSP_DeInit
     /tmp/ccjsfSlY.s:2516   .text.Chip_SSP_DeInit:00000038 $d
                     .debug_frame:00000010 $d
                           .group:00000000 wm4.0.e0d721c163b23fcbf846e7b2aab1891d
                           .group:00000000 wm4.features.h.22.2e382148a0560adabf236cddd4e880f4
                           .group:00000000 wm4._default_types.h.15.933e8edd27a65e0b69af4a865eb623d2
                           .group:00000000 wm4._intsup.h.10.35a45952db64d30146faa63a55c20c1c
                           .group:00000000 wm4._stdint.h.10.f76354baea1c7088202064e6f3d4f5e3
                           .group:00000000 wm4.stdint.h.23.373a9d32a9e4c2e88fd347156532d281
                           .group:00000000 wm4.stdbool.h.29.1c9ee6859ce8145f7838a4f2549ccec2
                           .group:00000000 wm4.lpc_types.h.63.860ba57581a002825766a7c2ac00d549
                           .group:00000000 wm4.sys_config.h.31.9f234e9c90333d233c7e647ebe63e928
                           .group:00000000 wm4.cmsis_11cxx.h.33.407e9bbb5d170cd1552d3f7dc3fd5c42
                           .group:00000000 wm4.core_cm0.h.32.192d13cfa8b31e63c86621de62eb153f
                           .group:00000000 wm4.core_cm0.h.120.f4257ea7d0bce0cbabffe223e23b2fd4
                           .group:00000000 wm4.chip.h.116.857da603c399e979152c31968de4baae
                           .group:00000000 wm4.pmu_11xx.h.33.1d6b708881441cb98d19b8bab3caa180
                           .group:00000000 wm4.sysctl_11xx.h.33.ae61a1181e608f8409883008e291930c
                           .group:00000000 wm4.clock_11xx.h.33.23290a9e2ed919e3a6958d25130bc848
                           .group:00000000 wm4.iocon_11xx.h.33.25e2b3cde122df23fb07b984cb4f3a93
                           .group:00000000 wm4.timer_11xx.h.33.c92f50a9325789ee6a8ffd6248980d70
                           .group:00000000 wm4.ring_buffer.h.33.2f271415f1f27d60350fb4738c5cbee6
                           .group:00000000 wm4.uart_11xx.h.98.fe68b709973730a4fba3f3ce60c5c312
                           .group:00000000 wm4.wwdt_11xx.h.33.5768344983cb842df69cc91ea86cabb0
                           .group:00000000 wm4.ssp_11xx.h.33.af054d3d65f4cb0c078be40bb872ec37
                           .group:00000000 wm4.error.h.38.ae74fe1dd9d19c80c505f1fda144fce8
ARM GAS  /tmp/ccjsfSlY.s 			page 381


                           .group:00000000 wm4.adc_11xx.h.33.6ce7433ac6b30df70a6993d01dbd513f
                           .group:00000000 wm4.i2c_11xx.h.33.2b506d1350e00a8c26e8bf006a5f9390
                           .group:00000000 wm4.ccand_11xx.h.33.99627f4b529fecdc77b0877ab6fe5266

UNDEFINED SYMBOLS
__aeabi_uidiv
Chip_Clock_GetMainClockRate
