ARM GAS  /tmp/ccFRKuha.s 			page 1


   1              		.cpu cortex-m0
   2              		.fpu softvfp
   3              		.eabi_attribute 20, 1	@ Tag_ABI_FP_denormal
   4              		.eabi_attribute 21, 1	@ Tag_ABI_FP_exceptions
   5              		.eabi_attribute 23, 3	@ Tag_ABI_FP_number_model
   6              		.eabi_attribute 24, 1	@ Tag_ABI_align8_needed
   7              		.eabi_attribute 25, 1	@ Tag_ABI_align8_preserved
   8              		.eabi_attribute 26, 1	@ Tag_ABI_enum_size
   9              		.eabi_attribute 30, 4	@ Tag_ABI_optimization_goals
  10              		.eabi_attribute 34, 0	@ Tag_CPU_unaligned_access
  11              		.eabi_attribute 18, 4	@ Tag_ABI_PCS_wchar_t
  12              		.file	"ssp_11xx.c"
  13              	@ GNU C (GNU Tools for ARM Embedded Processors) version 4.9.3 20150529 (release) [ARM/embedded-4_9-
  14              	@	compiled by GNU C version 4.8.4, GMP version 5.1.3, MPFR version 3.1.2-p3, MPC version 1.0.1
  15              	@ GGC heuristics: --param ggc-min-expand=98 --param ggc-min-heapsize=128397
  16              	@ options passed:  -I . -I ../../lpc11cx4-library/lpc_chip_11cxx_lib/inc
  17              	@ -I ../../lpc11cx4-library/evt_lib/inc -I inc -imultilib armv6-m
  18              	@ -iprefix /usr/bin/../lib/gcc/arm-none-eabi/4.9.3/
  19              	@ -isysroot /usr/bin/../arm-none-eabi -MD bin/ssp_11xx.d -MF bin/ssp_11xx.d
  20              	@ -MP -MQ bin/ssp_11xx.o -D__USES_INITFINI__ -D CORE_M0
  21              	@ ../../lpc11cx4-library/lpc_chip_11cxx_lib/src/ssp_11xx.c -mcpu=cortex-m0
  22              	@ -mthumb -auxbase-strip bin/ssp_11xx.o -g -ggdb3 -Os -Wall
  23              	@ -Wstrict-prototypes -Wextra -std=gnu90 -ffunction-sections
  24              	@ -fdata-sections -fverbose-asm -fstack-usage
  25              	@ options enabled:  -faggressive-loop-optimizations -fauto-inc-dec
  26              	@ -fbranch-count-reg -fcaller-saves -fcombine-stack-adjustments -fcommon
  27              	@ -fcompare-elim -fcprop-registers -fcrossjumping -fcse-follow-jumps
  28              	@ -fdata-sections -fdefer-pop -fdelete-null-pointer-checks -fdevirtualize
  29              	@ -fdevirtualize-speculatively -fdwarf2-cfi-asm -fearly-inlining
  30              	@ -feliminate-unused-debug-types -fexpensive-optimizations
  31              	@ -fforward-propagate -ffunction-cse -ffunction-sections -fgcse -fgcse-lm
  32              	@ -fgnu-runtime -fgnu-unique -fguess-branch-probability
  33              	@ -fhoist-adjacent-loads -fident -fif-conversion -fif-conversion2
  34              	@ -findirect-inlining -finline -finline-atomics -finline-functions
  35              	@ -finline-functions-called-once -finline-small-functions -fipa-cp
  36              	@ -fipa-profile -fipa-pure-const -fipa-reference -fipa-sra
  37              	@ -fira-hoist-pressure -fira-share-save-slots -fira-share-spill-slots
  38              	@ -fisolate-erroneous-paths-dereference -fivopts -fkeep-static-consts
  39              	@ -fleading-underscore -flifetime-dse -fmath-errno -fmerge-constants
  40              	@ -fmerge-debug-strings -fomit-frame-pointer -foptimize-sibling-calls
  41              	@ -fpartial-inlining -fpeephole -fpeephole2 -fprefetch-loop-arrays
  42              	@ -freg-struct-return -freorder-blocks -freorder-functions
  43              	@ -frerun-cse-after-loop -fsched-critical-path-heuristic
  44              	@ -fsched-dep-count-heuristic -fsched-group-heuristic -fsched-interblock
  45              	@ -fsched-last-insn-heuristic -fsched-pressure -fsched-rank-heuristic
  46              	@ -fsched-spec -fsched-spec-insn-heuristic -fsched-stalled-insns-dep
  47              	@ -fschedule-insns2 -fsection-anchors -fshow-column -fshrink-wrap
  48              	@ -fsigned-zeros -fsplit-ivs-in-unroller -fsplit-wide-types
  49              	@ -fstrict-aliasing -fstrict-overflow -fstrict-volatile-bitfields
  50              	@ -fsync-libcalls -fthread-jumps -ftoplevel-reorder -ftrapping-math
  51              	@ -ftree-bit-ccp -ftree-builtin-call-dce -ftree-ccp -ftree-ch
  52              	@ -ftree-coalesce-vars -ftree-copy-prop -ftree-copyrename -ftree-cselim
  53              	@ -ftree-dce -ftree-dominator-opts -ftree-dse -ftree-forwprop -ftree-fre
  54              	@ -ftree-loop-if-convert -ftree-loop-im -ftree-loop-ivcanon
  55              	@ -ftree-loop-optimize -ftree-parallelize-loops= -ftree-phiprop -ftree-pre
  56              	@ -ftree-pta -ftree-reassoc -ftree-scev-cprop -ftree-sink -ftree-slsr
  57              	@ -ftree-sra -ftree-switch-conversion -ftree-tail-merge -ftree-ter
ARM GAS  /tmp/ccFRKuha.s 			page 2


  58              	@ -ftree-vrp -funit-at-a-time -fvar-tracking -fvar-tracking-assignments
  59              	@ -fverbose-asm -fzero-initialized-in-bss -mlittle-endian -mlra
  60              	@ -mpic-data-is-text-relative -msched-prolog -mthumb
  61              	@ -mvectorize-with-neon-quad
  62              	
  63              		.text
  64              	.Ltext0:
  65              		.cfi_sections	.debug_frame
  66              		.section	.text.SSP_Read2BFifo,"ax",%progbits
  67              		.align	1
  68              		.code	16
  69              		.thumb_func
  70              		.type	SSP_Read2BFifo, %function
  71              	SSP_Read2BFifo:
  72              	.LFB200:
  73              		.file 1 "../../lpc11cx4-library/lpc_chip_11cxx_lib/src/ssp_11xx.c"
   1:../../lpc11cx4-library/lpc_chip_11cxx_lib/src/ssp_11xx.c **** /*
   2:../../lpc11cx4-library/lpc_chip_11cxx_lib/src/ssp_11xx.c ****  * @brief LPC11xx SSP Registers and control functions
   3:../../lpc11cx4-library/lpc_chip_11cxx_lib/src/ssp_11xx.c ****  *
   4:../../lpc11cx4-library/lpc_chip_11cxx_lib/src/ssp_11xx.c ****  * @note
   5:../../lpc11cx4-library/lpc_chip_11cxx_lib/src/ssp_11xx.c ****  * Copyright(C) NXP Semiconductors, 2012
   6:../../lpc11cx4-library/lpc_chip_11cxx_lib/src/ssp_11xx.c ****  * All rights reserved.
   7:../../lpc11cx4-library/lpc_chip_11cxx_lib/src/ssp_11xx.c ****  *
   8:../../lpc11cx4-library/lpc_chip_11cxx_lib/src/ssp_11xx.c ****  * @par
   9:../../lpc11cx4-library/lpc_chip_11cxx_lib/src/ssp_11xx.c ****  * Software that is described herein is for illustrative purposes only
  10:../../lpc11cx4-library/lpc_chip_11cxx_lib/src/ssp_11xx.c ****  * which provides customers with programming information regarding the
  11:../../lpc11cx4-library/lpc_chip_11cxx_lib/src/ssp_11xx.c ****  * LPC products.  This software is supplied "AS IS" without any warranties of
  12:../../lpc11cx4-library/lpc_chip_11cxx_lib/src/ssp_11xx.c ****  * any kind, and NXP Semiconductors and its licensor disclaim any and
  13:../../lpc11cx4-library/lpc_chip_11cxx_lib/src/ssp_11xx.c ****  * all warranties, express or implied, including all implied warranties of
  14:../../lpc11cx4-library/lpc_chip_11cxx_lib/src/ssp_11xx.c ****  * merchantability, fitness for a particular purpose and non-infringement of
  15:../../lpc11cx4-library/lpc_chip_11cxx_lib/src/ssp_11xx.c ****  * intellectual property rights.  NXP Semiconductors assumes no responsibility
  16:../../lpc11cx4-library/lpc_chip_11cxx_lib/src/ssp_11xx.c ****  * or liability for the use of the software, conveys no license or rights under any
  17:../../lpc11cx4-library/lpc_chip_11cxx_lib/src/ssp_11xx.c ****  * patent, copyright, mask work right, or any other intellectual property rights in
  18:../../lpc11cx4-library/lpc_chip_11cxx_lib/src/ssp_11xx.c ****  * or to any products. NXP Semiconductors reserves the right to make changes
  19:../../lpc11cx4-library/lpc_chip_11cxx_lib/src/ssp_11xx.c ****  * in the software without notification. NXP Semiconductors also makes no
  20:../../lpc11cx4-library/lpc_chip_11cxx_lib/src/ssp_11xx.c ****  * representation or warranty that such application will be suitable for the
  21:../../lpc11cx4-library/lpc_chip_11cxx_lib/src/ssp_11xx.c ****  * specified use without further testing or modification.
  22:../../lpc11cx4-library/lpc_chip_11cxx_lib/src/ssp_11xx.c ****  *
  23:../../lpc11cx4-library/lpc_chip_11cxx_lib/src/ssp_11xx.c ****  * @par
  24:../../lpc11cx4-library/lpc_chip_11cxx_lib/src/ssp_11xx.c ****  * Permission to use, copy, modify, and distribute this software and its
  25:../../lpc11cx4-library/lpc_chip_11cxx_lib/src/ssp_11xx.c ****  * documentation is hereby granted, under NXP Semiconductors' and its
  26:../../lpc11cx4-library/lpc_chip_11cxx_lib/src/ssp_11xx.c ****  * licensor's relevant copyrights in the software, without fee, provided that it
  27:../../lpc11cx4-library/lpc_chip_11cxx_lib/src/ssp_11xx.c ****  * is used in conjunction with NXP Semiconductors microcontrollers.  This
  28:../../lpc11cx4-library/lpc_chip_11cxx_lib/src/ssp_11xx.c ****  * copyright, permission, and disclaimer notice must appear in all copies of
  29:../../lpc11cx4-library/lpc_chip_11cxx_lib/src/ssp_11xx.c ****  * this code.
  30:../../lpc11cx4-library/lpc_chip_11cxx_lib/src/ssp_11xx.c ****  */
  31:../../lpc11cx4-library/lpc_chip_11cxx_lib/src/ssp_11xx.c **** 
  32:../../lpc11cx4-library/lpc_chip_11cxx_lib/src/ssp_11xx.c **** #include "chip.h"
  33:../../lpc11cx4-library/lpc_chip_11cxx_lib/src/ssp_11xx.c **** 
  34:../../lpc11cx4-library/lpc_chip_11cxx_lib/src/ssp_11xx.c **** /*****************************************************************************
  35:../../lpc11cx4-library/lpc_chip_11cxx_lib/src/ssp_11xx.c ****  * Private types/enumerations/variables
  36:../../lpc11cx4-library/lpc_chip_11cxx_lib/src/ssp_11xx.c ****  ****************************************************************************/
  37:../../lpc11cx4-library/lpc_chip_11cxx_lib/src/ssp_11xx.c **** 
  38:../../lpc11cx4-library/lpc_chip_11cxx_lib/src/ssp_11xx.c **** /*****************************************************************************
  39:../../lpc11cx4-library/lpc_chip_11cxx_lib/src/ssp_11xx.c ****  * Public types/enumerations/variables
  40:../../lpc11cx4-library/lpc_chip_11cxx_lib/src/ssp_11xx.c ****  ****************************************************************************/
  41:../../lpc11cx4-library/lpc_chip_11cxx_lib/src/ssp_11xx.c **** 
ARM GAS  /tmp/ccFRKuha.s 			page 3


  42:../../lpc11cx4-library/lpc_chip_11cxx_lib/src/ssp_11xx.c **** /*****************************************************************************
  43:../../lpc11cx4-library/lpc_chip_11cxx_lib/src/ssp_11xx.c ****  * Private functions
  44:../../lpc11cx4-library/lpc_chip_11cxx_lib/src/ssp_11xx.c ****  ****************************************************************************/
  45:../../lpc11cx4-library/lpc_chip_11cxx_lib/src/ssp_11xx.c **** 
  46:../../lpc11cx4-library/lpc_chip_11cxx_lib/src/ssp_11xx.c **** STATIC void SSP_Write2BFifo(LPC_SSP_T *pSSP, Chip_SSP_DATA_SETUP_T *xf_setup)
  47:../../lpc11cx4-library/lpc_chip_11cxx_lib/src/ssp_11xx.c **** {
  48:../../lpc11cx4-library/lpc_chip_11cxx_lib/src/ssp_11xx.c **** 	if (xf_setup->tx_data) {
  49:../../lpc11cx4-library/lpc_chip_11cxx_lib/src/ssp_11xx.c **** 		Chip_SSP_SendFrame(pSSP, (*(uint16_t *) ((uint32_t) xf_setup->tx_data +
  50:../../lpc11cx4-library/lpc_chip_11cxx_lib/src/ssp_11xx.c **** 												 xf_setup->tx_cnt)));
  51:../../lpc11cx4-library/lpc_chip_11cxx_lib/src/ssp_11xx.c **** 	}
  52:../../lpc11cx4-library/lpc_chip_11cxx_lib/src/ssp_11xx.c **** 	else {
  53:../../lpc11cx4-library/lpc_chip_11cxx_lib/src/ssp_11xx.c **** 		Chip_SSP_SendFrame(pSSP, 0xFFFF);
  54:../../lpc11cx4-library/lpc_chip_11cxx_lib/src/ssp_11xx.c **** 	}
  55:../../lpc11cx4-library/lpc_chip_11cxx_lib/src/ssp_11xx.c **** 
  56:../../lpc11cx4-library/lpc_chip_11cxx_lib/src/ssp_11xx.c **** 	xf_setup->tx_cnt += 2;
  57:../../lpc11cx4-library/lpc_chip_11cxx_lib/src/ssp_11xx.c **** }
  58:../../lpc11cx4-library/lpc_chip_11cxx_lib/src/ssp_11xx.c **** 
  59:../../lpc11cx4-library/lpc_chip_11cxx_lib/src/ssp_11xx.c **** /** SSP macro: write 1 bytes to FIFO buffer */
  60:../../lpc11cx4-library/lpc_chip_11cxx_lib/src/ssp_11xx.c **** STATIC void SSP_Write1BFifo(LPC_SSP_T *pSSP, Chip_SSP_DATA_SETUP_T *xf_setup)
  61:../../lpc11cx4-library/lpc_chip_11cxx_lib/src/ssp_11xx.c **** {
  62:../../lpc11cx4-library/lpc_chip_11cxx_lib/src/ssp_11xx.c **** 	if (xf_setup->tx_data) {
  63:../../lpc11cx4-library/lpc_chip_11cxx_lib/src/ssp_11xx.c **** 		Chip_SSP_SendFrame(pSSP, (*(uint8_t *) ((uint32_t) xf_setup->tx_data + xf_setup->tx_cnt)));
  64:../../lpc11cx4-library/lpc_chip_11cxx_lib/src/ssp_11xx.c **** 	}
  65:../../lpc11cx4-library/lpc_chip_11cxx_lib/src/ssp_11xx.c **** 	else {
  66:../../lpc11cx4-library/lpc_chip_11cxx_lib/src/ssp_11xx.c **** 		Chip_SSP_SendFrame(pSSP, 0xFF);
  67:../../lpc11cx4-library/lpc_chip_11cxx_lib/src/ssp_11xx.c **** 	}
  68:../../lpc11cx4-library/lpc_chip_11cxx_lib/src/ssp_11xx.c **** 
  69:../../lpc11cx4-library/lpc_chip_11cxx_lib/src/ssp_11xx.c **** 	xf_setup->tx_cnt++;
  70:../../lpc11cx4-library/lpc_chip_11cxx_lib/src/ssp_11xx.c **** }
  71:../../lpc11cx4-library/lpc_chip_11cxx_lib/src/ssp_11xx.c **** 
  72:../../lpc11cx4-library/lpc_chip_11cxx_lib/src/ssp_11xx.c **** /** SSP macro: read 1 bytes from FIFO buffer */
  73:../../lpc11cx4-library/lpc_chip_11cxx_lib/src/ssp_11xx.c **** STATIC void SSP_Read2BFifo(LPC_SSP_T *pSSP, Chip_SSP_DATA_SETUP_T *xf_setup)
  74:../../lpc11cx4-library/lpc_chip_11cxx_lib/src/ssp_11xx.c **** {
  74              		.loc 1 74 0
  75              		.cfi_startproc
  76              	.LVL0:
  77 0000 10B5     		push	{r4, lr}	@
  78              		.cfi_def_cfa_offset 8
  79              		.cfi_offset 4, -8
  80              		.cfi_offset 14, -4
  81              	.L2:
  82              	.LVL1:
  83              	.LBB140:
  84              	.LBB141:
  85              		.file 2 "../../lpc11cx4-library/lpc_chip_11cxx_lib/inc/ssp_11xx.h"
   1:../../lpc11cx4-library/lpc_chip_11cxx_lib/inc/ssp_11xx.h **** /*
   2:../../lpc11cx4-library/lpc_chip_11cxx_lib/inc/ssp_11xx.h ****  * @brief LPC11xx SSP Registers and control functions
   3:../../lpc11cx4-library/lpc_chip_11cxx_lib/inc/ssp_11xx.h ****  *
   4:../../lpc11cx4-library/lpc_chip_11cxx_lib/inc/ssp_11xx.h ****  * @note
   5:../../lpc11cx4-library/lpc_chip_11cxx_lib/inc/ssp_11xx.h ****  * Copyright(C) NXP Semiconductors, 2012
   6:../../lpc11cx4-library/lpc_chip_11cxx_lib/inc/ssp_11xx.h ****  * All rights reserved.
   7:../../lpc11cx4-library/lpc_chip_11cxx_lib/inc/ssp_11xx.h ****  *
   8:../../lpc11cx4-library/lpc_chip_11cxx_lib/inc/ssp_11xx.h ****  * @par
   9:../../lpc11cx4-library/lpc_chip_11cxx_lib/inc/ssp_11xx.h ****  * Software that is described herein is for illustrative purposes only
  10:../../lpc11cx4-library/lpc_chip_11cxx_lib/inc/ssp_11xx.h ****  * which provides customers with programming information regarding the
  11:../../lpc11cx4-library/lpc_chip_11cxx_lib/inc/ssp_11xx.h ****  * LPC products.  This software is supplied "AS IS" without any warranties of
  12:../../lpc11cx4-library/lpc_chip_11cxx_lib/inc/ssp_11xx.h ****  * any kind, and NXP Semiconductors and its licensor disclaim any and
ARM GAS  /tmp/ccFRKuha.s 			page 4


  13:../../lpc11cx4-library/lpc_chip_11cxx_lib/inc/ssp_11xx.h ****  * all warranties, express or implied, including all implied warranties of
  14:../../lpc11cx4-library/lpc_chip_11cxx_lib/inc/ssp_11xx.h ****  * merchantability, fitness for a particular purpose and non-infringement of
  15:../../lpc11cx4-library/lpc_chip_11cxx_lib/inc/ssp_11xx.h ****  * intellectual property rights.  NXP Semiconductors assumes no responsibility
  16:../../lpc11cx4-library/lpc_chip_11cxx_lib/inc/ssp_11xx.h ****  * or liability for the use of the software, conveys no license or rights under any
  17:../../lpc11cx4-library/lpc_chip_11cxx_lib/inc/ssp_11xx.h ****  * patent, copyright, mask work right, or any other intellectual property rights in
  18:../../lpc11cx4-library/lpc_chip_11cxx_lib/inc/ssp_11xx.h ****  * or to any products. NXP Semiconductors reserves the right to make changes
  19:../../lpc11cx4-library/lpc_chip_11cxx_lib/inc/ssp_11xx.h ****  * in the software without notification. NXP Semiconductors also makes no
  20:../../lpc11cx4-library/lpc_chip_11cxx_lib/inc/ssp_11xx.h ****  * representation or warranty that such application will be suitable for the
  21:../../lpc11cx4-library/lpc_chip_11cxx_lib/inc/ssp_11xx.h ****  * specified use without further testing or modification.
  22:../../lpc11cx4-library/lpc_chip_11cxx_lib/inc/ssp_11xx.h ****  *
  23:../../lpc11cx4-library/lpc_chip_11cxx_lib/inc/ssp_11xx.h ****  * @par
  24:../../lpc11cx4-library/lpc_chip_11cxx_lib/inc/ssp_11xx.h ****  * Permission to use, copy, modify, and distribute this software and its
  25:../../lpc11cx4-library/lpc_chip_11cxx_lib/inc/ssp_11xx.h ****  * documentation is hereby granted, under NXP Semiconductors' and its
  26:../../lpc11cx4-library/lpc_chip_11cxx_lib/inc/ssp_11xx.h ****  * licensor's relevant copyrights in the software, without fee, provided that it
  27:../../lpc11cx4-library/lpc_chip_11cxx_lib/inc/ssp_11xx.h ****  * is used in conjunction with NXP Semiconductors microcontrollers.  This
  28:../../lpc11cx4-library/lpc_chip_11cxx_lib/inc/ssp_11xx.h ****  * copyright, permission, and disclaimer notice must appear in all copies of
  29:../../lpc11cx4-library/lpc_chip_11cxx_lib/inc/ssp_11xx.h ****  * this code.
  30:../../lpc11cx4-library/lpc_chip_11cxx_lib/inc/ssp_11xx.h ****  */
  31:../../lpc11cx4-library/lpc_chip_11cxx_lib/inc/ssp_11xx.h **** 
  32:../../lpc11cx4-library/lpc_chip_11cxx_lib/inc/ssp_11xx.h **** #ifndef __SSP_11XX_H_
  33:../../lpc11cx4-library/lpc_chip_11cxx_lib/inc/ssp_11xx.h **** #define __SSP_11XX_H_
  34:../../lpc11cx4-library/lpc_chip_11cxx_lib/inc/ssp_11xx.h **** 
  35:../../lpc11cx4-library/lpc_chip_11cxx_lib/inc/ssp_11xx.h **** #ifdef __cplusplus
  36:../../lpc11cx4-library/lpc_chip_11cxx_lib/inc/ssp_11xx.h **** extern "C" {
  37:../../lpc11cx4-library/lpc_chip_11cxx_lib/inc/ssp_11xx.h **** #endif
  38:../../lpc11cx4-library/lpc_chip_11cxx_lib/inc/ssp_11xx.h **** 
  39:../../lpc11cx4-library/lpc_chip_11cxx_lib/inc/ssp_11xx.h **** /** @defgroup SSP_11XX CHIP: LPC11xx SSP register block and driver
  40:../../lpc11cx4-library/lpc_chip_11cxx_lib/inc/ssp_11xx.h ****  * @ingroup CHIP_11XX_Drivers
  41:../../lpc11cx4-library/lpc_chip_11cxx_lib/inc/ssp_11xx.h ****  * @{
  42:../../lpc11cx4-library/lpc_chip_11cxx_lib/inc/ssp_11xx.h ****  */
  43:../../lpc11cx4-library/lpc_chip_11cxx_lib/inc/ssp_11xx.h **** 
  44:../../lpc11cx4-library/lpc_chip_11cxx_lib/inc/ssp_11xx.h **** /**
  45:../../lpc11cx4-library/lpc_chip_11cxx_lib/inc/ssp_11xx.h ****  * @brief SSP register block structure
  46:../../lpc11cx4-library/lpc_chip_11cxx_lib/inc/ssp_11xx.h ****  */
  47:../../lpc11cx4-library/lpc_chip_11cxx_lib/inc/ssp_11xx.h **** typedef struct {			/*!< SSPn Structure         */
  48:../../lpc11cx4-library/lpc_chip_11cxx_lib/inc/ssp_11xx.h **** 	__IO uint32_t CR0;		/*!< Control Register 0. Selects the serial clock rate, bus type, and data siz
  49:../../lpc11cx4-library/lpc_chip_11cxx_lib/inc/ssp_11xx.h **** 	__IO uint32_t CR1;		/*!< Control Register 1. Selects master/slave and other modes. */
  50:../../lpc11cx4-library/lpc_chip_11cxx_lib/inc/ssp_11xx.h **** 	__IO uint32_t DR;		/*!< Data Register. Writes fill the transmit FIFO, and reads empty the receive 
  51:../../lpc11cx4-library/lpc_chip_11cxx_lib/inc/ssp_11xx.h **** 	__I  uint32_t SR;		/*!< Status Register        */
  52:../../lpc11cx4-library/lpc_chip_11cxx_lib/inc/ssp_11xx.h **** 	__IO uint32_t CPSR;		/*!< Clock Prescale Register */
  53:../../lpc11cx4-library/lpc_chip_11cxx_lib/inc/ssp_11xx.h **** 	__IO uint32_t IMSC;		/*!< Interrupt Mask Set and Clear Register */
  54:../../lpc11cx4-library/lpc_chip_11cxx_lib/inc/ssp_11xx.h **** 	__I  uint32_t RIS;		/*!< Raw Interrupt Status Register */
  55:../../lpc11cx4-library/lpc_chip_11cxx_lib/inc/ssp_11xx.h **** 	__I  uint32_t MIS;		/*!< Masked Interrupt Status Register */
  56:../../lpc11cx4-library/lpc_chip_11cxx_lib/inc/ssp_11xx.h **** 	__O  uint32_t ICR;		/*!< SSPICR Interrupt Clear Register */
  57:../../lpc11cx4-library/lpc_chip_11cxx_lib/inc/ssp_11xx.h **** } LPC_SSP_T;
  58:../../lpc11cx4-library/lpc_chip_11cxx_lib/inc/ssp_11xx.h **** 
  59:../../lpc11cx4-library/lpc_chip_11cxx_lib/inc/ssp_11xx.h **** /**
  60:../../lpc11cx4-library/lpc_chip_11cxx_lib/inc/ssp_11xx.h ****  * Macro defines for CR0 register
  61:../../lpc11cx4-library/lpc_chip_11cxx_lib/inc/ssp_11xx.h ****  */
  62:../../lpc11cx4-library/lpc_chip_11cxx_lib/inc/ssp_11xx.h **** 
  63:../../lpc11cx4-library/lpc_chip_11cxx_lib/inc/ssp_11xx.h **** /** SSP data size select, must be 4 bits to 16 bits */
  64:../../lpc11cx4-library/lpc_chip_11cxx_lib/inc/ssp_11xx.h **** #define SSP_CR0_DSS(n)          ((uint32_t) ((n) & 0xF))
  65:../../lpc11cx4-library/lpc_chip_11cxx_lib/inc/ssp_11xx.h **** /** SSP control 0 Motorola SPI mode */
  66:../../lpc11cx4-library/lpc_chip_11cxx_lib/inc/ssp_11xx.h **** #define SSP_CR0_FRF_SPI         ((uint32_t) (0 << 4))
  67:../../lpc11cx4-library/lpc_chip_11cxx_lib/inc/ssp_11xx.h **** /** SSP control 0 TI synchronous serial mode */
  68:../../lpc11cx4-library/lpc_chip_11cxx_lib/inc/ssp_11xx.h **** #define SSP_CR0_FRF_TI          ((uint32_t) (1 << 4))
  69:../../lpc11cx4-library/lpc_chip_11cxx_lib/inc/ssp_11xx.h **** /** SSP control 0 National Micro-wire mode */
ARM GAS  /tmp/ccFRKuha.s 			page 5


  70:../../lpc11cx4-library/lpc_chip_11cxx_lib/inc/ssp_11xx.h **** #define SSP_CR0_FRF_MICROWIRE   ((uint32_t) (2 << 4))
  71:../../lpc11cx4-library/lpc_chip_11cxx_lib/inc/ssp_11xx.h **** /** SPI clock polarity bit (used in SPI mode only), (1) = maintains the
  72:../../lpc11cx4-library/lpc_chip_11cxx_lib/inc/ssp_11xx.h ****    bus clock high between frames, (0) = low */
  73:../../lpc11cx4-library/lpc_chip_11cxx_lib/inc/ssp_11xx.h **** #define SSP_CR0_CPOL_LO     ((uint32_t) (0))
  74:../../lpc11cx4-library/lpc_chip_11cxx_lib/inc/ssp_11xx.h **** #define SSP_CR0_CPOL_HI     ((uint32_t) (1 << 6))
  75:../../lpc11cx4-library/lpc_chip_11cxx_lib/inc/ssp_11xx.h **** /** SPI clock out phase bit (used in SPI mode only), (1) = captures data
  76:../../lpc11cx4-library/lpc_chip_11cxx_lib/inc/ssp_11xx.h ****    on the second clock transition of the frame, (0) = first */
  77:../../lpc11cx4-library/lpc_chip_11cxx_lib/inc/ssp_11xx.h **** #define SSP_CR0_CPHA_FIRST  ((uint32_t) (0))
  78:../../lpc11cx4-library/lpc_chip_11cxx_lib/inc/ssp_11xx.h **** #define SSP_CR0_CPHA_SECOND ((uint32_t) (1 << 7))
  79:../../lpc11cx4-library/lpc_chip_11cxx_lib/inc/ssp_11xx.h **** /** SSP serial clock rate value load macro, divider rate is
  80:../../lpc11cx4-library/lpc_chip_11cxx_lib/inc/ssp_11xx.h ****    PERIPH_CLK / (cpsr * (SCR + 1)) */
  81:../../lpc11cx4-library/lpc_chip_11cxx_lib/inc/ssp_11xx.h **** #define SSP_CR0_SCR(n)      ((uint32_t) ((n & 0xFF) << 8))
  82:../../lpc11cx4-library/lpc_chip_11cxx_lib/inc/ssp_11xx.h **** /** SSP CR0 bit mask */
  83:../../lpc11cx4-library/lpc_chip_11cxx_lib/inc/ssp_11xx.h **** #define SSP_CR0_BITMASK     ((uint32_t) (0xFFFF))
  84:../../lpc11cx4-library/lpc_chip_11cxx_lib/inc/ssp_11xx.h **** /** SSP CR0 bit mask */
  85:../../lpc11cx4-library/lpc_chip_11cxx_lib/inc/ssp_11xx.h **** #define SSP_CR0_BITMASK     ((uint32_t) (0xFFFF))
  86:../../lpc11cx4-library/lpc_chip_11cxx_lib/inc/ssp_11xx.h **** /** SSP serial clock rate value load macro, divider rate is
  87:../../lpc11cx4-library/lpc_chip_11cxx_lib/inc/ssp_11xx.h ****    PERIPH_CLK / (cpsr * (SCR + 1)) */
  88:../../lpc11cx4-library/lpc_chip_11cxx_lib/inc/ssp_11xx.h **** #define SSP_CR0_SCR(n)      ((uint32_t) ((n & 0xFF) << 8))
  89:../../lpc11cx4-library/lpc_chip_11cxx_lib/inc/ssp_11xx.h **** 
  90:../../lpc11cx4-library/lpc_chip_11cxx_lib/inc/ssp_11xx.h **** /**
  91:../../lpc11cx4-library/lpc_chip_11cxx_lib/inc/ssp_11xx.h ****  * Macro defines for CR1 register
  92:../../lpc11cx4-library/lpc_chip_11cxx_lib/inc/ssp_11xx.h ****  */
  93:../../lpc11cx4-library/lpc_chip_11cxx_lib/inc/ssp_11xx.h **** 
  94:../../lpc11cx4-library/lpc_chip_11cxx_lib/inc/ssp_11xx.h **** /** SSP control 1 loopback mode enable bit */
  95:../../lpc11cx4-library/lpc_chip_11cxx_lib/inc/ssp_11xx.h **** #define SSP_CR1_LBM_EN      ((uint32_t) (1 << 0))
  96:../../lpc11cx4-library/lpc_chip_11cxx_lib/inc/ssp_11xx.h **** /** SSP control 1 enable bit */
  97:../../lpc11cx4-library/lpc_chip_11cxx_lib/inc/ssp_11xx.h **** #define SSP_CR1_SSP_EN      ((uint32_t) (1 << 1))
  98:../../lpc11cx4-library/lpc_chip_11cxx_lib/inc/ssp_11xx.h **** /** SSP control 1 slave enable */
  99:../../lpc11cx4-library/lpc_chip_11cxx_lib/inc/ssp_11xx.h **** #define SSP_CR1_SLAVE_EN    ((uint32_t) (1 << 2))
 100:../../lpc11cx4-library/lpc_chip_11cxx_lib/inc/ssp_11xx.h **** #define SSP_CR1_MASTER_EN   ((uint32_t) (0))
 101:../../lpc11cx4-library/lpc_chip_11cxx_lib/inc/ssp_11xx.h **** /** SSP control 1 slave out disable bit, disables transmit line in slave
 102:../../lpc11cx4-library/lpc_chip_11cxx_lib/inc/ssp_11xx.h ****    mode */
 103:../../lpc11cx4-library/lpc_chip_11cxx_lib/inc/ssp_11xx.h **** #define SSP_CR1_SO_DISABLE  ((uint32_t) (1 << 3))
 104:../../lpc11cx4-library/lpc_chip_11cxx_lib/inc/ssp_11xx.h **** /** SSP CR1 bit mask */
 105:../../lpc11cx4-library/lpc_chip_11cxx_lib/inc/ssp_11xx.h **** #define SSP_CR1_BITMASK     ((uint32_t) (0x0F))
 106:../../lpc11cx4-library/lpc_chip_11cxx_lib/inc/ssp_11xx.h **** 
 107:../../lpc11cx4-library/lpc_chip_11cxx_lib/inc/ssp_11xx.h **** /** SSP CPSR bit mask */
 108:../../lpc11cx4-library/lpc_chip_11cxx_lib/inc/ssp_11xx.h **** #define SSP_CPSR_BITMASK    ((uint32_t) (0xFF))
 109:../../lpc11cx4-library/lpc_chip_11cxx_lib/inc/ssp_11xx.h **** /**
 110:../../lpc11cx4-library/lpc_chip_11cxx_lib/inc/ssp_11xx.h ****  * Macro defines for DR register
 111:../../lpc11cx4-library/lpc_chip_11cxx_lib/inc/ssp_11xx.h ****  */
 112:../../lpc11cx4-library/lpc_chip_11cxx_lib/inc/ssp_11xx.h **** 
 113:../../lpc11cx4-library/lpc_chip_11cxx_lib/inc/ssp_11xx.h **** /** SSP data bit mask */
 114:../../lpc11cx4-library/lpc_chip_11cxx_lib/inc/ssp_11xx.h **** #define SSP_DR_BITMASK(n)   ((n) & 0xFFFF)
 115:../../lpc11cx4-library/lpc_chip_11cxx_lib/inc/ssp_11xx.h **** 
 116:../../lpc11cx4-library/lpc_chip_11cxx_lib/inc/ssp_11xx.h **** /**
 117:../../lpc11cx4-library/lpc_chip_11cxx_lib/inc/ssp_11xx.h ****  * Macro defines for SR register
 118:../../lpc11cx4-library/lpc_chip_11cxx_lib/inc/ssp_11xx.h ****  */
 119:../../lpc11cx4-library/lpc_chip_11cxx_lib/inc/ssp_11xx.h **** 
 120:../../lpc11cx4-library/lpc_chip_11cxx_lib/inc/ssp_11xx.h **** /** SSP SR bit mask */
 121:../../lpc11cx4-library/lpc_chip_11cxx_lib/inc/ssp_11xx.h **** #define SSP_SR_BITMASK  ((uint32_t) (0x1F))
 122:../../lpc11cx4-library/lpc_chip_11cxx_lib/inc/ssp_11xx.h **** 
 123:../../lpc11cx4-library/lpc_chip_11cxx_lib/inc/ssp_11xx.h **** /** ICR bit mask */
 124:../../lpc11cx4-library/lpc_chip_11cxx_lib/inc/ssp_11xx.h **** #define SSP_ICR_BITMASK ((uint32_t) (0x03))
 125:../../lpc11cx4-library/lpc_chip_11cxx_lib/inc/ssp_11xx.h **** 
 126:../../lpc11cx4-library/lpc_chip_11cxx_lib/inc/ssp_11xx.h **** /**
ARM GAS  /tmp/ccFRKuha.s 			page 6


 127:../../lpc11cx4-library/lpc_chip_11cxx_lib/inc/ssp_11xx.h ****  * @brief SSP Type of Status
 128:../../lpc11cx4-library/lpc_chip_11cxx_lib/inc/ssp_11xx.h ****  */
 129:../../lpc11cx4-library/lpc_chip_11cxx_lib/inc/ssp_11xx.h **** typedef enum _SSP_STATUS {
 130:../../lpc11cx4-library/lpc_chip_11cxx_lib/inc/ssp_11xx.h **** 	SSP_STAT_TFE = ((uint32_t)(1 << 0)),/**< TX FIFO Empty */
 131:../../lpc11cx4-library/lpc_chip_11cxx_lib/inc/ssp_11xx.h **** 	SSP_STAT_TNF = ((uint32_t)(1 << 1)),/**< TX FIFO not full */
 132:../../lpc11cx4-library/lpc_chip_11cxx_lib/inc/ssp_11xx.h **** 	SSP_STAT_RNE = ((uint32_t)(1 << 2)),/**< RX FIFO not empty */
 133:../../lpc11cx4-library/lpc_chip_11cxx_lib/inc/ssp_11xx.h **** 	SSP_STAT_RFF = ((uint32_t)(1 << 3)),/**< RX FIFO full */
 134:../../lpc11cx4-library/lpc_chip_11cxx_lib/inc/ssp_11xx.h **** 	SSP_STAT_BSY = ((uint32_t)(1 << 4)),/**< SSP Busy */
 135:../../lpc11cx4-library/lpc_chip_11cxx_lib/inc/ssp_11xx.h **** } SSP_STATUS_T;
 136:../../lpc11cx4-library/lpc_chip_11cxx_lib/inc/ssp_11xx.h **** 
 137:../../lpc11cx4-library/lpc_chip_11cxx_lib/inc/ssp_11xx.h **** /**
 138:../../lpc11cx4-library/lpc_chip_11cxx_lib/inc/ssp_11xx.h ****  * @brief SSP Type of Interrupt Mask
 139:../../lpc11cx4-library/lpc_chip_11cxx_lib/inc/ssp_11xx.h ****  */
 140:../../lpc11cx4-library/lpc_chip_11cxx_lib/inc/ssp_11xx.h **** typedef enum _SSP_INTMASK {
 141:../../lpc11cx4-library/lpc_chip_11cxx_lib/inc/ssp_11xx.h **** 	SSP_RORIM = ((uint32_t)(1 << 0)),	/**< Overun */
 142:../../lpc11cx4-library/lpc_chip_11cxx_lib/inc/ssp_11xx.h **** 	SSP_RTIM = ((uint32_t)(1 << 1)),/**< TimeOut */
 143:../../lpc11cx4-library/lpc_chip_11cxx_lib/inc/ssp_11xx.h **** 	SSP_RXIM = ((uint32_t)(1 << 2)),/**< Rx FIFO is at least half full */
 144:../../lpc11cx4-library/lpc_chip_11cxx_lib/inc/ssp_11xx.h **** 	SSP_TXIM = ((uint32_t)(1 << 3)),/**< Tx FIFO is at least half empty */
 145:../../lpc11cx4-library/lpc_chip_11cxx_lib/inc/ssp_11xx.h **** 	SSP_INT_MASK_BITMASK = ((uint32_t)(0xF)),
 146:../../lpc11cx4-library/lpc_chip_11cxx_lib/inc/ssp_11xx.h **** } SSP_INTMASK_T;
 147:../../lpc11cx4-library/lpc_chip_11cxx_lib/inc/ssp_11xx.h **** 
 148:../../lpc11cx4-library/lpc_chip_11cxx_lib/inc/ssp_11xx.h **** /**
 149:../../lpc11cx4-library/lpc_chip_11cxx_lib/inc/ssp_11xx.h ****  * @brief SSP Type of Mask Interrupt Status
 150:../../lpc11cx4-library/lpc_chip_11cxx_lib/inc/ssp_11xx.h ****  */
 151:../../lpc11cx4-library/lpc_chip_11cxx_lib/inc/ssp_11xx.h **** typedef enum _SSP_MASKINTSTATUS {
 152:../../lpc11cx4-library/lpc_chip_11cxx_lib/inc/ssp_11xx.h **** 	SSP_RORMIS = ((uint32_t)(1 << 0)),	/**< Overun */
 153:../../lpc11cx4-library/lpc_chip_11cxx_lib/inc/ssp_11xx.h **** 	SSP_RTMIS = ((uint32_t)(1 << 1)),	/**< TimeOut */
 154:../../lpc11cx4-library/lpc_chip_11cxx_lib/inc/ssp_11xx.h **** 	SSP_RXMIS = ((uint32_t)(1 << 2)),	/**< Rx FIFO is at least half full */
 155:../../lpc11cx4-library/lpc_chip_11cxx_lib/inc/ssp_11xx.h **** 	SSP_TXMIS = ((uint32_t)(1 << 3)),	/**< Tx FIFO is at least half empty */
 156:../../lpc11cx4-library/lpc_chip_11cxx_lib/inc/ssp_11xx.h **** 	SSP_MASK_INT_STAT_BITMASK = ((uint32_t)(0xF)),
 157:../../lpc11cx4-library/lpc_chip_11cxx_lib/inc/ssp_11xx.h **** } SSP_MASKINTSTATUS_T;
 158:../../lpc11cx4-library/lpc_chip_11cxx_lib/inc/ssp_11xx.h **** 
 159:../../lpc11cx4-library/lpc_chip_11cxx_lib/inc/ssp_11xx.h **** /**
 160:../../lpc11cx4-library/lpc_chip_11cxx_lib/inc/ssp_11xx.h ****  * @brief SSP Type of Raw Interrupt Status
 161:../../lpc11cx4-library/lpc_chip_11cxx_lib/inc/ssp_11xx.h ****  */
 162:../../lpc11cx4-library/lpc_chip_11cxx_lib/inc/ssp_11xx.h **** typedef enum _SSP_RAWINTSTATUS {
 163:../../lpc11cx4-library/lpc_chip_11cxx_lib/inc/ssp_11xx.h **** 	SSP_RORRIS = ((uint32_t)(1 << 0)),	/**< Overun */
 164:../../lpc11cx4-library/lpc_chip_11cxx_lib/inc/ssp_11xx.h **** 	SSP_RTRIS = ((uint32_t)(1 << 1)),	/**< TimeOut */
 165:../../lpc11cx4-library/lpc_chip_11cxx_lib/inc/ssp_11xx.h **** 	SSP_RXRIS = ((uint32_t)(1 << 2)),	/**< Rx FIFO is at least half full */
 166:../../lpc11cx4-library/lpc_chip_11cxx_lib/inc/ssp_11xx.h **** 	SSP_TXRIS = ((uint32_t)(1 << 3)),	/**< Tx FIFO is at least half empty */
 167:../../lpc11cx4-library/lpc_chip_11cxx_lib/inc/ssp_11xx.h **** 	SSP_RAW_INT_STAT_BITMASK = ((uint32_t)(0xF)),
 168:../../lpc11cx4-library/lpc_chip_11cxx_lib/inc/ssp_11xx.h **** } SSP_RAWINTSTATUS_T;
 169:../../lpc11cx4-library/lpc_chip_11cxx_lib/inc/ssp_11xx.h **** 
 170:../../lpc11cx4-library/lpc_chip_11cxx_lib/inc/ssp_11xx.h **** typedef enum _SSP_INTCLEAR {
 171:../../lpc11cx4-library/lpc_chip_11cxx_lib/inc/ssp_11xx.h **** 	SSP_RORIC = 0x0,
 172:../../lpc11cx4-library/lpc_chip_11cxx_lib/inc/ssp_11xx.h **** 	SSP_RTIC = 0x1,
 173:../../lpc11cx4-library/lpc_chip_11cxx_lib/inc/ssp_11xx.h **** 	SSP_INT_CLEAR_BITMASK = 0x3,
 174:../../lpc11cx4-library/lpc_chip_11cxx_lib/inc/ssp_11xx.h **** } SSP_INTCLEAR_T;
 175:../../lpc11cx4-library/lpc_chip_11cxx_lib/inc/ssp_11xx.h **** 
 176:../../lpc11cx4-library/lpc_chip_11cxx_lib/inc/ssp_11xx.h **** /*
 177:../../lpc11cx4-library/lpc_chip_11cxx_lib/inc/ssp_11xx.h ****  * @brief SSP clock format
 178:../../lpc11cx4-library/lpc_chip_11cxx_lib/inc/ssp_11xx.h ****  */
 179:../../lpc11cx4-library/lpc_chip_11cxx_lib/inc/ssp_11xx.h **** typedef enum CHIP_SSP_CLOCK_FORMAT {
 180:../../lpc11cx4-library/lpc_chip_11cxx_lib/inc/ssp_11xx.h **** 	SSP_CLOCK_CPHA0_CPOL0 = (0 << 6),		/**< CPHA = 0, CPOL = 0 */
 181:../../lpc11cx4-library/lpc_chip_11cxx_lib/inc/ssp_11xx.h **** 	SSP_CLOCK_CPHA0_CPOL1 = (1u << 6),		/**< CPHA = 0, CPOL = 1 */
 182:../../lpc11cx4-library/lpc_chip_11cxx_lib/inc/ssp_11xx.h **** 	SSP_CLOCK_CPHA1_CPOL0 = (2u << 6),		/**< CPHA = 1, CPOL = 0 */
 183:../../lpc11cx4-library/lpc_chip_11cxx_lib/inc/ssp_11xx.h **** 	SSP_CLOCK_CPHA1_CPOL1 = (3u << 6),		/**< CPHA = 1, CPOL = 1 */
ARM GAS  /tmp/ccFRKuha.s 			page 7


 184:../../lpc11cx4-library/lpc_chip_11cxx_lib/inc/ssp_11xx.h **** 	SSP_CLOCK_MODE0 = SSP_CLOCK_CPHA0_CPOL0,/**< alias */
 185:../../lpc11cx4-library/lpc_chip_11cxx_lib/inc/ssp_11xx.h **** 	SSP_CLOCK_MODE1 = SSP_CLOCK_CPHA1_CPOL0,/**< alias */
 186:../../lpc11cx4-library/lpc_chip_11cxx_lib/inc/ssp_11xx.h **** 	SSP_CLOCK_MODE2 = SSP_CLOCK_CPHA0_CPOL1,/**< alias */
 187:../../lpc11cx4-library/lpc_chip_11cxx_lib/inc/ssp_11xx.h **** 	SSP_CLOCK_MODE3 = SSP_CLOCK_CPHA1_CPOL1,/**< alias */
 188:../../lpc11cx4-library/lpc_chip_11cxx_lib/inc/ssp_11xx.h **** } CHIP_SSP_CLOCK_MODE_T;
 189:../../lpc11cx4-library/lpc_chip_11cxx_lib/inc/ssp_11xx.h **** 
 190:../../lpc11cx4-library/lpc_chip_11cxx_lib/inc/ssp_11xx.h **** /*
 191:../../lpc11cx4-library/lpc_chip_11cxx_lib/inc/ssp_11xx.h ****  * @brief SSP frame format
 192:../../lpc11cx4-library/lpc_chip_11cxx_lib/inc/ssp_11xx.h ****  */
 193:../../lpc11cx4-library/lpc_chip_11cxx_lib/inc/ssp_11xx.h **** typedef enum CHIP_SSP_FRAME_FORMAT {
 194:../../lpc11cx4-library/lpc_chip_11cxx_lib/inc/ssp_11xx.h **** 	SSP_FRAMEFORMAT_SPI = (0 << 4),			/**< Frame format: SPI */
 195:../../lpc11cx4-library/lpc_chip_11cxx_lib/inc/ssp_11xx.h **** 	CHIP_SSP_FRAME_FORMAT_TI = (1u << 4),			/**< Frame format: TI SSI */
 196:../../lpc11cx4-library/lpc_chip_11cxx_lib/inc/ssp_11xx.h **** 	SSP_FRAMEFORMAT_MICROWIRE = (2u << 4),	/**< Frame format: Microwire */
 197:../../lpc11cx4-library/lpc_chip_11cxx_lib/inc/ssp_11xx.h **** } CHIP_SSP_FRAME_FORMAT_T;
 198:../../lpc11cx4-library/lpc_chip_11cxx_lib/inc/ssp_11xx.h **** 
 199:../../lpc11cx4-library/lpc_chip_11cxx_lib/inc/ssp_11xx.h **** /*
 200:../../lpc11cx4-library/lpc_chip_11cxx_lib/inc/ssp_11xx.h ****  * @brief Number of bits per frame
 201:../../lpc11cx4-library/lpc_chip_11cxx_lib/inc/ssp_11xx.h ****  */
 202:../../lpc11cx4-library/lpc_chip_11cxx_lib/inc/ssp_11xx.h **** typedef enum CHIP_SSP_BITS {
 203:../../lpc11cx4-library/lpc_chip_11cxx_lib/inc/ssp_11xx.h **** 	SSP_BITS_4 = (3u << 0),		/*!< 4 bits/frame */
 204:../../lpc11cx4-library/lpc_chip_11cxx_lib/inc/ssp_11xx.h **** 	SSP_BITS_5 = (4u << 0),		/*!< 5 bits/frame */
 205:../../lpc11cx4-library/lpc_chip_11cxx_lib/inc/ssp_11xx.h **** 	SSP_BITS_6 = (5u << 0),		/*!< 6 bits/frame */
 206:../../lpc11cx4-library/lpc_chip_11cxx_lib/inc/ssp_11xx.h **** 	SSP_BITS_7 = (6u << 0),		/*!< 7 bits/frame */
 207:../../lpc11cx4-library/lpc_chip_11cxx_lib/inc/ssp_11xx.h **** 	SSP_BITS_8 = (7u << 0),		/*!< 8 bits/frame */
 208:../../lpc11cx4-library/lpc_chip_11cxx_lib/inc/ssp_11xx.h **** 	SSP_BITS_9 = (8u << 0),		/*!< 9 bits/frame */
 209:../../lpc11cx4-library/lpc_chip_11cxx_lib/inc/ssp_11xx.h **** 	SSP_BITS_10 = (9u << 0),	/*!< 10 bits/frame */
 210:../../lpc11cx4-library/lpc_chip_11cxx_lib/inc/ssp_11xx.h **** 	SSP_BITS_11 = (10u << 0),	/*!< 11 bits/frame */
 211:../../lpc11cx4-library/lpc_chip_11cxx_lib/inc/ssp_11xx.h **** 	SSP_BITS_12 = (11u << 0),	/*!< 12 bits/frame */
 212:../../lpc11cx4-library/lpc_chip_11cxx_lib/inc/ssp_11xx.h **** 	SSP_BITS_13 = (12u << 0),	/*!< 13 bits/frame */
 213:../../lpc11cx4-library/lpc_chip_11cxx_lib/inc/ssp_11xx.h **** 	SSP_BITS_14 = (13u << 0),	/*!< 14 bits/frame */
 214:../../lpc11cx4-library/lpc_chip_11cxx_lib/inc/ssp_11xx.h **** 	SSP_BITS_15 = (14u << 0),	/*!< 15 bits/frame */
 215:../../lpc11cx4-library/lpc_chip_11cxx_lib/inc/ssp_11xx.h **** 	SSP_BITS_16 = (15u << 0),	/*!< 16 bits/frame */
 216:../../lpc11cx4-library/lpc_chip_11cxx_lib/inc/ssp_11xx.h **** } CHIP_SSP_BITS_T;
 217:../../lpc11cx4-library/lpc_chip_11cxx_lib/inc/ssp_11xx.h **** 
 218:../../lpc11cx4-library/lpc_chip_11cxx_lib/inc/ssp_11xx.h **** /*
 219:../../lpc11cx4-library/lpc_chip_11cxx_lib/inc/ssp_11xx.h ****  * @brief SSP config format
 220:../../lpc11cx4-library/lpc_chip_11cxx_lib/inc/ssp_11xx.h ****  */
 221:../../lpc11cx4-library/lpc_chip_11cxx_lib/inc/ssp_11xx.h **** typedef struct SSP_ConfigFormat {
 222:../../lpc11cx4-library/lpc_chip_11cxx_lib/inc/ssp_11xx.h **** 	CHIP_SSP_BITS_T bits;					/*!< Format config: bits/frame */
 223:../../lpc11cx4-library/lpc_chip_11cxx_lib/inc/ssp_11xx.h **** 	CHIP_SSP_CLOCK_MODE_T clockMode;	/*!< Format config: clock phase/polarity */
 224:../../lpc11cx4-library/lpc_chip_11cxx_lib/inc/ssp_11xx.h **** 	CHIP_SSP_FRAME_FORMAT_T frameFormat;	/*!< Format config: SPI/TI/Microwire */
 225:../../lpc11cx4-library/lpc_chip_11cxx_lib/inc/ssp_11xx.h **** } SSP_ConfigFormat;
 226:../../lpc11cx4-library/lpc_chip_11cxx_lib/inc/ssp_11xx.h **** 
 227:../../lpc11cx4-library/lpc_chip_11cxx_lib/inc/ssp_11xx.h **** /**
 228:../../lpc11cx4-library/lpc_chip_11cxx_lib/inc/ssp_11xx.h ****  * @brief	Enable SSP operation
 229:../../lpc11cx4-library/lpc_chip_11cxx_lib/inc/ssp_11xx.h ****  * @param	pSSP		: The base of SSP peripheral on the chip
 230:../../lpc11cx4-library/lpc_chip_11cxx_lib/inc/ssp_11xx.h ****  * @return	 Nothing
 231:../../lpc11cx4-library/lpc_chip_11cxx_lib/inc/ssp_11xx.h ****  */
 232:../../lpc11cx4-library/lpc_chip_11cxx_lib/inc/ssp_11xx.h **** STATIC INLINE void Chip_SSP_Enable(LPC_SSP_T *pSSP)
 233:../../lpc11cx4-library/lpc_chip_11cxx_lib/inc/ssp_11xx.h **** {
 234:../../lpc11cx4-library/lpc_chip_11cxx_lib/inc/ssp_11xx.h **** 	pSSP->CR1 |= SSP_CR1_SSP_EN;
 235:../../lpc11cx4-library/lpc_chip_11cxx_lib/inc/ssp_11xx.h **** }
 236:../../lpc11cx4-library/lpc_chip_11cxx_lib/inc/ssp_11xx.h **** 
 237:../../lpc11cx4-library/lpc_chip_11cxx_lib/inc/ssp_11xx.h **** /**
 238:../../lpc11cx4-library/lpc_chip_11cxx_lib/inc/ssp_11xx.h ****  * @brief	Disable SSP operation
 239:../../lpc11cx4-library/lpc_chip_11cxx_lib/inc/ssp_11xx.h ****  * @param	pSSP		: The base of SSP peripheral on the chip
 240:../../lpc11cx4-library/lpc_chip_11cxx_lib/inc/ssp_11xx.h ****  * @return	 Nothing
ARM GAS  /tmp/ccFRKuha.s 			page 8


 241:../../lpc11cx4-library/lpc_chip_11cxx_lib/inc/ssp_11xx.h ****  */
 242:../../lpc11cx4-library/lpc_chip_11cxx_lib/inc/ssp_11xx.h **** STATIC INLINE void Chip_SSP_Disable(LPC_SSP_T *pSSP)
 243:../../lpc11cx4-library/lpc_chip_11cxx_lib/inc/ssp_11xx.h **** {
 244:../../lpc11cx4-library/lpc_chip_11cxx_lib/inc/ssp_11xx.h **** 	pSSP->CR1 &= (~SSP_CR1_SSP_EN) & SSP_CR1_BITMASK;
 245:../../lpc11cx4-library/lpc_chip_11cxx_lib/inc/ssp_11xx.h **** }
 246:../../lpc11cx4-library/lpc_chip_11cxx_lib/inc/ssp_11xx.h **** 
 247:../../lpc11cx4-library/lpc_chip_11cxx_lib/inc/ssp_11xx.h **** /**
 248:../../lpc11cx4-library/lpc_chip_11cxx_lib/inc/ssp_11xx.h ****  * @brief	Enable loopback mode
 249:../../lpc11cx4-library/lpc_chip_11cxx_lib/inc/ssp_11xx.h ****  * @param	pSSP		: The base of SSP peripheral on the chip
 250:../../lpc11cx4-library/lpc_chip_11cxx_lib/inc/ssp_11xx.h ****  * @return	 Nothing
 251:../../lpc11cx4-library/lpc_chip_11cxx_lib/inc/ssp_11xx.h ****  * @note	Serial input is taken from the serial output (MOSI or MISO) rather
 252:../../lpc11cx4-library/lpc_chip_11cxx_lib/inc/ssp_11xx.h ****  * than the serial input pin
 253:../../lpc11cx4-library/lpc_chip_11cxx_lib/inc/ssp_11xx.h ****  */
 254:../../lpc11cx4-library/lpc_chip_11cxx_lib/inc/ssp_11xx.h **** STATIC INLINE void Chip_SSP_EnableLoopBack(LPC_SSP_T *pSSP)
 255:../../lpc11cx4-library/lpc_chip_11cxx_lib/inc/ssp_11xx.h **** {
 256:../../lpc11cx4-library/lpc_chip_11cxx_lib/inc/ssp_11xx.h **** 	pSSP->CR1 |= SSP_CR1_LBM_EN;
 257:../../lpc11cx4-library/lpc_chip_11cxx_lib/inc/ssp_11xx.h **** }
 258:../../lpc11cx4-library/lpc_chip_11cxx_lib/inc/ssp_11xx.h **** 
 259:../../lpc11cx4-library/lpc_chip_11cxx_lib/inc/ssp_11xx.h **** /**
 260:../../lpc11cx4-library/lpc_chip_11cxx_lib/inc/ssp_11xx.h ****  * @brief	Disable loopback mode
 261:../../lpc11cx4-library/lpc_chip_11cxx_lib/inc/ssp_11xx.h ****  * @param	pSSP		: The base of SSP peripheral on the chip
 262:../../lpc11cx4-library/lpc_chip_11cxx_lib/inc/ssp_11xx.h ****  * @return	 Nothing
 263:../../lpc11cx4-library/lpc_chip_11cxx_lib/inc/ssp_11xx.h ****  * @note	Serial input is taken from the serial output (MOSI or MISO) rather
 264:../../lpc11cx4-library/lpc_chip_11cxx_lib/inc/ssp_11xx.h ****  * than the serial input pin
 265:../../lpc11cx4-library/lpc_chip_11cxx_lib/inc/ssp_11xx.h ****  */
 266:../../lpc11cx4-library/lpc_chip_11cxx_lib/inc/ssp_11xx.h **** STATIC INLINE void Chip_SSP_DisableLoopBack(LPC_SSP_T *pSSP)
 267:../../lpc11cx4-library/lpc_chip_11cxx_lib/inc/ssp_11xx.h **** {
 268:../../lpc11cx4-library/lpc_chip_11cxx_lib/inc/ssp_11xx.h **** 	pSSP->CR1 &= (~SSP_CR1_LBM_EN) & SSP_CR1_BITMASK;
 269:../../lpc11cx4-library/lpc_chip_11cxx_lib/inc/ssp_11xx.h **** }
 270:../../lpc11cx4-library/lpc_chip_11cxx_lib/inc/ssp_11xx.h **** 
 271:../../lpc11cx4-library/lpc_chip_11cxx_lib/inc/ssp_11xx.h **** /**
 272:../../lpc11cx4-library/lpc_chip_11cxx_lib/inc/ssp_11xx.h ****  * @brief	Get the current status of SSP controller
 273:../../lpc11cx4-library/lpc_chip_11cxx_lib/inc/ssp_11xx.h ****  * @param	pSSP	: The base of SSP peripheral on the chip
 274:../../lpc11cx4-library/lpc_chip_11cxx_lib/inc/ssp_11xx.h ****  * @param	Stat	: Type of status, should be :
 275:../../lpc11cx4-library/lpc_chip_11cxx_lib/inc/ssp_11xx.h ****  *						- SSP_STAT_TFE
 276:../../lpc11cx4-library/lpc_chip_11cxx_lib/inc/ssp_11xx.h ****  *						- SSP_STAT_TNF
 277:../../lpc11cx4-library/lpc_chip_11cxx_lib/inc/ssp_11xx.h ****  *						- SSP_STAT_RNE
 278:../../lpc11cx4-library/lpc_chip_11cxx_lib/inc/ssp_11xx.h ****  *						- SSP_STAT_RFF
 279:../../lpc11cx4-library/lpc_chip_11cxx_lib/inc/ssp_11xx.h ****  *						- SSP_STAT_BSY
 280:../../lpc11cx4-library/lpc_chip_11cxx_lib/inc/ssp_11xx.h ****  * @return	 SSP controller status, SET or RESET
 281:../../lpc11cx4-library/lpc_chip_11cxx_lib/inc/ssp_11xx.h ****  */
 282:../../lpc11cx4-library/lpc_chip_11cxx_lib/inc/ssp_11xx.h **** STATIC INLINE FlagStatus Chip_SSP_GetStatus(LPC_SSP_T *pSSP, SSP_STATUS_T Stat)
 283:../../lpc11cx4-library/lpc_chip_11cxx_lib/inc/ssp_11xx.h **** {
 284:../../lpc11cx4-library/lpc_chip_11cxx_lib/inc/ssp_11xx.h **** 	return (pSSP->SR & Stat) ? SET : RESET;
  86              		.loc 2 284 0
  87 0002 C368     		ldr	r3, [r0, #12]	@ D.6730, pSSP_4(D)->SR
  88              	.LBE141:
  89              	.LBE140:
  75:../../lpc11cx4-library/lpc_chip_11cxx_lib/src/ssp_11xx.c **** 	uint16_t rDat;
  76:../../lpc11cx4-library/lpc_chip_11cxx_lib/src/ssp_11xx.c **** 
  77:../../lpc11cx4-library/lpc_chip_11cxx_lib/src/ssp_11xx.c **** 	while ((Chip_SSP_GetStatus(pSSP, SSP_STAT_RNE) == SET) &&
  90              		.loc 1 77 0
  91 0004 5B07     		lsl	r3, r3, #29	@ tmp130, D.6730,
  92 0006 0CD5     		bpl	.L1	@,
  78:../../lpc11cx4-library/lpc_chip_11cxx_lib/src/ssp_11xx.c **** 		   (xf_setup->rx_cnt < xf_setup->length)) {
  93              		.loc 1 78 0 discriminator 1
  94 0008 CB68     		ldr	r3, [r1, #12]	@ D.6730, xf_setup_5(D)->rx_cnt
ARM GAS  /tmp/ccFRKuha.s 			page 9


  77:../../lpc11cx4-library/lpc_chip_11cxx_lib/src/ssp_11xx.c **** 		   (xf_setup->rx_cnt < xf_setup->length)) {
  95              		.loc 1 77 0 discriminator 1
  96 000a 0A69     		ldr	r2, [r1, #16]	@ tmp131, xf_setup_5(D)->length
  97 000c 9342     		cmp	r3, r2	@ D.6730, tmp131
  98 000e 08D2     		bcs	.L1	@,
  99              	.LVL2:
 100              	.LBB142:
 101              	.LBB143:
 285:../../lpc11cx4-library/lpc_chip_11cxx_lib/inc/ssp_11xx.h **** }
 286:../../lpc11cx4-library/lpc_chip_11cxx_lib/inc/ssp_11xx.h **** 
 287:../../lpc11cx4-library/lpc_chip_11cxx_lib/inc/ssp_11xx.h **** /**
 288:../../lpc11cx4-library/lpc_chip_11cxx_lib/inc/ssp_11xx.h ****  * @brief	Get the masked interrupt status
 289:../../lpc11cx4-library/lpc_chip_11cxx_lib/inc/ssp_11xx.h ****  * @param	pSSP	: The base of SSP peripheral on the chip
 290:../../lpc11cx4-library/lpc_chip_11cxx_lib/inc/ssp_11xx.h ****  * @return	 SSP Masked Interrupt Status Register value
 291:../../lpc11cx4-library/lpc_chip_11cxx_lib/inc/ssp_11xx.h ****  * @note	The return value contains a 1 for each interrupt condition that is asserted and enabled (m
 292:../../lpc11cx4-library/lpc_chip_11cxx_lib/inc/ssp_11xx.h ****  */
 293:../../lpc11cx4-library/lpc_chip_11cxx_lib/inc/ssp_11xx.h **** STATIC INLINE uint32_t Chip_SSP_GetIntStatus(LPC_SSP_T *pSSP)
 294:../../lpc11cx4-library/lpc_chip_11cxx_lib/inc/ssp_11xx.h **** {
 295:../../lpc11cx4-library/lpc_chip_11cxx_lib/inc/ssp_11xx.h **** 	return pSSP->MIS;
 296:../../lpc11cx4-library/lpc_chip_11cxx_lib/inc/ssp_11xx.h **** }
 297:../../lpc11cx4-library/lpc_chip_11cxx_lib/inc/ssp_11xx.h **** 
 298:../../lpc11cx4-library/lpc_chip_11cxx_lib/inc/ssp_11xx.h **** /**
 299:../../lpc11cx4-library/lpc_chip_11cxx_lib/inc/ssp_11xx.h ****  * @brief	Get the raw interrupt status
 300:../../lpc11cx4-library/lpc_chip_11cxx_lib/inc/ssp_11xx.h ****  * @param	pSSP	: The base of SSP peripheral on the chip
 301:../../lpc11cx4-library/lpc_chip_11cxx_lib/inc/ssp_11xx.h ****  * @param	RawInt	: Interrupt condition to be get status, shoud be :
 302:../../lpc11cx4-library/lpc_chip_11cxx_lib/inc/ssp_11xx.h ****  *						- SSP_RORRIS
 303:../../lpc11cx4-library/lpc_chip_11cxx_lib/inc/ssp_11xx.h ****  *						- SSP_RTRIS
 304:../../lpc11cx4-library/lpc_chip_11cxx_lib/inc/ssp_11xx.h ****  *						- SSP_RXRIS
 305:../../lpc11cx4-library/lpc_chip_11cxx_lib/inc/ssp_11xx.h ****  *						- SSP_TXRIS
 306:../../lpc11cx4-library/lpc_chip_11cxx_lib/inc/ssp_11xx.h ****  * @return	 Raw interrupt status corresponding to interrupt condition , SET or RESET
 307:../../lpc11cx4-library/lpc_chip_11cxx_lib/inc/ssp_11xx.h ****  * @note	Get the status of each interrupt condition ,regardless of whether or not the interrupt is 
 308:../../lpc11cx4-library/lpc_chip_11cxx_lib/inc/ssp_11xx.h ****  */
 309:../../lpc11cx4-library/lpc_chip_11cxx_lib/inc/ssp_11xx.h **** STATIC INLINE IntStatus Chip_SSP_GetRawIntStatus(LPC_SSP_T *pSSP, SSP_RAWINTSTATUS_T RawInt)
 310:../../lpc11cx4-library/lpc_chip_11cxx_lib/inc/ssp_11xx.h **** {
 311:../../lpc11cx4-library/lpc_chip_11cxx_lib/inc/ssp_11xx.h **** 	return (pSSP->RIS & RawInt) ? SET : RESET;
 312:../../lpc11cx4-library/lpc_chip_11cxx_lib/inc/ssp_11xx.h **** }
 313:../../lpc11cx4-library/lpc_chip_11cxx_lib/inc/ssp_11xx.h **** 
 314:../../lpc11cx4-library/lpc_chip_11cxx_lib/inc/ssp_11xx.h **** /**
 315:../../lpc11cx4-library/lpc_chip_11cxx_lib/inc/ssp_11xx.h ****  * @brief	Get the number of bits transferred in each frame
 316:../../lpc11cx4-library/lpc_chip_11cxx_lib/inc/ssp_11xx.h ****  * @param	pSSP	: The base of SSP peripheral on the chip
 317:../../lpc11cx4-library/lpc_chip_11cxx_lib/inc/ssp_11xx.h ****  * @return	 the number of bits transferred in each frame minus one
 318:../../lpc11cx4-library/lpc_chip_11cxx_lib/inc/ssp_11xx.h ****  * @note	The return value is 0x03 -> 0xF corresponding to 4bit -> 16bit transfer
 319:../../lpc11cx4-library/lpc_chip_11cxx_lib/inc/ssp_11xx.h ****  */
 320:../../lpc11cx4-library/lpc_chip_11cxx_lib/inc/ssp_11xx.h **** STATIC INLINE uint8_t Chip_SSP_GetDataSize(LPC_SSP_T *pSSP)
 321:../../lpc11cx4-library/lpc_chip_11cxx_lib/inc/ssp_11xx.h **** {
 322:../../lpc11cx4-library/lpc_chip_11cxx_lib/inc/ssp_11xx.h **** 	return SSP_CR0_DSS(pSSP->CR0);
 323:../../lpc11cx4-library/lpc_chip_11cxx_lib/inc/ssp_11xx.h **** }
 324:../../lpc11cx4-library/lpc_chip_11cxx_lib/inc/ssp_11xx.h **** 
 325:../../lpc11cx4-library/lpc_chip_11cxx_lib/inc/ssp_11xx.h **** /**
 326:../../lpc11cx4-library/lpc_chip_11cxx_lib/inc/ssp_11xx.h ****  * @brief	Clear the corresponding interrupt condition(s) in the SSP controller
 327:../../lpc11cx4-library/lpc_chip_11cxx_lib/inc/ssp_11xx.h ****  * @param	pSSP	: The base of SSP peripheral on the chip
 328:../../lpc11cx4-library/lpc_chip_11cxx_lib/inc/ssp_11xx.h ****  * @param	IntClear: Type of cleared interrupt, should be :
 329:../../lpc11cx4-library/lpc_chip_11cxx_lib/inc/ssp_11xx.h ****  *						- SSP_RORIC
 330:../../lpc11cx4-library/lpc_chip_11cxx_lib/inc/ssp_11xx.h ****  *						- SSP_RTIC
 331:../../lpc11cx4-library/lpc_chip_11cxx_lib/inc/ssp_11xx.h ****  * @return	 Nothing
 332:../../lpc11cx4-library/lpc_chip_11cxx_lib/inc/ssp_11xx.h ****  * @note	Software can clear one or more interrupt condition(s) in the SSP controller
 333:../../lpc11cx4-library/lpc_chip_11cxx_lib/inc/ssp_11xx.h ****  */
ARM GAS  /tmp/ccFRKuha.s 			page 10


 334:../../lpc11cx4-library/lpc_chip_11cxx_lib/inc/ssp_11xx.h **** STATIC INLINE void Chip_SSP_ClearIntPending(LPC_SSP_T *pSSP, SSP_INTCLEAR_T IntClear)
 335:../../lpc11cx4-library/lpc_chip_11cxx_lib/inc/ssp_11xx.h **** {
 336:../../lpc11cx4-library/lpc_chip_11cxx_lib/inc/ssp_11xx.h **** 	pSSP->ICR = IntClear;
 337:../../lpc11cx4-library/lpc_chip_11cxx_lib/inc/ssp_11xx.h **** }
 338:../../lpc11cx4-library/lpc_chip_11cxx_lib/inc/ssp_11xx.h **** 
 339:../../lpc11cx4-library/lpc_chip_11cxx_lib/inc/ssp_11xx.h **** /**
 340:../../lpc11cx4-library/lpc_chip_11cxx_lib/inc/ssp_11xx.h ****  * @brief	Enable interrupt for the SSP
 341:../../lpc11cx4-library/lpc_chip_11cxx_lib/inc/ssp_11xx.h ****  * @param	pSSP		: The base of SSP peripheral on the chip
 342:../../lpc11cx4-library/lpc_chip_11cxx_lib/inc/ssp_11xx.h ****  * @return	 Nothing
 343:../../lpc11cx4-library/lpc_chip_11cxx_lib/inc/ssp_11xx.h ****  */
 344:../../lpc11cx4-library/lpc_chip_11cxx_lib/inc/ssp_11xx.h **** STATIC INLINE void Chip_SSP_Int_Enable(LPC_SSP_T *pSSP)
 345:../../lpc11cx4-library/lpc_chip_11cxx_lib/inc/ssp_11xx.h **** {
 346:../../lpc11cx4-library/lpc_chip_11cxx_lib/inc/ssp_11xx.h **** 	pSSP->IMSC |= SSP_TXIM;
 347:../../lpc11cx4-library/lpc_chip_11cxx_lib/inc/ssp_11xx.h **** }
 348:../../lpc11cx4-library/lpc_chip_11cxx_lib/inc/ssp_11xx.h **** 
 349:../../lpc11cx4-library/lpc_chip_11cxx_lib/inc/ssp_11xx.h **** /**
 350:../../lpc11cx4-library/lpc_chip_11cxx_lib/inc/ssp_11xx.h ****  * @brief	Disable interrupt for the SSP
 351:../../lpc11cx4-library/lpc_chip_11cxx_lib/inc/ssp_11xx.h ****  * @param	pSSP		: The base of SSP peripheral on the chip
 352:../../lpc11cx4-library/lpc_chip_11cxx_lib/inc/ssp_11xx.h ****  * @return	 Nothing
 353:../../lpc11cx4-library/lpc_chip_11cxx_lib/inc/ssp_11xx.h ****  */
 354:../../lpc11cx4-library/lpc_chip_11cxx_lib/inc/ssp_11xx.h **** STATIC INLINE void Chip_SSP_Int_Disable(LPC_SSP_T *pSSP)
 355:../../lpc11cx4-library/lpc_chip_11cxx_lib/inc/ssp_11xx.h **** {
 356:../../lpc11cx4-library/lpc_chip_11cxx_lib/inc/ssp_11xx.h **** 	pSSP->IMSC &= (~SSP_TXIM);
 357:../../lpc11cx4-library/lpc_chip_11cxx_lib/inc/ssp_11xx.h **** }
 358:../../lpc11cx4-library/lpc_chip_11cxx_lib/inc/ssp_11xx.h **** 
 359:../../lpc11cx4-library/lpc_chip_11cxx_lib/inc/ssp_11xx.h **** /**
 360:../../lpc11cx4-library/lpc_chip_11cxx_lib/inc/ssp_11xx.h ****  * @brief	Get received SSP data
 361:../../lpc11cx4-library/lpc_chip_11cxx_lib/inc/ssp_11xx.h ****  * @param	pSSP	: The base of SSP peripheral on the chip
 362:../../lpc11cx4-library/lpc_chip_11cxx_lib/inc/ssp_11xx.h ****  * @return	 SSP 16-bit data received
 363:../../lpc11cx4-library/lpc_chip_11cxx_lib/inc/ssp_11xx.h ****  */
 364:../../lpc11cx4-library/lpc_chip_11cxx_lib/inc/ssp_11xx.h **** STATIC INLINE uint16_t Chip_SSP_ReceiveFrame(LPC_SSP_T *pSSP)
 365:../../lpc11cx4-library/lpc_chip_11cxx_lib/inc/ssp_11xx.h **** {
 366:../../lpc11cx4-library/lpc_chip_11cxx_lib/inc/ssp_11xx.h **** 	return (uint16_t) (SSP_DR_BITMASK(pSSP->DR));
 102              		.loc 2 366 0
 103 0010 8268     		ldr	r2, [r0, #8]	@ D.6730, pSSP_4(D)->DR
 104              	.LBE143:
 105              	.LBE142:
  79:../../lpc11cx4-library/lpc_chip_11cxx_lib/src/ssp_11xx.c **** 		rDat = Chip_SSP_ReceiveFrame(pSSP);
  80:../../lpc11cx4-library/lpc_chip_11cxx_lib/src/ssp_11xx.c **** 		if (xf_setup->rx_data) {
 106              		.loc 1 80 0
 107 0012 8C68     		ldr	r4, [r1, #8]	@ D.6731, xf_setup_5(D)->rx_data
 108              	.LBB145:
 109              	.LBB144:
 110              		.loc 2 366 0
 111 0014 92B2     		uxth	r2, r2	@ D.6733, D.6730
 112              	.LBE144:
 113              	.LBE145:
 114              		.loc 1 80 0
 115 0016 002C     		cmp	r4, #0	@ D.6731,
 116 0018 00D0     		beq	.L3	@,
  81:../../lpc11cx4-library/lpc_chip_11cxx_lib/src/ssp_11xx.c **** 			*(uint16_t *) ((uint32_t) xf_setup->rx_data + xf_setup->rx_cnt) = rDat;
 117              		.loc 1 81 0
 118 001a E252     		strh	r2, [r4, r3]	@ D.6733, *_12
 119              	.L3:
  82:../../lpc11cx4-library/lpc_chip_11cxx_lib/src/ssp_11xx.c **** 		}
  83:../../lpc11cx4-library/lpc_chip_11cxx_lib/src/ssp_11xx.c **** 
  84:../../lpc11cx4-library/lpc_chip_11cxx_lib/src/ssp_11xx.c **** 		xf_setup->rx_cnt += 2;
ARM GAS  /tmp/ccFRKuha.s 			page 11


 120              		.loc 1 84 0
 121 001c 0233     		add	r3, r3, #2	@ D.6730,
 122 001e CB60     		str	r3, [r1, #12]	@ D.6730, xf_setup_5(D)->rx_cnt
 123 0020 EFE7     		b	.L2	@
 124              	.LVL3:
 125              	.L1:
  85:../../lpc11cx4-library/lpc_chip_11cxx_lib/src/ssp_11xx.c **** 	}
  86:../../lpc11cx4-library/lpc_chip_11cxx_lib/src/ssp_11xx.c **** }
 126              		.loc 1 86 0
 127              		@ sp needed	@
 128 0022 10BD     		pop	{r4, pc}
 129              		.cfi_endproc
 130              	.LFE200:
 131              		.size	SSP_Read2BFifo, .-SSP_Read2BFifo
 132              		.section	.text.SSP_Read1BFifo,"ax",%progbits
 133              		.align	1
 134              		.code	16
 135              		.thumb_func
 136              		.type	SSP_Read1BFifo, %function
 137              	SSP_Read1BFifo:
 138              	.LFB201:
  87:../../lpc11cx4-library/lpc_chip_11cxx_lib/src/ssp_11xx.c **** 
  88:../../lpc11cx4-library/lpc_chip_11cxx_lib/src/ssp_11xx.c **** /** SSP macro: read 2 bytes from FIFO buffer */
  89:../../lpc11cx4-library/lpc_chip_11cxx_lib/src/ssp_11xx.c **** STATIC void SSP_Read1BFifo(LPC_SSP_T *pSSP, Chip_SSP_DATA_SETUP_T *xf_setup)
  90:../../lpc11cx4-library/lpc_chip_11cxx_lib/src/ssp_11xx.c **** {
 139              		.loc 1 90 0
 140              		.cfi_startproc
 141              	.LVL4:
 142 0000 10B5     		push	{r4, lr}	@
 143              		.cfi_def_cfa_offset 8
 144              		.cfi_offset 4, -8
 145              		.cfi_offset 14, -4
 146              	.L14:
 147              	.LVL5:
 148              	.LBB146:
 149              	.LBB147:
 284:../../lpc11cx4-library/lpc_chip_11cxx_lib/inc/ssp_11xx.h **** }
 150              		.loc 2 284 0
 151 0002 C368     		ldr	r3, [r0, #12]	@ D.6736, pSSP_4(D)->SR
 152              	.LBE147:
 153              	.LBE146:
  91:../../lpc11cx4-library/lpc_chip_11cxx_lib/src/ssp_11xx.c **** 	uint16_t rDat;
  92:../../lpc11cx4-library/lpc_chip_11cxx_lib/src/ssp_11xx.c **** 
  93:../../lpc11cx4-library/lpc_chip_11cxx_lib/src/ssp_11xx.c **** 	while ((Chip_SSP_GetStatus(pSSP, SSP_STAT_RNE) == SET) &&
 154              		.loc 1 93 0
 155 0004 5B07     		lsl	r3, r3, #29	@ tmp132, D.6736,
 156 0006 0CD5     		bpl	.L13	@,
  94:../../lpc11cx4-library/lpc_chip_11cxx_lib/src/ssp_11xx.c **** 		   (xf_setup->rx_cnt < xf_setup->length)) {
 157              		.loc 1 94 0 discriminator 1
 158 0008 CB68     		ldr	r3, [r1, #12]	@ D.6736, xf_setup_5(D)->rx_cnt
  93:../../lpc11cx4-library/lpc_chip_11cxx_lib/src/ssp_11xx.c **** 		   (xf_setup->rx_cnt < xf_setup->length)) {
 159              		.loc 1 93 0 discriminator 1
 160 000a 0A69     		ldr	r2, [r1, #16]	@ tmp134, xf_setup_5(D)->length
 161 000c 9342     		cmp	r3, r2	@ D.6736, tmp134
 162 000e 08D2     		bcs	.L13	@,
 163              	.LVL6:
  95:../../lpc11cx4-library/lpc_chip_11cxx_lib/src/ssp_11xx.c **** 		rDat = Chip_SSP_ReceiveFrame(pSSP);
ARM GAS  /tmp/ccFRKuha.s 			page 12


  96:../../lpc11cx4-library/lpc_chip_11cxx_lib/src/ssp_11xx.c **** 		if (xf_setup->rx_data) {
 164              		.loc 1 96 0
 165 0010 8A68     		ldr	r2, [r1, #8]	@ D.6737, xf_setup_5(D)->rx_data
 166              	.LBB148:
 167              	.LBB149:
 168              		.loc 2 366 0
 169 0012 8468     		ldr	r4, [r0, #8]	@ D.6736, pSSP_4(D)->DR
 170              	.LBE149:
 171              	.LBE148:
 172              		.loc 1 96 0
 173 0014 002A     		cmp	r2, #0	@ D.6737,
 174 0016 00D0     		beq	.L15	@,
  97:../../lpc11cx4-library/lpc_chip_11cxx_lib/src/ssp_11xx.c **** 			*(uint8_t *) ((uint32_t) xf_setup->rx_data + xf_setup->rx_cnt) = rDat;
 175              		.loc 1 97 0
 176 0018 D454     		strb	r4, [r2, r3]	@ D.6736, *_12
 177              	.L15:
  98:../../lpc11cx4-library/lpc_chip_11cxx_lib/src/ssp_11xx.c **** 		}
  99:../../lpc11cx4-library/lpc_chip_11cxx_lib/src/ssp_11xx.c **** 
 100:../../lpc11cx4-library/lpc_chip_11cxx_lib/src/ssp_11xx.c **** 		xf_setup->rx_cnt++;
 178              		.loc 1 100 0
 179 001a CB68     		ldr	r3, [r1, #12]	@ tmp133, xf_setup_5(D)->rx_cnt
 180 001c 0133     		add	r3, r3, #1	@ D.6736,
 181 001e CB60     		str	r3, [r1, #12]	@ D.6736, xf_setup_5(D)->rx_cnt
 182 0020 EFE7     		b	.L14	@
 183              	.LVL7:
 184              	.L13:
 101:../../lpc11cx4-library/lpc_chip_11cxx_lib/src/ssp_11xx.c **** 	}
 102:../../lpc11cx4-library/lpc_chip_11cxx_lib/src/ssp_11xx.c **** }
 185              		.loc 1 102 0
 186              		@ sp needed	@
 187 0022 10BD     		pop	{r4, pc}
 188              		.cfi_endproc
 189              	.LFE201:
 190              		.size	SSP_Read1BFifo, .-SSP_Read1BFifo
 191              		.section	.text.Chip_SSP_SetClockRate,"ax",%progbits
 192              		.align	1
 193              		.global	Chip_SSP_SetClockRate
 194              		.code	16
 195              		.thumb_func
 196              		.type	Chip_SSP_SetClockRate, %function
 197              	Chip_SSP_SetClockRate:
 198              	.LFB206:
 103:../../lpc11cx4-library/lpc_chip_11cxx_lib/src/ssp_11xx.c **** 
 104:../../lpc11cx4-library/lpc_chip_11cxx_lib/src/ssp_11xx.c **** /* Returns clock for the peripheral block */
 105:../../lpc11cx4-library/lpc_chip_11cxx_lib/src/ssp_11xx.c **** STATIC CHIP_SYSCTL_CLOCK_T Chip_SSP_GetClockIndex(LPC_SSP_T *pSSP)
 106:../../lpc11cx4-library/lpc_chip_11cxx_lib/src/ssp_11xx.c **** {
 107:../../lpc11cx4-library/lpc_chip_11cxx_lib/src/ssp_11xx.c **** 	CHIP_SYSCTL_CLOCK_T clkSSP;
 108:../../lpc11cx4-library/lpc_chip_11cxx_lib/src/ssp_11xx.c **** 
 109:../../lpc11cx4-library/lpc_chip_11cxx_lib/src/ssp_11xx.c **** 	if (pSSP == LPC_SSP0) {
 110:../../lpc11cx4-library/lpc_chip_11cxx_lib/src/ssp_11xx.c **** 		clkSSP = SYSCTL_CLOCK_SSP0;
 111:../../lpc11cx4-library/lpc_chip_11cxx_lib/src/ssp_11xx.c **** 	}
 112:../../lpc11cx4-library/lpc_chip_11cxx_lib/src/ssp_11xx.c **** #if defined(CHIP_LPC11CXX) || defined(CHIP_LPC11EXX) || defined(CHIP_LPC11AXX) || defined(CHIP_LPC1
 113:../../lpc11cx4-library/lpc_chip_11cxx_lib/src/ssp_11xx.c **** 	else {
 114:../../lpc11cx4-library/lpc_chip_11cxx_lib/src/ssp_11xx.c **** 		clkSSP = SYSCTL_CLOCK_SSP1;
 115:../../lpc11cx4-library/lpc_chip_11cxx_lib/src/ssp_11xx.c **** 	}
 116:../../lpc11cx4-library/lpc_chip_11cxx_lib/src/ssp_11xx.c **** #endif
 117:../../lpc11cx4-library/lpc_chip_11cxx_lib/src/ssp_11xx.c **** 		
ARM GAS  /tmp/ccFRKuha.s 			page 13


 118:../../lpc11cx4-library/lpc_chip_11cxx_lib/src/ssp_11xx.c **** 	return clkSSP;
 119:../../lpc11cx4-library/lpc_chip_11cxx_lib/src/ssp_11xx.c **** }
 120:../../lpc11cx4-library/lpc_chip_11cxx_lib/src/ssp_11xx.c **** 
 121:../../lpc11cx4-library/lpc_chip_11cxx_lib/src/ssp_11xx.c **** /* Returns reset ID for the peripheral block */
 122:../../lpc11cx4-library/lpc_chip_11cxx_lib/src/ssp_11xx.c **** STATIC CHIP_SYSCTL_PERIPH_RESET_T Chip_SSP_GetResetIndex(LPC_SSP_T *pSSP)
 123:../../lpc11cx4-library/lpc_chip_11cxx_lib/src/ssp_11xx.c **** {
 124:../../lpc11cx4-library/lpc_chip_11cxx_lib/src/ssp_11xx.c **** 	CHIP_SYSCTL_PERIPH_RESET_T resetSSP;
 125:../../lpc11cx4-library/lpc_chip_11cxx_lib/src/ssp_11xx.c **** 
 126:../../lpc11cx4-library/lpc_chip_11cxx_lib/src/ssp_11xx.c **** 	if (pSSP == LPC_SSP0) {
 127:../../lpc11cx4-library/lpc_chip_11cxx_lib/src/ssp_11xx.c **** 		resetSSP = RESET_SSP0;
 128:../../lpc11cx4-library/lpc_chip_11cxx_lib/src/ssp_11xx.c **** 	}
 129:../../lpc11cx4-library/lpc_chip_11cxx_lib/src/ssp_11xx.c **** 	else {
 130:../../lpc11cx4-library/lpc_chip_11cxx_lib/src/ssp_11xx.c **** 		resetSSP = RESET_SSP1;
 131:../../lpc11cx4-library/lpc_chip_11cxx_lib/src/ssp_11xx.c **** 	}
 132:../../lpc11cx4-library/lpc_chip_11cxx_lib/src/ssp_11xx.c **** 
 133:../../lpc11cx4-library/lpc_chip_11cxx_lib/src/ssp_11xx.c **** 	return resetSSP;
 134:../../lpc11cx4-library/lpc_chip_11cxx_lib/src/ssp_11xx.c **** }
 135:../../lpc11cx4-library/lpc_chip_11cxx_lib/src/ssp_11xx.c **** 
 136:../../lpc11cx4-library/lpc_chip_11cxx_lib/src/ssp_11xx.c **** /* Returns reset ID for the peripheral block */
 137:../../lpc11cx4-library/lpc_chip_11cxx_lib/src/ssp_11xx.c **** STATIC void Chip_SSP_SetSSPClkDivider(LPC_SSP_T *pSSP, uint32_t div)
 138:../../lpc11cx4-library/lpc_chip_11cxx_lib/src/ssp_11xx.c **** {
 139:../../lpc11cx4-library/lpc_chip_11cxx_lib/src/ssp_11xx.c **** 	if (pSSP == LPC_SSP0) {
 140:../../lpc11cx4-library/lpc_chip_11cxx_lib/src/ssp_11xx.c **** 		Chip_Clock_SetSSP0ClockDiv(div);
 141:../../lpc11cx4-library/lpc_chip_11cxx_lib/src/ssp_11xx.c **** 	}
 142:../../lpc11cx4-library/lpc_chip_11cxx_lib/src/ssp_11xx.c **** #if defined(CHIP_LPC11CXX) || defined(CHIP_LPC11EXX) || defined(CHIP_LPC11AXX) || defined(CHIP_LPC1
 143:../../lpc11cx4-library/lpc_chip_11cxx_lib/src/ssp_11xx.c **** 	else {
 144:../../lpc11cx4-library/lpc_chip_11cxx_lib/src/ssp_11xx.c **** 		Chip_Clock_SetSSP1ClockDiv(div);
 145:../../lpc11cx4-library/lpc_chip_11cxx_lib/src/ssp_11xx.c **** 	}
 146:../../lpc11cx4-library/lpc_chip_11cxx_lib/src/ssp_11xx.c **** #endif
 147:../../lpc11cx4-library/lpc_chip_11cxx_lib/src/ssp_11xx.c **** }
 148:../../lpc11cx4-library/lpc_chip_11cxx_lib/src/ssp_11xx.c **** 
 149:../../lpc11cx4-library/lpc_chip_11cxx_lib/src/ssp_11xx.c **** /* Returns SSP peripheral clock for the peripheral block */
 150:../../lpc11cx4-library/lpc_chip_11cxx_lib/src/ssp_11xx.c **** STATIC uint32_t Chip_SSP_GetPCLKkRate(LPC_SSP_T *pSSP)
 151:../../lpc11cx4-library/lpc_chip_11cxx_lib/src/ssp_11xx.c **** {
 152:../../lpc11cx4-library/lpc_chip_11cxx_lib/src/ssp_11xx.c **** 	uint32_t sspCLK = Chip_Clock_GetMainClockRate();
 153:../../lpc11cx4-library/lpc_chip_11cxx_lib/src/ssp_11xx.c **** 
 154:../../lpc11cx4-library/lpc_chip_11cxx_lib/src/ssp_11xx.c **** 	if (pSSP == LPC_SSP0) {
 155:../../lpc11cx4-library/lpc_chip_11cxx_lib/src/ssp_11xx.c **** 		sspCLK /= Chip_Clock_GetSSP0ClockDiv();
 156:../../lpc11cx4-library/lpc_chip_11cxx_lib/src/ssp_11xx.c **** 	}
 157:../../lpc11cx4-library/lpc_chip_11cxx_lib/src/ssp_11xx.c **** #if defined(CHIP_LPC11CXX) || defined(CHIP_LPC11EXX) || defined(CHIP_LPC11AXX) || defined(CHIP_LPC1
 158:../../lpc11cx4-library/lpc_chip_11cxx_lib/src/ssp_11xx.c **** 	else {
 159:../../lpc11cx4-library/lpc_chip_11cxx_lib/src/ssp_11xx.c **** 		sspCLK /= Chip_Clock_GetSSP1ClockDiv();
 160:../../lpc11cx4-library/lpc_chip_11cxx_lib/src/ssp_11xx.c **** 	}
 161:../../lpc11cx4-library/lpc_chip_11cxx_lib/src/ssp_11xx.c **** #endif
 162:../../lpc11cx4-library/lpc_chip_11cxx_lib/src/ssp_11xx.c **** 	
 163:../../lpc11cx4-library/lpc_chip_11cxx_lib/src/ssp_11xx.c ****     return sspCLK;
 164:../../lpc11cx4-library/lpc_chip_11cxx_lib/src/ssp_11xx.c **** }
 165:../../lpc11cx4-library/lpc_chip_11cxx_lib/src/ssp_11xx.c **** 
 166:../../lpc11cx4-library/lpc_chip_11cxx_lib/src/ssp_11xx.c **** /*****************************************************************************
 167:../../lpc11cx4-library/lpc_chip_11cxx_lib/src/ssp_11xx.c ****  * Public functions
 168:../../lpc11cx4-library/lpc_chip_11cxx_lib/src/ssp_11xx.c ****  ****************************************************************************/
 169:../../lpc11cx4-library/lpc_chip_11cxx_lib/src/ssp_11xx.c **** 
 170:../../lpc11cx4-library/lpc_chip_11cxx_lib/src/ssp_11xx.c **** /*Set up output clocks per bit for SSP bus*/
 171:../../lpc11cx4-library/lpc_chip_11cxx_lib/src/ssp_11xx.c **** void Chip_SSP_SetClockRate(LPC_SSP_T *pSSP, uint32_t clk_rate, uint32_t prescale)
 172:../../lpc11cx4-library/lpc_chip_11cxx_lib/src/ssp_11xx.c **** {
 199              		.loc 1 172 0
 200              		.cfi_startproc
ARM GAS  /tmp/ccFRKuha.s 			page 14


 201              	.LVL8:
 202 0000 10B5     		push	{r4, lr}	@
 203              		.cfi_def_cfa_offset 8
 204              		.cfi_offset 4, -8
 205              		.cfi_offset 14, -4
 173:../../lpc11cx4-library/lpc_chip_11cxx_lib/src/ssp_11xx.c **** 	uint32_t temp;
 174:../../lpc11cx4-library/lpc_chip_11cxx_lib/src/ssp_11xx.c **** 	temp = pSSP->CR0 & (~(SSP_CR0_SCR(0xFF)));
 206              		.loc 1 174 0
 207 0002 044B     		ldr	r3, .L25	@ tmp122,
 208 0004 0468     		ldr	r4, [r0]	@ D.6742, pSSP_2(D)->CR0
 209              	.LVL9:
 175:../../lpc11cx4-library/lpc_chip_11cxx_lib/src/ssp_11xx.c **** 	pSSP->CR0 = temp | (SSP_CR0_SCR(clk_rate));
 210              		.loc 1 175 0
 211 0006 0906     		lsl	r1, r1, #24	@ tmp120, clk_rate,
 212              	.LVL10:
 174:../../lpc11cx4-library/lpc_chip_11cxx_lib/src/ssp_11xx.c **** 	pSSP->CR0 = temp | (SSP_CR0_SCR(clk_rate));
 213              		.loc 1 174 0
 214 0008 2340     		and	r3, r4	@ temp, D.6742
 215              	.LVL11:
 216              		.loc 1 175 0
 217 000a 090C     		lsr	r1, r1, #16	@ D.6742, tmp120,
 218 000c 1943     		orr	r1, r3	@ D.6742, temp
 219 000e 0160     		str	r1, [r0]	@ D.6742, pSSP_2(D)->CR0
 176:../../lpc11cx4-library/lpc_chip_11cxx_lib/src/ssp_11xx.c **** 	pSSP->CPSR = prescale;
 177:../../lpc11cx4-library/lpc_chip_11cxx_lib/src/ssp_11xx.c **** }
 220              		.loc 1 177 0
 221              		@ sp needed	@
 176:../../lpc11cx4-library/lpc_chip_11cxx_lib/src/ssp_11xx.c **** 	pSSP->CPSR = prescale;
 222              		.loc 1 176 0
 223 0010 0261     		str	r2, [r0, #16]	@ prescale, pSSP_2(D)->CPSR
 224              		.loc 1 177 0
 225 0012 10BD     		pop	{r4, pc}
 226              	.L26:
 227              		.align	2
 228              	.L25:
 229 0014 FF00FFFF 		.word	-65281
 230              		.cfi_endproc
 231              	.LFE206:
 232              		.size	Chip_SSP_SetClockRate, .-Chip_SSP_SetClockRate
 233              		.section	.text.Chip_SSP_RWFrames_Blocking,"ax",%progbits
 234              		.align	1
 235              		.global	Chip_SSP_RWFrames_Blocking
 236              		.code	16
 237              		.thumb_func
 238              		.type	Chip_SSP_RWFrames_Blocking, %function
 239              	Chip_SSP_RWFrames_Blocking:
 240              	.LFB207:
 178:../../lpc11cx4-library/lpc_chip_11cxx_lib/src/ssp_11xx.c **** 
 179:../../lpc11cx4-library/lpc_chip_11cxx_lib/src/ssp_11xx.c **** /* SSP Polling Read/Write in blocking mode */
 180:../../lpc11cx4-library/lpc_chip_11cxx_lib/src/ssp_11xx.c **** uint32_t Chip_SSP_RWFrames_Blocking(LPC_SSP_T *pSSP, Chip_SSP_DATA_SETUP_T *xf_setup)
 181:../../lpc11cx4-library/lpc_chip_11cxx_lib/src/ssp_11xx.c **** {
 241              		.loc 1 181 0
 242              		.cfi_startproc
 243              	.LVL12:
 244 0000 70B5     		push	{r4, r5, r6, lr}	@
 245              		.cfi_def_cfa_offset 16
 246              		.cfi_offset 4, -16
ARM GAS  /tmp/ccFRKuha.s 			page 15


 247              		.cfi_offset 5, -12
 248              		.cfi_offset 6, -8
 249              		.cfi_offset 14, -4
 250 0002 051C     		mov	r5, r0	@ pSSP, pSSP
 251 0004 0C1C     		mov	r4, r1	@ xf_setup, xf_setup
 252              	.L28:
 253              	.LVL13:
 254              	.LBB178:
 255              	.LBB179:
 284:../../lpc11cx4-library/lpc_chip_11cxx_lib/inc/ssp_11xx.h **** }
 256              		.loc 2 284 0
 257 0006 0423     		mov	r3, #4	@ tmp153,
 258 0008 EE68     		ldr	r6, [r5, #12]	@ D.6758, pSSP_10(D)->SR
 259 000a 1E40     		and	r6, r3	@ D.6757, tmp153
 260              	.LBE179:
 261              	.LBE178:
 182:../../lpc11cx4-library/lpc_chip_11cxx_lib/src/ssp_11xx.c **** 	/* Clear all remaining frames in RX FIFO */
 183:../../lpc11cx4-library/lpc_chip_11cxx_lib/src/ssp_11xx.c **** 	while (Chip_SSP_GetStatus(pSSP, SSP_STAT_RNE)) {
 262              		.loc 1 183 0
 263 000c 01D0     		beq	.L61	@,
 264              	.LVL14:
 265              	.LBB180:
 266              	.LBB181:
 267              		.loc 2 366 0
 268 000e AB68     		ldr	r3, [r5, #8]	@ D.6758, pSSP_10(D)->DR
 269 0010 F9E7     		b	.L28	@
 270              	.LVL15:
 271              	.L61:
 272              	.LBE181:
 273              	.LBE180:
 274              	.LBB182:
 275              	.LBB183:
 336:../../lpc11cx4-library/lpc_chip_11cxx_lib/inc/ssp_11xx.h **** }
 276              		.loc 2 336 0
 277 0012 013B     		sub	r3, r3, #1	@ tmp154,
 278 0014 2B62     		str	r3, [r5, #32]	@ tmp154, pSSP_10(D)->ICR
 279              	.LVL16:
 280              	.LBE183:
 281              	.LBE182:
 282              	.LBB184:
 283              	.LBB185:
 322:../../lpc11cx4-library/lpc_chip_11cxx_lib/inc/ssp_11xx.h **** }
 284              		.loc 2 322 0
 285 0016 2A68     		ldr	r2, [r5]	@ D.6758, pSSP_10(D)->CR0
 286              	.LBE185:
 287              	.LBE184:
 184:../../lpc11cx4-library/lpc_chip_11cxx_lib/src/ssp_11xx.c **** 		Chip_SSP_ReceiveFrame(pSSP);
 185:../../lpc11cx4-library/lpc_chip_11cxx_lib/src/ssp_11xx.c **** 	}
 186:../../lpc11cx4-library/lpc_chip_11cxx_lib/src/ssp_11xx.c **** 
 187:../../lpc11cx4-library/lpc_chip_11cxx_lib/src/ssp_11xx.c **** 	/* Clear status */
 188:../../lpc11cx4-library/lpc_chip_11cxx_lib/src/ssp_11xx.c **** 	Chip_SSP_ClearIntPending(pSSP, SSP_INT_CLEAR_BITMASK);
 189:../../lpc11cx4-library/lpc_chip_11cxx_lib/src/ssp_11xx.c **** 
 190:../../lpc11cx4-library/lpc_chip_11cxx_lib/src/ssp_11xx.c **** 	if (Chip_SSP_GetDataSize(pSSP) > SSP_BITS_8) {
 288              		.loc 1 190 0
 289 0018 0C33     		add	r3, r3, #12	@ tmp157,
 290 001a 1340     		and	r3, r2	@ tmp158, D.6758
 291 001c 072B     		cmp	r3, #7	@ tmp158,
ARM GAS  /tmp/ccFRKuha.s 			page 16


 292 001e 2FD9     		bls	.L31	@,
 293              	.LVL17:
 294              	.L30:
 191:../../lpc11cx4-library/lpc_chip_11cxx_lib/src/ssp_11xx.c **** 		while (xf_setup->rx_cnt < xf_setup->length || xf_setup->tx_cnt < xf_setup->length) {
 295              		.loc 1 191 0
 296 0020 2269     		ldr	r2, [r4, #16]	@ D.6758, xf_setup_14(D)->length
 297 0022 E368     		ldr	r3, [r4, #12]	@ tmp186, xf_setup_14(D)->rx_cnt
 298 0024 9342     		cmp	r3, r2	@ tmp186, D.6758
 299 0026 16D2     		bcs	.L62	@,
 300              	.L37:
 301              	.LVL18:
 302              	.LBB186:
 303              	.LBB187:
 284:../../lpc11cx4-library/lpc_chip_11cxx_lib/inc/ssp_11xx.h **** }
 304              		.loc 2 284 0
 305 0028 EB68     		ldr	r3, [r5, #12]	@ D.6758, pSSP_10(D)->SR
 306              	.LBE187:
 307              	.LBE186:
 192:../../lpc11cx4-library/lpc_chip_11cxx_lib/src/ssp_11xx.c **** 			/* write data to buffer */
 193:../../lpc11cx4-library/lpc_chip_11cxx_lib/src/ssp_11xx.c **** 			if (( Chip_SSP_GetStatus(pSSP, SSP_STAT_TNF) == SET) && ( xf_setup->tx_cnt < xf_setup->length) )
 308              		.loc 1 193 0
 309 002a 9B07     		lsl	r3, r3, #30	@ tmp182, D.6758,
 310 002c 0BD5     		bpl	.L32	@,
 311              		.loc 1 193 0 is_stmt 0 discriminator 1
 312 002e 6368     		ldr	r3, [r4, #4]	@ D.6758, xf_setup_14(D)->tx_cnt
 313 0030 9342     		cmp	r3, r2	@ D.6758, D.6758
 314 0032 08D2     		bcs	.L32	@,
 315              	.LVL19:
 316              	.LBB188:
 317              	.LBB189:
  48:../../lpc11cx4-library/lpc_chip_11cxx_lib/src/ssp_11xx.c **** 		Chip_SSP_SendFrame(pSSP, (*(uint16_t *) ((uint32_t) xf_setup->tx_data +
 318              		.loc 1 48 0 is_stmt 1
 319 0034 2268     		ldr	r2, [r4]	@ D.6759, xf_setup_14(D)->tx_data
 320 0036 002A     		cmp	r2, #0	@ D.6759,
 321 0038 01D0     		beq	.L33	@,
 322              	.LVL20:
 323              	.LBB190:
 324              	.LBB191:
 367:../../lpc11cx4-library/lpc_chip_11cxx_lib/inc/ssp_11xx.h **** }
 368:../../lpc11cx4-library/lpc_chip_11cxx_lib/inc/ssp_11xx.h **** 
 369:../../lpc11cx4-library/lpc_chip_11cxx_lib/inc/ssp_11xx.h **** /**
 370:../../lpc11cx4-library/lpc_chip_11cxx_lib/inc/ssp_11xx.h ****  * @brief	Send SSP 16-bit data
 371:../../lpc11cx4-library/lpc_chip_11cxx_lib/inc/ssp_11xx.h ****  * @param	pSSP	: The base of SSP peripheral on the chip
 372:../../lpc11cx4-library/lpc_chip_11cxx_lib/inc/ssp_11xx.h ****  * @param	tx_data	: SSP 16-bit data to be transmited
 373:../../lpc11cx4-library/lpc_chip_11cxx_lib/inc/ssp_11xx.h ****  * @return	 Nothing
 374:../../lpc11cx4-library/lpc_chip_11cxx_lib/inc/ssp_11xx.h ****  */
 375:../../lpc11cx4-library/lpc_chip_11cxx_lib/inc/ssp_11xx.h **** STATIC INLINE void Chip_SSP_SendFrame(LPC_SSP_T *pSSP, uint16_t tx_data)
 376:../../lpc11cx4-library/lpc_chip_11cxx_lib/inc/ssp_11xx.h **** {
 377:../../lpc11cx4-library/lpc_chip_11cxx_lib/inc/ssp_11xx.h **** 	pSSP->DR = SSP_DR_BITMASK(tx_data);
 325              		.loc 2 377 0
 326 003a D25A     		ldrh	r2, [r2, r3]	@ D.6758, *_59
 327              	.LVL21:
 328 003c 00E0     		b	.L59	@
 329              	.LVL22:
 330              	.L33:
 331              	.LBE191:
 332              	.LBE190:
ARM GAS  /tmp/ccFRKuha.s 			page 17


 333              	.LBB192:
 334              	.LBB193:
 335 003e 1C4A     		ldr	r2, .L66	@ tmp161,
 336              	.LVL23:
 337              	.L59:
 338              	.LBE193:
 339              	.LBE192:
  56:../../lpc11cx4-library/lpc_chip_11cxx_lib/src/ssp_11xx.c **** }
 340              		.loc 1 56 0
 341 0040 0233     		add	r3, r3, #2	@ D.6758,
 342              	.LBB195:
 343              	.LBB194:
 344              		.loc 2 377 0
 345 0042 AA60     		str	r2, [r5, #8]	@ tmp161,
 346              	.LBE194:
 347              	.LBE195:
  56:../../lpc11cx4-library/lpc_chip_11cxx_lib/src/ssp_11xx.c **** }
 348              		.loc 1 56 0
 349 0044 6360     		str	r3, [r4, #4]	@ D.6758, xf_setup_14(D)->tx_cnt
 350              	.LVL24:
 351              	.L32:
 352              	.LBE189:
 353              	.LBE188:
 354              	.LBB196:
 355              	.LBB197:
 311:../../lpc11cx4-library/lpc_chip_11cxx_lib/inc/ssp_11xx.h **** }
 356              		.loc 2 311 0
 357 0046 AB69     		ldr	r3, [r5, #24]	@ D.6758, pSSP_10(D)->RIS
 358              	.LBE197:
 359              	.LBE196:
 194:../../lpc11cx4-library/lpc_chip_11cxx_lib/src/ssp_11xx.c **** 				SSP_Write2BFifo(pSSP, xf_setup);
 195:../../lpc11cx4-library/lpc_chip_11cxx_lib/src/ssp_11xx.c **** 			}
 196:../../lpc11cx4-library/lpc_chip_11cxx_lib/src/ssp_11xx.c **** 
 197:../../lpc11cx4-library/lpc_chip_11cxx_lib/src/ssp_11xx.c **** 			/* Check overrun error */
 198:../../lpc11cx4-library/lpc_chip_11cxx_lib/src/ssp_11xx.c **** 			if (Chip_SSP_GetRawIntStatus(pSSP, SSP_RORRIS) == SET) {
 360              		.loc 1 198 0
 361 0048 DB07     		lsl	r3, r3, #31	@ tmp183, D.6758,
 362 004a 2FD4     		bmi	.L36	@,
 199:../../lpc11cx4-library/lpc_chip_11cxx_lib/src/ssp_11xx.c **** 				return ERROR;
 200:../../lpc11cx4-library/lpc_chip_11cxx_lib/src/ssp_11xx.c **** 			}
 201:../../lpc11cx4-library/lpc_chip_11cxx_lib/src/ssp_11xx.c **** 
 202:../../lpc11cx4-library/lpc_chip_11cxx_lib/src/ssp_11xx.c **** 			/* Check for any data available in RX FIFO */
 203:../../lpc11cx4-library/lpc_chip_11cxx_lib/src/ssp_11xx.c **** 			SSP_Read2BFifo(pSSP, xf_setup);
 363              		.loc 1 203 0
 364 004c 281C     		mov	r0, r5	@, pSSP
 365 004e 211C     		mov	r1, r4	@, xf_setup
 366 0050 FFF7FEFF 		bl	SSP_Read2BFifo	@
 367              	.LVL25:
 368 0054 E4E7     		b	.L30	@
 369              	.LVL26:
 370              	.L62:
 191:../../lpc11cx4-library/lpc_chip_11cxx_lib/src/ssp_11xx.c **** 			/* write data to buffer */
 371              		.loc 1 191 0 discriminator 1
 372 0056 6368     		ldr	r3, [r4, #4]	@ tmp188, xf_setup_14(D)->tx_cnt
 373 0058 9342     		cmp	r3, r2	@ tmp188, D.6758
 374 005a E5D3     		bcc	.L37	@,
 375              	.L45:
ARM GAS  /tmp/ccFRKuha.s 			page 18


 204:../../lpc11cx4-library/lpc_chip_11cxx_lib/src/ssp_11xx.c **** 		}
 205:../../lpc11cx4-library/lpc_chip_11cxx_lib/src/ssp_11xx.c **** 	}
 206:../../lpc11cx4-library/lpc_chip_11cxx_lib/src/ssp_11xx.c **** 	else {
 207:../../lpc11cx4-library/lpc_chip_11cxx_lib/src/ssp_11xx.c **** 		while (xf_setup->rx_cnt < xf_setup->length || xf_setup->tx_cnt < xf_setup->length) {
 208:../../lpc11cx4-library/lpc_chip_11cxx_lib/src/ssp_11xx.c **** 			/* write data to buffer */
 209:../../lpc11cx4-library/lpc_chip_11cxx_lib/src/ssp_11xx.c **** 			if (( Chip_SSP_GetStatus(pSSP, SSP_STAT_TNF) == SET) && ( xf_setup->tx_cnt < xf_setup->length) )
 210:../../lpc11cx4-library/lpc_chip_11cxx_lib/src/ssp_11xx.c **** 				SSP_Write1BFifo(pSSP, xf_setup);
 211:../../lpc11cx4-library/lpc_chip_11cxx_lib/src/ssp_11xx.c **** 			}
 212:../../lpc11cx4-library/lpc_chip_11cxx_lib/src/ssp_11xx.c **** 
 213:../../lpc11cx4-library/lpc_chip_11cxx_lib/src/ssp_11xx.c **** 			/* Check overrun error */
 214:../../lpc11cx4-library/lpc_chip_11cxx_lib/src/ssp_11xx.c **** 			if (Chip_SSP_GetRawIntStatus(pSSP, SSP_RORRIS) == SET) {
 215:../../lpc11cx4-library/lpc_chip_11cxx_lib/src/ssp_11xx.c **** 				return ERROR;
 216:../../lpc11cx4-library/lpc_chip_11cxx_lib/src/ssp_11xx.c **** 			}
 217:../../lpc11cx4-library/lpc_chip_11cxx_lib/src/ssp_11xx.c **** 
 218:../../lpc11cx4-library/lpc_chip_11cxx_lib/src/ssp_11xx.c **** 			/* Check for any data available in RX FIFO */
 219:../../lpc11cx4-library/lpc_chip_11cxx_lib/src/ssp_11xx.c **** 			SSP_Read1BFifo(pSSP, xf_setup);
 220:../../lpc11cx4-library/lpc_chip_11cxx_lib/src/ssp_11xx.c **** 		}
 221:../../lpc11cx4-library/lpc_chip_11cxx_lib/src/ssp_11xx.c **** 	}
 222:../../lpc11cx4-library/lpc_chip_11cxx_lib/src/ssp_11xx.c **** 	if (xf_setup->tx_data) {
 376              		.loc 1 222 0
 377 005c 2368     		ldr	r3, [r4]	@ tmp190, xf_setup_14(D)->tx_data
 378 005e 002B     		cmp	r3, #0	@ tmp190,
 379 0060 20D0     		beq	.L63	@,
 223:../../lpc11cx4-library/lpc_chip_11cxx_lib/src/ssp_11xx.c **** 		return xf_setup->tx_cnt;
 380              		.loc 1 223 0
 381 0062 6668     		ldr	r6, [r4, #4]	@ D.6757, xf_setup_14(D)->tx_cnt
 382 0064 22E0     		b	.L36	@
 383              	.L65:
 207:../../lpc11cx4-library/lpc_chip_11cxx_lib/src/ssp_11xx.c **** 			/* write data to buffer */
 384              		.loc 1 207 0 discriminator 1
 385 0066 6368     		ldr	r3, [r4, #4]	@ tmp193, xf_setup_14(D)->tx_cnt
 386 0068 9342     		cmp	r3, r2	@ tmp193, D.6758
 387 006a F7D2     		bcs	.L45	@,
 388              	.L44:
 389              	.LVL27:
 390              	.LBB198:
 391              	.LBB199:
 284:../../lpc11cx4-library/lpc_chip_11cxx_lib/inc/ssp_11xx.h **** }
 392              		.loc 2 284 0
 393 006c EB68     		ldr	r3, [r5, #12]	@ D.6758, pSSP_10(D)->SR
 394              	.LBE199:
 395              	.LBE198:
 209:../../lpc11cx4-library/lpc_chip_11cxx_lib/src/ssp_11xx.c **** 				SSP_Write1BFifo(pSSP, xf_setup);
 396              		.loc 1 209 0
 397 006e 9B07     		lsl	r3, r3, #30	@ tmp184, D.6758,
 398 0070 0BD4     		bmi	.L64	@,
 399              	.L40:
 400              	.LVL28:
 401              	.LBB200:
 402              	.LBB201:
 311:../../lpc11cx4-library/lpc_chip_11cxx_lib/inc/ssp_11xx.h **** }
 403              		.loc 2 311 0
 404 0072 AB69     		ldr	r3, [r5, #24]	@ D.6758, pSSP_10(D)->RIS
 405              	.LBE201:
 406              	.LBE200:
 214:../../lpc11cx4-library/lpc_chip_11cxx_lib/src/ssp_11xx.c **** 				return ERROR;
 407              		.loc 1 214 0
ARM GAS  /tmp/ccFRKuha.s 			page 19


 408 0074 DB07     		lsl	r3, r3, #31	@ tmp185, D.6758,
 409 0076 19D4     		bmi	.L36	@,
 219:../../lpc11cx4-library/lpc_chip_11cxx_lib/src/ssp_11xx.c **** 		}
 410              		.loc 1 219 0
 411 0078 281C     		mov	r0, r5	@, pSSP
 412 007a 211C     		mov	r1, r4	@, xf_setup
 413 007c FFF7FEFF 		bl	SSP_Read1BFifo	@
 414              	.LVL29:
 415              	.L31:
 207:../../lpc11cx4-library/lpc_chip_11cxx_lib/src/ssp_11xx.c **** 			/* write data to buffer */
 416              		.loc 1 207 0
 417 0080 2269     		ldr	r2, [r4, #16]	@ D.6758, xf_setup_14(D)->length
 418 0082 E368     		ldr	r3, [r4, #12]	@ tmp191, xf_setup_14(D)->rx_cnt
 419 0084 9342     		cmp	r3, r2	@ tmp191, D.6758
 420 0086 F1D3     		bcc	.L44	@,
 421 0088 EDE7     		b	.L65	@
 422              	.LVL30:
 423              	.L64:
 209:../../lpc11cx4-library/lpc_chip_11cxx_lib/src/ssp_11xx.c **** 				SSP_Write1BFifo(pSSP, xf_setup);
 424              		.loc 1 209 0 discriminator 1
 425 008a 6368     		ldr	r3, [r4, #4]	@ D.6758, xf_setup_14(D)->tx_cnt
 426 008c 9342     		cmp	r3, r2	@ D.6758, D.6758
 427 008e F0D2     		bcs	.L40	@,
 428              	.LVL31:
 429              	.LBB202:
 430              	.LBB203:
  62:../../lpc11cx4-library/lpc_chip_11cxx_lib/src/ssp_11xx.c **** 		Chip_SSP_SendFrame(pSSP, (*(uint8_t *) ((uint32_t) xf_setup->tx_data + xf_setup->tx_cnt)));
 431              		.loc 1 62 0
 432 0090 2268     		ldr	r2, [r4]	@ D.6759, xf_setup_14(D)->tx_data
 433 0092 002A     		cmp	r2, #0	@ D.6759,
 434 0094 01D0     		beq	.L41	@,
 435              	.LVL32:
 436              	.LBB204:
 437              	.LBB205:
 438              		.loc 2 377 0
 439 0096 D25C     		ldrb	r2, [r2, r3]	@ D.6758, *_67
 440              	.LVL33:
 441 0098 00E0     		b	.L60	@
 442              	.LVL34:
 443              	.L41:
 444              	.LBE205:
 445              	.LBE204:
 446              	.LBB206:
 447              	.LBB207:
 448 009a FF22     		mov	r2, #255	@ tmp171,
 449              	.LVL35:
 450              	.L60:
 451              	.LBE207:
 452              	.LBE206:
  69:../../lpc11cx4-library/lpc_chip_11cxx_lib/src/ssp_11xx.c **** }
 453              		.loc 1 69 0
 454 009c 0133     		add	r3, r3, #1	@ D.6758,
 455              	.LBB209:
 456              	.LBB208:
 457              		.loc 2 377 0
 458 009e AA60     		str	r2, [r5, #8]	@ tmp171,
 459              	.LBE208:
ARM GAS  /tmp/ccFRKuha.s 			page 20


 460              	.LBE209:
  69:../../lpc11cx4-library/lpc_chip_11cxx_lib/src/ssp_11xx.c **** }
 461              		.loc 1 69 0
 462 00a0 6360     		str	r3, [r4, #4]	@ D.6758, xf_setup_14(D)->tx_cnt
 463 00a2 E6E7     		b	.L40	@
 464              	.LVL36:
 465              	.L63:
 466              	.LBE203:
 467              	.LBE202:
 224:../../lpc11cx4-library/lpc_chip_11cxx_lib/src/ssp_11xx.c **** 	}
 225:../../lpc11cx4-library/lpc_chip_11cxx_lib/src/ssp_11xx.c **** 	else if (xf_setup->rx_data) {
 468              		.loc 1 225 0
 469 00a4 A368     		ldr	r3, [r4, #8]	@ tmp195, xf_setup_14(D)->rx_data
 470 00a6 002B     		cmp	r3, #0	@ tmp195,
 471 00a8 00D0     		beq	.L36	@,
 226:../../lpc11cx4-library/lpc_chip_11cxx_lib/src/ssp_11xx.c **** 		return xf_setup->rx_cnt;
 472              		.loc 1 226 0
 473 00aa E668     		ldr	r6, [r4, #12]	@ D.6757, xf_setup_14(D)->rx_cnt
 474              	.L36:
 227:../../lpc11cx4-library/lpc_chip_11cxx_lib/src/ssp_11xx.c **** 	}
 228:../../lpc11cx4-library/lpc_chip_11cxx_lib/src/ssp_11xx.c **** 
 229:../../lpc11cx4-library/lpc_chip_11cxx_lib/src/ssp_11xx.c **** 	return 0;
 230:../../lpc11cx4-library/lpc_chip_11cxx_lib/src/ssp_11xx.c **** }
 475              		.loc 1 230 0
 476 00ac 301C     		mov	r0, r6	@, D.6757
 477              		@ sp needed	@
 478              	.LVL37:
 479              	.LVL38:
 480 00ae 70BD     		pop	{r4, r5, r6, pc}
 481              	.L67:
 482              		.align	2
 483              	.L66:
 484 00b0 FFFF0000 		.word	65535
 485              		.cfi_endproc
 486              	.LFE207:
 487              		.size	Chip_SSP_RWFrames_Blocking, .-Chip_SSP_RWFrames_Blocking
 488              		.section	.text.Chip_SSP_WriteFrames_Blocking,"ax",%progbits
 489              		.align	1
 490              		.global	Chip_SSP_WriteFrames_Blocking
 491              		.code	16
 492              		.thumb_func
 493              		.type	Chip_SSP_WriteFrames_Blocking, %function
 494              	Chip_SSP_WriteFrames_Blocking:
 495              	.LFB208:
 231:../../lpc11cx4-library/lpc_chip_11cxx_lib/src/ssp_11xx.c **** 
 232:../../lpc11cx4-library/lpc_chip_11cxx_lib/src/ssp_11xx.c **** /* SSP Polling Write in blocking mode */
 233:../../lpc11cx4-library/lpc_chip_11cxx_lib/src/ssp_11xx.c **** uint32_t Chip_SSP_WriteFrames_Blocking(LPC_SSP_T *pSSP, uint8_t *buffer, uint32_t buffer_len)
 234:../../lpc11cx4-library/lpc_chip_11cxx_lib/src/ssp_11xx.c **** {
 496              		.loc 1 234 0
 497              		.cfi_startproc
 498              	.LVL39:
 499 0000 031C     		mov	r3, r0	@ pSSP, pSSP
 500              	.LVL40:
 501 0002 70B5     		push	{r4, r5, r6, lr}	@
 502              		.cfi_def_cfa_offset 16
 503              		.cfi_offset 4, -16
 504              		.cfi_offset 5, -12
ARM GAS  /tmp/ccFRKuha.s 			page 21


 505              		.cfi_offset 6, -8
 506              		.cfi_offset 14, -4
 507              	.LVL41:
 508              	.L69:
 509              	.LBB210:
 510              	.LBB211:
 284:../../lpc11cx4-library/lpc_chip_11cxx_lib/inc/ssp_11xx.h **** }
 511              		.loc 2 284 0
 512 0004 0420     		mov	r0, #4	@ tmp142,
 513 0006 DC68     		ldr	r4, [r3, #12]	@ D.6776, pSSP_25(D)->SR
 514 0008 2040     		and	r0, r4	@ D.6775, D.6776
 515              	.LBE211:
 516              	.LBE210:
 235:../../lpc11cx4-library/lpc_chip_11cxx_lib/src/ssp_11xx.c **** 	uint32_t tx_cnt = 0, rx_cnt = 0;
 236:../../lpc11cx4-library/lpc_chip_11cxx_lib/src/ssp_11xx.c **** 
 237:../../lpc11cx4-library/lpc_chip_11cxx_lib/src/ssp_11xx.c **** 	/* Clear all remaining frames in RX FIFO */
 238:../../lpc11cx4-library/lpc_chip_11cxx_lib/src/ssp_11xx.c **** 	while (Chip_SSP_GetStatus(pSSP, SSP_STAT_RNE)) {
 517              		.loc 1 238 0
 518 000a 01D0     		beq	.L101	@,
 519              	.LVL42:
 520              	.LBB212:
 521              	.LBB213:
 366:../../lpc11cx4-library/lpc_chip_11cxx_lib/inc/ssp_11xx.h **** }
 522              		.loc 2 366 0
 523 000c 9868     		ldr	r0, [r3, #8]	@ D.6776, pSSP_25(D)->DR
 524 000e F9E7     		b	.L69	@
 525              	.LVL43:
 526              	.L101:
 527              	.LBE213:
 528              	.LBE212:
 529              	.LBB214:
 530              	.LBB215:
 336:../../lpc11cx4-library/lpc_chip_11cxx_lib/inc/ssp_11xx.h **** }
 531              		.loc 2 336 0
 532 0010 0324     		mov	r4, #3	@ tmp143,
 533 0012 1C62     		str	r4, [r3, #32]	@ tmp143, pSSP_25(D)->ICR
 534              	.LVL44:
 535              	.LBE215:
 536              	.LBE214:
 537              	.LBB216:
 538              	.LBB217:
 322:../../lpc11cx4-library/lpc_chip_11cxx_lib/inc/ssp_11xx.h **** }
 539              		.loc 2 322 0
 540 0014 1D68     		ldr	r5, [r3]	@ D.6776, pSSP_25(D)->CR0
 541              	.LBE217:
 542              	.LBE216:
 239:../../lpc11cx4-library/lpc_chip_11cxx_lib/src/ssp_11xx.c **** 		Chip_SSP_ReceiveFrame(pSSP);
 240:../../lpc11cx4-library/lpc_chip_11cxx_lib/src/ssp_11xx.c **** 	}
 241:../../lpc11cx4-library/lpc_chip_11cxx_lib/src/ssp_11xx.c **** 
 242:../../lpc11cx4-library/lpc_chip_11cxx_lib/src/ssp_11xx.c **** 	/* Clear status */
 243:../../lpc11cx4-library/lpc_chip_11cxx_lib/src/ssp_11xx.c **** 	Chip_SSP_ClearIntPending(pSSP, SSP_INT_CLEAR_BITMASK);
 244:../../lpc11cx4-library/lpc_chip_11cxx_lib/src/ssp_11xx.c **** 
 245:../../lpc11cx4-library/lpc_chip_11cxx_lib/src/ssp_11xx.c **** 	if (Chip_SSP_GetDataSize(pSSP) > SSP_BITS_8) {
 543              		.loc 1 245 0
 544 0016 0C34     		add	r4, r4, #12	@ tmp146,
 545 0018 2C40     		and	r4, r5	@ tmp147, D.6776
 546 001a 051C     		mov	r5, r0	@ rx_cnt, D.6775
ARM GAS  /tmp/ccFRKuha.s 			page 22


 547 001c 072C     		cmp	r4, #7	@ tmp147,
 548 001e 01D8     		bhi	.L71	@,
 549 0020 041C     		mov	r4, r0	@ tx_cnt, D.6775
 550 0022 22E0     		b	.L72	@
 551              	.L71:
 552 0024 041C     		mov	r4, r0	@ tx_cnt, D.6775
 553              	.LVL45:
 554              	.L78:
 555              	.LBB218:
 246:../../lpc11cx4-library/lpc_chip_11cxx_lib/src/ssp_11xx.c **** 		uint16_t *wdata16;
 247:../../lpc11cx4-library/lpc_chip_11cxx_lib/src/ssp_11xx.c **** 
 248:../../lpc11cx4-library/lpc_chip_11cxx_lib/src/ssp_11xx.c **** 		wdata16 = (uint16_t *) buffer;
 249:../../lpc11cx4-library/lpc_chip_11cxx_lib/src/ssp_11xx.c **** 
 250:../../lpc11cx4-library/lpc_chip_11cxx_lib/src/ssp_11xx.c **** 		while (tx_cnt < buffer_len || rx_cnt < buffer_len) {
 556              		.loc 1 250 0
 557 0026 9442     		cmp	r4, r2	@ tx_cnt, buffer_len
 558 0028 11D2     		bcs	.L102	@,
 559              	.L79:
 560              	.LVL46:
 561              	.LBB219:
 562              	.LBB220:
 284:../../lpc11cx4-library/lpc_chip_11cxx_lib/inc/ssp_11xx.h **** }
 563              		.loc 2 284 0
 564 002a DE68     		ldr	r6, [r3, #12]	@ D.6776, pSSP_25(D)->SR
 565              	.LBE220:
 566              	.LBE219:
 251:../../lpc11cx4-library/lpc_chip_11cxx_lib/src/ssp_11xx.c **** 			/* write data to buffer */
 252:../../lpc11cx4-library/lpc_chip_11cxx_lib/src/ssp_11xx.c **** 			if ((Chip_SSP_GetStatus(pSSP, SSP_STAT_TNF) == SET) && (tx_cnt < buffer_len)) {
 567              		.loc 1 252 0
 568 002c B607     		lsl	r6, r6, #30	@ tmp162, D.6776,
 569 002e 05D5     		bpl	.L73	@,
 570              		.loc 1 252 0 is_stmt 0 discriminator 1
 571 0030 9442     		cmp	r4, r2	@ tx_cnt, buffer_len
 572 0032 03D2     		bcs	.L73	@,
 573              	.LVL47:
 574              	.LBB221:
 575              	.LBB222:
 576              		.loc 2 377 0 is_stmt 1
 577 0034 0E88     		ldrh	r6, [r1]	@ D.6776, MEM[(uint16_t *)buffer_11]
 578              	.LBE222:
 579              	.LBE221:
 253:../../lpc11cx4-library/lpc_chip_11cxx_lib/src/ssp_11xx.c **** 				Chip_SSP_SendFrame(pSSP, *wdata16);
 254:../../lpc11cx4-library/lpc_chip_11cxx_lib/src/ssp_11xx.c **** 				wdata16++;
 255:../../lpc11cx4-library/lpc_chip_11cxx_lib/src/ssp_11xx.c **** 				tx_cnt += 2;
 580              		.loc 1 255 0
 581 0036 0234     		add	r4, r4, #2	@ tx_cnt,
 582              	.LVL48:
 583              	.LBB224:
 584              	.LBB223:
 585              		.loc 2 377 0
 586 0038 9E60     		str	r6, [r3, #8]	@ D.6776, pSSP_25(D)->DR
 587              	.LVL49:
 588              	.LBE223:
 589              	.LBE224:
 254:../../lpc11cx4-library/lpc_chip_11cxx_lib/src/ssp_11xx.c **** 				tx_cnt += 2;
 590              		.loc 1 254 0
 591 003a 0231     		add	r1, r1, #2	@ buffer,
ARM GAS  /tmp/ccFRKuha.s 			page 23


 592              	.LVL50:
 593              	.L73:
 594              	.LBB225:
 595              	.LBB226:
 311:../../lpc11cx4-library/lpc_chip_11cxx_lib/inc/ssp_11xx.h **** }
 596              		.loc 2 311 0
 597 003c 9E69     		ldr	r6, [r3, #24]	@ D.6776, pSSP_25(D)->RIS
 598              	.LBE226:
 599              	.LBE225:
 256:../../lpc11cx4-library/lpc_chip_11cxx_lib/src/ssp_11xx.c **** 			}
 257:../../lpc11cx4-library/lpc_chip_11cxx_lib/src/ssp_11xx.c **** 
 258:../../lpc11cx4-library/lpc_chip_11cxx_lib/src/ssp_11xx.c **** 			/* Check overrun error */
 259:../../lpc11cx4-library/lpc_chip_11cxx_lib/src/ssp_11xx.c **** 			if (Chip_SSP_GetRawIntStatus(pSSP, SSP_RORRIS) == SET) {
 600              		.loc 1 259 0
 601 003e F607     		lsl	r6, r6, #31	@ tmp163, D.6776,
 602 0040 23D4     		bmi	.L76	@,
 603              	.L75:
 604              	.LVL51:
 605              	.LBB227:
 606              	.LBB228:
 284:../../lpc11cx4-library/lpc_chip_11cxx_lib/inc/ssp_11xx.h **** }
 607              		.loc 2 284 0
 608 0042 DE68     		ldr	r6, [r3, #12]	@ D.6776, pSSP_25(D)->SR
 609              	.LBE228:
 610              	.LBE227:
 260:../../lpc11cx4-library/lpc_chip_11cxx_lib/src/ssp_11xx.c **** 				return ERROR;
 261:../../lpc11cx4-library/lpc_chip_11cxx_lib/src/ssp_11xx.c **** 			}
 262:../../lpc11cx4-library/lpc_chip_11cxx_lib/src/ssp_11xx.c **** 
 263:../../lpc11cx4-library/lpc_chip_11cxx_lib/src/ssp_11xx.c **** 			/* Check for any data available in RX FIFO */
 264:../../lpc11cx4-library/lpc_chip_11cxx_lib/src/ssp_11xx.c **** 			while (Chip_SSP_GetStatus(pSSP, SSP_STAT_RNE) == SET) {
 611              		.loc 1 264 0
 612 0044 7607     		lsl	r6, r6, #29	@ tmp164, D.6776,
 613 0046 EED5     		bpl	.L78	@,
 614              	.LVL52:
 615              	.LBB229:
 616              	.LBB230:
 366:../../lpc11cx4-library/lpc_chip_11cxx_lib/inc/ssp_11xx.h **** }
 617              		.loc 2 366 0
 618 0048 9E68     		ldr	r6, [r3, #8]	@ D.6776, pSSP_25(D)->DR
 619              	.LBE230:
 620              	.LBE229:
 265:../../lpc11cx4-library/lpc_chip_11cxx_lib/src/ssp_11xx.c **** 				Chip_SSP_ReceiveFrame(pSSP);	/* read dummy data */
 266:../../lpc11cx4-library/lpc_chip_11cxx_lib/src/ssp_11xx.c **** 				rx_cnt += 2;
 621              		.loc 1 266 0
 622 004a 0235     		add	r5, r5, #2	@ rx_cnt,
 623              	.LVL53:
 624 004c F9E7     		b	.L75	@
 625              	.LVL54:
 626              	.L102:
 250:../../lpc11cx4-library/lpc_chip_11cxx_lib/src/ssp_11xx.c **** 			/* write data to buffer */
 627              		.loc 1 250 0 discriminator 1
 628 004e 9542     		cmp	r5, r2	@ rx_cnt, buffer_len
 629 0050 EBD3     		bcc	.L79	@,
 630 0052 19E0     		b	.L100	@
 631              	.LVL55:
 632              	.L105:
 633              	.LBE218:
ARM GAS  /tmp/ccFRKuha.s 			page 24


 634              	.LBB231:
 267:../../lpc11cx4-library/lpc_chip_11cxx_lib/src/ssp_11xx.c **** 			}
 268:../../lpc11cx4-library/lpc_chip_11cxx_lib/src/ssp_11xx.c **** 		}
 269:../../lpc11cx4-library/lpc_chip_11cxx_lib/src/ssp_11xx.c **** 	}
 270:../../lpc11cx4-library/lpc_chip_11cxx_lib/src/ssp_11xx.c **** 	else {
 271:../../lpc11cx4-library/lpc_chip_11cxx_lib/src/ssp_11xx.c **** 		uint8_t *wdata8;
 272:../../lpc11cx4-library/lpc_chip_11cxx_lib/src/ssp_11xx.c **** 
 273:../../lpc11cx4-library/lpc_chip_11cxx_lib/src/ssp_11xx.c **** 		wdata8 = buffer;
 274:../../lpc11cx4-library/lpc_chip_11cxx_lib/src/ssp_11xx.c **** 
 275:../../lpc11cx4-library/lpc_chip_11cxx_lib/src/ssp_11xx.c **** 		while (tx_cnt < buffer_len || rx_cnt < buffer_len) {
 635              		.loc 1 275 0 discriminator 1
 636 0054 9542     		cmp	r5, r2	@ rx_cnt, buffer_len
 637 0056 17D2     		bcs	.L100	@,
 638              	.L84:
 639              	.LVL56:
 640              	.LBB232:
 641              	.LBB233:
 284:../../lpc11cx4-library/lpc_chip_11cxx_lib/inc/ssp_11xx.h **** }
 642              		.loc 2 284 0
 643 0058 DE68     		ldr	r6, [r3, #12]	@ D.6776, pSSP_25(D)->SR
 644              	.LBE233:
 645              	.LBE232:
 276:../../lpc11cx4-library/lpc_chip_11cxx_lib/src/ssp_11xx.c **** 			/* write data to buffer */
 277:../../lpc11cx4-library/lpc_chip_11cxx_lib/src/ssp_11xx.c **** 			if ((Chip_SSP_GetStatus(pSSP, SSP_STAT_TNF) == SET) && (tx_cnt < buffer_len)) {
 646              		.loc 1 277 0
 647 005a B607     		lsl	r6, r6, #30	@ tmp165, D.6776,
 648 005c 08D4     		bmi	.L103	@,
 649              	.L80:
 650              	.LVL57:
 651              	.LBB234:
 652              	.LBB235:
 311:../../lpc11cx4-library/lpc_chip_11cxx_lib/inc/ssp_11xx.h **** }
 653              		.loc 2 311 0
 654 005e 9E69     		ldr	r6, [r3, #24]	@ D.6776, pSSP_25(D)->RIS
 655              	.LBE235:
 656              	.LBE234:
 278:../../lpc11cx4-library/lpc_chip_11cxx_lib/src/ssp_11xx.c **** 				Chip_SSP_SendFrame(pSSP, *wdata8);
 279:../../lpc11cx4-library/lpc_chip_11cxx_lib/src/ssp_11xx.c **** 				wdata8++;
 280:../../lpc11cx4-library/lpc_chip_11cxx_lib/src/ssp_11xx.c **** 				tx_cnt++;
 281:../../lpc11cx4-library/lpc_chip_11cxx_lib/src/ssp_11xx.c **** 			}
 282:../../lpc11cx4-library/lpc_chip_11cxx_lib/src/ssp_11xx.c **** 
 283:../../lpc11cx4-library/lpc_chip_11cxx_lib/src/ssp_11xx.c **** 			/* Check overrun error */
 284:../../lpc11cx4-library/lpc_chip_11cxx_lib/src/ssp_11xx.c **** 			if (Chip_SSP_GetRawIntStatus(pSSP, SSP_RORRIS) == SET) {
 657              		.loc 1 284 0
 658 0060 F607     		lsl	r6, r6, #31	@ tmp166, D.6776,
 659 0062 12D4     		bmi	.L76	@,
 660              	.L81:
 661              	.LVL58:
 662              	.LBB236:
 663              	.LBB237:
 284:../../lpc11cx4-library/lpc_chip_11cxx_lib/inc/ssp_11xx.h **** }
 664              		.loc 2 284 0
 665 0064 DE68     		ldr	r6, [r3, #12]	@ D.6776, pSSP_25(D)->SR
 666              	.LBE237:
 667              	.LBE236:
 285:../../lpc11cx4-library/lpc_chip_11cxx_lib/src/ssp_11xx.c **** 				return ERROR;
 286:../../lpc11cx4-library/lpc_chip_11cxx_lib/src/ssp_11xx.c **** 			}
ARM GAS  /tmp/ccFRKuha.s 			page 25


 287:../../lpc11cx4-library/lpc_chip_11cxx_lib/src/ssp_11xx.c **** 
 288:../../lpc11cx4-library/lpc_chip_11cxx_lib/src/ssp_11xx.c **** 			/* Check for any data available in RX FIFO */
 289:../../lpc11cx4-library/lpc_chip_11cxx_lib/src/ssp_11xx.c **** 			while (Chip_SSP_GetStatus(pSSP, SSP_STAT_RNE) == SET && rx_cnt < buffer_len) {
 668              		.loc 1 289 0
 669 0066 7607     		lsl	r6, r6, #29	@ tmp167, D.6776,
 670 0068 09D4     		bmi	.L104	@,
 671              	.LVL59:
 672              	.L72:
 275:../../lpc11cx4-library/lpc_chip_11cxx_lib/src/ssp_11xx.c **** 			/* write data to buffer */
 673              		.loc 1 275 0
 674 006a 9442     		cmp	r4, r2	@ tx_cnt, buffer_len
 675 006c F4D3     		bcc	.L84	@,
 676 006e F1E7     		b	.L105	@
 677              	.LVL60:
 678              	.L103:
 277:../../lpc11cx4-library/lpc_chip_11cxx_lib/src/ssp_11xx.c **** 				Chip_SSP_SendFrame(pSSP, *wdata8);
 679              		.loc 1 277 0 discriminator 1
 680 0070 9442     		cmp	r4, r2	@ tx_cnt, buffer_len
 681 0072 F4D2     		bcs	.L80	@,
 682              	.LVL61:
 683              	.LBB238:
 684              	.LBB239:
 685              		.loc 2 377 0
 686 0074 0E78     		ldrb	r6, [r1]	@ D.6776, *buffer_13
 687              	.LBE239:
 688              	.LBE238:
 280:../../lpc11cx4-library/lpc_chip_11cxx_lib/src/ssp_11xx.c **** 			}
 689              		.loc 1 280 0
 690 0076 0134     		add	r4, r4, #1	@ tx_cnt,
 691              	.LVL62:
 692              	.LBB241:
 693              	.LBB240:
 694              		.loc 2 377 0
 695 0078 9E60     		str	r6, [r3, #8]	@ D.6776, pSSP_25(D)->DR
 696              	.LVL63:
 697              	.LBE240:
 698              	.LBE241:
 279:../../lpc11cx4-library/lpc_chip_11cxx_lib/src/ssp_11xx.c **** 				tx_cnt++;
 699              		.loc 1 279 0
 700 007a 0131     		add	r1, r1, #1	@ buffer,
 701              	.LVL64:
 702 007c EFE7     		b	.L80	@
 703              	.LVL65:
 704              	.L104:
 705              		.loc 1 289 0 discriminator 1
 706 007e 9542     		cmp	r5, r2	@ rx_cnt, buffer_len
 707 0080 F3D2     		bcs	.L72	@,
 708              	.LVL66:
 709              	.LBB242:
 710              	.LBB243:
 366:../../lpc11cx4-library/lpc_chip_11cxx_lib/inc/ssp_11xx.h **** }
 711              		.loc 2 366 0
 712 0082 9E68     		ldr	r6, [r3, #8]	@ D.6776, pSSP_25(D)->DR
 713              	.LBE243:
 714              	.LBE242:
 290:../../lpc11cx4-library/lpc_chip_11cxx_lib/src/ssp_11xx.c **** 				Chip_SSP_ReceiveFrame(pSSP);	/* read dummy data */
 291:../../lpc11cx4-library/lpc_chip_11cxx_lib/src/ssp_11xx.c **** 				rx_cnt++;
ARM GAS  /tmp/ccFRKuha.s 			page 26


 715              		.loc 1 291 0
 716 0084 0135     		add	r5, r5, #1	@ rx_cnt,
 717              	.LVL67:
 718 0086 EDE7     		b	.L81	@
 719              	.LVL68:
 720              	.L100:
 721 0088 201C     		mov	r0, r4	@ D.6775, tx_cnt
 722              	.L76:
 723              	.LBE231:
 292:../../lpc11cx4-library/lpc_chip_11cxx_lib/src/ssp_11xx.c **** 			}
 293:../../lpc11cx4-library/lpc_chip_11cxx_lib/src/ssp_11xx.c **** 		}
 294:../../lpc11cx4-library/lpc_chip_11cxx_lib/src/ssp_11xx.c **** 	}
 295:../../lpc11cx4-library/lpc_chip_11cxx_lib/src/ssp_11xx.c **** 
 296:../../lpc11cx4-library/lpc_chip_11cxx_lib/src/ssp_11xx.c **** 	return tx_cnt;
 297:../../lpc11cx4-library/lpc_chip_11cxx_lib/src/ssp_11xx.c **** 
 298:../../lpc11cx4-library/lpc_chip_11cxx_lib/src/ssp_11xx.c **** }
 724              		.loc 1 298 0
 725              		@ sp needed	@
 726              	.LVL69:
 727              	.LVL70:
 728 008a 70BD     		pop	{r4, r5, r6, pc}
 729              		.cfi_endproc
 730              	.LFE208:
 731              		.size	Chip_SSP_WriteFrames_Blocking, .-Chip_SSP_WriteFrames_Blocking
 732              		.section	.text.Chip_SSP_ReadFrames_Blocking,"ax",%progbits
 733              		.align	1
 734              		.global	Chip_SSP_ReadFrames_Blocking
 735              		.code	16
 736              		.thumb_func
 737              		.type	Chip_SSP_ReadFrames_Blocking, %function
 738              	Chip_SSP_ReadFrames_Blocking:
 739              	.LFB209:
 299:../../lpc11cx4-library/lpc_chip_11cxx_lib/src/ssp_11xx.c **** 
 300:../../lpc11cx4-library/lpc_chip_11cxx_lib/src/ssp_11xx.c **** /* SSP Polling Read in blocking mode */
 301:../../lpc11cx4-library/lpc_chip_11cxx_lib/src/ssp_11xx.c **** uint32_t Chip_SSP_ReadFrames_Blocking(LPC_SSP_T *pSSP, uint8_t *buffer, uint32_t buffer_len)
 302:../../lpc11cx4-library/lpc_chip_11cxx_lib/src/ssp_11xx.c **** {
 740              		.loc 1 302 0
 741              		.cfi_startproc
 742              	.LVL71:
 743 0000 031C     		mov	r3, r0	@ pSSP, pSSP
 744 0002 F7B5     		push	{r0, r1, r2, r4, r5, r6, r7, lr}	@
 745              		.cfi_def_cfa_offset 32
 746              		.cfi_offset 0, -32
 747              		.cfi_offset 1, -28
 748              		.cfi_offset 2, -24
 749              		.cfi_offset 4, -20
 750              		.cfi_offset 5, -16
 751              		.cfi_offset 6, -12
 752              		.cfi_offset 7, -8
 753              		.cfi_offset 14, -4
 754 0004 0191     		str	r1, [sp, #4]	@ buffer, %sfp
 755              	.LVL72:
 756              	.L107:
 757              	.LBB244:
 758              	.LBB245:
 284:../../lpc11cx4-library/lpc_chip_11cxx_lib/inc/ssp_11xx.h **** }
 759              		.loc 2 284 0
ARM GAS  /tmp/ccFRKuha.s 			page 27


 760 0006 0420     		mov	r0, #4	@ tmp198,
 761 0008 DC68     		ldr	r4, [r3, #12]	@ D.6796, pSSP_25(D)->SR
 762 000a 2040     		and	r0, r4	@ D.6797, D.6796
 763              	.LBE245:
 764              	.LBE244:
 303:../../lpc11cx4-library/lpc_chip_11cxx_lib/src/ssp_11xx.c **** 	uint32_t rx_cnt = 0, tx_cnt = 0;
 304:../../lpc11cx4-library/lpc_chip_11cxx_lib/src/ssp_11xx.c **** 
 305:../../lpc11cx4-library/lpc_chip_11cxx_lib/src/ssp_11xx.c **** 	/* Clear all remaining frames in RX FIFO */
 306:../../lpc11cx4-library/lpc_chip_11cxx_lib/src/ssp_11xx.c **** 	while (Chip_SSP_GetStatus(pSSP, SSP_STAT_RNE)) {
 765              		.loc 1 306 0
 766 000c 01D0     		beq	.L143	@,
 767              	.LVL73:
 768              	.LBB246:
 769              	.LBB247:
 366:../../lpc11cx4-library/lpc_chip_11cxx_lib/inc/ssp_11xx.h **** }
 770              		.loc 2 366 0
 771 000e 9868     		ldr	r0, [r3, #8]	@ D.6796, pSSP_25(D)->DR
 772 0010 F9E7     		b	.L107	@
 773              	.LVL74:
 774              	.L143:
 775              	.LBE247:
 776              	.LBE246:
 777              	.LBB248:
 778              	.LBB249:
 336:../../lpc11cx4-library/lpc_chip_11cxx_lib/inc/ssp_11xx.h **** }
 779              		.loc 2 336 0
 780 0012 0324     		mov	r4, #3	@ tmp199,
 781 0014 1C62     		str	r4, [r3, #32]	@ tmp199, pSSP_25(D)->ICR
 782              	.LVL75:
 783              	.LBE249:
 784              	.LBE248:
 785              	.LBB250:
 786              	.LBB251:
 322:../../lpc11cx4-library/lpc_chip_11cxx_lib/inc/ssp_11xx.h **** }
 787              		.loc 2 322 0
 788 0016 1D68     		ldr	r5, [r3]	@ D.6796, pSSP_25(D)->CR0
 789              	.LBE251:
 790              	.LBE250:
 307:../../lpc11cx4-library/lpc_chip_11cxx_lib/src/ssp_11xx.c **** 		Chip_SSP_ReceiveFrame(pSSP);
 308:../../lpc11cx4-library/lpc_chip_11cxx_lib/src/ssp_11xx.c **** 	}
 309:../../lpc11cx4-library/lpc_chip_11cxx_lib/src/ssp_11xx.c **** 
 310:../../lpc11cx4-library/lpc_chip_11cxx_lib/src/ssp_11xx.c **** 	/* Clear status */
 311:../../lpc11cx4-library/lpc_chip_11cxx_lib/src/ssp_11xx.c **** 	Chip_SSP_ClearIntPending(pSSP, SSP_INT_CLEAR_BITMASK);
 312:../../lpc11cx4-library/lpc_chip_11cxx_lib/src/ssp_11xx.c **** 
 313:../../lpc11cx4-library/lpc_chip_11cxx_lib/src/ssp_11xx.c **** 	if (Chip_SSP_GetDataSize(pSSP) > SSP_BITS_8) {
 791              		.loc 1 313 0
 792 0018 0C34     		add	r4, r4, #12	@ tmp202,
 793 001a 2C40     		and	r4, r5	@ tmp203, D.6796
 794 001c 061C     		mov	r6, r0	@ tx_cnt, D.6797
 795 001e 072C     		cmp	r4, #7	@ tmp203,
 796 0020 01D8     		bhi	.L109	@,
 797 0022 041C     		mov	r4, r0	@ rx_cnt, D.6797
 798 0024 35E0     		b	.L110	@
 799              	.L109:
 800 0026 041C     		mov	r4, r0	@ rx_cnt, D.6797
 801              	.LVL76:
 802              	.L111:
ARM GAS  /tmp/ccFRKuha.s 			page 28


 803              	.LBB252:
 314:../../lpc11cx4-library/lpc_chip_11cxx_lib/src/ssp_11xx.c **** 		uint16_t *rdata16;
 315:../../lpc11cx4-library/lpc_chip_11cxx_lib/src/ssp_11xx.c **** 
 316:../../lpc11cx4-library/lpc_chip_11cxx_lib/src/ssp_11xx.c **** 		rdata16 = (uint16_t *) buffer;
 317:../../lpc11cx4-library/lpc_chip_11cxx_lib/src/ssp_11xx.c **** 
 318:../../lpc11cx4-library/lpc_chip_11cxx_lib/src/ssp_11xx.c **** 		while (tx_cnt < buffer_len || rx_cnt < buffer_len) {
 804              		.loc 1 318 0
 805 0028 9642     		cmp	r6, r2	@ tx_cnt, buffer_len
 806 002a 1ED2     		bcs	.L144	@,
 807              	.L118:
 808              	.LVL77:
 809              	.LBB253:
 810              	.LBB254:
 284:../../lpc11cx4-library/lpc_chip_11cxx_lib/inc/ssp_11xx.h **** }
 811              		.loc 2 284 0
 812 002c DD68     		ldr	r5, [r3, #12]	@ D.6796, pSSP_25(D)->SR
 813              	.LBE254:
 814              	.LBE253:
 319:../../lpc11cx4-library/lpc_chip_11cxx_lib/src/ssp_11xx.c **** 			/* write data to buffer */
 320:../../lpc11cx4-library/lpc_chip_11cxx_lib/src/ssp_11xx.c **** 			if ((Chip_SSP_GetStatus(pSSP, SSP_STAT_TNF) == SET) && (tx_cnt < buffer_len)) {
 815              		.loc 1 320 0
 816 002e A907     		lsl	r1, r5, #30	@ tmp226, D.6796,
 817 0030 04D5     		bpl	.L112	@,
 818              		.loc 1 320 0 is_stmt 0 discriminator 1
 819 0032 9642     		cmp	r6, r2	@ tx_cnt, buffer_len
 820 0034 02D2     		bcs	.L112	@,
 821              	.LVL78:
 822              	.LBB255:
 823              	.LBB256:
 824              		.loc 2 377 0 is_stmt 1
 825 0036 214D     		ldr	r5, .L148	@ tmp206,
 826              	.LBE256:
 827              	.LBE255:
 321:../../lpc11cx4-library/lpc_chip_11cxx_lib/src/ssp_11xx.c **** 				Chip_SSP_SendFrame(pSSP, 0xFFFF);	/* just send dummy data */
 322:../../lpc11cx4-library/lpc_chip_11cxx_lib/src/ssp_11xx.c **** 				tx_cnt += 2;
 828              		.loc 1 322 0
 829 0038 0236     		add	r6, r6, #2	@ tx_cnt,
 830              	.LVL79:
 831              	.LBB258:
 832              	.LBB257:
 833              		.loc 2 377 0
 834 003a 9D60     		str	r5, [r3, #8]	@ tmp206, pSSP_25(D)->DR
 835              	.LVL80:
 836              	.L112:
 837              	.LBE257:
 838              	.LBE258:
 839              	.LBB259:
 840              	.LBB260:
 311:../../lpc11cx4-library/lpc_chip_11cxx_lib/inc/ssp_11xx.h **** }
 841              		.loc 2 311 0
 842 003c 9D69     		ldr	r5, [r3, #24]	@ D.6796, pSSP_25(D)->RIS
 843              	.LBE260:
 844              	.LBE259:
 323:../../lpc11cx4-library/lpc_chip_11cxx_lib/src/ssp_11xx.c **** 			}
 324:../../lpc11cx4-library/lpc_chip_11cxx_lib/src/ssp_11xx.c **** 
 325:../../lpc11cx4-library/lpc_chip_11cxx_lib/src/ssp_11xx.c **** 			/* Check overrun error */
 326:../../lpc11cx4-library/lpc_chip_11cxx_lib/src/ssp_11xx.c **** 			if (Chip_SSP_GetRawIntStatus(pSSP, SSP_RORRIS) == SET) {
ARM GAS  /tmp/ccFRKuha.s 			page 29


 845              		.loc 1 326 0
 846 003e E907     		lsl	r1, r5, #31	@ tmp227, D.6796,
 847 0040 3BD4     		bmi	.L115	@,
 848 0042 251C     		mov	r5, r4	@ rx_cnt, rx_cnt
 849              	.LVL81:
 850              	.L114:
 851 0044 0199     		ldr	r1, [sp, #4]	@ buffer, %sfp
 852 0046 2F1B     		sub	r7, r5, r4	@ D.6798, rx_cnt, rx_cnt
 853 0048 CF19     		add	r7, r1, r7	@ buffer, buffer, D.6798
 854              	.LVL82:
 855              	.LBB261:
 856              	.LBB262:
 284:../../lpc11cx4-library/lpc_chip_11cxx_lib/inc/ssp_11xx.h **** }
 857              		.loc 2 284 0
 858 004a D968     		ldr	r1, [r3, #12]	@ D.6796, pSSP_25(D)->SR
 859              	.LBE262:
 860              	.LBE261:
 327:../../lpc11cx4-library/lpc_chip_11cxx_lib/src/ssp_11xx.c **** 				return ERROR;
 328:../../lpc11cx4-library/lpc_chip_11cxx_lib/src/ssp_11xx.c **** 			}
 329:../../lpc11cx4-library/lpc_chip_11cxx_lib/src/ssp_11xx.c **** 
 330:../../lpc11cx4-library/lpc_chip_11cxx_lib/src/ssp_11xx.c **** 			/* Check for any data available in RX FIFO */
 331:../../lpc11cx4-library/lpc_chip_11cxx_lib/src/ssp_11xx.c **** 			while (Chip_SSP_GetStatus(pSSP, SSP_STAT_RNE) == SET && rx_cnt < buffer_len) {
 861              		.loc 1 331 0
 862 004c 4907     		lsl	r1, r1, #29	@ tmp228, D.6796,
 863 004e 09D5     		bpl	.L116	@,
 864              		.loc 1 331 0 is_stmt 0 discriminator 1
 865 0050 9542     		cmp	r5, r2	@ rx_cnt, buffer_len
 866 0052 07D2     		bcs	.L116	@,
 867              	.LVL83:
 868              	.LBB263:
 869              	.LBB264:
 366:../../lpc11cx4-library/lpc_chip_11cxx_lib/inc/ssp_11xx.h **** }
 870              		.loc 2 366 0 is_stmt 1
 871 0054 9F68     		ldr	r7, [r3, #8]	@ D.6796, pSSP_25(D)->DR
 872              	.LVL84:
 873 0056 0199     		ldr	r1, [sp, #4]	@ buffer, %sfp
 874 0058 BC46     		mov	ip, r7	@ D.6796, D.6796
 875 005a 0F1B     		sub	r7, r1, r4	@ D.6799, buffer, rx_cnt
 876              	.LBE264:
 877              	.LBE263:
 332:../../lpc11cx4-library/lpc_chip_11cxx_lib/src/ssp_11xx.c **** 				*rdata16 = Chip_SSP_ReceiveFrame(pSSP);
 878              		.loc 1 332 0
 879 005c 6146     		mov	r1, ip	@ tmp233, D.6796
 880 005e 7953     		strh	r1, [r7, r5]	@ tmp233, MEM[base: _49, index: rx_cnt_1, offset: 0B]
 881              	.LVL85:
 333:../../lpc11cx4-library/lpc_chip_11cxx_lib/src/ssp_11xx.c **** 				rdata16++;
 334:../../lpc11cx4-library/lpc_chip_11cxx_lib/src/ssp_11xx.c **** 				rx_cnt += 2;
 882              		.loc 1 334 0
 883 0060 0235     		add	r5, r5, #2	@ rx_cnt,
 884              	.LVL86:
 885 0062 EFE7     		b	.L114	@
 886              	.LVL87:
 887              	.L116:
 888              	.LBE252:
 313:../../lpc11cx4-library/lpc_chip_11cxx_lib/src/ssp_11xx.c **** 		uint16_t *rdata16;
 889              		.loc 1 313 0
 890 0064 0197     		str	r7, [sp, #4]	@ buffer, %sfp
ARM GAS  /tmp/ccFRKuha.s 			page 30


 891 0066 2C1C     		mov	r4, r5	@ rx_cnt, rx_cnt
 892 0068 DEE7     		b	.L111	@
 893              	.LVL88:
 894              	.L144:
 895              	.LBB265:
 318:../../lpc11cx4-library/lpc_chip_11cxx_lib/src/ssp_11xx.c **** 			/* write data to buffer */
 896              		.loc 1 318 0 discriminator 1
 897 006a 9442     		cmp	r4, r2	@ rx_cnt, buffer_len
 898 006c DED3     		bcc	.L118	@,
 899 006e 23E0     		b	.L142	@
 900              	.LVL89:
 901              	.L147:
 902              	.LBE265:
 903              	.LBB266:
 335:../../lpc11cx4-library/lpc_chip_11cxx_lib/src/ssp_11xx.c **** 			}
 336:../../lpc11cx4-library/lpc_chip_11cxx_lib/src/ssp_11xx.c **** 		}
 337:../../lpc11cx4-library/lpc_chip_11cxx_lib/src/ssp_11xx.c **** 	}
 338:../../lpc11cx4-library/lpc_chip_11cxx_lib/src/ssp_11xx.c **** 	else {
 339:../../lpc11cx4-library/lpc_chip_11cxx_lib/src/ssp_11xx.c **** 		uint8_t *rdata8;
 340:../../lpc11cx4-library/lpc_chip_11cxx_lib/src/ssp_11xx.c **** 
 341:../../lpc11cx4-library/lpc_chip_11cxx_lib/src/ssp_11xx.c **** 		rdata8 = buffer;
 342:../../lpc11cx4-library/lpc_chip_11cxx_lib/src/ssp_11xx.c **** 
 343:../../lpc11cx4-library/lpc_chip_11cxx_lib/src/ssp_11xx.c **** 		while (tx_cnt < buffer_len || rx_cnt < buffer_len) {
 904              		.loc 1 343 0 discriminator 1
 905 0070 9442     		cmp	r4, r2	@ rx_cnt, buffer_len
 906 0072 21D2     		bcs	.L142	@,
 907              	.L123:
 908              	.LVL90:
 909              	.LBB267:
 910              	.LBB268:
 284:../../lpc11cx4-library/lpc_chip_11cxx_lib/inc/ssp_11xx.h **** }
 911              		.loc 2 284 0
 912 0074 DD68     		ldr	r5, [r3, #12]	@ D.6796, pSSP_25(D)->SR
 913              	.LBE268:
 914              	.LBE267:
 344:../../lpc11cx4-library/lpc_chip_11cxx_lib/src/ssp_11xx.c **** 			/* write data to buffer */
 345:../../lpc11cx4-library/lpc_chip_11cxx_lib/src/ssp_11xx.c **** 			if ((Chip_SSP_GetStatus(pSSP, SSP_STAT_TNF) == SET) && (tx_cnt < buffer_len)) {
 915              		.loc 1 345 0
 916 0076 A907     		lsl	r1, r5, #30	@ tmp229, D.6796,
 917 0078 0ED4     		bmi	.L145	@,
 918              	.L119:
 919              	.LVL91:
 920              	.LBB269:
 921              	.LBB270:
 311:../../lpc11cx4-library/lpc_chip_11cxx_lib/inc/ssp_11xx.h **** }
 922              		.loc 2 311 0
 923 007a 9D69     		ldr	r5, [r3, #24]	@ D.6796, pSSP_25(D)->RIS
 924              	.LBE270:
 925              	.LBE269:
 346:../../lpc11cx4-library/lpc_chip_11cxx_lib/src/ssp_11xx.c **** 				Chip_SSP_SendFrame(pSSP, 0xFF);	/* just send dummy data		 */
 347:../../lpc11cx4-library/lpc_chip_11cxx_lib/src/ssp_11xx.c **** 				tx_cnt++;
 348:../../lpc11cx4-library/lpc_chip_11cxx_lib/src/ssp_11xx.c **** 			}
 349:../../lpc11cx4-library/lpc_chip_11cxx_lib/src/ssp_11xx.c **** 
 350:../../lpc11cx4-library/lpc_chip_11cxx_lib/src/ssp_11xx.c **** 			/* Check overrun error */
 351:../../lpc11cx4-library/lpc_chip_11cxx_lib/src/ssp_11xx.c **** 			if (Chip_SSP_GetRawIntStatus(pSSP, SSP_RORRIS) == SET) {
 926              		.loc 1 351 0
 927 007c E907     		lsl	r1, r5, #31	@ tmp230, D.6796,
ARM GAS  /tmp/ccFRKuha.s 			page 31


 928 007e 1CD4     		bmi	.L115	@,
 929 0080 251C     		mov	r5, r4	@ rx_cnt, rx_cnt
 930              	.LVL92:
 931              	.L120:
 932 0082 0199     		ldr	r1, [sp, #4]	@ buffer, %sfp
 933 0084 2F1B     		sub	r7, r5, r4	@ D.6798, rx_cnt, rx_cnt
 934 0086 CF19     		add	r7, r1, r7	@ buffer, buffer, D.6798
 935              	.LVL93:
 936              	.LBB271:
 937              	.LBB272:
 284:../../lpc11cx4-library/lpc_chip_11cxx_lib/inc/ssp_11xx.h **** }
 938              		.loc 2 284 0
 939 0088 D968     		ldr	r1, [r3, #12]	@ D.6796, pSSP_25(D)->SR
 940              	.LBE272:
 941              	.LBE271:
 352:../../lpc11cx4-library/lpc_chip_11cxx_lib/src/ssp_11xx.c **** 				return ERROR;
 353:../../lpc11cx4-library/lpc_chip_11cxx_lib/src/ssp_11xx.c **** 			}
 354:../../lpc11cx4-library/lpc_chip_11cxx_lib/src/ssp_11xx.c **** 
 355:../../lpc11cx4-library/lpc_chip_11cxx_lib/src/ssp_11xx.c **** 			/* Check for any data available in RX FIFO */
 356:../../lpc11cx4-library/lpc_chip_11cxx_lib/src/ssp_11xx.c **** 			while (Chip_SSP_GetStatus(pSSP, SSP_STAT_RNE) == SET && rx_cnt < buffer_len) {
 942              		.loc 1 356 0
 943 008a 4907     		lsl	r1, r1, #29	@ tmp231, D.6796,
 944 008c 0AD4     		bmi	.L146	@,
 945              	.L121:
 946              	.LBE266:
 313:../../lpc11cx4-library/lpc_chip_11cxx_lib/src/ssp_11xx.c **** 		uint16_t *rdata16;
 947              		.loc 1 313 0
 948 008e 2C1C     		mov	r4, r5	@ rx_cnt, rx_cnt
 949 0090 0197     		str	r7, [sp, #4]	@ buffer, %sfp
 950              	.LVL94:
 951              	.L110:
 952              	.LBB279:
 343:../../lpc11cx4-library/lpc_chip_11cxx_lib/src/ssp_11xx.c **** 			/* write data to buffer */
 953              		.loc 1 343 0
 954 0092 9642     		cmp	r6, r2	@ tx_cnt, buffer_len
 955 0094 EED3     		bcc	.L123	@,
 956 0096 EBE7     		b	.L147	@
 957              	.LVL95:
 958              	.L145:
 345:../../lpc11cx4-library/lpc_chip_11cxx_lib/src/ssp_11xx.c **** 				Chip_SSP_SendFrame(pSSP, 0xFF);	/* just send dummy data		 */
 959              		.loc 1 345 0 discriminator 1
 960 0098 9642     		cmp	r6, r2	@ tx_cnt, buffer_len
 961 009a EED2     		bcs	.L119	@,
 962              	.LVL96:
 963              	.LBB273:
 964              	.LBB274:
 965              		.loc 2 377 0
 966 009c FF25     		mov	r5, #255	@ tmp216,
 967              	.LBE274:
 968              	.LBE273:
 347:../../lpc11cx4-library/lpc_chip_11cxx_lib/src/ssp_11xx.c **** 			}
 969              		.loc 1 347 0
 970 009e 0136     		add	r6, r6, #1	@ tx_cnt,
 971              	.LVL97:
 972              	.LBB276:
 973              	.LBB275:
 974              		.loc 2 377 0
ARM GAS  /tmp/ccFRKuha.s 			page 32


 975 00a0 9D60     		str	r5, [r3, #8]	@ tmp216, pSSP_25(D)->DR
 976 00a2 EAE7     		b	.L119	@
 977              	.LVL98:
 978              	.L146:
 979              	.LBE275:
 980              	.LBE276:
 981              		.loc 1 356 0 discriminator 1
 982 00a4 9542     		cmp	r5, r2	@ rx_cnt, buffer_len
 983 00a6 F2D2     		bcs	.L121	@,
 984              	.LVL99:
 985              	.LBB277:
 986              	.LBB278:
 366:../../lpc11cx4-library/lpc_chip_11cxx_lib/inc/ssp_11xx.h **** }
 987              		.loc 2 366 0
 988 00a8 9968     		ldr	r1, [r3, #8]	@ D.6796, pSSP_25(D)->DR
 989 00aa 8C46     		mov	ip, r1	@ D.6796, D.6796
 990 00ac 0199     		ldr	r1, [sp, #4]	@ buffer, %sfp
 991 00ae 0F1B     		sub	r7, r1, r4	@ D.6799, buffer, rx_cnt
 992              	.LVL100:
 993              	.LBE278:
 994              	.LBE277:
 357:../../lpc11cx4-library/lpc_chip_11cxx_lib/src/ssp_11xx.c **** 				*rdata8 = Chip_SSP_ReceiveFrame(pSSP);
 995              		.loc 1 357 0
 996 00b0 6146     		mov	r1, ip	@ tmp237, D.6796
 997 00b2 7955     		strb	r1, [r7, r5]	@ tmp237, MEM[base: _51, index: rx_cnt_3, offset: 0B]
 998              	.LVL101:
 358:../../lpc11cx4-library/lpc_chip_11cxx_lib/src/ssp_11xx.c **** 				rdata8++;
 359:../../lpc11cx4-library/lpc_chip_11cxx_lib/src/ssp_11xx.c **** 				rx_cnt++;
 999              		.loc 1 359 0
 1000 00b4 0135     		add	r5, r5, #1	@ rx_cnt,
 1001              	.LVL102:
 1002 00b6 E4E7     		b	.L120	@
 1003              	.LVL103:
 1004              	.L142:
 1005 00b8 201C     		mov	r0, r4	@ D.6797, rx_cnt
 1006              	.L115:
 1007              	.LBE279:
 360:../../lpc11cx4-library/lpc_chip_11cxx_lib/src/ssp_11xx.c **** 			}
 361:../../lpc11cx4-library/lpc_chip_11cxx_lib/src/ssp_11xx.c **** 		}
 362:../../lpc11cx4-library/lpc_chip_11cxx_lib/src/ssp_11xx.c **** 	}
 363:../../lpc11cx4-library/lpc_chip_11cxx_lib/src/ssp_11xx.c **** 
 364:../../lpc11cx4-library/lpc_chip_11cxx_lib/src/ssp_11xx.c **** 	return rx_cnt;
 365:../../lpc11cx4-library/lpc_chip_11cxx_lib/src/ssp_11xx.c **** 
 366:../../lpc11cx4-library/lpc_chip_11cxx_lib/src/ssp_11xx.c **** }
 1008              		.loc 1 366 0
 1009              		@ sp needed	@
 1010              	.LVL104:
 1011              	.LVL105:
 1012 00ba FEBD     		pop	{r1, r2, r3, r4, r5, r6, r7, pc}
 1013              	.L149:
 1014              		.align	2
 1015              	.L148:
 1016 00bc FFFF0000 		.word	65535
 1017              		.cfi_endproc
 1018              	.LFE209:
 1019              		.size	Chip_SSP_ReadFrames_Blocking, .-Chip_SSP_ReadFrames_Blocking
 1020              		.section	.text.Chip_SSP_Int_FlushData,"ax",%progbits
ARM GAS  /tmp/ccFRKuha.s 			page 33


 1021              		.align	1
 1022              		.global	Chip_SSP_Int_FlushData
 1023              		.code	16
 1024              		.thumb_func
 1025              		.type	Chip_SSP_Int_FlushData, %function
 1026              	Chip_SSP_Int_FlushData:
 1027              	.LFB210:
 367:../../lpc11cx4-library/lpc_chip_11cxx_lib/src/ssp_11xx.c **** 
 368:../../lpc11cx4-library/lpc_chip_11cxx_lib/src/ssp_11xx.c **** /* Clean all data in RX FIFO of SSP */
 369:../../lpc11cx4-library/lpc_chip_11cxx_lib/src/ssp_11xx.c **** void Chip_SSP_Int_FlushData(LPC_SSP_T *pSSP)
 370:../../lpc11cx4-library/lpc_chip_11cxx_lib/src/ssp_11xx.c **** {
 1028              		.loc 1 370 0
 1029              		.cfi_startproc
 1030              	.LVL106:
 1031              	.L156:
 1032              	.LBB280:
 1033              	.LBB281:
 284:../../lpc11cx4-library/lpc_chip_11cxx_lib/inc/ssp_11xx.h **** }
 1034              		.loc 2 284 0
 1035 0000 C368     		ldr	r3, [r0, #12]	@ D.6806,
 1036              	.LBE281:
 1037              	.LBE280:
 371:../../lpc11cx4-library/lpc_chip_11cxx_lib/src/ssp_11xx.c **** 	if (Chip_SSP_GetStatus(pSSP, SSP_STAT_BSY)) {
 1038              		.loc 1 371 0
 1039 0002 DB06     		lsl	r3, r3, #27	@ tmp125, D.6806,
 1040 0004 FCD4     		bmi	.L156	@,
 1041              	.L151:
 1042              	.LVL107:
 1043              	.LBB282:
 1044              	.LBB283:
 284:../../lpc11cx4-library/lpc_chip_11cxx_lib/inc/ssp_11xx.h **** }
 1045              		.loc 2 284 0
 1046 0006 C368     		ldr	r3, [r0, #12]	@ D.6806, pSSP_4(D)->SR
 1047              	.LBE283:
 1048              	.LBE282:
 372:../../lpc11cx4-library/lpc_chip_11cxx_lib/src/ssp_11xx.c **** 		while (Chip_SSP_GetStatus(pSSP, SSP_STAT_BSY)) {}
 373:../../lpc11cx4-library/lpc_chip_11cxx_lib/src/ssp_11xx.c **** 	}
 374:../../lpc11cx4-library/lpc_chip_11cxx_lib/src/ssp_11xx.c **** 
 375:../../lpc11cx4-library/lpc_chip_11cxx_lib/src/ssp_11xx.c **** 	/* Clear all remaining frames in RX FIFO */
 376:../../lpc11cx4-library/lpc_chip_11cxx_lib/src/ssp_11xx.c **** 	while (Chip_SSP_GetStatus(pSSP, SSP_STAT_RNE)) {
 1049              		.loc 1 376 0
 1050 0008 5B07     		lsl	r3, r3, #29	@ tmp127, D.6806,
 1051 000a 01D5     		bpl	.L157	@,
 1052              	.LVL108:
 1053              	.LBB284:
 1054              	.LBB285:
 366:../../lpc11cx4-library/lpc_chip_11cxx_lib/inc/ssp_11xx.h **** }
 1055              		.loc 2 366 0
 1056 000c 8368     		ldr	r3, [r0, #8]	@ D.6806, pSSP_4(D)->DR
 1057 000e FAE7     		b	.L151	@
 1058              	.LVL109:
 1059              	.L157:
 1060              	.LBE285:
 1061              	.LBE284:
 1062              	.LBB286:
 1063              	.LBB287:
 336:../../lpc11cx4-library/lpc_chip_11cxx_lib/inc/ssp_11xx.h **** }
ARM GAS  /tmp/ccFRKuha.s 			page 34


 1064              		.loc 2 336 0
 1065 0010 0323     		mov	r3, #3	@ tmp124,
 1066              	.LBE287:
 1067              	.LBE286:
 377:../../lpc11cx4-library/lpc_chip_11cxx_lib/src/ssp_11xx.c **** 		Chip_SSP_ReceiveFrame(pSSP);
 378:../../lpc11cx4-library/lpc_chip_11cxx_lib/src/ssp_11xx.c **** 	}
 379:../../lpc11cx4-library/lpc_chip_11cxx_lib/src/ssp_11xx.c **** 
 380:../../lpc11cx4-library/lpc_chip_11cxx_lib/src/ssp_11xx.c **** 	/* Clear status */
 381:../../lpc11cx4-library/lpc_chip_11cxx_lib/src/ssp_11xx.c **** 	Chip_SSP_ClearIntPending(pSSP, SSP_INT_CLEAR_BITMASK);
 382:../../lpc11cx4-library/lpc_chip_11cxx_lib/src/ssp_11xx.c **** }
 1068              		.loc 1 382 0
 1069              		@ sp needed	@
 1070              	.LBB289:
 1071              	.LBB288:
 336:../../lpc11cx4-library/lpc_chip_11cxx_lib/inc/ssp_11xx.h **** }
 1072              		.loc 2 336 0
 1073 0012 0362     		str	r3, [r0, #32]	@ tmp124, pSSP_4(D)->ICR
 1074              	.LBE288:
 1075              	.LBE289:
 1076              		.loc 1 382 0
 1077 0014 7047     		bx	lr
 1078              		.cfi_endproc
 1079              	.LFE210:
 1080              		.size	Chip_SSP_Int_FlushData, .-Chip_SSP_Int_FlushData
 1081              		.section	.text.Chip_SSP_Int_RWFrames8Bits,"ax",%progbits
 1082              		.align	1
 1083              		.global	Chip_SSP_Int_RWFrames8Bits
 1084              		.code	16
 1085              		.thumb_func
 1086              		.type	Chip_SSP_Int_RWFrames8Bits, %function
 1087              	Chip_SSP_Int_RWFrames8Bits:
 1088              	.LFB211:
 383:../../lpc11cx4-library/lpc_chip_11cxx_lib/src/ssp_11xx.c **** 
 384:../../lpc11cx4-library/lpc_chip_11cxx_lib/src/ssp_11xx.c **** /* SSP Interrupt Read/Write with 8-bit frame width */
 385:../../lpc11cx4-library/lpc_chip_11cxx_lib/src/ssp_11xx.c **** Status Chip_SSP_Int_RWFrames8Bits(LPC_SSP_T *pSSP, Chip_SSP_DATA_SETUP_T *xf_setup)
 386:../../lpc11cx4-library/lpc_chip_11cxx_lib/src/ssp_11xx.c **** {
 1089              		.loc 1 386 0
 1090              		.cfi_startproc
 1091              	.LVL110:
 1092 0000 38B5     		push	{r3, r4, r5, lr}	@
 1093              		.cfi_def_cfa_offset 16
 1094              		.cfi_offset 3, -16
 1095              		.cfi_offset 4, -12
 1096              		.cfi_offset 5, -8
 1097              		.cfi_offset 14, -4
 1098              	.LBB302:
 1099              	.LBB303:
 311:../../lpc11cx4-library/lpc_chip_11cxx_lib/inc/ssp_11xx.h **** }
 1100              		.loc 2 311 0
 1101 0002 8369     		ldr	r3, [r0, #24]	@ D.6816, pSSP_5(D)->RIS
 1102              	.LBE303:
 1103              	.LBE302:
 387:../../lpc11cx4-library/lpc_chip_11cxx_lib/src/ssp_11xx.c **** 	/* Check overrun error in RIS register */
 388:../../lpc11cx4-library/lpc_chip_11cxx_lib/src/ssp_11xx.c **** 	if (Chip_SSP_GetRawIntStatus(pSSP, SSP_RORRIS) == SET) {
 1104              		.loc 1 388 0
 1105 0004 DB07     		lsl	r3, r3, #31	@ tmp147, D.6816,
 1106 0006 01D5     		bpl	.L159	@,
ARM GAS  /tmp/ccFRKuha.s 			page 35


 1107              	.LVL111:
 1108              	.L162:
 389:../../lpc11cx4-library/lpc_chip_11cxx_lib/src/ssp_11xx.c **** 		return ERROR;
 1109              		.loc 1 389 0
 1110 0008 0020     		mov	r0, #0	@ D.6815,
 1111 000a 21E0     		b	.L160	@
 1112              	.LVL112:
 1113              	.L159:
 390:../../lpc11cx4-library/lpc_chip_11cxx_lib/src/ssp_11xx.c **** 	}
 391:../../lpc11cx4-library/lpc_chip_11cxx_lib/src/ssp_11xx.c **** 
 392:../../lpc11cx4-library/lpc_chip_11cxx_lib/src/ssp_11xx.c **** 	if ((xf_setup->tx_cnt != xf_setup->length) || (xf_setup->rx_cnt != xf_setup->length)) {
 1114              		.loc 1 392 0
 1115 000c 4B68     		ldr	r3, [r1, #4]	@ D.6816, xf_setup_7(D)->tx_cnt
 1116 000e 0A69     		ldr	r2, [r1, #16]	@ tmp150, xf_setup_7(D)->length
 1117 0010 9342     		cmp	r3, r2	@ D.6816, tmp150
 1118 0012 02D1     		bne	.L161	@,
 1119              		.loc 1 392 0 is_stmt 0 discriminator 1
 1120 0014 CA68     		ldr	r2, [r1, #12]	@ tmp152, xf_setup_7(D)->rx_cnt
 1121 0016 9A42     		cmp	r2, r3	@ tmp152, D.6816
 1122 0018 F6D0     		beq	.L162	@,
 1123              	.L161:
 1124 001a 0C1C     		mov	r4, r1	@ xf_setup, xf_setup
 1125 001c 051C     		mov	r5, r0	@ pSSP, pSSP
 1126              	.LVL113:
 1127              	.L172:
 393:../../lpc11cx4-library/lpc_chip_11cxx_lib/src/ssp_11xx.c **** 		/* check if RX FIFO contains data */
 394:../../lpc11cx4-library/lpc_chip_11cxx_lib/src/ssp_11xx.c **** 		SSP_Read1BFifo(pSSP, xf_setup);
 395:../../lpc11cx4-library/lpc_chip_11cxx_lib/src/ssp_11xx.c **** 
 396:../../lpc11cx4-library/lpc_chip_11cxx_lib/src/ssp_11xx.c **** 		while ((Chip_SSP_GetStatus(pSSP, SSP_STAT_TNF)) && (xf_setup->tx_cnt != xf_setup->length)) {
 397:../../lpc11cx4-library/lpc_chip_11cxx_lib/src/ssp_11xx.c **** 			/* Write data to buffer */
 398:../../lpc11cx4-library/lpc_chip_11cxx_lib/src/ssp_11xx.c **** 			SSP_Write1BFifo(pSSP, xf_setup);
 399:../../lpc11cx4-library/lpc_chip_11cxx_lib/src/ssp_11xx.c **** 
 400:../../lpc11cx4-library/lpc_chip_11cxx_lib/src/ssp_11xx.c **** 			/* Check overrun error in RIS register */
 401:../../lpc11cx4-library/lpc_chip_11cxx_lib/src/ssp_11xx.c **** 			if (Chip_SSP_GetRawIntStatus(pSSP, SSP_RORRIS) == SET) {
 402:../../lpc11cx4-library/lpc_chip_11cxx_lib/src/ssp_11xx.c **** 				return ERROR;
 403:../../lpc11cx4-library/lpc_chip_11cxx_lib/src/ssp_11xx.c **** 			}
 404:../../lpc11cx4-library/lpc_chip_11cxx_lib/src/ssp_11xx.c **** 
 405:../../lpc11cx4-library/lpc_chip_11cxx_lib/src/ssp_11xx.c **** 			/*  Check for any data available in RX FIFO */
 406:../../lpc11cx4-library/lpc_chip_11cxx_lib/src/ssp_11xx.c **** 			SSP_Read1BFifo(pSSP, xf_setup);
 1128              		.loc 1 406 0 is_stmt 1
 1129 001e 281C     		mov	r0, r5	@, pSSP
 1130 0020 211C     		mov	r1, r4	@, xf_setup
 1131 0022 FFF7FEFF 		bl	SSP_Read1BFifo	@
 1132              	.LVL114:
 1133              	.LBB304:
 1134              	.LBB305:
 284:../../lpc11cx4-library/lpc_chip_11cxx_lib/inc/ssp_11xx.h **** }
 1135              		.loc 2 284 0
 1136 0026 EB68     		ldr	r3, [r5, #12]	@ D.6816, pSSP_5(D)->SR
 1137              	.LBE305:
 1138              	.LBE304:
 396:../../lpc11cx4-library/lpc_chip_11cxx_lib/src/ssp_11xx.c **** 			/* Write data to buffer */
 1139              		.loc 1 396 0
 1140 0028 9B07     		lsl	r3, r3, #30	@ tmp149, D.6816,
 1141 002a 10D5     		bpl	.L167	@,
 396:../../lpc11cx4-library/lpc_chip_11cxx_lib/src/ssp_11xx.c **** 			/* Write data to buffer */
 1142              		.loc 1 396 0 is_stmt 0 discriminator 1
ARM GAS  /tmp/ccFRKuha.s 			page 36


 1143 002c 6368     		ldr	r3, [r4, #4]	@ D.6816, xf_setup_7(D)->tx_cnt
 1144 002e 2269     		ldr	r2, [r4, #16]	@ tmp154, xf_setup_7(D)->length
 1145 0030 9342     		cmp	r3, r2	@ D.6816, tmp154
 1146 0032 0CD0     		beq	.L167	@,
 1147              	.LVL115:
 1148              	.LBB306:
 1149              	.LBB307:
  62:../../lpc11cx4-library/lpc_chip_11cxx_lib/src/ssp_11xx.c **** 		Chip_SSP_SendFrame(pSSP, (*(uint8_t *) ((uint32_t) xf_setup->tx_data + xf_setup->tx_cnt)));
 1150              		.loc 1 62 0 is_stmt 1
 1151 0034 2268     		ldr	r2, [r4]	@ D.6817, xf_setup_7(D)->tx_data
 1152 0036 002A     		cmp	r2, #0	@ D.6817,
 1153 0038 01D0     		beq	.L164	@,
 1154              	.LVL116:
 1155              	.LBB308:
 1156              	.LBB309:
 1157              		.loc 2 377 0
 1158 003a D25C     		ldrb	r2, [r2, r3]	@ D.6816, *_31
 1159              	.LVL117:
 1160 003c 00E0     		b	.L171	@
 1161              	.LVL118:
 1162              	.L164:
 1163              	.LBE309:
 1164              	.LBE308:
 1165              	.LBB310:
 1166              	.LBB311:
 1167 003e FF22     		mov	r2, #255	@ tmp136,
 1168              	.LVL119:
 1169              	.L171:
 1170 0040 AA60     		str	r2, [r5, #8]	@ tmp136,
 1171              	.LBE311:
 1172              	.LBE310:
  69:../../lpc11cx4-library/lpc_chip_11cxx_lib/src/ssp_11xx.c **** }
 1173              		.loc 1 69 0
 1174 0042 0133     		add	r3, r3, #1	@ D.6816,
 1175 0044 6360     		str	r3, [r4, #4]	@ D.6816, xf_setup_7(D)->tx_cnt
 1176              	.LVL120:
 1177              	.LBE307:
 1178              	.LBE306:
 1179              	.LBB312:
 1180              	.LBB313:
 311:../../lpc11cx4-library/lpc_chip_11cxx_lib/inc/ssp_11xx.h **** }
 1181              		.loc 2 311 0
 1182 0046 AB69     		ldr	r3, [r5, #24]	@ D.6816, pSSP_5(D)->RIS
 1183              	.LBE313:
 1184              	.LBE312:
 401:../../lpc11cx4-library/lpc_chip_11cxx_lib/src/ssp_11xx.c **** 				return ERROR;
 1185              		.loc 1 401 0
 1186 0048 DB07     		lsl	r3, r3, #31	@ tmp148, D.6816,
 1187 004a E8D5     		bpl	.L172	@,
 1188 004c DCE7     		b	.L162	@
 1189              	.LVL121:
 1190              	.L167:
 407:../../lpc11cx4-library/lpc_chip_11cxx_lib/src/ssp_11xx.c **** 		}
 408:../../lpc11cx4-library/lpc_chip_11cxx_lib/src/ssp_11xx.c **** 
 409:../../lpc11cx4-library/lpc_chip_11cxx_lib/src/ssp_11xx.c **** 		return SUCCESS;
 1191              		.loc 1 409 0
 1192 004e 0120     		mov	r0, #1	@ D.6815,
ARM GAS  /tmp/ccFRKuha.s 			page 37


 1193              	.LVL122:
 1194              	.L160:
 410:../../lpc11cx4-library/lpc_chip_11cxx_lib/src/ssp_11xx.c **** 	}
 411:../../lpc11cx4-library/lpc_chip_11cxx_lib/src/ssp_11xx.c **** 
 412:../../lpc11cx4-library/lpc_chip_11cxx_lib/src/ssp_11xx.c **** 	return ERROR;
 413:../../lpc11cx4-library/lpc_chip_11cxx_lib/src/ssp_11xx.c **** }
 1195              		.loc 1 413 0
 1196              		@ sp needed	@
 1197 0050 38BD     		pop	{r3, r4, r5, pc}
 1198              		.cfi_endproc
 1199              	.LFE211:
 1200              		.size	Chip_SSP_Int_RWFrames8Bits, .-Chip_SSP_Int_RWFrames8Bits
 1201              		.section	.text.Chip_SSP_Int_RWFrames16Bits,"ax",%progbits
 1202              		.align	1
 1203              		.global	Chip_SSP_Int_RWFrames16Bits
 1204              		.code	16
 1205              		.thumb_func
 1206              		.type	Chip_SSP_Int_RWFrames16Bits, %function
 1207              	Chip_SSP_Int_RWFrames16Bits:
 1208              	.LFB212:
 414:../../lpc11cx4-library/lpc_chip_11cxx_lib/src/ssp_11xx.c **** 
 415:../../lpc11cx4-library/lpc_chip_11cxx_lib/src/ssp_11xx.c **** /* SSP Interrupt Read/Write with 16-bit frame width */
 416:../../lpc11cx4-library/lpc_chip_11cxx_lib/src/ssp_11xx.c **** Status Chip_SSP_Int_RWFrames16Bits(LPC_SSP_T *pSSP, Chip_SSP_DATA_SETUP_T *xf_setup)
 417:../../lpc11cx4-library/lpc_chip_11cxx_lib/src/ssp_11xx.c **** {
 1209              		.loc 1 417 0
 1210              		.cfi_startproc
 1211              	.LVL123:
 1212 0000 38B5     		push	{r3, r4, r5, lr}	@
 1213              		.cfi_def_cfa_offset 16
 1214              		.cfi_offset 3, -16
 1215              		.cfi_offset 4, -12
 1216              		.cfi_offset 5, -8
 1217              		.cfi_offset 14, -4
 1218              	.LBB326:
 1219              	.LBB327:
 311:../../lpc11cx4-library/lpc_chip_11cxx_lib/inc/ssp_11xx.h **** }
 1220              		.loc 2 311 0
 1221 0002 8369     		ldr	r3, [r0, #24]	@ D.6829, pSSP_5(D)->RIS
 1222              	.LBE327:
 1223              	.LBE326:
 418:../../lpc11cx4-library/lpc_chip_11cxx_lib/src/ssp_11xx.c **** 	/* Check overrun error in RIS register */
 419:../../lpc11cx4-library/lpc_chip_11cxx_lib/src/ssp_11xx.c **** 	if (Chip_SSP_GetRawIntStatus(pSSP, SSP_RORRIS) == SET) {
 1224              		.loc 1 419 0
 1225 0004 DB07     		lsl	r3, r3, #31	@ tmp147, D.6829,
 1226 0006 01D5     		bpl	.L174	@,
 1227              	.LVL124:
 1228              	.L177:
 420:../../lpc11cx4-library/lpc_chip_11cxx_lib/src/ssp_11xx.c **** 		return ERROR;
 1229              		.loc 1 420 0
 1230 0008 0020     		mov	r0, #0	@ D.6828,
 1231 000a 21E0     		b	.L175	@
 1232              	.LVL125:
 1233              	.L174:
 421:../../lpc11cx4-library/lpc_chip_11cxx_lib/src/ssp_11xx.c **** 	}
 422:../../lpc11cx4-library/lpc_chip_11cxx_lib/src/ssp_11xx.c **** 
 423:../../lpc11cx4-library/lpc_chip_11cxx_lib/src/ssp_11xx.c **** 	if ((xf_setup->tx_cnt != xf_setup->length) || (xf_setup->rx_cnt != xf_setup->length)) {
 1234              		.loc 1 423 0
ARM GAS  /tmp/ccFRKuha.s 			page 38


 1235 000c 4B68     		ldr	r3, [r1, #4]	@ D.6829, xf_setup_7(D)->tx_cnt
 1236 000e 0A69     		ldr	r2, [r1, #16]	@ tmp150, xf_setup_7(D)->length
 1237 0010 9342     		cmp	r3, r2	@ D.6829, tmp150
 1238 0012 02D1     		bne	.L176	@,
 1239              		.loc 1 423 0 is_stmt 0 discriminator 1
 1240 0014 CA68     		ldr	r2, [r1, #12]	@ tmp152, xf_setup_7(D)->rx_cnt
 1241 0016 9A42     		cmp	r2, r3	@ tmp152, D.6829
 1242 0018 F6D0     		beq	.L177	@,
 1243              	.L176:
 1244 001a 0C1C     		mov	r4, r1	@ xf_setup, xf_setup
 1245 001c 051C     		mov	r5, r0	@ pSSP, pSSP
 1246              	.LVL126:
 1247              	.L187:
 424:../../lpc11cx4-library/lpc_chip_11cxx_lib/src/ssp_11xx.c **** 		/* check if RX FIFO contains data */
 425:../../lpc11cx4-library/lpc_chip_11cxx_lib/src/ssp_11xx.c **** 		SSP_Read2BFifo(pSSP, xf_setup);
 426:../../lpc11cx4-library/lpc_chip_11cxx_lib/src/ssp_11xx.c **** 
 427:../../lpc11cx4-library/lpc_chip_11cxx_lib/src/ssp_11xx.c **** 		while ((Chip_SSP_GetStatus(pSSP, SSP_STAT_TNF)) && (xf_setup->tx_cnt != xf_setup->length)) {
 428:../../lpc11cx4-library/lpc_chip_11cxx_lib/src/ssp_11xx.c **** 			/* Write data to buffer */
 429:../../lpc11cx4-library/lpc_chip_11cxx_lib/src/ssp_11xx.c **** 			SSP_Write2BFifo(pSSP, xf_setup);
 430:../../lpc11cx4-library/lpc_chip_11cxx_lib/src/ssp_11xx.c **** 
 431:../../lpc11cx4-library/lpc_chip_11cxx_lib/src/ssp_11xx.c **** 			/* Check overrun error in RIS register */
 432:../../lpc11cx4-library/lpc_chip_11cxx_lib/src/ssp_11xx.c **** 			if (Chip_SSP_GetRawIntStatus(pSSP, SSP_RORRIS) == SET) {
 433:../../lpc11cx4-library/lpc_chip_11cxx_lib/src/ssp_11xx.c **** 				return ERROR;
 434:../../lpc11cx4-library/lpc_chip_11cxx_lib/src/ssp_11xx.c **** 			}
 435:../../lpc11cx4-library/lpc_chip_11cxx_lib/src/ssp_11xx.c **** 
 436:../../lpc11cx4-library/lpc_chip_11cxx_lib/src/ssp_11xx.c **** 			/*  Check for any data available in RX FIFO			 */
 437:../../lpc11cx4-library/lpc_chip_11cxx_lib/src/ssp_11xx.c **** 			SSP_Read2BFifo(pSSP, xf_setup);
 1248              		.loc 1 437 0 is_stmt 1
 1249 001e 281C     		mov	r0, r5	@, pSSP
 1250 0020 211C     		mov	r1, r4	@, xf_setup
 1251 0022 FFF7FEFF 		bl	SSP_Read2BFifo	@
 1252              	.LVL127:
 1253              	.LBB328:
 1254              	.LBB329:
 284:../../lpc11cx4-library/lpc_chip_11cxx_lib/inc/ssp_11xx.h **** }
 1255              		.loc 2 284 0
 1256 0026 EB68     		ldr	r3, [r5, #12]	@ D.6829, pSSP_5(D)->SR
 1257              	.LBE329:
 1258              	.LBE328:
 427:../../lpc11cx4-library/lpc_chip_11cxx_lib/src/ssp_11xx.c **** 			/* Write data to buffer */
 1259              		.loc 1 427 0
 1260 0028 9B07     		lsl	r3, r3, #30	@ tmp149, D.6829,
 1261 002a 10D5     		bpl	.L182	@,
 427:../../lpc11cx4-library/lpc_chip_11cxx_lib/src/ssp_11xx.c **** 			/* Write data to buffer */
 1262              		.loc 1 427 0 is_stmt 0 discriminator 1
 1263 002c 6368     		ldr	r3, [r4, #4]	@ D.6829, xf_setup_7(D)->tx_cnt
 1264 002e 2269     		ldr	r2, [r4, #16]	@ tmp154, xf_setup_7(D)->length
 1265 0030 9342     		cmp	r3, r2	@ D.6829, tmp154
 1266 0032 0CD0     		beq	.L182	@,
 1267              	.LVL128:
 1268              	.LBB330:
 1269              	.LBB331:
  48:../../lpc11cx4-library/lpc_chip_11cxx_lib/src/ssp_11xx.c **** 		Chip_SSP_SendFrame(pSSP, (*(uint16_t *) ((uint32_t) xf_setup->tx_data +
 1270              		.loc 1 48 0 is_stmt 1
 1271 0034 2268     		ldr	r2, [r4]	@ D.6830, xf_setup_7(D)->tx_data
 1272 0036 002A     		cmp	r2, #0	@ D.6830,
 1273 0038 01D0     		beq	.L179	@,
ARM GAS  /tmp/ccFRKuha.s 			page 39


 1274              	.LVL129:
 1275              	.LBB332:
 1276              	.LBB333:
 1277              		.loc 2 377 0
 1278 003a D25A     		ldrh	r2, [r2, r3]	@ D.6829, *_31
 1279              	.LVL130:
 1280 003c 00E0     		b	.L186	@
 1281              	.LVL131:
 1282              	.L179:
 1283              	.LBE333:
 1284              	.LBE332:
 1285              	.LBB334:
 1286              	.LBB335:
 1287 003e 054A     		ldr	r2, .L188	@ tmp136,
 1288              	.LVL132:
 1289              	.L186:
 1290 0040 AA60     		str	r2, [r5, #8]	@ tmp136,
 1291              	.LBE335:
 1292              	.LBE334:
  56:../../lpc11cx4-library/lpc_chip_11cxx_lib/src/ssp_11xx.c **** }
 1293              		.loc 1 56 0
 1294 0042 0233     		add	r3, r3, #2	@ D.6829,
 1295 0044 6360     		str	r3, [r4, #4]	@ D.6829, xf_setup_7(D)->tx_cnt
 1296              	.LVL133:
 1297              	.LBE331:
 1298              	.LBE330:
 1299              	.LBB336:
 1300              	.LBB337:
 311:../../lpc11cx4-library/lpc_chip_11cxx_lib/inc/ssp_11xx.h **** }
 1301              		.loc 2 311 0
 1302 0046 AB69     		ldr	r3, [r5, #24]	@ D.6829, pSSP_5(D)->RIS
 1303              	.LBE337:
 1304              	.LBE336:
 432:../../lpc11cx4-library/lpc_chip_11cxx_lib/src/ssp_11xx.c **** 				return ERROR;
 1305              		.loc 1 432 0
 1306 0048 DB07     		lsl	r3, r3, #31	@ tmp148, D.6829,
 1307 004a E8D5     		bpl	.L187	@,
 1308 004c DCE7     		b	.L177	@
 1309              	.LVL134:
 1310              	.L182:
 438:../../lpc11cx4-library/lpc_chip_11cxx_lib/src/ssp_11xx.c **** 		}
 439:../../lpc11cx4-library/lpc_chip_11cxx_lib/src/ssp_11xx.c **** 
 440:../../lpc11cx4-library/lpc_chip_11cxx_lib/src/ssp_11xx.c **** 		return SUCCESS;
 1311              		.loc 1 440 0
 1312 004e 0120     		mov	r0, #1	@ D.6828,
 1313              	.LVL135:
 1314              	.L175:
 441:../../lpc11cx4-library/lpc_chip_11cxx_lib/src/ssp_11xx.c **** 	}
 442:../../lpc11cx4-library/lpc_chip_11cxx_lib/src/ssp_11xx.c **** 
 443:../../lpc11cx4-library/lpc_chip_11cxx_lib/src/ssp_11xx.c **** 	return ERROR;
 444:../../lpc11cx4-library/lpc_chip_11cxx_lib/src/ssp_11xx.c **** }
 1315              		.loc 1 444 0
 1316              		@ sp needed	@
 1317 0050 38BD     		pop	{r3, r4, r5, pc}
 1318              	.L189:
 1319 0052 C046     		.align	2
 1320              	.L188:
ARM GAS  /tmp/ccFRKuha.s 			page 40


 1321 0054 FFFF0000 		.word	65535
 1322              		.cfi_endproc
 1323              	.LFE212:
 1324              		.size	Chip_SSP_Int_RWFrames16Bits, .-Chip_SSP_Int_RWFrames16Bits
 1325              		.section	.text.Chip_SSP_SetMaster,"ax",%progbits
 1326              		.align	1
 1327              		.global	Chip_SSP_SetMaster
 1328              		.code	16
 1329              		.thumb_func
 1330              		.type	Chip_SSP_SetMaster, %function
 1331              	Chip_SSP_SetMaster:
 1332              	.LFB213:
 445:../../lpc11cx4-library/lpc_chip_11cxx_lib/src/ssp_11xx.c **** 
 446:../../lpc11cx4-library/lpc_chip_11cxx_lib/src/ssp_11xx.c **** /* Set the SSP operating modes, master or slave */
 447:../../lpc11cx4-library/lpc_chip_11cxx_lib/src/ssp_11xx.c **** void Chip_SSP_SetMaster(LPC_SSP_T *pSSP, bool master)
 448:../../lpc11cx4-library/lpc_chip_11cxx_lib/src/ssp_11xx.c **** {
 1333              		.loc 1 448 0
 1334              		.cfi_startproc
 1335              	.LVL136:
 1336 0000 0422     		mov	r2, #4	@ tmp121,
 1337              	.LBB338:
 1338              	.LBB339:
 378:../../lpc11cx4-library/lpc_chip_11cxx_lib/inc/ssp_11xx.h **** }
 379:../../lpc11cx4-library/lpc_chip_11cxx_lib/inc/ssp_11xx.h **** 
 380:../../lpc11cx4-library/lpc_chip_11cxx_lib/inc/ssp_11xx.h **** /**
 381:../../lpc11cx4-library/lpc_chip_11cxx_lib/inc/ssp_11xx.h ****  * @brief	Set up output clocks per bit for SSP bus
 382:../../lpc11cx4-library/lpc_chip_11cxx_lib/inc/ssp_11xx.h ****  * @param	pSSP		: The base of SSP peripheral on the chip
 383:../../lpc11cx4-library/lpc_chip_11cxx_lib/inc/ssp_11xx.h ****  * @param	clk_rate	fs: The number of prescaler-output clocks per bit on the bus, minus one
 384:../../lpc11cx4-library/lpc_chip_11cxx_lib/inc/ssp_11xx.h ****  * @param	prescale	: The factor by which the Prescaler divides the SSP peripheral clock PCLK
 385:../../lpc11cx4-library/lpc_chip_11cxx_lib/inc/ssp_11xx.h ****  * @return	 Nothing
 386:../../lpc11cx4-library/lpc_chip_11cxx_lib/inc/ssp_11xx.h ****  * @note	The bit frequency is PCLK / (prescale x[clk_rate+1])
 387:../../lpc11cx4-library/lpc_chip_11cxx_lib/inc/ssp_11xx.h ****  */
 388:../../lpc11cx4-library/lpc_chip_11cxx_lib/inc/ssp_11xx.h **** void Chip_SSP_SetClockRate(LPC_SSP_T *pSSP, uint32_t clk_rate, uint32_t prescale);
 389:../../lpc11cx4-library/lpc_chip_11cxx_lib/inc/ssp_11xx.h **** 
 390:../../lpc11cx4-library/lpc_chip_11cxx_lib/inc/ssp_11xx.h **** /**
 391:../../lpc11cx4-library/lpc_chip_11cxx_lib/inc/ssp_11xx.h ****  * @brief	Set up the SSP frame format
 392:../../lpc11cx4-library/lpc_chip_11cxx_lib/inc/ssp_11xx.h ****  * @param	pSSP		: The base of SSP peripheral on the chip
 393:../../lpc11cx4-library/lpc_chip_11cxx_lib/inc/ssp_11xx.h ****  * @param	bits		: The number of bits transferred in each frame, should be SSP_BITS_4 to SSP_BITS_16
 394:../../lpc11cx4-library/lpc_chip_11cxx_lib/inc/ssp_11xx.h ****  * @param	frameFormat	: Frame format, should be :
 395:../../lpc11cx4-library/lpc_chip_11cxx_lib/inc/ssp_11xx.h ****  *							- SSP_FRAMEFORMAT_SPI
 396:../../lpc11cx4-library/lpc_chip_11cxx_lib/inc/ssp_11xx.h ****  *							- SSP_FRAME_FORMAT_TI
 397:../../lpc11cx4-library/lpc_chip_11cxx_lib/inc/ssp_11xx.h ****  *							- SSP_FRAMEFORMAT_MICROWIRE
 398:../../lpc11cx4-library/lpc_chip_11cxx_lib/inc/ssp_11xx.h ****  * @param	clockMode	: Select Clock polarity and Clock phase, should be :
 399:../../lpc11cx4-library/lpc_chip_11cxx_lib/inc/ssp_11xx.h ****  *							- SSP_CLOCK_CPHA0_CPOL0
 400:../../lpc11cx4-library/lpc_chip_11cxx_lib/inc/ssp_11xx.h ****  *							- SSP_CLOCK_CPHA0_CPOL1
 401:../../lpc11cx4-library/lpc_chip_11cxx_lib/inc/ssp_11xx.h ****  *							- SSP_CLOCK_CPHA1_CPOL0
 402:../../lpc11cx4-library/lpc_chip_11cxx_lib/inc/ssp_11xx.h ****  *							- SSP_CLOCK_CPHA1_CPOL1
 403:../../lpc11cx4-library/lpc_chip_11cxx_lib/inc/ssp_11xx.h ****  * @return	 Nothing
 404:../../lpc11cx4-library/lpc_chip_11cxx_lib/inc/ssp_11xx.h ****  * @note	Note: The clockFormat is only used in SPI mode
 405:../../lpc11cx4-library/lpc_chip_11cxx_lib/inc/ssp_11xx.h ****  */
 406:../../lpc11cx4-library/lpc_chip_11cxx_lib/inc/ssp_11xx.h **** STATIC INLINE void Chip_SSP_SetFormat(LPC_SSP_T *pSSP, uint32_t bits, uint32_t frameFormat, uint32_
 407:../../lpc11cx4-library/lpc_chip_11cxx_lib/inc/ssp_11xx.h **** {
 408:../../lpc11cx4-library/lpc_chip_11cxx_lib/inc/ssp_11xx.h **** 	pSSP->CR0 = (pSSP->CR0 & ~0xFF) | bits | frameFormat | clockMode;
 409:../../lpc11cx4-library/lpc_chip_11cxx_lib/inc/ssp_11xx.h **** }
 410:../../lpc11cx4-library/lpc_chip_11cxx_lib/inc/ssp_11xx.h **** 
 411:../../lpc11cx4-library/lpc_chip_11cxx_lib/inc/ssp_11xx.h **** /**
 412:../../lpc11cx4-library/lpc_chip_11cxx_lib/inc/ssp_11xx.h ****  * @brief	Set the SSP working as master or slave mode
ARM GAS  /tmp/ccFRKuha.s 			page 41


 413:../../lpc11cx4-library/lpc_chip_11cxx_lib/inc/ssp_11xx.h ****  * @param	pSSP	: The base of SSP peripheral on the chip
 414:../../lpc11cx4-library/lpc_chip_11cxx_lib/inc/ssp_11xx.h ****  * @param	mode	: Operating mode, should be
 415:../../lpc11cx4-library/lpc_chip_11cxx_lib/inc/ssp_11xx.h ****  *						- SSP_MODE_MASTER
 416:../../lpc11cx4-library/lpc_chip_11cxx_lib/inc/ssp_11xx.h ****  *						- SSP_MODE_SLAVE
 417:../../lpc11cx4-library/lpc_chip_11cxx_lib/inc/ssp_11xx.h ****  * @return	 Nothing
 418:../../lpc11cx4-library/lpc_chip_11cxx_lib/inc/ssp_11xx.h ****  */
 419:../../lpc11cx4-library/lpc_chip_11cxx_lib/inc/ssp_11xx.h **** STATIC INLINE void Chip_SSP_Set_Mode(LPC_SSP_T *pSSP, uint32_t mode)
 420:../../lpc11cx4-library/lpc_chip_11cxx_lib/inc/ssp_11xx.h **** {
 421:../../lpc11cx4-library/lpc_chip_11cxx_lib/inc/ssp_11xx.h **** 	pSSP->CR1 = (pSSP->CR1 & ~(1 << 2)) | mode;
 1339              		.loc 2 421 0
 1340 0002 4368     		ldr	r3, [r0, #4]	@ D.6835,
 1341 0004 9343     		bic	r3, r2	@ D.6835, tmp121
 1342              	.LBE339:
 1343              	.LBE338:
 449:../../lpc11cx4-library/lpc_chip_11cxx_lib/src/ssp_11xx.c **** 	if (master) {
 1344              		.loc 1 449 0
 1345 0006 0029     		cmp	r1, #0	@ master,
 1346 0008 00D1     		bne	.L193	@,
 1347              	.LVL137:
 1348              	.LBB340:
 1349              	.LBB341:
 1350              		.loc 2 421 0
 1351 000a 1343     		orr	r3, r2	@ D.6835, tmp121
 1352              	.LVL138:
 1353              	.L193:
 1354 000c 4360     		str	r3, [r0, #4]	@ D.6835,
 1355              	.LBE341:
 1356              	.LBE340:
 450:../../lpc11cx4-library/lpc_chip_11cxx_lib/src/ssp_11xx.c **** 		Chip_SSP_Set_Mode(pSSP, SSP_MODE_MASTER);
 451:../../lpc11cx4-library/lpc_chip_11cxx_lib/src/ssp_11xx.c **** 	}
 452:../../lpc11cx4-library/lpc_chip_11cxx_lib/src/ssp_11xx.c **** 	else {
 453:../../lpc11cx4-library/lpc_chip_11cxx_lib/src/ssp_11xx.c **** 		Chip_SSP_Set_Mode(pSSP, SSP_MODE_SLAVE);
 454:../../lpc11cx4-library/lpc_chip_11cxx_lib/src/ssp_11xx.c **** 	}
 455:../../lpc11cx4-library/lpc_chip_11cxx_lib/src/ssp_11xx.c **** }
 1357              		.loc 1 455 0
 1358              		@ sp needed	@
 1359 000e 7047     		bx	lr
 1360              		.cfi_endproc
 1361              	.LFE213:
 1362              		.size	Chip_SSP_SetMaster, .-Chip_SSP_SetMaster
 1363              		.global	__aeabi_uidiv
 1364              		.section	.text.Chip_SSP_SetBitRate,"ax",%progbits
 1365              		.align	1
 1366              		.global	Chip_SSP_SetBitRate
 1367              		.code	16
 1368              		.thumb_func
 1369              		.type	Chip_SSP_SetBitRate, %function
 1370              	Chip_SSP_SetBitRate:
 1371              	.LFB214:
 456:../../lpc11cx4-library/lpc_chip_11cxx_lib/src/ssp_11xx.c **** 
 457:../../lpc11cx4-library/lpc_chip_11cxx_lib/src/ssp_11xx.c **** /* Set the clock frequency for SSP interface */
 458:../../lpc11cx4-library/lpc_chip_11cxx_lib/src/ssp_11xx.c **** void Chip_SSP_SetBitRate(LPC_SSP_T *pSSP, uint32_t bitRate)
 459:../../lpc11cx4-library/lpc_chip_11cxx_lib/src/ssp_11xx.c **** {
 1372              		.loc 1 459 0
 1373              		.cfi_startproc
 1374              	.LVL139:
 1375 0000 F7B5     		push	{r0, r1, r2, r4, r5, r6, r7, lr}	@
ARM GAS  /tmp/ccFRKuha.s 			page 42


 1376              		.cfi_def_cfa_offset 32
 1377              		.cfi_offset 0, -32
 1378              		.cfi_offset 1, -28
 1379              		.cfi_offset 2, -24
 1380              		.cfi_offset 4, -20
 1381              		.cfi_offset 5, -16
 1382              		.cfi_offset 6, -12
 1383              		.cfi_offset 7, -8
 1384              		.cfi_offset 14, -4
 1385              		.loc 1 459 0
 1386 0002 061C     		mov	r6, r0	@ pSSP, pSSP
 1387              	.LVL140:
 1388 0004 0191     		str	r1, [sp, #4]	@ bitRate, %sfp
 1389              	.LBB348:
 1390              	.LBB349:
 152:../../lpc11cx4-library/lpc_chip_11cxx_lib/src/ssp_11xx.c **** 
 1391              		.loc 1 152 0
 1392 0006 FFF7FEFF 		bl	Chip_Clock_GetMainClockRate	@
 1393              	.LVL141:
 154:../../lpc11cx4-library/lpc_chip_11cxx_lib/src/ssp_11xx.c **** 		sspCLK /= Chip_Clock_GetSSP0ClockDiv();
 1394              		.loc 1 154 0
 1395 000a 134B     		ldr	r3, .L204	@ tmp121,
 1396 000c 9E42     		cmp	r6, r3	@ pSSP, tmp121
 1397 000e 01D1     		bne	.L195	@,
 1398              	.LBB350:
 1399              	.LBB351:
 1400              		.file 3 "../../lpc11cx4-library/lpc_chip_11cxx_lib/inc/clock_11xx.h"
   1:../../lpc11cx4-library/lpc_chip_11cxx_lib/inc/clock_11xx.h **** /*
   2:../../lpc11cx4-library/lpc_chip_11cxx_lib/inc/clock_11xx.h ****  * @brief LPC11XX Clock control functions
   3:../../lpc11cx4-library/lpc_chip_11cxx_lib/inc/clock_11xx.h ****  *
   4:../../lpc11cx4-library/lpc_chip_11cxx_lib/inc/clock_11xx.h ****  * @note
   5:../../lpc11cx4-library/lpc_chip_11cxx_lib/inc/clock_11xx.h ****  * Copyright(C) NXP Semiconductors, 2012
   6:../../lpc11cx4-library/lpc_chip_11cxx_lib/inc/clock_11xx.h ****  * All rights reserved.
   7:../../lpc11cx4-library/lpc_chip_11cxx_lib/inc/clock_11xx.h ****  *
   8:../../lpc11cx4-library/lpc_chip_11cxx_lib/inc/clock_11xx.h ****  * @par
   9:../../lpc11cx4-library/lpc_chip_11cxx_lib/inc/clock_11xx.h ****  * Software that is described herein is for illustrative purposes only
  10:../../lpc11cx4-library/lpc_chip_11cxx_lib/inc/clock_11xx.h ****  * which provides customers with programming information regarding the
  11:../../lpc11cx4-library/lpc_chip_11cxx_lib/inc/clock_11xx.h ****  * LPC products.  This software is supplied "AS IS" without any warranties of
  12:../../lpc11cx4-library/lpc_chip_11cxx_lib/inc/clock_11xx.h ****  * any kind, and NXP Semiconductors and its licensor disclaim any and
  13:../../lpc11cx4-library/lpc_chip_11cxx_lib/inc/clock_11xx.h ****  * all warranties, express or implied, including all implied warranties of
  14:../../lpc11cx4-library/lpc_chip_11cxx_lib/inc/clock_11xx.h ****  * merchantability, fitness for a particular purpose and non-infringement of
  15:../../lpc11cx4-library/lpc_chip_11cxx_lib/inc/clock_11xx.h ****  * intellectual property rights.  NXP Semiconductors assumes no responsibility
  16:../../lpc11cx4-library/lpc_chip_11cxx_lib/inc/clock_11xx.h ****  * or liability for the use of the software, conveys no license or rights under any
  17:../../lpc11cx4-library/lpc_chip_11cxx_lib/inc/clock_11xx.h ****  * patent, copyright, mask work right, or any other intellectual property rights in
  18:../../lpc11cx4-library/lpc_chip_11cxx_lib/inc/clock_11xx.h ****  * or to any products. NXP Semiconductors reserves the right to make changes
  19:../../lpc11cx4-library/lpc_chip_11cxx_lib/inc/clock_11xx.h ****  * in the software without notification. NXP Semiconductors also makes no
  20:../../lpc11cx4-library/lpc_chip_11cxx_lib/inc/clock_11xx.h ****  * representation or warranty that such application will be suitable for the
  21:../../lpc11cx4-library/lpc_chip_11cxx_lib/inc/clock_11xx.h ****  * specified use without further testing or modification.
  22:../../lpc11cx4-library/lpc_chip_11cxx_lib/inc/clock_11xx.h ****  *
  23:../../lpc11cx4-library/lpc_chip_11cxx_lib/inc/clock_11xx.h ****  * @par
  24:../../lpc11cx4-library/lpc_chip_11cxx_lib/inc/clock_11xx.h ****  * Permission to use, copy, modify, and distribute this software and its
  25:../../lpc11cx4-library/lpc_chip_11cxx_lib/inc/clock_11xx.h ****  * documentation is hereby granted, under NXP Semiconductors' and its
  26:../../lpc11cx4-library/lpc_chip_11cxx_lib/inc/clock_11xx.h ****  * licensor's relevant copyrights in the software, without fee, provided that it
  27:../../lpc11cx4-library/lpc_chip_11cxx_lib/inc/clock_11xx.h ****  * is used in conjunction with NXP Semiconductors microcontrollers.  This
  28:../../lpc11cx4-library/lpc_chip_11cxx_lib/inc/clock_11xx.h ****  * copyright, permission, and disclaimer notice must appear in all copies of
  29:../../lpc11cx4-library/lpc_chip_11cxx_lib/inc/clock_11xx.h ****  * this code.
  30:../../lpc11cx4-library/lpc_chip_11cxx_lib/inc/clock_11xx.h ****  */
ARM GAS  /tmp/ccFRKuha.s 			page 43


  31:../../lpc11cx4-library/lpc_chip_11cxx_lib/inc/clock_11xx.h **** 
  32:../../lpc11cx4-library/lpc_chip_11cxx_lib/inc/clock_11xx.h **** #ifndef __CLOCK_11XX_H_
  33:../../lpc11cx4-library/lpc_chip_11cxx_lib/inc/clock_11xx.h **** #define __CLOCK_11XX_H_
  34:../../lpc11cx4-library/lpc_chip_11cxx_lib/inc/clock_11xx.h **** 
  35:../../lpc11cx4-library/lpc_chip_11cxx_lib/inc/clock_11xx.h **** #ifdef __cplusplus
  36:../../lpc11cx4-library/lpc_chip_11cxx_lib/inc/clock_11xx.h **** extern "C" {
  37:../../lpc11cx4-library/lpc_chip_11cxx_lib/inc/clock_11xx.h **** #endif
  38:../../lpc11cx4-library/lpc_chip_11cxx_lib/inc/clock_11xx.h **** 
  39:../../lpc11cx4-library/lpc_chip_11cxx_lib/inc/clock_11xx.h **** /** @defgroup CLOCK_11XX CHIP: LPC11xx Clock Control block driver
  40:../../lpc11cx4-library/lpc_chip_11cxx_lib/inc/clock_11xx.h ****  * @ingroup CHIP_11XX_Drivers
  41:../../lpc11cx4-library/lpc_chip_11cxx_lib/inc/clock_11xx.h ****  * @{
  42:../../lpc11cx4-library/lpc_chip_11cxx_lib/inc/clock_11xx.h ****  */
  43:../../lpc11cx4-library/lpc_chip_11cxx_lib/inc/clock_11xx.h **** 
  44:../../lpc11cx4-library/lpc_chip_11cxx_lib/inc/clock_11xx.h **** /** Internal oscillator frequency */
  45:../../lpc11cx4-library/lpc_chip_11cxx_lib/inc/clock_11xx.h **** #define SYSCTL_IRC_FREQ (12000000)
  46:../../lpc11cx4-library/lpc_chip_11cxx_lib/inc/clock_11xx.h **** 
  47:../../lpc11cx4-library/lpc_chip_11cxx_lib/inc/clock_11xx.h **** /**
  48:../../lpc11cx4-library/lpc_chip_11cxx_lib/inc/clock_11xx.h ****  * @brief	Set System PLL divider values
  49:../../lpc11cx4-library/lpc_chip_11cxx_lib/inc/clock_11xx.h ****  * @param	msel    : PLL feedback divider value. M = msel + 1.
  50:../../lpc11cx4-library/lpc_chip_11cxx_lib/inc/clock_11xx.h ****  * @param	psel    : PLL post divider value. P =  (1<<psel).
  51:../../lpc11cx4-library/lpc_chip_11cxx_lib/inc/clock_11xx.h ****  * @return	Nothing
  52:../../lpc11cx4-library/lpc_chip_11cxx_lib/inc/clock_11xx.h ****  * @note	See the user manual for how to setup the PLL.
  53:../../lpc11cx4-library/lpc_chip_11cxx_lib/inc/clock_11xx.h ****  */
  54:../../lpc11cx4-library/lpc_chip_11cxx_lib/inc/clock_11xx.h **** STATIC INLINE void Chip_Clock_SetupSystemPLL(uint8_t msel, uint8_t psel)
  55:../../lpc11cx4-library/lpc_chip_11cxx_lib/inc/clock_11xx.h **** {
  56:../../lpc11cx4-library/lpc_chip_11cxx_lib/inc/clock_11xx.h **** 	LPC_SYSCTL->SYSPLLCTRL = (msel & 0x1F) | ((psel & 0x3) << 5);
  57:../../lpc11cx4-library/lpc_chip_11cxx_lib/inc/clock_11xx.h **** }
  58:../../lpc11cx4-library/lpc_chip_11cxx_lib/inc/clock_11xx.h **** 
  59:../../lpc11cx4-library/lpc_chip_11cxx_lib/inc/clock_11xx.h **** /**
  60:../../lpc11cx4-library/lpc_chip_11cxx_lib/inc/clock_11xx.h ****  * @brief	Read System PLL lock status
  61:../../lpc11cx4-library/lpc_chip_11cxx_lib/inc/clock_11xx.h ****  * @return	true of the PLL is locked. false if not locked
  62:../../lpc11cx4-library/lpc_chip_11cxx_lib/inc/clock_11xx.h ****  */
  63:../../lpc11cx4-library/lpc_chip_11cxx_lib/inc/clock_11xx.h **** STATIC INLINE bool Chip_Clock_IsSystemPLLLocked(void)
  64:../../lpc11cx4-library/lpc_chip_11cxx_lib/inc/clock_11xx.h **** {
  65:../../lpc11cx4-library/lpc_chip_11cxx_lib/inc/clock_11xx.h **** 	return (bool) ((LPC_SYSCTL->SYSPLLSTAT & 1) != 0);
  66:../../lpc11cx4-library/lpc_chip_11cxx_lib/inc/clock_11xx.h **** }
  67:../../lpc11cx4-library/lpc_chip_11cxx_lib/inc/clock_11xx.h **** 
  68:../../lpc11cx4-library/lpc_chip_11cxx_lib/inc/clock_11xx.h **** /**
  69:../../lpc11cx4-library/lpc_chip_11cxx_lib/inc/clock_11xx.h ****  * Clock sources for system and USB PLLs
  70:../../lpc11cx4-library/lpc_chip_11cxx_lib/inc/clock_11xx.h ****  */
  71:../../lpc11cx4-library/lpc_chip_11cxx_lib/inc/clock_11xx.h **** typedef enum CHIP_SYSCTL_PLLCLKSRC {
  72:../../lpc11cx4-library/lpc_chip_11cxx_lib/inc/clock_11xx.h **** 	SYSCTL_PLLCLKSRC_IRC = 0,		/*!< Internal oscillator in */
  73:../../lpc11cx4-library/lpc_chip_11cxx_lib/inc/clock_11xx.h **** 	SYSCTL_PLLCLKSRC_MAINOSC,		/*!< Crystal (main) oscillator in */
  74:../../lpc11cx4-library/lpc_chip_11cxx_lib/inc/clock_11xx.h **** #if defined(CHIP_LPC11AXX)
  75:../../lpc11cx4-library/lpc_chip_11cxx_lib/inc/clock_11xx.h **** 	SYSCTL_PLLCLKSRC_EXT_CLKIN,	/*!< External clock in (11Axx only) */
  76:../../lpc11cx4-library/lpc_chip_11cxx_lib/inc/clock_11xx.h **** #else
  77:../../lpc11cx4-library/lpc_chip_11cxx_lib/inc/clock_11xx.h **** 	SYSCTL_PLLCLKSRC_RESERVED1,	/*!< Reserved */
  78:../../lpc11cx4-library/lpc_chip_11cxx_lib/inc/clock_11xx.h **** #endif
  79:../../lpc11cx4-library/lpc_chip_11cxx_lib/inc/clock_11xx.h **** 	SYSCTL_PLLCLKSRC_RESERVED2,	/*!< Reserved */
  80:../../lpc11cx4-library/lpc_chip_11cxx_lib/inc/clock_11xx.h **** } CHIP_SYSCTL_PLLCLKSRC_T;
  81:../../lpc11cx4-library/lpc_chip_11cxx_lib/inc/clock_11xx.h **** 
  82:../../lpc11cx4-library/lpc_chip_11cxx_lib/inc/clock_11xx.h **** /**
  83:../../lpc11cx4-library/lpc_chip_11cxx_lib/inc/clock_11xx.h ****  * @brief	Set System PLL clock source
  84:../../lpc11cx4-library/lpc_chip_11cxx_lib/inc/clock_11xx.h ****  * @param	src	: Clock source for system PLL
  85:../../lpc11cx4-library/lpc_chip_11cxx_lib/inc/clock_11xx.h ****  * @return	Nothing
  86:../../lpc11cx4-library/lpc_chip_11cxx_lib/inc/clock_11xx.h ****  * @note	This function will also toggle the clock source update register
  87:../../lpc11cx4-library/lpc_chip_11cxx_lib/inc/clock_11xx.h ****  * to update the clock source.
ARM GAS  /tmp/ccFRKuha.s 			page 44


  88:../../lpc11cx4-library/lpc_chip_11cxx_lib/inc/clock_11xx.h ****  */
  89:../../lpc11cx4-library/lpc_chip_11cxx_lib/inc/clock_11xx.h **** void Chip_Clock_SetSystemPLLSource(CHIP_SYSCTL_PLLCLKSRC_T src);
  90:../../lpc11cx4-library/lpc_chip_11cxx_lib/inc/clock_11xx.h **** 
  91:../../lpc11cx4-library/lpc_chip_11cxx_lib/inc/clock_11xx.h **** #if defined(CHIP_LPC11UXX)
  92:../../lpc11cx4-library/lpc_chip_11cxx_lib/inc/clock_11xx.h **** /**
  93:../../lpc11cx4-library/lpc_chip_11cxx_lib/inc/clock_11xx.h ****  * @brief	Set USB PLL divider values
  94:../../lpc11cx4-library/lpc_chip_11cxx_lib/inc/clock_11xx.h ****  * @param	msel    : PLL feedback divider value. M = msel + 1.
  95:../../lpc11cx4-library/lpc_chip_11cxx_lib/inc/clock_11xx.h ****  * @param	psel    : PLL post divider value. P = (1<<psel).
  96:../../lpc11cx4-library/lpc_chip_11cxx_lib/inc/clock_11xx.h ****  * @return	Nothing
  97:../../lpc11cx4-library/lpc_chip_11cxx_lib/inc/clock_11xx.h ****  * @note	See the user manual for how to setup the PLL.
  98:../../lpc11cx4-library/lpc_chip_11cxx_lib/inc/clock_11xx.h ****  */
  99:../../lpc11cx4-library/lpc_chip_11cxx_lib/inc/clock_11xx.h **** STATIC INLINE void Chip_Clock_SetupUSBPLL(uint8_t msel, uint8_t psel)
 100:../../lpc11cx4-library/lpc_chip_11cxx_lib/inc/clock_11xx.h **** {
 101:../../lpc11cx4-library/lpc_chip_11cxx_lib/inc/clock_11xx.h **** 	LPC_SYSCTL->USBPLLCTRL = (msel & 0x1F) | ((psel & 0x3) << 5);
 102:../../lpc11cx4-library/lpc_chip_11cxx_lib/inc/clock_11xx.h **** }
 103:../../lpc11cx4-library/lpc_chip_11cxx_lib/inc/clock_11xx.h **** 
 104:../../lpc11cx4-library/lpc_chip_11cxx_lib/inc/clock_11xx.h **** /**
 105:../../lpc11cx4-library/lpc_chip_11cxx_lib/inc/clock_11xx.h ****  * @brief	Read USB PLL lock status
 106:../../lpc11cx4-library/lpc_chip_11cxx_lib/inc/clock_11xx.h ****  * @return	true of the PLL is locked. false if not locked
 107:../../lpc11cx4-library/lpc_chip_11cxx_lib/inc/clock_11xx.h ****  */
 108:../../lpc11cx4-library/lpc_chip_11cxx_lib/inc/clock_11xx.h **** STATIC INLINE bool Chip_Clock_IsUSBPLLLocked(void)
 109:../../lpc11cx4-library/lpc_chip_11cxx_lib/inc/clock_11xx.h **** {
 110:../../lpc11cx4-library/lpc_chip_11cxx_lib/inc/clock_11xx.h **** 	return (bool) ((LPC_SYSCTL->USBPLLSTAT & 1) != 0);
 111:../../lpc11cx4-library/lpc_chip_11cxx_lib/inc/clock_11xx.h **** }
 112:../../lpc11cx4-library/lpc_chip_11cxx_lib/inc/clock_11xx.h **** 
 113:../../lpc11cx4-library/lpc_chip_11cxx_lib/inc/clock_11xx.h **** /**
 114:../../lpc11cx4-library/lpc_chip_11cxx_lib/inc/clock_11xx.h ****  * @brief	Set USB PLL clock source
 115:../../lpc11cx4-library/lpc_chip_11cxx_lib/inc/clock_11xx.h ****  * @param	src	: Clock source for USB PLL
 116:../../lpc11cx4-library/lpc_chip_11cxx_lib/inc/clock_11xx.h ****  * @return	Nothing
 117:../../lpc11cx4-library/lpc_chip_11cxx_lib/inc/clock_11xx.h ****  * @note	This function will also toggle the clock source update register
 118:../../lpc11cx4-library/lpc_chip_11cxx_lib/inc/clock_11xx.h ****  * to update the clock source.
 119:../../lpc11cx4-library/lpc_chip_11cxx_lib/inc/clock_11xx.h ****  */
 120:../../lpc11cx4-library/lpc_chip_11cxx_lib/inc/clock_11xx.h **** void Chip_Clock_SetUSBPLLSource(CHIP_SYSCTL_PLLCLKSRC_T src);
 121:../../lpc11cx4-library/lpc_chip_11cxx_lib/inc/clock_11xx.h **** 
 122:../../lpc11cx4-library/lpc_chip_11cxx_lib/inc/clock_11xx.h **** #endif /*defined(CHIP_LPC11UXX)*/
 123:../../lpc11cx4-library/lpc_chip_11cxx_lib/inc/clock_11xx.h **** 
 124:../../lpc11cx4-library/lpc_chip_11cxx_lib/inc/clock_11xx.h **** /**
 125:../../lpc11cx4-library/lpc_chip_11cxx_lib/inc/clock_11xx.h ****  * @brief	Bypass System Oscillator and set oscillator frequency range
 126:../../lpc11cx4-library/lpc_chip_11cxx_lib/inc/clock_11xx.h ****  * @param	bypass	: Flag to bypass oscillator
 127:../../lpc11cx4-library/lpc_chip_11cxx_lib/inc/clock_11xx.h ****  * @param	highfr	: Flag to set oscillator range from 15-25 MHz
 128:../../lpc11cx4-library/lpc_chip_11cxx_lib/inc/clock_11xx.h ****  * @return	Nothing
 129:../../lpc11cx4-library/lpc_chip_11cxx_lib/inc/clock_11xx.h ****  * @note	Sets the PLL input to bypass the oscillator. This would be
 130:../../lpc11cx4-library/lpc_chip_11cxx_lib/inc/clock_11xx.h ****  * used if an external clock that is not an oscillator is attached
 131:../../lpc11cx4-library/lpc_chip_11cxx_lib/inc/clock_11xx.h ****  * to the XTALIN pin.
 132:../../lpc11cx4-library/lpc_chip_11cxx_lib/inc/clock_11xx.h ****  */
 133:../../lpc11cx4-library/lpc_chip_11cxx_lib/inc/clock_11xx.h **** void Chip_Clock_SetPLLBypass(bool bypass, bool highfr);
 134:../../lpc11cx4-library/lpc_chip_11cxx_lib/inc/clock_11xx.h **** 
 135:../../lpc11cx4-library/lpc_chip_11cxx_lib/inc/clock_11xx.h **** /**
 136:../../lpc11cx4-library/lpc_chip_11cxx_lib/inc/clock_11xx.h ****  * Watchdog and low frequency oscillator frequencies plus or minus 40%
 137:../../lpc11cx4-library/lpc_chip_11cxx_lib/inc/clock_11xx.h ****  */
 138:../../lpc11cx4-library/lpc_chip_11cxx_lib/inc/clock_11xx.h **** typedef enum CHIP_WDTLFO_OSC {
 139:../../lpc11cx4-library/lpc_chip_11cxx_lib/inc/clock_11xx.h **** 	WDTLFO_OSC_ILLEGAL,
 140:../../lpc11cx4-library/lpc_chip_11cxx_lib/inc/clock_11xx.h **** 	WDTLFO_OSC_0_60,	/*!< 0.6 MHz watchdog/LFO rate */
 141:../../lpc11cx4-library/lpc_chip_11cxx_lib/inc/clock_11xx.h **** 	WDTLFO_OSC_1_05,	/*!< 1.05 MHz watchdog/LFO rate */
 142:../../lpc11cx4-library/lpc_chip_11cxx_lib/inc/clock_11xx.h **** 	WDTLFO_OSC_1_40,	/*!< 1.4 MHz watchdog/LFO rate */
 143:../../lpc11cx4-library/lpc_chip_11cxx_lib/inc/clock_11xx.h **** 	WDTLFO_OSC_1_75,	/*!< 1.75 MHz watchdog/LFO rate */
 144:../../lpc11cx4-library/lpc_chip_11cxx_lib/inc/clock_11xx.h **** 	WDTLFO_OSC_2_10,	/*!< 2.1 MHz watchdog/LFO rate */
ARM GAS  /tmp/ccFRKuha.s 			page 45


 145:../../lpc11cx4-library/lpc_chip_11cxx_lib/inc/clock_11xx.h **** 	WDTLFO_OSC_2_40,	/*!< 2.4 MHz watchdog/LFO rate */
 146:../../lpc11cx4-library/lpc_chip_11cxx_lib/inc/clock_11xx.h **** 	WDTLFO_OSC_2_70,	/*!< 2.7 MHz watchdog/LFO rate */
 147:../../lpc11cx4-library/lpc_chip_11cxx_lib/inc/clock_11xx.h **** 	WDTLFO_OSC_3_00,	/*!< 3.0 MHz watchdog/LFO rate */
 148:../../lpc11cx4-library/lpc_chip_11cxx_lib/inc/clock_11xx.h **** 	WDTLFO_OSC_3_25,	/*!< 3.25 MHz watchdog/LFO rate */
 149:../../lpc11cx4-library/lpc_chip_11cxx_lib/inc/clock_11xx.h **** 	WDTLFO_OSC_3_50,	/*!< 3.5 MHz watchdog/LFO rate */
 150:../../lpc11cx4-library/lpc_chip_11cxx_lib/inc/clock_11xx.h **** 	WDTLFO_OSC_3_75,	/*!< 3.75 MHz watchdog/LFO rate */
 151:../../lpc11cx4-library/lpc_chip_11cxx_lib/inc/clock_11xx.h **** 	WDTLFO_OSC_4_00,	/*!< 4.0 MHz watchdog/LFO rate */
 152:../../lpc11cx4-library/lpc_chip_11cxx_lib/inc/clock_11xx.h **** 	WDTLFO_OSC_4_20,	/*!< 4.2 MHz watchdog/LFO rate */
 153:../../lpc11cx4-library/lpc_chip_11cxx_lib/inc/clock_11xx.h **** 	WDTLFO_OSC_4_40,	/*!< 4.4 MHz watchdog/LFO rate */
 154:../../lpc11cx4-library/lpc_chip_11cxx_lib/inc/clock_11xx.h **** 	WDTLFO_OSC_4_60		/*!< 4.6 MHz watchdog/LFO rate */
 155:../../lpc11cx4-library/lpc_chip_11cxx_lib/inc/clock_11xx.h **** } CHIP_WDTLFO_OSC_T;
 156:../../lpc11cx4-library/lpc_chip_11cxx_lib/inc/clock_11xx.h **** 
 157:../../lpc11cx4-library/lpc_chip_11cxx_lib/inc/clock_11xx.h **** /**
 158:../../lpc11cx4-library/lpc_chip_11cxx_lib/inc/clock_11xx.h ****  * @brief	Setup Watchdog oscillator rate and divider
 159:../../lpc11cx4-library/lpc_chip_11cxx_lib/inc/clock_11xx.h ****  * @param	wdtclk	: Selected watchdog clock rate
 160:../../lpc11cx4-library/lpc_chip_11cxx_lib/inc/clock_11xx.h ****  * @param	div		: Watchdog divider value, even value between 2 and 64
 161:../../lpc11cx4-library/lpc_chip_11cxx_lib/inc/clock_11xx.h ****  * @return	Nothing
 162:../../lpc11cx4-library/lpc_chip_11cxx_lib/inc/clock_11xx.h ****  * @note	Watchdog rate = selected rate divided by divider rate
 163:../../lpc11cx4-library/lpc_chip_11cxx_lib/inc/clock_11xx.h ****  */
 164:../../lpc11cx4-library/lpc_chip_11cxx_lib/inc/clock_11xx.h **** STATIC INLINE void Chip_Clock_SetWDTOSC(CHIP_WDTLFO_OSC_T wdtclk, uint8_t div)
 165:../../lpc11cx4-library/lpc_chip_11cxx_lib/inc/clock_11xx.h **** {
 166:../../lpc11cx4-library/lpc_chip_11cxx_lib/inc/clock_11xx.h **** 	LPC_SYSCTL->WDTOSCCTRL  = (((uint32_t) wdtclk) << 5) | ((div >> 1) - 1);
 167:../../lpc11cx4-library/lpc_chip_11cxx_lib/inc/clock_11xx.h **** }
 168:../../lpc11cx4-library/lpc_chip_11cxx_lib/inc/clock_11xx.h **** 
 169:../../lpc11cx4-library/lpc_chip_11cxx_lib/inc/clock_11xx.h **** #if defined(CHIP_LPC11AXX)
 170:../../lpc11cx4-library/lpc_chip_11cxx_lib/inc/clock_11xx.h **** /**
 171:../../lpc11cx4-library/lpc_chip_11cxx_lib/inc/clock_11xx.h ****  * @brief	Setup low frequency oscillator rate and divider
 172:../../lpc11cx4-library/lpc_chip_11cxx_lib/inc/clock_11xx.h ****  * @param	lfoclk	: Selected low frequency clock rate
 173:../../lpc11cx4-library/lpc_chip_11cxx_lib/inc/clock_11xx.h ****  * @param	div		: Low frequency divider value, even value between 2 and 64
 174:../../lpc11cx4-library/lpc_chip_11cxx_lib/inc/clock_11xx.h ****  * @return	Nothing
 175:../../lpc11cx4-library/lpc_chip_11cxx_lib/inc/clock_11xx.h ****  * @note	Low frequency oscillator rate = selected rate divided by divider rate
 176:../../lpc11cx4-library/lpc_chip_11cxx_lib/inc/clock_11xx.h ****  */
 177:../../lpc11cx4-library/lpc_chip_11cxx_lib/inc/clock_11xx.h **** STATIC INLINE void Chip_Clock_SetLFOSC(CHIP_WDTLFO_OSC_T lfoclk, uint8_t div)
 178:../../lpc11cx4-library/lpc_chip_11cxx_lib/inc/clock_11xx.h **** {
 179:../../lpc11cx4-library/lpc_chip_11cxx_lib/inc/clock_11xx.h **** 	LPC_SYSCTL->LFOSCCTRL  = (((uint32_t) lfoclk) << 5) | ((div >> 1) - 1);
 180:../../lpc11cx4-library/lpc_chip_11cxx_lib/inc/clock_11xx.h **** }
 181:../../lpc11cx4-library/lpc_chip_11cxx_lib/inc/clock_11xx.h **** 
 182:../../lpc11cx4-library/lpc_chip_11cxx_lib/inc/clock_11xx.h **** #endif /*CHIP_LPC11AXX*/
 183:../../lpc11cx4-library/lpc_chip_11cxx_lib/inc/clock_11xx.h **** 
 184:../../lpc11cx4-library/lpc_chip_11cxx_lib/inc/clock_11xx.h **** /**
 185:../../lpc11cx4-library/lpc_chip_11cxx_lib/inc/clock_11xx.h ****  * Clock sources for main system clock
 186:../../lpc11cx4-library/lpc_chip_11cxx_lib/inc/clock_11xx.h ****  */
 187:../../lpc11cx4-library/lpc_chip_11cxx_lib/inc/clock_11xx.h **** typedef enum CHIP_SYSCTL_MAINCLKSRC {
 188:../../lpc11cx4-library/lpc_chip_11cxx_lib/inc/clock_11xx.h **** 	SYSCTL_MAINCLKSRC_IRC = 0,		/*!< Internal oscillator */
 189:../../lpc11cx4-library/lpc_chip_11cxx_lib/inc/clock_11xx.h **** 	SYSCTL_MAINCLKSRC_PLLIN,		/*!< System PLL input */
 190:../../lpc11cx4-library/lpc_chip_11cxx_lib/inc/clock_11xx.h **** 	SYSCTL_MAINCLKSRC_LFOSC,		/*!< LF oscillator rate (11Axx only) */
 191:../../lpc11cx4-library/lpc_chip_11cxx_lib/inc/clock_11xx.h **** 	SYSCTL_MAINCLKSRC_WDTOSC = SYSCTL_MAINCLKSRC_LFOSC,	/*!< Watchdog oscillator rate */
 192:../../lpc11cx4-library/lpc_chip_11cxx_lib/inc/clock_11xx.h **** 	SYSCTL_MAINCLKSRC_PLLOUT,		/*!< System PLL output */
 193:../../lpc11cx4-library/lpc_chip_11cxx_lib/inc/clock_11xx.h **** } CHIP_SYSCTL_MAINCLKSRC_T;
 194:../../lpc11cx4-library/lpc_chip_11cxx_lib/inc/clock_11xx.h **** 
 195:../../lpc11cx4-library/lpc_chip_11cxx_lib/inc/clock_11xx.h **** /**
 196:../../lpc11cx4-library/lpc_chip_11cxx_lib/inc/clock_11xx.h ****  * @brief	Set main system clock source
 197:../../lpc11cx4-library/lpc_chip_11cxx_lib/inc/clock_11xx.h ****  * @param	src	: Clock source for main system
 198:../../lpc11cx4-library/lpc_chip_11cxx_lib/inc/clock_11xx.h ****  * @return	Nothing
 199:../../lpc11cx4-library/lpc_chip_11cxx_lib/inc/clock_11xx.h ****  * @note	This function will also toggle the clock source update register
 200:../../lpc11cx4-library/lpc_chip_11cxx_lib/inc/clock_11xx.h ****  * to update the clock source.
 201:../../lpc11cx4-library/lpc_chip_11cxx_lib/inc/clock_11xx.h ****  */
ARM GAS  /tmp/ccFRKuha.s 			page 46


 202:../../lpc11cx4-library/lpc_chip_11cxx_lib/inc/clock_11xx.h **** void Chip_Clock_SetMainClockSource(CHIP_SYSCTL_MAINCLKSRC_T src);
 203:../../lpc11cx4-library/lpc_chip_11cxx_lib/inc/clock_11xx.h **** 
 204:../../lpc11cx4-library/lpc_chip_11cxx_lib/inc/clock_11xx.h **** /**
 205:../../lpc11cx4-library/lpc_chip_11cxx_lib/inc/clock_11xx.h ****  * @brief   Returns the main clock source
 206:../../lpc11cx4-library/lpc_chip_11cxx_lib/inc/clock_11xx.h ****  * @return	Which clock is used for the core clock source?
 207:../../lpc11cx4-library/lpc_chip_11cxx_lib/inc/clock_11xx.h ****  */
 208:../../lpc11cx4-library/lpc_chip_11cxx_lib/inc/clock_11xx.h **** STATIC INLINE CHIP_SYSCTL_MAINCLKSRC_T Chip_Clock_GetMainClockSource(void)
 209:../../lpc11cx4-library/lpc_chip_11cxx_lib/inc/clock_11xx.h **** {
 210:../../lpc11cx4-library/lpc_chip_11cxx_lib/inc/clock_11xx.h **** 	return (CHIP_SYSCTL_MAINCLKSRC_T) (LPC_SYSCTL->MAINCLKSEL);
 211:../../lpc11cx4-library/lpc_chip_11cxx_lib/inc/clock_11xx.h **** }
 212:../../lpc11cx4-library/lpc_chip_11cxx_lib/inc/clock_11xx.h **** 
 213:../../lpc11cx4-library/lpc_chip_11cxx_lib/inc/clock_11xx.h **** /**
 214:../../lpc11cx4-library/lpc_chip_11cxx_lib/inc/clock_11xx.h ****  * @brief	Set system clock divider
 215:../../lpc11cx4-library/lpc_chip_11cxx_lib/inc/clock_11xx.h ****  * @param	div	: divider for system clock
 216:../../lpc11cx4-library/lpc_chip_11cxx_lib/inc/clock_11xx.h ****  * @return	Nothing
 217:../../lpc11cx4-library/lpc_chip_11cxx_lib/inc/clock_11xx.h ****  * @note	Use 0 to disable, or a divider value of 1 to 255. The system clock
 218:../../lpc11cx4-library/lpc_chip_11cxx_lib/inc/clock_11xx.h ****  * rate is the main system clock divided by this value.
 219:../../lpc11cx4-library/lpc_chip_11cxx_lib/inc/clock_11xx.h ****  */
 220:../../lpc11cx4-library/lpc_chip_11cxx_lib/inc/clock_11xx.h **** STATIC INLINE void Chip_Clock_SetSysClockDiv(uint32_t div)
 221:../../lpc11cx4-library/lpc_chip_11cxx_lib/inc/clock_11xx.h **** {
 222:../../lpc11cx4-library/lpc_chip_11cxx_lib/inc/clock_11xx.h **** 	LPC_SYSCTL->SYSAHBCLKDIV  = div;
 223:../../lpc11cx4-library/lpc_chip_11cxx_lib/inc/clock_11xx.h **** }
 224:../../lpc11cx4-library/lpc_chip_11cxx_lib/inc/clock_11xx.h **** 
 225:../../lpc11cx4-library/lpc_chip_11cxx_lib/inc/clock_11xx.h **** /**
 226:../../lpc11cx4-library/lpc_chip_11cxx_lib/inc/clock_11xx.h ****  * System and peripheral clocks
 227:../../lpc11cx4-library/lpc_chip_11cxx_lib/inc/clock_11xx.h ****  */
 228:../../lpc11cx4-library/lpc_chip_11cxx_lib/inc/clock_11xx.h **** typedef enum CHIP_SYSCTL_CLOCK {
 229:../../lpc11cx4-library/lpc_chip_11cxx_lib/inc/clock_11xx.h **** 	SYSCTL_CLOCK_SYS = 0,				/*!< 0: System clock */
 230:../../lpc11cx4-library/lpc_chip_11cxx_lib/inc/clock_11xx.h **** 	SYSCTL_CLOCK_ROM,					/*!<1:  ROM clock */
 231:../../lpc11cx4-library/lpc_chip_11cxx_lib/inc/clock_11xx.h **** 	SYSCTL_CLOCK_RAM,					/*!< 2: RAM clock */
 232:../../lpc11cx4-library/lpc_chip_11cxx_lib/inc/clock_11xx.h **** 	SYSCTL_CLOCK_FLASHREG,				/*!< 3: FLASH register interface clock */
 233:../../lpc11cx4-library/lpc_chip_11cxx_lib/inc/clock_11xx.h **** 	SYSCTL_CLOCK_FLASHARRAY,			/*!< 4: FLASH array access clock */
 234:../../lpc11cx4-library/lpc_chip_11cxx_lib/inc/clock_11xx.h **** #if defined(CHIP_LPC110X)
 235:../../lpc11cx4-library/lpc_chip_11cxx_lib/inc/clock_11xx.h **** 	SYSCTL_CLOCK_RESERVED5,				/*!< 5: Reserved */
 236:../../lpc11cx4-library/lpc_chip_11cxx_lib/inc/clock_11xx.h **** #else
 237:../../lpc11cx4-library/lpc_chip_11cxx_lib/inc/clock_11xx.h **** 	SYSCTL_CLOCK_I2C,					/*!< 5: I2C clock, not on LPC110x */
 238:../../lpc11cx4-library/lpc_chip_11cxx_lib/inc/clock_11xx.h **** #endif
 239:../../lpc11cx4-library/lpc_chip_11cxx_lib/inc/clock_11xx.h **** 	SYSCTL_CLOCK_GPIO,					/*!< 6: GPIO clock */
 240:../../lpc11cx4-library/lpc_chip_11cxx_lib/inc/clock_11xx.h **** 	SYSCTL_CLOCK_CT16B0,				/*!< 7: 16-bit Counter/timer 0 clock */
 241:../../lpc11cx4-library/lpc_chip_11cxx_lib/inc/clock_11xx.h **** 	SYSCTL_CLOCK_CT16B1,				/*!< 8: 16-bit Counter/timer 1 clock */
 242:../../lpc11cx4-library/lpc_chip_11cxx_lib/inc/clock_11xx.h **** 	SYSCTL_CLOCK_CT32B0,				/*!< 9: 32-bit Counter/timer 0 clock */
 243:../../lpc11cx4-library/lpc_chip_11cxx_lib/inc/clock_11xx.h **** 	SYSCTL_CLOCK_CT32B1,				/*!< 10: 32-bit Counter/timer 1 clock */
 244:../../lpc11cx4-library/lpc_chip_11cxx_lib/inc/clock_11xx.h **** 	SYSCTL_CLOCK_SSP0,					/*!< 11: SSP0 clock */
 245:../../lpc11cx4-library/lpc_chip_11cxx_lib/inc/clock_11xx.h **** 	SYSCTL_CLOCK_UART0,					/*!< 12: UART0 clock */
 246:../../lpc11cx4-library/lpc_chip_11cxx_lib/inc/clock_11xx.h **** 	SYSCTL_CLOCK_ADC,					/*!< 13: ADC clock */
 247:../../lpc11cx4-library/lpc_chip_11cxx_lib/inc/clock_11xx.h **** #if defined(CHIP_LPC11UXX)
 248:../../lpc11cx4-library/lpc_chip_11cxx_lib/inc/clock_11xx.h **** 	SYSCTL_CLOCK_USB,					/*!< 14: USB clock, LPC11Uxx only */
 249:../../lpc11cx4-library/lpc_chip_11cxx_lib/inc/clock_11xx.h **** #else
 250:../../lpc11cx4-library/lpc_chip_11cxx_lib/inc/clock_11xx.h **** 	SYSCTL_CLOCK_RESERVED14,			/*!< 14: Reserved */
 251:../../lpc11cx4-library/lpc_chip_11cxx_lib/inc/clock_11xx.h **** #endif
 252:../../lpc11cx4-library/lpc_chip_11cxx_lib/inc/clock_11xx.h **** 	SYSCTL_CLOCK_WDT,					/*!< 15: Watchdog timer clock */
 253:../../lpc11cx4-library/lpc_chip_11cxx_lib/inc/clock_11xx.h **** 	SYSCTL_CLOCK_IOCON,					/*!< 16: IOCON block clock */
 254:../../lpc11cx4-library/lpc_chip_11cxx_lib/inc/clock_11xx.h **** #if defined(CHIP_LPC11CXX)
 255:../../lpc11cx4-library/lpc_chip_11cxx_lib/inc/clock_11xx.h **** 	SYSCTL_CLOCK_CAN,					/*!< 17: CAN clock, LPC11Cxx only */
 256:../../lpc11cx4-library/lpc_chip_11cxx_lib/inc/clock_11xx.h **** #else
 257:../../lpc11cx4-library/lpc_chip_11cxx_lib/inc/clock_11xx.h **** 	SYSCTL_CLOCK_RESERVED17,			/*!< 17: Reserved */
 258:../../lpc11cx4-library/lpc_chip_11cxx_lib/inc/clock_11xx.h **** #endif
ARM GAS  /tmp/ccFRKuha.s 			page 47


 259:../../lpc11cx4-library/lpc_chip_11cxx_lib/inc/clock_11xx.h **** #if !(defined(CHIP_LPC110X) || defined(CHIP_LPC11XXLV))  
 260:../../lpc11cx4-library/lpc_chip_11cxx_lib/inc/clock_11xx.h **** 	SYSCTL_CLOCK_SSP1,					/*!< 18: SSP1 clock, LPC11A/C/E/Uxx//1125 only */
 261:../../lpc11cx4-library/lpc_chip_11cxx_lib/inc/clock_11xx.h **** #if !defined(CHIP_LPC11CXX)
 262:../../lpc11cx4-library/lpc_chip_11cxx_lib/inc/clock_11xx.h **** 	SYSCTL_CLOCK_PINT,					/*!< 19: GPIO Pin int register interface clock, LPC11A/E/Uxx only */
 263:../../lpc11cx4-library/lpc_chip_11cxx_lib/inc/clock_11xx.h **** #if defined(CHIP_LPC11AXX)
 264:../../lpc11cx4-library/lpc_chip_11cxx_lib/inc/clock_11xx.h **** 	SYSCTL_CLOCK_ACOMP,					/*!< 20: Analog comparator clock, LPC11Axx only */
 265:../../lpc11cx4-library/lpc_chip_11cxx_lib/inc/clock_11xx.h **** 	SYSCTL_CLOCK_DAC,					/*!< 21: DAC clock, LPC11Axx only */
 266:../../lpc11cx4-library/lpc_chip_11cxx_lib/inc/clock_11xx.h **** #else
 267:../../lpc11cx4-library/lpc_chip_11cxx_lib/inc/clock_11xx.h **** 	SYSCTL_CLOCK_RESERVED20,			/*!< 20: Reserved */
 268:../../lpc11cx4-library/lpc_chip_11cxx_lib/inc/clock_11xx.h **** 	SYSCTL_CLOCK_RESERVED21,			/*!< 21: Reserved */
 269:../../lpc11cx4-library/lpc_chip_11cxx_lib/inc/clock_11xx.h **** #endif
 270:../../lpc11cx4-library/lpc_chip_11cxx_lib/inc/clock_11xx.h **** 	SYSCTL_CLOCK_RESERVED22,			/*!< 22: Reserved */
 271:../../lpc11cx4-library/lpc_chip_11cxx_lib/inc/clock_11xx.h **** 	SYSCTL_CLOCK_P0INT,					/*!< 23: GPIO GROUP1 interrupt register clock, LPC11Axx only */
 272:../../lpc11cx4-library/lpc_chip_11cxx_lib/inc/clock_11xx.h **** 	SYSCTL_CLOCK_GROUP0INT = SYSCTL_CLOCK_P0INT,/*!< 23: GPIO GROUP0 interrupt register interface cloc
 273:../../lpc11cx4-library/lpc_chip_11cxx_lib/inc/clock_11xx.h **** 	SYSCTL_CLOCK_P1INT,					/*!< 24: GPIO GROUP1 interrupt register clock, LPC11Axx only */
 274:../../lpc11cx4-library/lpc_chip_11cxx_lib/inc/clock_11xx.h **** 	SYSCTL_CLOCK_GROUP1INT = SYSCTL_CLOCK_P1INT,/*!< 24: GPIO GROUP1 interrupt register interface cloc
 275:../../lpc11cx4-library/lpc_chip_11cxx_lib/inc/clock_11xx.h **** 	SYSCTL_CLOCK_RESERVED25,			/*!< 25: Reserved */
 276:../../lpc11cx4-library/lpc_chip_11cxx_lib/inc/clock_11xx.h **** #if defined(CHIP_LPC11EXX)  || defined(CHIP_LPC11UXX)
 277:../../lpc11cx4-library/lpc_chip_11cxx_lib/inc/clock_11xx.h **** 	SYSCTL_CLOCK_RAM1,					/*!< 26: SRAM block (0x20000000) clock, LPC11E/Uxx only */
 278:../../lpc11cx4-library/lpc_chip_11cxx_lib/inc/clock_11xx.h **** #else
 279:../../lpc11cx4-library/lpc_chip_11cxx_lib/inc/clock_11xx.h **** 	SYSCTL_CLOCK_RESERVED26,			/*!< 26: Reserved */
 280:../../lpc11cx4-library/lpc_chip_11cxx_lib/inc/clock_11xx.h **** #endif
 281:../../lpc11cx4-library/lpc_chip_11cxx_lib/inc/clock_11xx.h **** #if defined(CHIP_LPC11UXX)
 282:../../lpc11cx4-library/lpc_chip_11cxx_lib/inc/clock_11xx.h **** 	SYSCTL_CLOCK_USBRAM,				/*!< 27: USB SRAM block clock, LPC11Uxx only */
 283:../../lpc11cx4-library/lpc_chip_11cxx_lib/inc/clock_11xx.h **** #else
 284:../../lpc11cx4-library/lpc_chip_11cxx_lib/inc/clock_11xx.h **** 	SYSCTL_CLOCK_RESERVED27,			/*!< 27: Reserved */
 285:../../lpc11cx4-library/lpc_chip_11cxx_lib/inc/clock_11xx.h **** #endif
 286:../../lpc11cx4-library/lpc_chip_11cxx_lib/inc/clock_11xx.h **** #endif /* !defined(CHIP_LPC11CXX) */
 287:../../lpc11cx4-library/lpc_chip_11cxx_lib/inc/clock_11xx.h **** #endif /* !(defined(CHIP_LPC110X) || defined(CHIP_LPC11XXLV)) */
 288:../../lpc11cx4-library/lpc_chip_11cxx_lib/inc/clock_11xx.h **** } CHIP_SYSCTL_CLOCK_T;
 289:../../lpc11cx4-library/lpc_chip_11cxx_lib/inc/clock_11xx.h **** 
 290:../../lpc11cx4-library/lpc_chip_11cxx_lib/inc/clock_11xx.h **** /**
 291:../../lpc11cx4-library/lpc_chip_11cxx_lib/inc/clock_11xx.h ****  * @brief	Enable a system or peripheral clock
 292:../../lpc11cx4-library/lpc_chip_11cxx_lib/inc/clock_11xx.h ****  * @param	clk	: Clock to enable
 293:../../lpc11cx4-library/lpc_chip_11cxx_lib/inc/clock_11xx.h ****  * @return	Nothing
 294:../../lpc11cx4-library/lpc_chip_11cxx_lib/inc/clock_11xx.h ****  */
 295:../../lpc11cx4-library/lpc_chip_11cxx_lib/inc/clock_11xx.h **** STATIC INLINE void Chip_Clock_EnablePeriphClock(CHIP_SYSCTL_CLOCK_T clk)
 296:../../lpc11cx4-library/lpc_chip_11cxx_lib/inc/clock_11xx.h **** {
 297:../../lpc11cx4-library/lpc_chip_11cxx_lib/inc/clock_11xx.h **** 	LPC_SYSCTL->SYSAHBCLKCTRL |= (1 << clk);
 298:../../lpc11cx4-library/lpc_chip_11cxx_lib/inc/clock_11xx.h **** }
 299:../../lpc11cx4-library/lpc_chip_11cxx_lib/inc/clock_11xx.h **** 
 300:../../lpc11cx4-library/lpc_chip_11cxx_lib/inc/clock_11xx.h **** /**
 301:../../lpc11cx4-library/lpc_chip_11cxx_lib/inc/clock_11xx.h ****  * @brief	Disable a system or peripheral clock
 302:../../lpc11cx4-library/lpc_chip_11cxx_lib/inc/clock_11xx.h ****  * @param	clk	: Clock to disable
 303:../../lpc11cx4-library/lpc_chip_11cxx_lib/inc/clock_11xx.h ****  * @return	Nothing
 304:../../lpc11cx4-library/lpc_chip_11cxx_lib/inc/clock_11xx.h ****  */
 305:../../lpc11cx4-library/lpc_chip_11cxx_lib/inc/clock_11xx.h **** STATIC INLINE void Chip_Clock_DisablePeriphClock(CHIP_SYSCTL_CLOCK_T clk)
 306:../../lpc11cx4-library/lpc_chip_11cxx_lib/inc/clock_11xx.h **** {
 307:../../lpc11cx4-library/lpc_chip_11cxx_lib/inc/clock_11xx.h **** 	LPC_SYSCTL->SYSAHBCLKCTRL &= ~(1 << clk);
 308:../../lpc11cx4-library/lpc_chip_11cxx_lib/inc/clock_11xx.h **** }
 309:../../lpc11cx4-library/lpc_chip_11cxx_lib/inc/clock_11xx.h **** 
 310:../../lpc11cx4-library/lpc_chip_11cxx_lib/inc/clock_11xx.h **** /**
 311:../../lpc11cx4-library/lpc_chip_11cxx_lib/inc/clock_11xx.h ****  * @brief	Set SSP0 divider
 312:../../lpc11cx4-library/lpc_chip_11cxx_lib/inc/clock_11xx.h ****  * @param	div	: divider for SSP0 clock
 313:../../lpc11cx4-library/lpc_chip_11cxx_lib/inc/clock_11xx.h ****  * @return	Nothing
 314:../../lpc11cx4-library/lpc_chip_11cxx_lib/inc/clock_11xx.h ****  * @note	Use 0 to disable, or a divider value of 1 to 255. The SSP0 clock
 315:../../lpc11cx4-library/lpc_chip_11cxx_lib/inc/clock_11xx.h ****  * rate is the main system clock divided by this value.
ARM GAS  /tmp/ccFRKuha.s 			page 48


 316:../../lpc11cx4-library/lpc_chip_11cxx_lib/inc/clock_11xx.h ****  */
 317:../../lpc11cx4-library/lpc_chip_11cxx_lib/inc/clock_11xx.h **** STATIC INLINE void Chip_Clock_SetSSP0ClockDiv(uint32_t div)
 318:../../lpc11cx4-library/lpc_chip_11cxx_lib/inc/clock_11xx.h **** {
 319:../../lpc11cx4-library/lpc_chip_11cxx_lib/inc/clock_11xx.h **** 	LPC_SYSCTL->SSP0CLKDIV  = div;
 320:../../lpc11cx4-library/lpc_chip_11cxx_lib/inc/clock_11xx.h **** }
 321:../../lpc11cx4-library/lpc_chip_11cxx_lib/inc/clock_11xx.h **** 
 322:../../lpc11cx4-library/lpc_chip_11cxx_lib/inc/clock_11xx.h **** /**
 323:../../lpc11cx4-library/lpc_chip_11cxx_lib/inc/clock_11xx.h ****  * @brief	Return SSP0 divider
 324:../../lpc11cx4-library/lpc_chip_11cxx_lib/inc/clock_11xx.h ****  * @return	divider for SSP0 clock
 325:../../lpc11cx4-library/lpc_chip_11cxx_lib/inc/clock_11xx.h ****  * @note	A value of 0 means the clock is disabled.
 326:../../lpc11cx4-library/lpc_chip_11cxx_lib/inc/clock_11xx.h ****  */
 327:../../lpc11cx4-library/lpc_chip_11cxx_lib/inc/clock_11xx.h **** STATIC INLINE uint32_t Chip_Clock_GetSSP0ClockDiv(void)
 328:../../lpc11cx4-library/lpc_chip_11cxx_lib/inc/clock_11xx.h **** {
 329:../../lpc11cx4-library/lpc_chip_11cxx_lib/inc/clock_11xx.h **** 	return LPC_SYSCTL->SSP0CLKDIV;
 1401              		.loc 3 329 0
 1402 0010 124B     		ldr	r3, .L204+4	@ tmp125,
 1403 0012 00E0     		b	.L201	@
 1404              	.L195:
 1405              	.LBE351:
 1406              	.LBE350:
 1407              	.LBB352:
 1408              	.LBB353:
 330:../../lpc11cx4-library/lpc_chip_11cxx_lib/inc/clock_11xx.h **** }
 331:../../lpc11cx4-library/lpc_chip_11cxx_lib/inc/clock_11xx.h **** 
 332:../../lpc11cx4-library/lpc_chip_11cxx_lib/inc/clock_11xx.h **** /**
 333:../../lpc11cx4-library/lpc_chip_11cxx_lib/inc/clock_11xx.h ****  * @brief	Set UART divider clock
 334:../../lpc11cx4-library/lpc_chip_11cxx_lib/inc/clock_11xx.h ****  * @param	div	: divider for UART clock
 335:../../lpc11cx4-library/lpc_chip_11cxx_lib/inc/clock_11xx.h ****  * @return	Nothing
 336:../../lpc11cx4-library/lpc_chip_11cxx_lib/inc/clock_11xx.h ****  * @note	Use 0 to disable, or a divider value of 1 to 255. The UART clock
 337:../../lpc11cx4-library/lpc_chip_11cxx_lib/inc/clock_11xx.h ****  * rate is the main system clock divided by this value.
 338:../../lpc11cx4-library/lpc_chip_11cxx_lib/inc/clock_11xx.h ****  */
 339:../../lpc11cx4-library/lpc_chip_11cxx_lib/inc/clock_11xx.h **** STATIC INLINE void Chip_Clock_SetUARTClockDiv(uint32_t div)
 340:../../lpc11cx4-library/lpc_chip_11cxx_lib/inc/clock_11xx.h **** {
 341:../../lpc11cx4-library/lpc_chip_11cxx_lib/inc/clock_11xx.h **** 	LPC_SYSCTL->USARTCLKDIV  = div;
 342:../../lpc11cx4-library/lpc_chip_11cxx_lib/inc/clock_11xx.h **** }
 343:../../lpc11cx4-library/lpc_chip_11cxx_lib/inc/clock_11xx.h **** 
 344:../../lpc11cx4-library/lpc_chip_11cxx_lib/inc/clock_11xx.h **** /**
 345:../../lpc11cx4-library/lpc_chip_11cxx_lib/inc/clock_11xx.h ****  * @brief	Return UART divider
 346:../../lpc11cx4-library/lpc_chip_11cxx_lib/inc/clock_11xx.h ****  * @return	divider for UART clock
 347:../../lpc11cx4-library/lpc_chip_11cxx_lib/inc/clock_11xx.h ****  * @note	A value of 0 means the clock is disabled.
 348:../../lpc11cx4-library/lpc_chip_11cxx_lib/inc/clock_11xx.h ****  */
 349:../../lpc11cx4-library/lpc_chip_11cxx_lib/inc/clock_11xx.h **** STATIC INLINE uint32_t Chip_Clock_GetUARTClockDiv(void)
 350:../../lpc11cx4-library/lpc_chip_11cxx_lib/inc/clock_11xx.h **** {
 351:../../lpc11cx4-library/lpc_chip_11cxx_lib/inc/clock_11xx.h **** 	return LPC_SYSCTL->USARTCLKDIV;
 352:../../lpc11cx4-library/lpc_chip_11cxx_lib/inc/clock_11xx.h **** }
 353:../../lpc11cx4-library/lpc_chip_11cxx_lib/inc/clock_11xx.h **** 
 354:../../lpc11cx4-library/lpc_chip_11cxx_lib/inc/clock_11xx.h **** #if defined(CHIP_LPC11CXX) || defined(CHIP_LPC11EXX) || defined(CHIP_LPC11AXX) || defined(CHIP_LPC1
 355:../../lpc11cx4-library/lpc_chip_11cxx_lib/inc/clock_11xx.h **** /**
 356:../../lpc11cx4-library/lpc_chip_11cxx_lib/inc/clock_11xx.h ****  * @brief	Set SSP1 divider clock
 357:../../lpc11cx4-library/lpc_chip_11cxx_lib/inc/clock_11xx.h ****  * @param	div	: divider for SSP1 clock
 358:../../lpc11cx4-library/lpc_chip_11cxx_lib/inc/clock_11xx.h ****  * @return	Nothing
 359:../../lpc11cx4-library/lpc_chip_11cxx_lib/inc/clock_11xx.h ****  * @note	Use 0 to disable, or a divider value of 1 to 255. The SSP1 clock
 360:../../lpc11cx4-library/lpc_chip_11cxx_lib/inc/clock_11xx.h ****  * rate is the main system clock divided by this value.
 361:../../lpc11cx4-library/lpc_chip_11cxx_lib/inc/clock_11xx.h ****  */
 362:../../lpc11cx4-library/lpc_chip_11cxx_lib/inc/clock_11xx.h **** STATIC INLINE void Chip_Clock_SetSSP1ClockDiv(uint32_t div)
 363:../../lpc11cx4-library/lpc_chip_11cxx_lib/inc/clock_11xx.h **** {
 364:../../lpc11cx4-library/lpc_chip_11cxx_lib/inc/clock_11xx.h **** 	LPC_SYSCTL->SSP1CLKDIV  = div;
ARM GAS  /tmp/ccFRKuha.s 			page 49


 365:../../lpc11cx4-library/lpc_chip_11cxx_lib/inc/clock_11xx.h **** }
 366:../../lpc11cx4-library/lpc_chip_11cxx_lib/inc/clock_11xx.h **** 
 367:../../lpc11cx4-library/lpc_chip_11cxx_lib/inc/clock_11xx.h **** /**
 368:../../lpc11cx4-library/lpc_chip_11cxx_lib/inc/clock_11xx.h ****  * @brief	Return SSP1 divider
 369:../../lpc11cx4-library/lpc_chip_11cxx_lib/inc/clock_11xx.h ****  * @return	divider for SSP1 clock
 370:../../lpc11cx4-library/lpc_chip_11cxx_lib/inc/clock_11xx.h ****  * @note	A value of 0 means the clock is disabled.
 371:../../lpc11cx4-library/lpc_chip_11cxx_lib/inc/clock_11xx.h ****  */
 372:../../lpc11cx4-library/lpc_chip_11cxx_lib/inc/clock_11xx.h **** STATIC INLINE uint32_t Chip_Clock_GetSSP1ClockDiv(void)
 373:../../lpc11cx4-library/lpc_chip_11cxx_lib/inc/clock_11xx.h **** {
 374:../../lpc11cx4-library/lpc_chip_11cxx_lib/inc/clock_11xx.h **** 	return LPC_SYSCTL->SSP1CLKDIV;
 1409              		.loc 3 374 0
 1410 0014 124B     		ldr	r3, .L204+8	@ tmp132,
 1411              	.L201:
 1412 0016 1968     		ldr	r1, [r3]	@ D.6842,
 1413              	.LBE353:
 1414              	.LBE352:
 159:../../lpc11cx4-library/lpc_chip_11cxx_lib/src/ssp_11xx.c **** 	}
 1415              		.loc 1 159 0
 1416 0018 FFF7FEFF 		bl	__aeabi_uidiv	@
 1417              	.LVL142:
 1418 001c 071C     		mov	r7, r0	@ ssp_clk,
 1419              	.LVL143:
 1420              	.LBE349:
 1421              	.LBE348:
 460:../../lpc11cx4-library/lpc_chip_11cxx_lib/src/ssp_11xx.c **** 	uint32_t ssp_clk, cr0_div, cmp_clk, prescale;
 461:../../lpc11cx4-library/lpc_chip_11cxx_lib/src/ssp_11xx.c **** 
 462:../../lpc11cx4-library/lpc_chip_11cxx_lib/src/ssp_11xx.c **** 	ssp_clk = Chip_SSP_GetPCLKkRate(pSSP);
 463:../../lpc11cx4-library/lpc_chip_11cxx_lib/src/ssp_11xx.c **** 
 464:../../lpc11cx4-library/lpc_chip_11cxx_lib/src/ssp_11xx.c **** 	cr0_div = 0;
 465:../../lpc11cx4-library/lpc_chip_11cxx_lib/src/ssp_11xx.c **** 	cmp_clk = 0xFFFFFFFF;
 1422              		.loc 1 465 0
 1423 001e 0120     		mov	r0, #1	@ cmp_clk,
 1424              	.LVL144:
 466:../../lpc11cx4-library/lpc_chip_11cxx_lib/src/ssp_11xx.c **** 	prescale = 2;
 1425              		.loc 1 466 0
 1426 0020 0225     		mov	r5, #2	@ prescale,
 465:../../lpc11cx4-library/lpc_chip_11cxx_lib/src/ssp_11xx.c **** 	prescale = 2;
 1427              		.loc 1 465 0
 1428 0022 4042     		neg	r0, r0	@ cmp_clk, cmp_clk
 1429              	.LVL145:
 1430              	.L202:
 467:../../lpc11cx4-library/lpc_chip_11cxx_lib/src/ssp_11xx.c **** 
 468:../../lpc11cx4-library/lpc_chip_11cxx_lib/src/ssp_11xx.c **** 	while (cmp_clk > bitRate) {
 469:../../lpc11cx4-library/lpc_chip_11cxx_lib/src/ssp_11xx.c **** 		cmp_clk = ssp_clk / ((cr0_div + 1) * prescale);
 470:../../lpc11cx4-library/lpc_chip_11cxx_lib/src/ssp_11xx.c **** 		if (cmp_clk > bitRate) {
 471:../../lpc11cx4-library/lpc_chip_11cxx_lib/src/ssp_11xx.c **** 			cr0_div++;
 472:../../lpc11cx4-library/lpc_chip_11cxx_lib/src/ssp_11xx.c **** 			if (cr0_div > 0xFF) {
 473:../../lpc11cx4-library/lpc_chip_11cxx_lib/src/ssp_11xx.c **** 				cr0_div = 0;
 1431              		.loc 1 473 0
 1432 0024 0024     		mov	r4, #0	@ cr0_div,
 1433              	.LVL146:
 1434              	.L197:
 468:../../lpc11cx4-library/lpc_chip_11cxx_lib/src/ssp_11xx.c **** 		cmp_clk = ssp_clk / ((cr0_div + 1) * prescale);
 1435              		.loc 1 468 0
 1436 0026 019B     		ldr	r3, [sp, #4]	@ bitRate, %sfp
 1437 0028 9842     		cmp	r0, r3	@ cmp_clk, bitRate
 1438 002a 0ED9     		bls	.L203	@,
ARM GAS  /tmp/ccFRKuha.s 			page 50


 469:../../lpc11cx4-library/lpc_chip_11cxx_lib/src/ssp_11xx.c **** 		if (cmp_clk > bitRate) {
 1439              		.loc 1 469 0
 1440 002c 631C     		add	r3, r4, #1	@ cr0_div, cr0_div,
 1441 002e 191C     		mov	r1, r3	@ D.6841, cr0_div
 1442 0030 381C     		mov	r0, r7	@, ssp_clk
 1443              	.LVL147:
 1444 0032 6943     		mul	r1, r5	@ D.6841, prescale
 1445 0034 0093     		str	r3, [sp]	@ cr0_div, %sfp
 1446 0036 FFF7FEFF 		bl	__aeabi_uidiv	@
 1447              	.LVL148:
 470:../../lpc11cx4-library/lpc_chip_11cxx_lib/src/ssp_11xx.c **** 			cr0_div++;
 1448              		.loc 1 470 0
 1449 003a 019B     		ldr	r3, [sp, #4]	@ bitRate, %sfp
 1450 003c 9842     		cmp	r0, r3	@ cmp_clk, bitRate
 1451 003e F2D9     		bls	.L197	@,
 1452              	.LVL149:
 1453 0040 009C     		ldr	r4, [sp]	@ cr0_div, %sfp
 472:../../lpc11cx4-library/lpc_chip_11cxx_lib/src/ssp_11xx.c **** 				cr0_div = 0;
 1454              		.loc 1 472 0
 1455 0042 FF2C     		cmp	r4, #255	@ cr0_div,
 1456 0044 EFD9     		bls	.L197	@,
 1457              	.LVL150:
 474:../../lpc11cx4-library/lpc_chip_11cxx_lib/src/ssp_11xx.c **** 				prescale += 2;
 1458              		.loc 1 474 0
 1459 0046 0235     		add	r5, r5, #2	@ prescale,
 1460              	.LVL151:
 1461 0048 ECE7     		b	.L202	@
 1462              	.LVL152:
 1463              	.L203:
 475:../../lpc11cx4-library/lpc_chip_11cxx_lib/src/ssp_11xx.c **** 			}
 476:../../lpc11cx4-library/lpc_chip_11cxx_lib/src/ssp_11xx.c **** 		}
 477:../../lpc11cx4-library/lpc_chip_11cxx_lib/src/ssp_11xx.c **** 	}
 478:../../lpc11cx4-library/lpc_chip_11cxx_lib/src/ssp_11xx.c **** 
 479:../../lpc11cx4-library/lpc_chip_11cxx_lib/src/ssp_11xx.c **** 	Chip_SSP_SetClockRate(pSSP, cr0_div, prescale);
 1464              		.loc 1 479 0
 1465 004a 301C     		mov	r0, r6	@, pSSP
 1466              	.LVL153:
 1467 004c 2A1C     		mov	r2, r5	@, prescale
 1468 004e 211C     		mov	r1, r4	@, cr0_div
 1469 0050 FFF7FEFF 		bl	Chip_SSP_SetClockRate	@
 1470              	.LVL154:
 480:../../lpc11cx4-library/lpc_chip_11cxx_lib/src/ssp_11xx.c **** }
 1471              		.loc 1 480 0
 1472              		@ sp needed	@
 1473              	.LVL155:
 1474              	.LVL156:
 1475              	.LVL157:
 1476              	.LVL158:
 1477 0054 F7BD     		pop	{r0, r1, r2, r4, r5, r6, r7, pc}
 1478              	.L205:
 1479 0056 C046     		.align	2
 1480              	.L204:
 1481 0058 00000440 		.word	1074003968
 1482 005c 94800440 		.word	1074036884
 1483 0060 9C800440 		.word	1074036892
 1484              		.cfi_endproc
 1485              	.LFE214:
ARM GAS  /tmp/ccFRKuha.s 			page 51


 1486              		.size	Chip_SSP_SetBitRate, .-Chip_SSP_SetBitRate
 1487              		.section	.text.Chip_SSP_Init,"ax",%progbits
 1488              		.align	1
 1489              		.global	Chip_SSP_Init
 1490              		.code	16
 1491              		.thumb_func
 1492              		.type	Chip_SSP_Init, %function
 1493              	Chip_SSP_Init:
 1494              	.LFB215:
 481:../../lpc11cx4-library/lpc_chip_11cxx_lib/src/ssp_11xx.c **** 
 482:../../lpc11cx4-library/lpc_chip_11cxx_lib/src/ssp_11xx.c **** /* Initialize the SSP */
 483:../../lpc11cx4-library/lpc_chip_11cxx_lib/src/ssp_11xx.c **** void Chip_SSP_Init(LPC_SSP_T *pSSP)
 484:../../lpc11cx4-library/lpc_chip_11cxx_lib/src/ssp_11xx.c **** {
 1495              		.loc 1 484 0
 1496              		.cfi_startproc
 1497              	.LVL159:
 1498 0000 70B5     		push	{r4, r5, r6, lr}	@
 1499              		.cfi_def_cfa_offset 16
 1500              		.cfi_offset 4, -16
 1501              		.cfi_offset 5, -12
 1502              		.cfi_offset 6, -8
 1503              		.cfi_offset 14, -4
 1504              	.LBB376:
 1505              	.LBB377:
 109:../../lpc11cx4-library/lpc_chip_11cxx_lib/src/ssp_11xx.c **** 		clkSSP = SYSCTL_CLOCK_SSP0;
 1506              		.loc 1 109 0
 1507 0002 164C     		ldr	r4, .L211	@ tmp161,
 110:../../lpc11cx4-library/lpc_chip_11cxx_lib/src/ssp_11xx.c **** 	}
 1508              		.loc 1 110 0
 1509 0004 0B23     		mov	r3, #11	@ clkSSP,
 109:../../lpc11cx4-library/lpc_chip_11cxx_lib/src/ssp_11xx.c **** 		clkSSP = SYSCTL_CLOCK_SSP0;
 1510              		.loc 1 109 0
 1511 0006 A042     		cmp	r0, r4	@ pSSP, tmp161
 1512 0008 00D0     		beq	.L207	@,
 114:../../lpc11cx4-library/lpc_chip_11cxx_lib/src/ssp_11xx.c **** 	}
 1513              		.loc 1 114 0
 1514 000a 0733     		add	r3, r3, #7	@ clkSSP,
 1515              	.L207:
 1516              	.LVL160:
 1517              	.LBE377:
 1518              	.LBE376:
 1519              	.LBB378:
 1520              	.LBB379:
 297:../../lpc11cx4-library/lpc_chip_11cxx_lib/inc/clock_11xx.h **** }
 1521              		.loc 3 297 0
 1522 000c 0122     		mov	r2, #1	@ tmp136,
 1523 000e 161C     		mov	r6, r2	@ D.6853, tmp136
 1524 0010 9E40     		lsl	r6, r6, r3	@ D.6853, D.6853, clkSSP
 1525 0012 331C     		mov	r3, r6	@ D.6853, D.6853
 1526 0014 124D     		ldr	r5, .L211+4	@ tmp134,
 1527 0016 E96F     		ldr	r1, [r5, #124]	@ D.6854, MEM[(struct LPC_SYSCTL_T *)1074036736B].SYSAHBCLKCTRL
 1528 0018 0B43     		orr	r3, r1	@ D.6854, D.6854
 1529 001a EB67     		str	r3, [r5, #124]	@ D.6854, MEM[(struct LPC_SYSCTL_T *)1074036736B].SYSAHBCLKCTRL
 1530              	.LVL161:
 1531 001c 114B     		ldr	r3, .L211+8	@ tmp162,
 1532              	.LBE379:
 1533              	.LBE378:
ARM GAS  /tmp/ccFRKuha.s 			page 52


 1534              	.LBB380:
 1535              	.LBB381:
 139:../../lpc11cx4-library/lpc_chip_11cxx_lib/src/ssp_11xx.c **** 		Chip_Clock_SetSSP0ClockDiv(div);
 1536              		.loc 1 139 0
 1537 001e A042     		cmp	r0, r4	@ pSSP, tmp161
 1538 0020 03D1     		bne	.L208	@,
 1539              	.LVL162:
 1540              	.LBB382:
 1541              	.LBB383:
 319:../../lpc11cx4-library/lpc_chip_11cxx_lib/inc/clock_11xx.h **** }
 1542              		.loc 3 319 0
 1543 0022 1149     		ldr	r1, .L211+12	@ tmp143,
 1544              	.LBE383:
 1545              	.LBE382:
 1546              	.LBE381:
 1547              	.LBE380:
 1548              	.LBB390:
 1549              	.LBB391:
 127:../../lpc11cx4-library/lpc_chip_11cxx_lib/src/ssp_11xx.c **** 	}
 1550              		.loc 1 127 0
 1551 0024 0024     		mov	r4, #0	@ resetSSP,
 1552              	.LBE391:
 1553              	.LBE390:
 1554              	.LBB393:
 1555              	.LBB388:
 1556              	.LBB385:
 1557              	.LBB384:
 319:../../lpc11cx4-library/lpc_chip_11cxx_lib/inc/clock_11xx.h **** }
 1558              		.loc 3 319 0
 1559 0026 0A60     		str	r2, [r1]	@ tmp136, MEM[(struct LPC_SYSCTL_T *)1074036736B].SSP0CLKDIV
 1560              	.LVL163:
 1561 0028 02E0     		b	.L209	@
 1562              	.LVL164:
 1563              	.L208:
 1564              	.LBE384:
 1565              	.LBE385:
 1566              	.LBE388:
 1567              	.LBE393:
 1568              	.LBB394:
 1569              	.LBB392:
 130:../../lpc11cx4-library/lpc_chip_11cxx_lib/src/ssp_11xx.c **** 	}
 1570              		.loc 1 130 0
 1571 002a 0224     		mov	r4, #2	@ resetSSP,
 1572              	.LBE392:
 1573              	.LBE394:
 1574              	.LBB395:
 1575              	.LBB389:
 1576              	.LBB386:
 1577              	.LBB387:
 364:../../lpc11cx4-library/lpc_chip_11cxx_lib/inc/clock_11xx.h **** }
 1578              		.loc 3 364 0
 1579 002c 0F49     		ldr	r1, .L211+16	@ tmp148,
 1580 002e 0A60     		str	r2, [r1]	@ tmp136, MEM[(struct LPC_SYSCTL_T *)1074036736B].SSP1CLKDIV
 1581              	.LVL165:
 1582              	.L209:
 1583              	.LBE387:
 1584              	.LBE386:
ARM GAS  /tmp/ccFRKuha.s 			page 53


 1585              	.LBE389:
 1586              	.LBE395:
 1587              	.LBB396:
 1588              	.LBB397:
 1589              	.LBB398:
 1590              		.file 4 "../../lpc11cx4-library/lpc_chip_11cxx_lib/inc/sysctl_11xx.h"
   1:../../lpc11cx4-library/lpc_chip_11cxx_lib/inc/sysctl_11xx.h **** /*
   2:../../lpc11cx4-library/lpc_chip_11cxx_lib/inc/sysctl_11xx.h ****  * @brief LPC11XX System Control registers and control functions
   3:../../lpc11cx4-library/lpc_chip_11cxx_lib/inc/sysctl_11xx.h ****  *
   4:../../lpc11cx4-library/lpc_chip_11cxx_lib/inc/sysctl_11xx.h ****  * @note
   5:../../lpc11cx4-library/lpc_chip_11cxx_lib/inc/sysctl_11xx.h ****  * Copyright(C) NXP Semiconductors, 2012
   6:../../lpc11cx4-library/lpc_chip_11cxx_lib/inc/sysctl_11xx.h ****  * All rights reserved.
   7:../../lpc11cx4-library/lpc_chip_11cxx_lib/inc/sysctl_11xx.h ****  *
   8:../../lpc11cx4-library/lpc_chip_11cxx_lib/inc/sysctl_11xx.h ****  * @par
   9:../../lpc11cx4-library/lpc_chip_11cxx_lib/inc/sysctl_11xx.h ****  * Software that is described herein is for illustrative purposes only
  10:../../lpc11cx4-library/lpc_chip_11cxx_lib/inc/sysctl_11xx.h ****  * which provides customers with programming information regarding the
  11:../../lpc11cx4-library/lpc_chip_11cxx_lib/inc/sysctl_11xx.h ****  * LPC products.  This software is supplied "AS IS" without any warranties of
  12:../../lpc11cx4-library/lpc_chip_11cxx_lib/inc/sysctl_11xx.h ****  * any kind, and NXP Semiconductors and its licensor disclaim any and
  13:../../lpc11cx4-library/lpc_chip_11cxx_lib/inc/sysctl_11xx.h ****  * all warranties, express or implied, including all implied warranties of
  14:../../lpc11cx4-library/lpc_chip_11cxx_lib/inc/sysctl_11xx.h ****  * merchantability, fitness for a particular purpose and non-infringement of
  15:../../lpc11cx4-library/lpc_chip_11cxx_lib/inc/sysctl_11xx.h ****  * intellectual property rights.  NXP Semiconductors assumes no responsibility
  16:../../lpc11cx4-library/lpc_chip_11cxx_lib/inc/sysctl_11xx.h ****  * or liability for the use of the software, conveys no license or rights under any
  17:../../lpc11cx4-library/lpc_chip_11cxx_lib/inc/sysctl_11xx.h ****  * patent, copyright, mask work right, or any other intellectual property rights in
  18:../../lpc11cx4-library/lpc_chip_11cxx_lib/inc/sysctl_11xx.h ****  * or to any products. NXP Semiconductors reserves the right to make changes
  19:../../lpc11cx4-library/lpc_chip_11cxx_lib/inc/sysctl_11xx.h ****  * in the software without notification. NXP Semiconductors also makes no
  20:../../lpc11cx4-library/lpc_chip_11cxx_lib/inc/sysctl_11xx.h ****  * representation or warranty that such application will be suitable for the
  21:../../lpc11cx4-library/lpc_chip_11cxx_lib/inc/sysctl_11xx.h ****  * specified use without further testing or modification.
  22:../../lpc11cx4-library/lpc_chip_11cxx_lib/inc/sysctl_11xx.h ****  *
  23:../../lpc11cx4-library/lpc_chip_11cxx_lib/inc/sysctl_11xx.h ****  * @par
  24:../../lpc11cx4-library/lpc_chip_11cxx_lib/inc/sysctl_11xx.h ****  * Permission to use, copy, modify, and distribute this software and its
  25:../../lpc11cx4-library/lpc_chip_11cxx_lib/inc/sysctl_11xx.h ****  * documentation is hereby granted, under NXP Semiconductors' and its
  26:../../lpc11cx4-library/lpc_chip_11cxx_lib/inc/sysctl_11xx.h ****  * licensor's relevant copyrights in the software, without fee, provided that it
  27:../../lpc11cx4-library/lpc_chip_11cxx_lib/inc/sysctl_11xx.h ****  * is used in conjunction with NXP Semiconductors microcontrollers.  This
  28:../../lpc11cx4-library/lpc_chip_11cxx_lib/inc/sysctl_11xx.h ****  * copyright, permission, and disclaimer notice must appear in all copies of
  29:../../lpc11cx4-library/lpc_chip_11cxx_lib/inc/sysctl_11xx.h ****  * this code.
  30:../../lpc11cx4-library/lpc_chip_11cxx_lib/inc/sysctl_11xx.h ****  */
  31:../../lpc11cx4-library/lpc_chip_11cxx_lib/inc/sysctl_11xx.h **** 
  32:../../lpc11cx4-library/lpc_chip_11cxx_lib/inc/sysctl_11xx.h **** #ifndef __SYSCTL_11XX_H_
  33:../../lpc11cx4-library/lpc_chip_11cxx_lib/inc/sysctl_11xx.h **** #define __SYSCTL_11XX_H_
  34:../../lpc11cx4-library/lpc_chip_11cxx_lib/inc/sysctl_11xx.h **** 
  35:../../lpc11cx4-library/lpc_chip_11cxx_lib/inc/sysctl_11xx.h **** #ifdef __cplusplus
  36:../../lpc11cx4-library/lpc_chip_11cxx_lib/inc/sysctl_11xx.h **** extern "C" {
  37:../../lpc11cx4-library/lpc_chip_11cxx_lib/inc/sysctl_11xx.h **** #endif
  38:../../lpc11cx4-library/lpc_chip_11cxx_lib/inc/sysctl_11xx.h **** 
  39:../../lpc11cx4-library/lpc_chip_11cxx_lib/inc/sysctl_11xx.h **** /** @defgroup SYSCTL_11XX CHIP: LPC11xx System Control block driver
  40:../../lpc11cx4-library/lpc_chip_11cxx_lib/inc/sysctl_11xx.h ****  * @ingroup CHIP_11XX_Drivers
  41:../../lpc11cx4-library/lpc_chip_11cxx_lib/inc/sysctl_11xx.h ****  * @{
  42:../../lpc11cx4-library/lpc_chip_11cxx_lib/inc/sysctl_11xx.h ****  */
  43:../../lpc11cx4-library/lpc_chip_11cxx_lib/inc/sysctl_11xx.h **** 
  44:../../lpc11cx4-library/lpc_chip_11cxx_lib/inc/sysctl_11xx.h **** /**
  45:../../lpc11cx4-library/lpc_chip_11cxx_lib/inc/sysctl_11xx.h ****  * @brief LPC11XX System Control block structure
  46:../../lpc11cx4-library/lpc_chip_11cxx_lib/inc/sysctl_11xx.h ****  */
  47:../../lpc11cx4-library/lpc_chip_11cxx_lib/inc/sysctl_11xx.h **** typedef struct {			/*!< SYSCTL Structure */
  48:../../lpc11cx4-library/lpc_chip_11cxx_lib/inc/sysctl_11xx.h **** 	__IO uint32_t  SYSMEMREMAP;		/*!< System Memory remap register */
  49:../../lpc11cx4-library/lpc_chip_11cxx_lib/inc/sysctl_11xx.h **** 	__IO uint32_t  PRESETCTRL;		/*!< Peripheral reset Control register */
  50:../../lpc11cx4-library/lpc_chip_11cxx_lib/inc/sysctl_11xx.h **** 	__IO uint32_t  SYSPLLCTRL;		/*!< System PLL control register */
  51:../../lpc11cx4-library/lpc_chip_11cxx_lib/inc/sysctl_11xx.h **** 	__I  uint32_t  SYSPLLSTAT;		/*!< System PLL status register */
ARM GAS  /tmp/ccFRKuha.s 			page 54


  52:../../lpc11cx4-library/lpc_chip_11cxx_lib/inc/sysctl_11xx.h **** 	__IO uint32_t  USBPLLCTRL;		/*!< USB PLL control register, LPC11UXX only*/
  53:../../lpc11cx4-library/lpc_chip_11cxx_lib/inc/sysctl_11xx.h **** 	__I  uint32_t  USBPLLSTAT;		/*!< USB PLL status register, LPC11UXX only */
  54:../../lpc11cx4-library/lpc_chip_11cxx_lib/inc/sysctl_11xx.h **** 	__I  uint32_t  RESERVED1[2];
  55:../../lpc11cx4-library/lpc_chip_11cxx_lib/inc/sysctl_11xx.h **** 	__IO uint32_t  SYSOSCCTRL;		/*!< System Oscillator control register */
  56:../../lpc11cx4-library/lpc_chip_11cxx_lib/inc/sysctl_11xx.h **** 	__IO uint32_t  WDTOSCCTRL;		/*!< Watchdog Oscillator control register */
  57:../../lpc11cx4-library/lpc_chip_11cxx_lib/inc/sysctl_11xx.h **** 	__IO uint32_t  IRCCTRL;			/*!< IRC control register, not on LPC11UXX and LPC11EXX */
  58:../../lpc11cx4-library/lpc_chip_11cxx_lib/inc/sysctl_11xx.h **** 	__IO uint32_t  LFOSCCTRL;		/*!< LF oscillator control, LPC11AXX only */
  59:../../lpc11cx4-library/lpc_chip_11cxx_lib/inc/sysctl_11xx.h **** 	__IO uint32_t  SYSRSTSTAT;		/*!< System Reset Status register           */
  60:../../lpc11cx4-library/lpc_chip_11cxx_lib/inc/sysctl_11xx.h **** 	__I  uint32_t  RESERVED2[3];
  61:../../lpc11cx4-library/lpc_chip_11cxx_lib/inc/sysctl_11xx.h **** 	__IO uint32_t  SYSPLLCLKSEL;	/*!< System PLL clock source select register */
  62:../../lpc11cx4-library/lpc_chip_11cxx_lib/inc/sysctl_11xx.h **** 	__IO uint32_t  SYSPLLCLKUEN;	/*!< System PLL clock source update enable register*/
  63:../../lpc11cx4-library/lpc_chip_11cxx_lib/inc/sysctl_11xx.h **** 	__IO uint32_t  USBPLLCLKSEL;	/*!< USB PLL clock source select register, LPC11UXX only */
  64:../../lpc11cx4-library/lpc_chip_11cxx_lib/inc/sysctl_11xx.h **** 	__IO uint32_t  USBPLLCLKUEN;	/*!< USB PLL clock source update enable register, LPC11UXX only */
  65:../../lpc11cx4-library/lpc_chip_11cxx_lib/inc/sysctl_11xx.h **** 	__I  uint32_t  RESERVED3[8];
  66:../../lpc11cx4-library/lpc_chip_11cxx_lib/inc/sysctl_11xx.h **** 	__IO uint32_t  MAINCLKSEL;	/*!< Main clock source select register		*/
  67:../../lpc11cx4-library/lpc_chip_11cxx_lib/inc/sysctl_11xx.h **** 	__IO uint32_t  MAINCLKUEN;	/*!< Main clock source update enable register	*/
  68:../../lpc11cx4-library/lpc_chip_11cxx_lib/inc/sysctl_11xx.h **** 	__IO uint32_t  SYSAHBCLKDIV;	/*!< System Clock divider register */
  69:../../lpc11cx4-library/lpc_chip_11cxx_lib/inc/sysctl_11xx.h **** 	__I  uint32_t  RESERVED4;
  70:../../lpc11cx4-library/lpc_chip_11cxx_lib/inc/sysctl_11xx.h **** 	__IO uint32_t  SYSAHBCLKCTRL;	/*!< System clock control register */
  71:../../lpc11cx4-library/lpc_chip_11cxx_lib/inc/sysctl_11xx.h **** 	__I  uint32_t  RESERVED5[4];
  72:../../lpc11cx4-library/lpc_chip_11cxx_lib/inc/sysctl_11xx.h **** 	__IO uint32_t  SSP0CLKDIV;	/*!< SSP0 clock divider register   */
  73:../../lpc11cx4-library/lpc_chip_11cxx_lib/inc/sysctl_11xx.h **** 	__IO uint32_t  USARTCLKDIV;	/*!< UART clock divider register   */
  74:../../lpc11cx4-library/lpc_chip_11cxx_lib/inc/sysctl_11xx.h **** 	__IO uint32_t  SSP1CLKDIV;	/*!< SSP1 clock divider register, not on CHIP_LPC110X, CHIP_LPC11XXLV *
  75:../../lpc11cx4-library/lpc_chip_11cxx_lib/inc/sysctl_11xx.h **** 	__I  uint32_t  RESERVED6[8];
  76:../../lpc11cx4-library/lpc_chip_11cxx_lib/inc/sysctl_11xx.h **** 	__IO uint32_t  USBCLKSEL;	/*!< USB clock source select register, LPC11UXX only */
  77:../../lpc11cx4-library/lpc_chip_11cxx_lib/inc/sysctl_11xx.h **** 	__IO uint32_t  USBCLKUEN;	/*!< USB clock source update enable register, LPC11UXX only */
  78:../../lpc11cx4-library/lpc_chip_11cxx_lib/inc/sysctl_11xx.h **** 	__IO uint32_t  USBCLKDIV;	/*!< USB clock source divider register, LPC11UXX only */
  79:../../lpc11cx4-library/lpc_chip_11cxx_lib/inc/sysctl_11xx.h **** 	__I  uint32_t  RESERVED7;
  80:../../lpc11cx4-library/lpc_chip_11cxx_lib/inc/sysctl_11xx.h **** 	__IO uint32_t  WDTCLKSEL;	/*!< WDT clock source select register, some parts only */
  81:../../lpc11cx4-library/lpc_chip_11cxx_lib/inc/sysctl_11xx.h **** 	__IO uint32_t  WDTCLKUEN;	/*!< WDT clock source update enable register, some parts only */
  82:../../lpc11cx4-library/lpc_chip_11cxx_lib/inc/sysctl_11xx.h **** 	__IO uint32_t  WDTCLKDIV;	/*!< WDT clock divider register, some parts only */
  83:../../lpc11cx4-library/lpc_chip_11cxx_lib/inc/sysctl_11xx.h **** 	__I  uint32_t  RESERVED8;
  84:../../lpc11cx4-library/lpc_chip_11cxx_lib/inc/sysctl_11xx.h **** 	__IO uint32_t  CLKOUTSEL;	/*!< Clock out source select register, not on LPC1102/04 */
  85:../../lpc11cx4-library/lpc_chip_11cxx_lib/inc/sysctl_11xx.h **** 	__IO uint32_t  CLKOUTUEN;	/*!< Clock out source update enable register, not on LPC1102/04 */
  86:../../lpc11cx4-library/lpc_chip_11cxx_lib/inc/sysctl_11xx.h **** 	__IO uint32_t  CLKOUTDIV;	/*!< Clock out divider register, not on LPC1102/04 */
  87:../../lpc11cx4-library/lpc_chip_11cxx_lib/inc/sysctl_11xx.h **** 	__I  uint32_t  RESERVED9[5];
  88:../../lpc11cx4-library/lpc_chip_11cxx_lib/inc/sysctl_11xx.h **** 	__I  uint32_t  PIOPORCAP[2];/*!< POR captured PIO status registers, index 1 on LPC1102/04 */
  89:../../lpc11cx4-library/lpc_chip_11cxx_lib/inc/sysctl_11xx.h **** 	__I  uint32_t  RESERVED10[18];
  90:../../lpc11cx4-library/lpc_chip_11cxx_lib/inc/sysctl_11xx.h **** 	__IO uint32_t  BODCTRL;		/*!< Brown Out Detect register */
  91:../../lpc11cx4-library/lpc_chip_11cxx_lib/inc/sysctl_11xx.h **** 	__IO uint32_t  SYSTCKCAL;	/*!< System tick counter calibration register */
  92:../../lpc11cx4-library/lpc_chip_11cxx_lib/inc/sysctl_11xx.h **** 	__I  uint32_t  RESERVED11[6];
  93:../../lpc11cx4-library/lpc_chip_11cxx_lib/inc/sysctl_11xx.h **** 	__IO uint32_t  IRQLATENCY;	/*!< IRQ delay register, on LPC11UXX and LPC11EXX only */
  94:../../lpc11cx4-library/lpc_chip_11cxx_lib/inc/sysctl_11xx.h **** 	__IO uint32_t  NMISRC;		/*!< NMI source control register,some parts only */
  95:../../lpc11cx4-library/lpc_chip_11cxx_lib/inc/sysctl_11xx.h **** 	__IO uint32_t  PINTSEL[8];	/*!< GPIO pin interrupt select register 0-7, not on CHIP_LPC110X, CHIP_
  96:../../lpc11cx4-library/lpc_chip_11cxx_lib/inc/sysctl_11xx.h **** 	__IO uint32_t  USBCLKCTRL;	/*!< USB clock control register, LPC11UXX only */
  97:../../lpc11cx4-library/lpc_chip_11cxx_lib/inc/sysctl_11xx.h **** 	__I  uint32_t  USBCLKST;	/*!< USB clock status register, LPC11UXX only */
  98:../../lpc11cx4-library/lpc_chip_11cxx_lib/inc/sysctl_11xx.h **** 	__I  uint32_t  RESERVED12[24];
  99:../../lpc11cx4-library/lpc_chip_11cxx_lib/inc/sysctl_11xx.h **** 	__IO uint32_t  STARTAPRP0;	/*!< Start loigc 0 interrupt wake up enable register 0, on CHIP_LPC110X
 100:../../lpc11cx4-library/lpc_chip_11cxx_lib/inc/sysctl_11xx.h **** 	__IO uint32_t  STARTERP0;	/*!< Start loigc signal enable register 0, not on LPC11AXX */
 101:../../lpc11cx4-library/lpc_chip_11cxx_lib/inc/sysctl_11xx.h **** 	__IO uint32_t  STARTRSRP0CLR;	/*!< Start loigc reset register 0, on CHIP_LPC110X, CHIP_LPC11XXLV, 
 102:../../lpc11cx4-library/lpc_chip_11cxx_lib/inc/sysctl_11xx.h **** 	__IO uint32_t  STARTSRP0;		/*!< Start loigc status register 0, on CHIP_LPC110X, CHIP_LPC11XXLV, CH
 103:../../lpc11cx4-library/lpc_chip_11cxx_lib/inc/sysctl_11xx.h **** 	__I  uint32_t  RESERVED13;
 104:../../lpc11cx4-library/lpc_chip_11cxx_lib/inc/sysctl_11xx.h **** 	__IO uint32_t  STARTERP1;	/*!< Start logic 1 interrupt wake up enable register 1, on LPC11UXX and 
 105:../../lpc11cx4-library/lpc_chip_11cxx_lib/inc/sysctl_11xx.h **** 	__I  uint32_t  RESERVED14[6];
 106:../../lpc11cx4-library/lpc_chip_11cxx_lib/inc/sysctl_11xx.h **** 	__IO uint32_t  PDSLEEPCFG;	/*!< Power down states in deep sleep mode register, not on LPC11AXX */
 107:../../lpc11cx4-library/lpc_chip_11cxx_lib/inc/sysctl_11xx.h **** 	__IO uint32_t  PDWAKECFG;	/*!< Power down states in wake up from deep sleep register, not on LPC11
 108:../../lpc11cx4-library/lpc_chip_11cxx_lib/inc/sysctl_11xx.h **** 	__IO uint32_t  PDRUNCFG;	/*!< Power configuration register*/
ARM GAS  /tmp/ccFRKuha.s 			page 55


 109:../../lpc11cx4-library/lpc_chip_11cxx_lib/inc/sysctl_11xx.h **** 	__I  uint32_t  RESERVED15[110];
 110:../../lpc11cx4-library/lpc_chip_11cxx_lib/inc/sysctl_11xx.h **** 	__I  uint32_t  DEVICEID;	/*!< Device ID register */
 111:../../lpc11cx4-library/lpc_chip_11cxx_lib/inc/sysctl_11xx.h **** } LPC_SYSCTL_T;
 112:../../lpc11cx4-library/lpc_chip_11cxx_lib/inc/sysctl_11xx.h **** 
 113:../../lpc11cx4-library/lpc_chip_11cxx_lib/inc/sysctl_11xx.h **** /**
 114:../../lpc11cx4-library/lpc_chip_11cxx_lib/inc/sysctl_11xx.h ****  * System memory remap modes used to remap interrupt vectors
 115:../../lpc11cx4-library/lpc_chip_11cxx_lib/inc/sysctl_11xx.h ****  */
 116:../../lpc11cx4-library/lpc_chip_11cxx_lib/inc/sysctl_11xx.h **** typedef enum CHIP_SYSCTL_BOOT_MODE_REMAP {
 117:../../lpc11cx4-library/lpc_chip_11cxx_lib/inc/sysctl_11xx.h **** 	REMAP_BOOT_LOADER_MODE,	/*!< Interrupt vectors are re-mapped to Boot ROM */
 118:../../lpc11cx4-library/lpc_chip_11cxx_lib/inc/sysctl_11xx.h **** 	REMAP_USER_RAM_MODE,	/*!< Interrupt vectors are re-mapped to Static RAM */
 119:../../lpc11cx4-library/lpc_chip_11cxx_lib/inc/sysctl_11xx.h **** 	REMAP_USER_FLASH_MODE	/*!< Interrupt vectors are not re-mapped and reside in Flash */
 120:../../lpc11cx4-library/lpc_chip_11cxx_lib/inc/sysctl_11xx.h **** } CHIP_SYSCTL_BOOT_MODE_REMAP_T;
 121:../../lpc11cx4-library/lpc_chip_11cxx_lib/inc/sysctl_11xx.h **** 
 122:../../lpc11cx4-library/lpc_chip_11cxx_lib/inc/sysctl_11xx.h **** /**
 123:../../lpc11cx4-library/lpc_chip_11cxx_lib/inc/sysctl_11xx.h ****  * @brief	Re-map interrupt vectors
 124:../../lpc11cx4-library/lpc_chip_11cxx_lib/inc/sysctl_11xx.h ****  * @param	remap	: system memory map value
 125:../../lpc11cx4-library/lpc_chip_11cxx_lib/inc/sysctl_11xx.h ****  * @return	Nothing
 126:../../lpc11cx4-library/lpc_chip_11cxx_lib/inc/sysctl_11xx.h ****  */
 127:../../lpc11cx4-library/lpc_chip_11cxx_lib/inc/sysctl_11xx.h **** STATIC INLINE void Chip_SYSCTL_Map(CHIP_SYSCTL_BOOT_MODE_REMAP_T remap)
 128:../../lpc11cx4-library/lpc_chip_11cxx_lib/inc/sysctl_11xx.h **** {
 129:../../lpc11cx4-library/lpc_chip_11cxx_lib/inc/sysctl_11xx.h **** 	LPC_SYSCTL->SYSMEMREMAP = (uint32_t) remap;
 130:../../lpc11cx4-library/lpc_chip_11cxx_lib/inc/sysctl_11xx.h **** }
 131:../../lpc11cx4-library/lpc_chip_11cxx_lib/inc/sysctl_11xx.h **** 
 132:../../lpc11cx4-library/lpc_chip_11cxx_lib/inc/sysctl_11xx.h **** /**
 133:../../lpc11cx4-library/lpc_chip_11cxx_lib/inc/sysctl_11xx.h ****  * Peripheral reset identifiers, not available on all devices
 134:../../lpc11cx4-library/lpc_chip_11cxx_lib/inc/sysctl_11xx.h ****  */
 135:../../lpc11cx4-library/lpc_chip_11cxx_lib/inc/sysctl_11xx.h **** typedef enum {
 136:../../lpc11cx4-library/lpc_chip_11cxx_lib/inc/sysctl_11xx.h **** 	RESET_SSP0,			/*!< SSP0 reset control */
 137:../../lpc11cx4-library/lpc_chip_11cxx_lib/inc/sysctl_11xx.h **** 	RESET_I2C0,			/*!< I2C0 reset control */
 138:../../lpc11cx4-library/lpc_chip_11cxx_lib/inc/sysctl_11xx.h **** 	RESET_SSP1,			/*!< SSP1 reset control */
 139:../../lpc11cx4-library/lpc_chip_11cxx_lib/inc/sysctl_11xx.h **** #if !defined(CHIP_LPC1125)
 140:../../lpc11cx4-library/lpc_chip_11cxx_lib/inc/sysctl_11xx.h **** 	RESET_CAN0,			/*!< CAN0 reset control */
 141:../../lpc11cx4-library/lpc_chip_11cxx_lib/inc/sysctl_11xx.h **** 	RESET_UART0,		/*!< UART0 reset control */
 142:../../lpc11cx4-library/lpc_chip_11cxx_lib/inc/sysctl_11xx.h **** 	RESET_TIMER0_16,	/*!< 16-bit Timer 0 reset control */
 143:../../lpc11cx4-library/lpc_chip_11cxx_lib/inc/sysctl_11xx.h **** 	RESET_TIMER1_16,	/*!< 16-bit Timer 1 reset control */
 144:../../lpc11cx4-library/lpc_chip_11cxx_lib/inc/sysctl_11xx.h **** 	RESET_TIMER0_32,	/*!< 32-bit Timer 0 reset control */
 145:../../lpc11cx4-library/lpc_chip_11cxx_lib/inc/sysctl_11xx.h **** 	RESET_TIMER1_32,	/*!< 32-bit Timer 1 reset control */
 146:../../lpc11cx4-library/lpc_chip_11cxx_lib/inc/sysctl_11xx.h **** 	RESET_ACMP,			/*!< Analog comparator reset control */
 147:../../lpc11cx4-library/lpc_chip_11cxx_lib/inc/sysctl_11xx.h **** 	RESET_DAC0,			/*!< DAC reset control */
 148:../../lpc11cx4-library/lpc_chip_11cxx_lib/inc/sysctl_11xx.h **** 	RESET_ADC0			/*!< ADC reset control */
 149:../../lpc11cx4-library/lpc_chip_11cxx_lib/inc/sysctl_11xx.h **** #endif
 150:../../lpc11cx4-library/lpc_chip_11cxx_lib/inc/sysctl_11xx.h **** } CHIP_SYSCTL_PERIPH_RESET_T;
 151:../../lpc11cx4-library/lpc_chip_11cxx_lib/inc/sysctl_11xx.h **** 
 152:../../lpc11cx4-library/lpc_chip_11cxx_lib/inc/sysctl_11xx.h **** /**
 153:../../lpc11cx4-library/lpc_chip_11cxx_lib/inc/sysctl_11xx.h ****  * @brief	Assert reset for a peripheral
 154:../../lpc11cx4-library/lpc_chip_11cxx_lib/inc/sysctl_11xx.h ****  * @param	periph	: Peripheral to assert reset for
 155:../../lpc11cx4-library/lpc_chip_11cxx_lib/inc/sysctl_11xx.h ****  * @return	Nothing
 156:../../lpc11cx4-library/lpc_chip_11cxx_lib/inc/sysctl_11xx.h ****  * @note	The peripheral will stay in reset until reset is de-asserted. Call
 157:../../lpc11cx4-library/lpc_chip_11cxx_lib/inc/sysctl_11xx.h ****  * Chip_SYSCTL_DeassertPeriphReset() to de-assert the reset.
 158:../../lpc11cx4-library/lpc_chip_11cxx_lib/inc/sysctl_11xx.h ****  */
 159:../../lpc11cx4-library/lpc_chip_11cxx_lib/inc/sysctl_11xx.h **** STATIC INLINE void Chip_SYSCTL_AssertPeriphReset(CHIP_SYSCTL_PERIPH_RESET_T periph)
 160:../../lpc11cx4-library/lpc_chip_11cxx_lib/inc/sysctl_11xx.h **** {
 161:../../lpc11cx4-library/lpc_chip_11cxx_lib/inc/sysctl_11xx.h **** 	LPC_SYSCTL->PRESETCTRL &= ~(1 << (uint32_t) periph);
 1591              		.loc 4 161 0
 1592 0030 0122     		mov	r2, #1	@ tmp151,
 1593 0032 A240     		lsl	r2, r2, r4	@ D.6853, tmp151, resetSSP
 1594 0034 5968     		ldr	r1, [r3, #4]	@ D.6854, MEM[(struct LPC_SYSCTL_T *)1074036736B].PRESETCTRL
ARM GAS  /tmp/ccFRKuha.s 			page 56


 1595              	.LBE398:
 1596              	.LBE397:
 1597              	.LBE396:
 485:../../lpc11cx4-library/lpc_chip_11cxx_lib/src/ssp_11xx.c **** 	Chip_Clock_EnablePeriphClock(Chip_SSP_GetClockIndex(pSSP));
 486:../../lpc11cx4-library/lpc_chip_11cxx_lib/src/ssp_11xx.c **** 	Chip_SSP_SetSSPClkDivider(pSSP, 1);
 487:../../lpc11cx4-library/lpc_chip_11cxx_lib/src/ssp_11xx.c **** 	Chip_SYSCTL_PeriphReset(Chip_SSP_GetResetIndex(pSSP));
 488:../../lpc11cx4-library/lpc_chip_11cxx_lib/src/ssp_11xx.c **** 
 489:../../lpc11cx4-library/lpc_chip_11cxx_lib/src/ssp_11xx.c **** 	Chip_SSP_Set_Mode(pSSP, SSP_MODE_MASTER);
 490:../../lpc11cx4-library/lpc_chip_11cxx_lib/src/ssp_11xx.c **** 	Chip_SSP_SetFormat(pSSP, SSP_BITS_8, SSP_FRAMEFORMAT_SPI, SSP_CLOCK_CPHA0_CPOL0);
 491:../../lpc11cx4-library/lpc_chip_11cxx_lib/src/ssp_11xx.c **** 	Chip_SSP_SetBitRate(pSSP, 100000);
 492:../../lpc11cx4-library/lpc_chip_11cxx_lib/src/ssp_11xx.c **** }
 1598              		.loc 1 492 0
 1599              		@ sp needed	@
 1600              	.LBB403:
 1601              	.LBB400:
 1602              	.LBB399:
 1603              		.loc 4 161 0
 1604 0036 9143     		bic	r1, r2	@ D.6854, D.6853
 1605 0038 5960     		str	r1, [r3, #4]	@ D.6854, MEM[(struct LPC_SYSCTL_T *)1074036736B].PRESETCTRL
 1606              	.LVL166:
 1607              	.LBE399:
 1608              	.LBE400:
 1609              	.LBB401:
 1610              	.LBB402:
 162:../../lpc11cx4-library/lpc_chip_11cxx_lib/inc/sysctl_11xx.h **** }
 163:../../lpc11cx4-library/lpc_chip_11cxx_lib/inc/sysctl_11xx.h **** 
 164:../../lpc11cx4-library/lpc_chip_11cxx_lib/inc/sysctl_11xx.h **** /**
 165:../../lpc11cx4-library/lpc_chip_11cxx_lib/inc/sysctl_11xx.h ****  * @brief	De-assert reset for a peripheral
 166:../../lpc11cx4-library/lpc_chip_11cxx_lib/inc/sysctl_11xx.h ****  * @param	periph	: Peripheral to de-assert reset for
 167:../../lpc11cx4-library/lpc_chip_11cxx_lib/inc/sysctl_11xx.h ****  * @return	Nothing
 168:../../lpc11cx4-library/lpc_chip_11cxx_lib/inc/sysctl_11xx.h ****  */
 169:../../lpc11cx4-library/lpc_chip_11cxx_lib/inc/sysctl_11xx.h **** STATIC INLINE void Chip_SYSCTL_DeassertPeriphReset(CHIP_SYSCTL_PERIPH_RESET_T periph)
 170:../../lpc11cx4-library/lpc_chip_11cxx_lib/inc/sysctl_11xx.h **** {
 171:../../lpc11cx4-library/lpc_chip_11cxx_lib/inc/sysctl_11xx.h **** 	LPC_SYSCTL->PRESETCTRL |= (1 << (uint32_t) periph);
 1611              		.loc 4 171 0
 1612 003a 5968     		ldr	r1, [r3, #4]	@ D.6854, MEM[(struct LPC_SYSCTL_T *)1074036736B].PRESETCTRL
 1613 003c 0A43     		orr	r2, r1	@ D.6854, D.6854
 1614 003e 5A60     		str	r2, [r3, #4]	@ D.6854, MEM[(struct LPC_SYSCTL_T *)1074036736B].PRESETCTRL
 1615              	.LVL167:
 1616              	.LBE402:
 1617              	.LBE401:
 1618              	.LBE403:
 1619              	.LBB404:
 1620              	.LBB405:
 1621              		.loc 2 421 0
 1622 0040 0422     		mov	r2, #4	@ tmp156,
 1623 0042 4368     		ldr	r3, [r0, #4]	@ D.6854, pSSP_1(D)->CR1
 1624              	.LBE405:
 1625              	.LBE404:
 491:../../lpc11cx4-library/lpc_chip_11cxx_lib/src/ssp_11xx.c **** }
 1626              		.loc 1 491 0
 1627 0044 0A49     		ldr	r1, .L211+20	@,
 1628              	.LBB407:
 1629              	.LBB406:
 1630              		.loc 2 421 0
 1631 0046 9343     		bic	r3, r2	@ D.6854, tmp156
 1632 0048 4360     		str	r3, [r0, #4]	@ D.6854, pSSP_1(D)->CR1
ARM GAS  /tmp/ccFRKuha.s 			page 57


 1633              	.LVL168:
 1634              	.LBE406:
 1635              	.LBE407:
 1636              	.LBB408:
 1637              	.LBB409:
 408:../../lpc11cx4-library/lpc_chip_11cxx_lib/inc/ssp_11xx.h **** }
 1638              		.loc 2 408 0
 1639 004a 0368     		ldr	r3, [r0]	@ D.6854, pSSP_1(D)->CR0
 1640 004c FB32     		add	r2, r2, #251	@ tmp158,
 1641 004e 9343     		bic	r3, r2	@ D.6854, tmp158
 1642 0050 F83A     		sub	r2, r2, #248	@ tmp159,
 1643 0052 1343     		orr	r3, r2	@ D.6854, tmp159
 1644 0054 0360     		str	r3, [r0]	@ D.6854, pSSP_1(D)->CR0
 1645              	.LBE409:
 1646              	.LBE408:
 491:../../lpc11cx4-library/lpc_chip_11cxx_lib/src/ssp_11xx.c **** }
 1647              		.loc 1 491 0
 1648 0056 FFF7FEFF 		bl	Chip_SSP_SetBitRate	@
 1649              	.LVL169:
 1650              		.loc 1 492 0
 1651 005a 70BD     		pop	{r4, r5, r6, pc}
 1652              	.L212:
 1653              		.align	2
 1654              	.L211:
 1655 005c 00000440 		.word	1074003968
 1656 0060 04800440 		.word	1074036740
 1657 0064 00800440 		.word	1074036736
 1658 0068 94800440 		.word	1074036884
 1659 006c 9C800440 		.word	1074036892
 1660 0070 A0860100 		.word	100000
 1661              		.cfi_endproc
 1662              	.LFE215:
 1663              		.size	Chip_SSP_Init, .-Chip_SSP_Init
 1664              		.section	.text.Chip_SSP_DeInit,"ax",%progbits
 1665              		.align	1
 1666              		.global	Chip_SSP_DeInit
 1667              		.code	16
 1668              		.thumb_func
 1669              		.type	Chip_SSP_DeInit, %function
 1670              	Chip_SSP_DeInit:
 1671              	.LFB216:
 493:../../lpc11cx4-library/lpc_chip_11cxx_lib/src/ssp_11xx.c **** 
 494:../../lpc11cx4-library/lpc_chip_11cxx_lib/src/ssp_11xx.c **** /* De-initializes the SSP peripheral */
 495:../../lpc11cx4-library/lpc_chip_11cxx_lib/src/ssp_11xx.c **** void Chip_SSP_DeInit(LPC_SSP_T *pSSP)
 496:../../lpc11cx4-library/lpc_chip_11cxx_lib/src/ssp_11xx.c **** {
 1672              		.loc 1 496 0
 1673              		.cfi_startproc
 1674              	.LVL170:
 1675              	.LBB422:
 1676              	.LBB423:
 244:../../lpc11cx4-library/lpc_chip_11cxx_lib/inc/ssp_11xx.h **** }
 1677              		.loc 2 244 0
 1678 0000 0D23     		mov	r3, #13	@ tmp120,
 1679 0002 4268     		ldr	r2, [r0, #4]	@ D.6862, pSSP_2(D)->CR1
 1680              	.LBE423:
 1681              	.LBE422:
 1682              	.LBB426:
ARM GAS  /tmp/ccFRKuha.s 			page 58


 1683              	.LBB427:
 109:../../lpc11cx4-library/lpc_chip_11cxx_lib/src/ssp_11xx.c **** 		clkSSP = SYSCTL_CLOCK_SSP0;
 1684              		.loc 1 109 0
 1685 0004 0A49     		ldr	r1, .L219	@ tmp140,
 1686              	.LBE427:
 1687              	.LBE426:
 1688              	.LBB429:
 1689              	.LBB424:
 244:../../lpc11cx4-library/lpc_chip_11cxx_lib/inc/ssp_11xx.h **** }
 1690              		.loc 2 244 0
 1691 0006 1340     		and	r3, r2	@ D.6862, D.6862
 1692              	.LBE424:
 1693              	.LBE429:
 1694              		.loc 1 496 0
 1695 0008 30B5     		push	{r4, r5, lr}	@
 1696              		.cfi_def_cfa_offset 12
 1697              		.cfi_offset 4, -12
 1698              		.cfi_offset 5, -8
 1699              		.cfi_offset 14, -4
 1700              	.LBB430:
 1701              	.LBB425:
 244:../../lpc11cx4-library/lpc_chip_11cxx_lib/inc/ssp_11xx.h **** }
 1702              		.loc 2 244 0
 1703 000a 4360     		str	r3, [r0, #4]	@ D.6862, pSSP_2(D)->CR1
 1704              	.LVL171:
 1705              	.LBE425:
 1706              	.LBE430:
 1707              	.LBB431:
 1708              	.LBB428:
 110:../../lpc11cx4-library/lpc_chip_11cxx_lib/src/ssp_11xx.c **** 	}
 1709              		.loc 1 110 0
 1710 000c 0B25     		mov	r5, #11	@ clkSSP,
 109:../../lpc11cx4-library/lpc_chip_11cxx_lib/src/ssp_11xx.c **** 		clkSSP = SYSCTL_CLOCK_SSP0;
 1711              		.loc 1 109 0
 1712 000e 8842     		cmp	r0, r1	@ pSSP, tmp140
 1713 0010 00D0     		beq	.L214	@,
 114:../../lpc11cx4-library/lpc_chip_11cxx_lib/src/ssp_11xx.c **** 	}
 1714              		.loc 1 114 0
 1715 0012 0735     		add	r5, r5, #7	@ clkSSP,
 1716              	.L214:
 1717              	.LVL172:
 1718              	.LBE428:
 1719              	.LBE431:
 1720              	.LBB432:
 1721              	.LBB433:
 307:../../lpc11cx4-library/lpc_chip_11cxx_lib/inc/clock_11xx.h **** }
 1722              		.loc 3 307 0
 1723 0014 0122     		mov	r2, #1	@ tmp125,
 1724 0016 AA40     		lsl	r2, r2, r5	@ D.6863, tmp125, clkSSP
 1725 0018 064C     		ldr	r4, .L219+4	@ tmp123,
 1726 001a E36F     		ldr	r3, [r4, #124]	@ D.6862, MEM[(struct LPC_SYSCTL_T *)1074036736B].SYSAHBCLKCTRL
 1727 001c 9343     		bic	r3, r2	@ D.6862, D.6863
 1728 001e E367     		str	r3, [r4, #124]	@ D.6862, MEM[(struct LPC_SYSCTL_T *)1074036736B].SYSAHBCLKCTRL
 1729              	.LVL173:
 1730 0020 0023     		mov	r3, #0	@ tmp141,
 1731              	.LBE433:
 1732              	.LBE432:
ARM GAS  /tmp/ccFRKuha.s 			page 59


 1733              	.LBB434:
 1734              	.LBB435:
 139:../../lpc11cx4-library/lpc_chip_11cxx_lib/src/ssp_11xx.c **** 		Chip_Clock_SetSSP0ClockDiv(div);
 1735              		.loc 1 139 0
 1736 0022 8842     		cmp	r0, r1	@ pSSP, tmp140
 1737 0024 01D1     		bne	.L215	@,
 1738              	.LVL174:
 1739              	.LBB436:
 1740              	.LBB437:
 319:../../lpc11cx4-library/lpc_chip_11cxx_lib/inc/clock_11xx.h **** }
 1741              		.loc 3 319 0
 1742 0026 044A     		ldr	r2, .L219+8	@ tmp133,
 1743 0028 00E0     		b	.L218	@
 1744              	.LVL175:
 1745              	.L215:
 1746              	.LBE437:
 1747              	.LBE436:
 1748              	.LBB438:
 1749              	.LBB439:
 364:../../lpc11cx4-library/lpc_chip_11cxx_lib/inc/clock_11xx.h **** }
 1750              		.loc 3 364 0
 1751 002a 044A     		ldr	r2, .L219+12	@ tmp138,
 1752              	.LVL176:
 1753              	.L218:
 1754 002c 1360     		str	r3, [r2]	@ tmp141,
 1755              	.LBE439:
 1756              	.LBE438:
 1757              	.LBE435:
 1758              	.LBE434:
 497:../../lpc11cx4-library/lpc_chip_11cxx_lib/src/ssp_11xx.c **** 	Chip_SSP_Disable(pSSP);
 498:../../lpc11cx4-library/lpc_chip_11cxx_lib/src/ssp_11xx.c **** 
 499:../../lpc11cx4-library/lpc_chip_11cxx_lib/src/ssp_11xx.c **** 	Chip_Clock_DisablePeriphClock(Chip_SSP_GetClockIndex(pSSP));
 500:../../lpc11cx4-library/lpc_chip_11cxx_lib/src/ssp_11xx.c **** 	Chip_SSP_SetSSPClkDivider(pSSP, 0);
 501:../../lpc11cx4-library/lpc_chip_11cxx_lib/src/ssp_11xx.c **** }
 1759              		.loc 1 501 0
 1760              		@ sp needed	@
 1761 002e 30BD     		pop	{r4, r5, pc}
 1762              	.L220:
 1763              		.align	2
 1764              	.L219:
 1765 0030 00000440 		.word	1074003968
 1766 0034 04800440 		.word	1074036740
 1767 0038 94800440 		.word	1074036884
 1768 003c 9C800440 		.word	1074036892
 1769              		.cfi_endproc
 1770              	.LFE216:
 1771              		.size	Chip_SSP_DeInit, .-Chip_SSP_DeInit
 1772              		.text
 1773              	.Letext0:
 1774              		.file 5 "/usr/arm-none-eabi/include/machine/_default_types.h"
 1775              		.file 6 "/usr/arm-none-eabi/include/sys/_stdint.h"
 1776              		.file 7 "../../lpc11cx4-library/lpc_chip_11cxx_lib/inc/lpc_types.h"
 1777              		.file 8 "../../lpc11cx4-library/lpc_chip_11cxx_lib/inc/chip.h"
 1778              		.section	.debug_info,"",%progbits
 1779              	.Ldebug_info0:
 1780 0000 1F1B0000 		.4byte	0x1b1f
 1781 0004 0400     		.2byte	0x4
ARM GAS  /tmp/ccFRKuha.s 			page 60


 1782 0006 00000000 		.4byte	.Ldebug_abbrev0
 1783 000a 04       		.byte	0x4
 1784 000b 01       		.uleb128 0x1
 1785 000c 731E0000 		.4byte	.LASF1265
 1786 0010 01       		.byte	0x1
 1787 0011 FC520000 		.4byte	.LASF1266
 1788 0015 447A0000 		.4byte	.LASF1267
 1789 0019 C0010000 		.4byte	.Ldebug_ranges0+0x1c0
 1790 001d 00000000 		.4byte	0
 1791 0021 00000000 		.4byte	.Ldebug_line0
 1792 0025 00000000 		.4byte	.Ldebug_macro0
 1793 0029 02       		.uleb128 0x2
 1794 002a 01       		.byte	0x1
 1795 002b 06       		.byte	0x6
 1796 002c 421B0000 		.4byte	.LASF1021
 1797 0030 03       		.uleb128 0x3
 1798 0031 A60F0000 		.4byte	.LASF1024
 1799 0035 05       		.byte	0x5
 1800 0036 1D       		.byte	0x1d
 1801 0037 3B000000 		.4byte	0x3b
 1802 003b 02       		.uleb128 0x2
 1803 003c 01       		.byte	0x1
 1804 003d 08       		.byte	0x8
 1805 003e 291E0000 		.4byte	.LASF1022
 1806 0042 02       		.uleb128 0x2
 1807 0043 02       		.byte	0x2
 1808 0044 05       		.byte	0x5
 1809 0045 84690000 		.4byte	.LASF1023
 1810 0049 03       		.uleb128 0x3
 1811 004a 31270000 		.4byte	.LASF1025
 1812 004e 05       		.byte	0x5
 1813 004f 2B       		.byte	0x2b
 1814 0050 54000000 		.4byte	0x54
 1815 0054 02       		.uleb128 0x2
 1816 0055 02       		.byte	0x2
 1817 0056 07       		.byte	0x7
 1818 0057 F9760000 		.4byte	.LASF1026
 1819 005b 02       		.uleb128 0x2
 1820 005c 04       		.byte	0x4
 1821 005d 05       		.byte	0x5
 1822 005e B1130000 		.4byte	.LASF1027
 1823 0062 03       		.uleb128 0x3
 1824 0063 27410000 		.4byte	.LASF1028
 1825 0067 05       		.byte	0x5
 1826 0068 41       		.byte	0x41
 1827 0069 6D000000 		.4byte	0x6d
 1828 006d 02       		.uleb128 0x2
 1829 006e 04       		.byte	0x4
 1830 006f 07       		.byte	0x7
 1831 0070 0C380000 		.4byte	.LASF1029
 1832 0074 02       		.uleb128 0x2
 1833 0075 08       		.byte	0x8
 1834 0076 05       		.byte	0x5
 1835 0077 89410000 		.4byte	.LASF1030
 1836 007b 02       		.uleb128 0x2
 1837 007c 08       		.byte	0x8
 1838 007d 07       		.byte	0x7
ARM GAS  /tmp/ccFRKuha.s 			page 61


 1839 007e 365A0000 		.4byte	.LASF1031
 1840 0082 04       		.uleb128 0x4
 1841 0083 04       		.byte	0x4
 1842 0084 05       		.byte	0x5
 1843 0085 696E7400 		.ascii	"int\000"
 1844 0089 02       		.uleb128 0x2
 1845 008a 04       		.byte	0x4
 1846 008b 07       		.byte	0x7
 1847 008c A0490000 		.4byte	.LASF1032
 1848 0090 03       		.uleb128 0x3
 1849 0091 7B1B0000 		.4byte	.LASF1033
 1850 0095 06       		.byte	0x6
 1851 0096 14       		.byte	0x14
 1852 0097 30000000 		.4byte	0x30
 1853 009b 03       		.uleb128 0x3
 1854 009c 275B0000 		.4byte	.LASF1034
 1855 00a0 06       		.byte	0x6
 1856 00a1 1A       		.byte	0x1a
 1857 00a2 49000000 		.4byte	0x49
 1858 00a6 03       		.uleb128 0x3
 1859 00a7 E4730000 		.4byte	.LASF1035
 1860 00ab 06       		.byte	0x6
 1861 00ac 20       		.byte	0x20
 1862 00ad 62000000 		.4byte	0x62
 1863 00b1 05       		.uleb128 0x5
 1864 00b2 01       		.byte	0x1
 1865 00b3 07       		.byte	0x7
 1866 00b4 3E       		.byte	0x3e
 1867 00b5 C6000000 		.4byte	0xc6
 1868 00b9 06       		.uleb128 0x6
 1869 00ba 35610000 		.4byte	.LASF1036
 1870 00be 00       		.sleb128 0
 1871 00bf 07       		.uleb128 0x7
 1872 00c0 53455400 		.ascii	"SET\000"
 1873 00c4 01       		.sleb128 1
 1874 00c5 00       		.byte	0
 1875 00c6 03       		.uleb128 0x3
 1876 00c7 CC630000 		.4byte	.LASF1037
 1877 00cb 07       		.byte	0x7
 1878 00cc 3E       		.byte	0x3e
 1879 00cd B1000000 		.4byte	0xb1
 1880 00d1 03       		.uleb128 0x3
 1881 00d2 C5700000 		.4byte	.LASF1038
 1882 00d6 07       		.byte	0x7
 1883 00d7 3E       		.byte	0x3e
 1884 00d8 B1000000 		.4byte	0xb1
 1885 00dc 05       		.uleb128 0x5
 1886 00dd 01       		.byte	0x1
 1887 00de 07       		.byte	0x7
 1888 00df 4A       		.byte	0x4a
 1889 00e0 F1000000 		.4byte	0xf1
 1890 00e4 06       		.uleb128 0x6
 1891 00e5 E63C0000 		.4byte	.LASF1039
 1892 00e9 00       		.sleb128 0
 1893 00ea 06       		.uleb128 0x6
 1894 00eb 1E5F0000 		.4byte	.LASF1040
 1895 00ef 01       		.sleb128 1
ARM GAS  /tmp/ccFRKuha.s 			page 62


 1896 00f0 00       		.byte	0
 1897 00f1 03       		.uleb128 0x3
 1898 00f2 5C400000 		.4byte	.LASF1041
 1899 00f6 07       		.byte	0x7
 1900 00f7 4A       		.byte	0x4a
 1901 00f8 DC000000 		.4byte	0xdc
 1902 00fc 02       		.uleb128 0x2
 1903 00fd 01       		.byte	0x1
 1904 00fe 08       		.byte	0x8
 1905 00ff 27240000 		.4byte	.LASF371
 1906 0103 02       		.uleb128 0x2
 1907 0104 01       		.byte	0x1
 1908 0105 02       		.byte	0x2
 1909 0106 A9220000 		.4byte	.LASF1042
 1910 010a 02       		.uleb128 0x2
 1911 010b 04       		.byte	0x4
 1912 010c 07       		.byte	0x7
 1913 010d 96010000 		.4byte	.LASF1043
 1914 0111 08       		.uleb128 0x8
 1915 0112 A6000000 		.4byte	0xa6
 1916 0116 21010000 		.4byte	0x121
 1917 011a 09       		.uleb128 0x9
 1918 011b 0A010000 		.4byte	0x10a
 1919 011f 07       		.byte	0x7
 1920 0120 00       		.byte	0
 1921 0121 0A       		.uleb128 0xa
 1922 0122 26010000 		.4byte	0x126
 1923 0126 0B       		.uleb128 0xb
 1924 0127 A6000000 		.4byte	0xa6
 1925 012b 08       		.uleb128 0x8
 1926 012c A6000000 		.4byte	0xa6
 1927 0130 3B010000 		.4byte	0x13b
 1928 0134 09       		.uleb128 0x9
 1929 0135 0A010000 		.4byte	0x10a
 1930 0139 01       		.byte	0x1
 1931 013a 00       		.byte	0
 1932 013b 08       		.uleb128 0x8
 1933 013c A6000000 		.4byte	0xa6
 1934 0140 4B010000 		.4byte	0x14b
 1935 0144 09       		.uleb128 0x9
 1936 0145 0A010000 		.4byte	0x10a
 1937 0149 03       		.byte	0x3
 1938 014a 00       		.byte	0
 1939 014b 08       		.uleb128 0x8
 1940 014c A6000000 		.4byte	0xa6
 1941 0150 5B010000 		.4byte	0x15b
 1942 0154 09       		.uleb128 0x9
 1943 0155 0A010000 		.4byte	0x10a
 1944 0159 02       		.byte	0x2
 1945 015a 00       		.byte	0
 1946 015b 0C       		.uleb128 0xc
 1947 015c F803     		.2byte	0x3f8
 1948 015e 04       		.byte	0x4
 1949 015f 2F       		.byte	0x2f
 1950 0160 70040000 		.4byte	0x470
 1951 0164 0D       		.uleb128 0xd
 1952 0165 D82F0000 		.4byte	.LASF1044
ARM GAS  /tmp/ccFRKuha.s 			page 63


 1953 0169 04       		.byte	0x4
 1954 016a 30       		.byte	0x30
 1955 016b 26010000 		.4byte	0x126
 1956 016f 00       		.byte	0
 1957 0170 0D       		.uleb128 0xd
 1958 0171 775F0000 		.4byte	.LASF1045
 1959 0175 04       		.byte	0x4
 1960 0176 31       		.byte	0x31
 1961 0177 26010000 		.4byte	0x126
 1962 017b 04       		.byte	0x4
 1963 017c 0D       		.uleb128 0xd
 1964 017d 532F0000 		.4byte	.LASF1046
 1965 0181 04       		.byte	0x4
 1966 0182 32       		.byte	0x32
 1967 0183 26010000 		.4byte	0x126
 1968 0187 08       		.byte	0x8
 1969 0188 0D       		.uleb128 0xd
 1970 0189 69700000 		.4byte	.LASF1047
 1971 018d 04       		.byte	0x4
 1972 018e 33       		.byte	0x33
 1973 018f 21010000 		.4byte	0x121
 1974 0193 0C       		.byte	0xc
 1975 0194 0D       		.uleb128 0xd
 1976 0195 50700000 		.4byte	.LASF1048
 1977 0199 04       		.byte	0x4
 1978 019a 34       		.byte	0x34
 1979 019b 26010000 		.4byte	0x126
 1980 019f 10       		.byte	0x10
 1981 01a0 0D       		.uleb128 0xd
 1982 01a1 A4350000 		.4byte	.LASF1049
 1983 01a5 04       		.byte	0x4
 1984 01a6 35       		.byte	0x35
 1985 01a7 21010000 		.4byte	0x121
 1986 01ab 14       		.byte	0x14
 1987 01ac 0D       		.uleb128 0xd
 1988 01ad 1F1E0000 		.4byte	.LASF1050
 1989 01b1 04       		.byte	0x4
 1990 01b2 36       		.byte	0x36
 1991 01b3 70040000 		.4byte	0x470
 1992 01b7 18       		.byte	0x18
 1993 01b8 0D       		.uleb128 0xd
 1994 01b9 81550000 		.4byte	.LASF1051
 1995 01bd 04       		.byte	0x4
 1996 01be 37       		.byte	0x37
 1997 01bf 26010000 		.4byte	0x126
 1998 01c3 20       		.byte	0x20
 1999 01c4 0D       		.uleb128 0xd
 2000 01c5 C3750000 		.4byte	.LASF1052
 2001 01c9 04       		.byte	0x4
 2002 01ca 38       		.byte	0x38
 2003 01cb 26010000 		.4byte	0x126
 2004 01cf 24       		.byte	0x24
 2005 01d0 0D       		.uleb128 0xd
 2006 01d1 A45E0000 		.4byte	.LASF1053
 2007 01d5 04       		.byte	0x4
 2008 01d6 39       		.byte	0x39
 2009 01d7 26010000 		.4byte	0x126
ARM GAS  /tmp/ccFRKuha.s 			page 64


 2010 01db 28       		.byte	0x28
 2011 01dc 0D       		.uleb128 0xd
 2012 01dd 4C670000 		.4byte	.LASF1054
 2013 01e1 04       		.byte	0x4
 2014 01e2 3A       		.byte	0x3a
 2015 01e3 26010000 		.4byte	0x126
 2016 01e7 2C       		.byte	0x2c
 2017 01e8 0D       		.uleb128 0xd
 2018 01e9 C0430000 		.4byte	.LASF1055
 2019 01ed 04       		.byte	0x4
 2020 01ee 3B       		.byte	0x3b
 2021 01ef 26010000 		.4byte	0x126
 2022 01f3 30       		.byte	0x30
 2023 01f4 0D       		.uleb128 0xd
 2024 01f5 75230000 		.4byte	.LASF1056
 2025 01f9 04       		.byte	0x4
 2026 01fa 3C       		.byte	0x3c
 2027 01fb 7A040000 		.4byte	0x47a
 2028 01ff 34       		.byte	0x34
 2029 0200 0D       		.uleb128 0xd
 2030 0201 39150000 		.4byte	.LASF1057
 2031 0205 04       		.byte	0x4
 2032 0206 3D       		.byte	0x3d
 2033 0207 26010000 		.4byte	0x126
 2034 020b 40       		.byte	0x40
 2035 020c 0D       		.uleb128 0xd
 2036 020d E2490000 		.4byte	.LASF1058
 2037 0211 04       		.byte	0x4
 2038 0212 3E       		.byte	0x3e
 2039 0213 26010000 		.4byte	0x126
 2040 0217 44       		.byte	0x44
 2041 0218 0D       		.uleb128 0xd
 2042 0219 A61B0000 		.4byte	.LASF1059
 2043 021d 04       		.byte	0x4
 2044 021e 3F       		.byte	0x3f
 2045 021f 26010000 		.4byte	0x126
 2046 0223 48       		.byte	0x48
 2047 0224 0D       		.uleb128 0xd
 2048 0225 2E500000 		.4byte	.LASF1060
 2049 0229 04       		.byte	0x4
 2050 022a 40       		.byte	0x40
 2051 022b 26010000 		.4byte	0x126
 2052 022f 4C       		.byte	0x4c
 2053 0230 0D       		.uleb128 0xd
 2054 0231 371E0000 		.4byte	.LASF1061
 2055 0235 04       		.byte	0x4
 2056 0236 41       		.byte	0x41
 2057 0237 84040000 		.4byte	0x484
 2058 023b 50       		.byte	0x50
 2059 023c 0D       		.uleb128 0xd
 2060 023d 471F0000 		.4byte	.LASF1062
 2061 0241 04       		.byte	0x4
 2062 0242 42       		.byte	0x42
 2063 0243 26010000 		.4byte	0x126
 2064 0247 70       		.byte	0x70
 2065 0248 0D       		.uleb128 0xd
 2066 0249 0C540000 		.4byte	.LASF1063
ARM GAS  /tmp/ccFRKuha.s 			page 65


 2067 024d 04       		.byte	0x4
 2068 024e 43       		.byte	0x43
 2069 024f 26010000 		.4byte	0x126
 2070 0253 74       		.byte	0x74
 2071 0254 0D       		.uleb128 0xd
 2072 0255 EB4C0000 		.4byte	.LASF1064
 2073 0259 04       		.byte	0x4
 2074 025a 44       		.byte	0x44
 2075 025b 26010000 		.4byte	0x126
 2076 025f 78       		.byte	0x78
 2077 0260 0D       		.uleb128 0xd
 2078 0261 411E0000 		.4byte	.LASF1065
 2079 0265 04       		.byte	0x4
 2080 0266 45       		.byte	0x45
 2081 0267 21010000 		.4byte	0x121
 2082 026b 7C       		.byte	0x7c
 2083 026c 0D       		.uleb128 0xd
 2084 026d 5E5E0000 		.4byte	.LASF1066
 2085 0271 04       		.byte	0x4
 2086 0272 46       		.byte	0x46
 2087 0273 26010000 		.4byte	0x126
 2088 0277 80       		.byte	0x80
 2089 0278 0D       		.uleb128 0xd
 2090 0279 4B1E0000 		.4byte	.LASF1067
 2091 027d 04       		.byte	0x4
 2092 027e 47       		.byte	0x47
 2093 027f 8E040000 		.4byte	0x48e
 2094 0283 84       		.byte	0x84
 2095 0284 0D       		.uleb128 0xd
 2096 0285 05710000 		.4byte	.LASF1068
 2097 0289 04       		.byte	0x4
 2098 028a 48       		.byte	0x48
 2099 028b 26010000 		.4byte	0x126
 2100 028f 94       		.byte	0x94
 2101 0290 0D       		.uleb128 0xd
 2102 0291 BD240000 		.4byte	.LASF1069
 2103 0295 04       		.byte	0x4
 2104 0296 49       		.byte	0x49
 2105 0297 26010000 		.4byte	0x126
 2106 029b 98       		.byte	0x98
 2107 029c 0D       		.uleb128 0xd
 2108 029d A0760000 		.4byte	.LASF1070
 2109 02a1 04       		.byte	0x4
 2110 02a2 4A       		.byte	0x4a
 2111 02a3 26010000 		.4byte	0x126
 2112 02a7 9C       		.byte	0x9c
 2113 02a8 0D       		.uleb128 0xd
 2114 02a9 551E0000 		.4byte	.LASF1071
 2115 02ad 04       		.byte	0x4
 2116 02ae 4B       		.byte	0x4b
 2117 02af 98040000 		.4byte	0x498
 2118 02b3 A0       		.byte	0xa0
 2119 02b4 0D       		.uleb128 0xd
 2120 02b5 BA6A0000 		.4byte	.LASF1072
 2121 02b9 04       		.byte	0x4
 2122 02ba 4C       		.byte	0x4c
 2123 02bb 26010000 		.4byte	0x126
ARM GAS  /tmp/ccFRKuha.s 			page 66


 2124 02bf C0       		.byte	0xc0
 2125 02c0 0D       		.uleb128 0xd
 2126 02c1 83310000 		.4byte	.LASF1073
 2127 02c5 04       		.byte	0x4
 2128 02c6 4D       		.byte	0x4d
 2129 02c7 26010000 		.4byte	0x126
 2130 02cb C4       		.byte	0xc4
 2131 02cc 0D       		.uleb128 0xd
 2132 02cd 310A0000 		.4byte	.LASF1074
 2133 02d1 04       		.byte	0x4
 2134 02d2 4E       		.byte	0x4e
 2135 02d3 26010000 		.4byte	0x126
 2136 02d7 C8       		.byte	0xc8
 2137 02d8 0D       		.uleb128 0xd
 2138 02d9 5F1E0000 		.4byte	.LASF1075
 2139 02dd 04       		.byte	0x4
 2140 02de 4F       		.byte	0x4f
 2141 02df 21010000 		.4byte	0x121
 2142 02e3 CC       		.byte	0xcc
 2143 02e4 0D       		.uleb128 0xd
 2144 02e5 AE610000 		.4byte	.LASF1076
 2145 02e9 04       		.byte	0x4
 2146 02ea 50       		.byte	0x50
 2147 02eb 26010000 		.4byte	0x126
 2148 02ef D0       		.byte	0xd0
 2149 02f0 0D       		.uleb128 0xd
 2150 02f1 56150000 		.4byte	.LASF1077
 2151 02f5 04       		.byte	0x4
 2152 02f6 51       		.byte	0x51
 2153 02f7 26010000 		.4byte	0x126
 2154 02fb D4       		.byte	0xd4
 2155 02fc 0D       		.uleb128 0xd
 2156 02fd 986F0000 		.4byte	.LASF1078
 2157 0301 04       		.byte	0x4
 2158 0302 52       		.byte	0x52
 2159 0303 26010000 		.4byte	0x126
 2160 0307 D8       		.byte	0xd8
 2161 0308 0D       		.uleb128 0xd
 2162 0309 691E0000 		.4byte	.LASF1079
 2163 030d 04       		.byte	0x4
 2164 030e 53       		.byte	0x53
 2165 030f 21010000 		.4byte	0x121
 2166 0313 DC       		.byte	0xdc
 2167 0314 0D       		.uleb128 0xd
 2168 0315 ED680000 		.4byte	.LASF1080
 2169 0319 04       		.byte	0x4
 2170 031a 54       		.byte	0x54
 2171 031b 26010000 		.4byte	0x126
 2172 031f E0       		.byte	0xe0
 2173 0320 0D       		.uleb128 0xd
 2174 0321 451C0000 		.4byte	.LASF1081
 2175 0325 04       		.byte	0x4
 2176 0326 55       		.byte	0x55
 2177 0327 26010000 		.4byte	0x126
 2178 032b E4       		.byte	0xe4
 2179 032c 0D       		.uleb128 0xd
 2180 032d 03760000 		.4byte	.LASF1082
ARM GAS  /tmp/ccFRKuha.s 			page 67


 2181 0331 04       		.byte	0x4
 2182 0332 56       		.byte	0x56
 2183 0333 26010000 		.4byte	0x126
 2184 0337 E8       		.byte	0xe8
 2185 0338 0D       		.uleb128 0xd
 2186 0339 8C290000 		.4byte	.LASF1083
 2187 033d 04       		.byte	0x4
 2188 033e 57       		.byte	0x57
 2189 033f B2040000 		.4byte	0x4b2
 2190 0343 EC       		.byte	0xec
 2191 0344 0E       		.uleb128 0xe
 2192 0345 A9140000 		.4byte	.LASF1084
 2193 0349 04       		.byte	0x4
 2194 034a 58       		.byte	0x58
 2195 034b BC040000 		.4byte	0x4bc
 2196 034f 0001     		.2byte	0x100
 2197 0351 0E       		.uleb128 0xe
 2198 0352 C25C0000 		.4byte	.LASF1085
 2199 0356 04       		.byte	0x4
 2200 0357 59       		.byte	0x59
 2201 0358 D6040000 		.4byte	0x4d6
 2202 035c 0801     		.2byte	0x108
 2203 035e 0E       		.uleb128 0xe
 2204 035f 78060000 		.4byte	.LASF1086
 2205 0363 04       		.byte	0x4
 2206 0364 5A       		.byte	0x5a
 2207 0365 26010000 		.4byte	0x126
 2208 0369 5001     		.2byte	0x150
 2209 036b 0E       		.uleb128 0xe
 2210 036c B4790000 		.4byte	.LASF1087
 2211 0370 04       		.byte	0x4
 2212 0371 5B       		.byte	0x5b
 2213 0372 26010000 		.4byte	0x126
 2214 0376 5401     		.2byte	0x154
 2215 0378 0E       		.uleb128 0xe
 2216 0379 CD5C0000 		.4byte	.LASF1088
 2217 037d 04       		.byte	0x4
 2218 037e 5C       		.byte	0x5c
 2219 037f F0040000 		.4byte	0x4f0
 2220 0383 5801     		.2byte	0x158
 2221 0385 0E       		.uleb128 0xe
 2222 0386 09350000 		.4byte	.LASF1089
 2223 038a 04       		.byte	0x4
 2224 038b 5D       		.byte	0x5d
 2225 038c 26010000 		.4byte	0x126
 2226 0390 7001     		.2byte	0x170
 2227 0392 0E       		.uleb128 0xe
 2228 0393 396E0000 		.4byte	.LASF1090
 2229 0397 04       		.byte	0x4
 2230 0398 5E       		.byte	0x5e
 2231 0399 26010000 		.4byte	0x126
 2232 039d 7401     		.2byte	0x174
 2233 039f 0E       		.uleb128 0xe
 2234 03a0 88110000 		.4byte	.LASF1091
 2235 03a4 04       		.byte	0x4
 2236 03a5 5F       		.byte	0x5f
 2237 03a6 FA040000 		.4byte	0x4fa
ARM GAS  /tmp/ccFRKuha.s 			page 68


 2238 03aa 7801     		.2byte	0x178
 2239 03ac 0E       		.uleb128 0xe
 2240 03ad 95320000 		.4byte	.LASF1092
 2241 03b1 04       		.byte	0x4
 2242 03b2 60       		.byte	0x60
 2243 03b3 26010000 		.4byte	0x126
 2244 03b7 9801     		.2byte	0x198
 2245 03b9 0E       		.uleb128 0xe
 2246 03ba 6E5F0000 		.4byte	.LASF1093
 2247 03be 04       		.byte	0x4
 2248 03bf 61       		.byte	0x61
 2249 03c0 21010000 		.4byte	0x121
 2250 03c4 9C01     		.2byte	0x19c
 2251 03c6 0E       		.uleb128 0xe
 2252 03c7 D85C0000 		.4byte	.LASF1094
 2253 03cb 04       		.byte	0x4
 2254 03cc 62       		.byte	0x62
 2255 03cd 0F050000 		.4byte	0x50f
 2256 03d1 A001     		.2byte	0x1a0
 2257 03d3 0E       		.uleb128 0xe
 2258 03d4 0C4F0000 		.4byte	.LASF1095
 2259 03d8 04       		.byte	0x4
 2260 03d9 63       		.byte	0x63
 2261 03da 26010000 		.4byte	0x126
 2262 03de 0002     		.2byte	0x200
 2263 03e0 0E       		.uleb128 0xe
 2264 03e1 DB6B0000 		.4byte	.LASF1096
 2265 03e5 04       		.byte	0x4
 2266 03e6 64       		.byte	0x64
 2267 03e7 26010000 		.4byte	0x126
 2268 03eb 0402     		.2byte	0x204
 2269 03ed 0E       		.uleb128 0xe
 2270 03ee 5B700000 		.4byte	.LASF1097
 2271 03f2 04       		.byte	0x4
 2272 03f3 65       		.byte	0x65
 2273 03f4 26010000 		.4byte	0x126
 2274 03f8 0802     		.2byte	0x208
 2275 03fa 0E       		.uleb128 0xe
 2276 03fb 2B740000 		.4byte	.LASF1098
 2277 03ff 04       		.byte	0x4
 2278 0400 66       		.byte	0x66
 2279 0401 26010000 		.4byte	0x126
 2280 0405 0C02     		.2byte	0x20c
 2281 0407 0E       		.uleb128 0xe
 2282 0408 E35C0000 		.4byte	.LASF1099
 2283 040c 04       		.byte	0x4
 2284 040d 67       		.byte	0x67
 2285 040e 21010000 		.4byte	0x121
 2286 0412 1002     		.2byte	0x210
 2287 0414 0E       		.uleb128 0xe
 2288 0415 E56B0000 		.4byte	.LASF1100
 2289 0419 04       		.byte	0x4
 2290 041a 68       		.byte	0x68
 2291 041b 26010000 		.4byte	0x126
 2292 041f 1402     		.2byte	0x214
 2293 0421 0E       		.uleb128 0xe
 2294 0422 EE5C0000 		.4byte	.LASF1101
ARM GAS  /tmp/ccFRKuha.s 			page 69


 2295 0426 04       		.byte	0x4
 2296 0427 69       		.byte	0x69
 2297 0428 19050000 		.4byte	0x519
 2298 042c 1802     		.2byte	0x218
 2299 042e 0E       		.uleb128 0xe
 2300 042f 804D0000 		.4byte	.LASF1102
 2301 0433 04       		.byte	0x4
 2302 0434 6A       		.byte	0x6a
 2303 0435 26010000 		.4byte	0x126
 2304 0439 3002     		.2byte	0x230
 2305 043b 0E       		.uleb128 0xe
 2306 043c 565F0000 		.4byte	.LASF1103
 2307 0440 04       		.byte	0x4
 2308 0441 6B       		.byte	0x6b
 2309 0442 26010000 		.4byte	0x126
 2310 0446 3402     		.2byte	0x234
 2311 0448 0E       		.uleb128 0xe
 2312 0449 021A0000 		.4byte	.LASF1104
 2313 044d 04       		.byte	0x4
 2314 044e 6C       		.byte	0x6c
 2315 044f 26010000 		.4byte	0x126
 2316 0453 3802     		.2byte	0x238
 2317 0455 0E       		.uleb128 0xe
 2318 0456 F95C0000 		.4byte	.LASF1105
 2319 045a 04       		.byte	0x4
 2320 045b 6D       		.byte	0x6d
 2321 045c 33050000 		.4byte	0x533
 2322 0460 3C02     		.2byte	0x23c
 2323 0462 0E       		.uleb128 0xe
 2324 0463 57680000 		.4byte	.LASF1106
 2325 0467 04       		.byte	0x4
 2326 0468 6E       		.byte	0x6e
 2327 0469 21010000 		.4byte	0x121
 2328 046d F403     		.2byte	0x3f4
 2329 046f 00       		.byte	0
 2330 0470 0A       		.uleb128 0xa
 2331 0471 75040000 		.4byte	0x475
 2332 0475 0B       		.uleb128 0xb
 2333 0476 2B010000 		.4byte	0x12b
 2334 047a 0A       		.uleb128 0xa
 2335 047b 7F040000 		.4byte	0x47f
 2336 047f 0B       		.uleb128 0xb
 2337 0480 4B010000 		.4byte	0x14b
 2338 0484 0A       		.uleb128 0xa
 2339 0485 89040000 		.4byte	0x489
 2340 0489 0B       		.uleb128 0xb
 2341 048a 11010000 		.4byte	0x111
 2342 048e 0A       		.uleb128 0xa
 2343 048f 93040000 		.4byte	0x493
 2344 0493 0B       		.uleb128 0xb
 2345 0494 3B010000 		.4byte	0x13b
 2346 0498 0A       		.uleb128 0xa
 2347 0499 9D040000 		.4byte	0x49d
 2348 049d 0B       		.uleb128 0xb
 2349 049e 11010000 		.4byte	0x111
 2350 04a2 08       		.uleb128 0x8
 2351 04a3 A6000000 		.4byte	0xa6
ARM GAS  /tmp/ccFRKuha.s 			page 70


 2352 04a7 B2040000 		.4byte	0x4b2
 2353 04ab 09       		.uleb128 0x9
 2354 04ac 0A010000 		.4byte	0x10a
 2355 04b0 04       		.byte	0x4
 2356 04b1 00       		.byte	0
 2357 04b2 0A       		.uleb128 0xa
 2358 04b3 B7040000 		.4byte	0x4b7
 2359 04b7 0B       		.uleb128 0xb
 2360 04b8 A2040000 		.4byte	0x4a2
 2361 04bc 0A       		.uleb128 0xa
 2362 04bd C1040000 		.4byte	0x4c1
 2363 04c1 0B       		.uleb128 0xb
 2364 04c2 2B010000 		.4byte	0x12b
 2365 04c6 08       		.uleb128 0x8
 2366 04c7 A6000000 		.4byte	0xa6
 2367 04cb D6040000 		.4byte	0x4d6
 2368 04cf 09       		.uleb128 0x9
 2369 04d0 0A010000 		.4byte	0x10a
 2370 04d4 11       		.byte	0x11
 2371 04d5 00       		.byte	0
 2372 04d6 0A       		.uleb128 0xa
 2373 04d7 DB040000 		.4byte	0x4db
 2374 04db 0B       		.uleb128 0xb
 2375 04dc C6040000 		.4byte	0x4c6
 2376 04e0 08       		.uleb128 0x8
 2377 04e1 A6000000 		.4byte	0xa6
 2378 04e5 F0040000 		.4byte	0x4f0
 2379 04e9 09       		.uleb128 0x9
 2380 04ea 0A010000 		.4byte	0x10a
 2381 04ee 05       		.byte	0x5
 2382 04ef 00       		.byte	0
 2383 04f0 0A       		.uleb128 0xa
 2384 04f1 F5040000 		.4byte	0x4f5
 2385 04f5 0B       		.uleb128 0xb
 2386 04f6 E0040000 		.4byte	0x4e0
 2387 04fa 0B       		.uleb128 0xb
 2388 04fb 11010000 		.4byte	0x111
 2389 04ff 08       		.uleb128 0x8
 2390 0500 A6000000 		.4byte	0xa6
 2391 0504 0F050000 		.4byte	0x50f
 2392 0508 09       		.uleb128 0x9
 2393 0509 0A010000 		.4byte	0x10a
 2394 050d 17       		.byte	0x17
 2395 050e 00       		.byte	0
 2396 050f 0A       		.uleb128 0xa
 2397 0510 14050000 		.4byte	0x514
 2398 0514 0B       		.uleb128 0xb
 2399 0515 FF040000 		.4byte	0x4ff
 2400 0519 0A       		.uleb128 0xa
 2401 051a 1E050000 		.4byte	0x51e
 2402 051e 0B       		.uleb128 0xb
 2403 051f E0040000 		.4byte	0x4e0
 2404 0523 08       		.uleb128 0x8
 2405 0524 A6000000 		.4byte	0xa6
 2406 0528 33050000 		.4byte	0x533
 2407 052c 09       		.uleb128 0x9
 2408 052d 0A010000 		.4byte	0x10a
ARM GAS  /tmp/ccFRKuha.s 			page 71


 2409 0531 6D       		.byte	0x6d
 2410 0532 00       		.byte	0
 2411 0533 0A       		.uleb128 0xa
 2412 0534 38050000 		.4byte	0x538
 2413 0538 0B       		.uleb128 0xb
 2414 0539 23050000 		.4byte	0x523
 2415 053d 03       		.uleb128 0x3
 2416 053e 00100000 		.4byte	.LASF1107
 2417 0542 04       		.byte	0x4
 2418 0543 6F       		.byte	0x6f
 2419 0544 5B010000 		.4byte	0x15b
 2420 0548 05       		.uleb128 0x5
 2421 0549 01       		.byte	0x1
 2422 054a 04       		.byte	0x4
 2423 054b 87       		.byte	0x87
 2424 054c 99050000 		.4byte	0x599
 2425 0550 06       		.uleb128 0x6
 2426 0551 B97C0000 		.4byte	.LASF1108
 2427 0555 00       		.sleb128 0
 2428 0556 06       		.uleb128 0x6
 2429 0557 186E0000 		.4byte	.LASF1109
 2430 055b 01       		.sleb128 1
 2431 055c 06       		.uleb128 0x6
 2432 055d C47C0000 		.4byte	.LASF1110
 2433 0561 02       		.sleb128 2
 2434 0562 06       		.uleb128 0x6
 2435 0563 8F090000 		.4byte	.LASF1111
 2436 0567 03       		.sleb128 3
 2437 0568 06       		.uleb128 0x6
 2438 0569 520E0000 		.4byte	.LASF1112
 2439 056d 04       		.sleb128 4
 2440 056e 06       		.uleb128 0x6
 2441 056f ED730000 		.4byte	.LASF1113
 2442 0573 05       		.sleb128 5
 2443 0574 06       		.uleb128 0x6
 2444 0575 EE360000 		.4byte	.LASF1114
 2445 0579 06       		.sleb128 6
 2446 057a 06       		.uleb128 0x6
 2447 057b 4E7B0000 		.4byte	.LASF1115
 2448 057f 07       		.sleb128 7
 2449 0580 06       		.uleb128 0x6
 2450 0581 D63E0000 		.4byte	.LASF1116
 2451 0585 08       		.sleb128 8
 2452 0586 06       		.uleb128 0x6
 2453 0587 714C0000 		.4byte	.LASF1117
 2454 058b 09       		.sleb128 9
 2455 058c 06       		.uleb128 0x6
 2456 058d E42F0000 		.4byte	.LASF1118
 2457 0591 0A       		.sleb128 10
 2458 0592 06       		.uleb128 0x6
 2459 0593 3C3B0000 		.4byte	.LASF1119
 2460 0597 0B       		.sleb128 11
 2461 0598 00       		.byte	0
 2462 0599 03       		.uleb128 0x3
 2463 059a 2F490000 		.4byte	.LASF1120
 2464 059e 04       		.byte	0x4
 2465 059f 96       		.byte	0x96
ARM GAS  /tmp/ccFRKuha.s 			page 72


 2466 05a0 48050000 		.4byte	0x548
 2467 05a4 0F       		.uleb128 0xf
 2468 05a5 D43C0000 		.4byte	.LASF1144
 2469 05a9 01       		.byte	0x1
 2470 05aa 03       		.byte	0x3
 2471 05ab E4       		.byte	0xe4
 2472 05ac 23060000 		.4byte	0x623
 2473 05b0 06       		.uleb128 0x6
 2474 05b1 7C000000 		.4byte	.LASF1121
 2475 05b5 00       		.sleb128 0
 2476 05b6 06       		.uleb128 0x6
 2477 05b7 C53E0000 		.4byte	.LASF1122
 2478 05bb 01       		.sleb128 1
 2479 05bc 06       		.uleb128 0x6
 2480 05bd 73010000 		.4byte	.LASF1123
 2481 05c1 02       		.sleb128 2
 2482 05c2 06       		.uleb128 0x6
 2483 05c3 62570000 		.4byte	.LASF1124
 2484 05c7 03       		.sleb128 3
 2485 05c8 06       		.uleb128 0x6
 2486 05c9 68340000 		.4byte	.LASF1125
 2487 05cd 04       		.sleb128 4
 2488 05ce 06       		.uleb128 0x6
 2489 05cf 525B0000 		.4byte	.LASF1126
 2490 05d3 05       		.sleb128 5
 2491 05d4 06       		.uleb128 0x6
 2492 05d5 F7340000 		.4byte	.LASF1127
 2493 05d9 06       		.sleb128 6
 2494 05da 06       		.uleb128 0x6
 2495 05db D0730000 		.4byte	.LASF1128
 2496 05df 07       		.sleb128 7
 2497 05e0 06       		.uleb128 0x6
 2498 05e1 4D070000 		.4byte	.LASF1129
 2499 05e5 08       		.sleb128 8
 2500 05e6 06       		.uleb128 0x6
 2501 05e7 E00D0000 		.4byte	.LASF1130
 2502 05eb 09       		.sleb128 9
 2503 05ec 06       		.uleb128 0x6
 2504 05ed F40D0000 		.4byte	.LASF1131
 2505 05f1 0A       		.sleb128 10
 2506 05f2 06       		.uleb128 0x6
 2507 05f3 0C250000 		.4byte	.LASF1132
 2508 05f7 0B       		.sleb128 11
 2509 05f8 06       		.uleb128 0x6
 2510 05f9 3F5B0000 		.4byte	.LASF1133
 2511 05fd 0C       		.sleb128 12
 2512 05fe 06       		.uleb128 0x6
 2513 05ff 01590000 		.4byte	.LASF1134
 2514 0603 0D       		.sleb128 13
 2515 0604 06       		.uleb128 0x6
 2516 0605 AD5A0000 		.4byte	.LASF1135
 2517 0609 0E       		.sleb128 14
 2518 060a 06       		.uleb128 0x6
 2519 060b 650F0000 		.4byte	.LASF1136
 2520 060f 0F       		.sleb128 15
 2521 0610 06       		.uleb128 0x6
 2522 0611 043D0000 		.4byte	.LASF1137
ARM GAS  /tmp/ccFRKuha.s 			page 73


 2523 0615 10       		.sleb128 16
 2524 0616 06       		.uleb128 0x6
 2525 0617 2F7D0000 		.4byte	.LASF1138
 2526 061b 11       		.sleb128 17
 2527 061c 06       		.uleb128 0x6
 2528 061d 1E250000 		.4byte	.LASF1139
 2529 0621 12       		.sleb128 18
 2530 0622 00       		.byte	0
 2531 0623 10       		.uleb128 0x10
 2532 0624 4E060000 		.4byte	.LASF1140
 2533 0628 03       		.byte	0x3
 2534 0629 2001     		.2byte	0x120
 2535 062b A4050000 		.4byte	0x5a4
 2536 062f 11       		.uleb128 0x11
 2537 0630 04       		.byte	0x4
 2538 0631 12       		.uleb128 0x12
 2539 0632 24       		.byte	0x24
 2540 0633 02       		.byte	0x2
 2541 0634 2F       		.byte	0x2f
 2542 0635 A4060000 		.4byte	0x6a4
 2543 0639 13       		.uleb128 0x13
 2544 063a 43523000 		.ascii	"CR0\000"
 2545 063e 02       		.byte	0x2
 2546 063f 30       		.byte	0x30
 2547 0640 26010000 		.4byte	0x126
 2548 0644 00       		.byte	0
 2549 0645 13       		.uleb128 0x13
 2550 0646 43523100 		.ascii	"CR1\000"
 2551 064a 02       		.byte	0x2
 2552 064b 31       		.byte	0x31
 2553 064c 26010000 		.4byte	0x126
 2554 0650 04       		.byte	0x4
 2555 0651 13       		.uleb128 0x13
 2556 0652 445200   		.ascii	"DR\000"
 2557 0655 02       		.byte	0x2
 2558 0656 32       		.byte	0x32
 2559 0657 26010000 		.4byte	0x126
 2560 065b 08       		.byte	0x8
 2561 065c 13       		.uleb128 0x13
 2562 065d 535200   		.ascii	"SR\000"
 2563 0660 02       		.byte	0x2
 2564 0661 33       		.byte	0x33
 2565 0662 21010000 		.4byte	0x121
 2566 0666 0C       		.byte	0xc
 2567 0667 0D       		.uleb128 0xd
 2568 0668 C0650000 		.4byte	.LASF1141
 2569 066c 02       		.byte	0x2
 2570 066d 34       		.byte	0x34
 2571 066e 26010000 		.4byte	0x126
 2572 0672 10       		.byte	0x10
 2573 0673 0D       		.uleb128 0xd
 2574 0674 C21B0000 		.4byte	.LASF1142
 2575 0678 02       		.byte	0x2
 2576 0679 35       		.byte	0x35
 2577 067a 26010000 		.4byte	0x126
 2578 067e 14       		.byte	0x14
 2579 067f 13       		.uleb128 0x13
ARM GAS  /tmp/ccFRKuha.s 			page 74


 2580 0680 52495300 		.ascii	"RIS\000"
 2581 0684 02       		.byte	0x2
 2582 0685 36       		.byte	0x36
 2583 0686 21010000 		.4byte	0x121
 2584 068a 18       		.byte	0x18
 2585 068b 13       		.uleb128 0x13
 2586 068c 4D495300 		.ascii	"MIS\000"
 2587 0690 02       		.byte	0x2
 2588 0691 37       		.byte	0x37
 2589 0692 21010000 		.4byte	0x121
 2590 0696 1C       		.byte	0x1c
 2591 0697 13       		.uleb128 0x13
 2592 0698 49435200 		.ascii	"ICR\000"
 2593 069c 02       		.byte	0x2
 2594 069d 38       		.byte	0x38
 2595 069e 26010000 		.4byte	0x126
 2596 06a2 20       		.byte	0x20
 2597 06a3 00       		.byte	0
 2598 06a4 03       		.uleb128 0x3
 2599 06a5 A40B0000 		.4byte	.LASF1143
 2600 06a9 02       		.byte	0x2
 2601 06aa 39       		.byte	0x39
 2602 06ab 31060000 		.4byte	0x631
 2603 06af 0F       		.uleb128 0xf
 2604 06b0 FC210000 		.4byte	.LASF1145
 2605 06b4 01       		.byte	0x1
 2606 06b5 02       		.byte	0x2
 2607 06b6 81       		.byte	0x81
 2608 06b7 DA060000 		.4byte	0x6da
 2609 06bb 06       		.uleb128 0x6
 2610 06bc 236E0000 		.4byte	.LASF1146
 2611 06c0 01       		.sleb128 1
 2612 06c1 06       		.uleb128 0x6
 2613 06c2 AB0E0000 		.4byte	.LASF1147
 2614 06c6 02       		.sleb128 2
 2615 06c7 06       		.uleb128 0x6
 2616 06c8 175D0000 		.4byte	.LASF1148
 2617 06cc 04       		.sleb128 4
 2618 06cd 06       		.uleb128 0x6
 2619 06ce 643C0000 		.4byte	.LASF1149
 2620 06d2 08       		.sleb128 8
 2621 06d3 06       		.uleb128 0x6
 2622 06d4 39570000 		.4byte	.LASF1150
 2623 06d8 10       		.sleb128 16
 2624 06d9 00       		.byte	0
 2625 06da 03       		.uleb128 0x3
 2626 06db C9390000 		.4byte	.LASF1151
 2627 06df 02       		.byte	0x2
 2628 06e0 87       		.byte	0x87
 2629 06e1 AF060000 		.4byte	0x6af
 2630 06e5 0F       		.uleb128 0xf
 2631 06e6 387E0000 		.4byte	.LASF1152
 2632 06ea 01       		.byte	0x1
 2633 06eb 02       		.byte	0x2
 2634 06ec A2       		.byte	0xa2
 2635 06ed 10070000 		.4byte	0x710
 2636 06f1 06       		.uleb128 0x6
ARM GAS  /tmp/ccFRKuha.s 			page 75


 2637 06f2 81500000 		.4byte	.LASF1153
 2638 06f6 01       		.sleb128 1
 2639 06f7 06       		.uleb128 0x6
 2640 06f8 E7200000 		.4byte	.LASF1154
 2641 06fc 02       		.sleb128 2
 2642 06fd 06       		.uleb128 0x6
 2643 06fe 7F230000 		.4byte	.LASF1155
 2644 0702 04       		.sleb128 4
 2645 0703 06       		.uleb128 0x6
 2646 0704 61790000 		.4byte	.LASF1156
 2647 0708 08       		.sleb128 8
 2648 0709 06       		.uleb128 0x6
 2649 070a E9180000 		.4byte	.LASF1157
 2650 070e 0F       		.sleb128 15
 2651 070f 00       		.byte	0
 2652 0710 03       		.uleb128 0x3
 2653 0711 3C580000 		.4byte	.LASF1158
 2654 0715 02       		.byte	0x2
 2655 0716 A8       		.byte	0xa8
 2656 0717 E5060000 		.4byte	0x6e5
 2657 071b 0F       		.uleb128 0xf
 2658 071c 73220000 		.4byte	.LASF1159
 2659 0720 01       		.byte	0x1
 2660 0721 02       		.byte	0x2
 2661 0722 AA       		.byte	0xaa
 2662 0723 3A070000 		.4byte	0x73a
 2663 0727 06       		.uleb128 0x6
 2664 0728 2E450000 		.4byte	.LASF1160
 2665 072c 00       		.sleb128 0
 2666 072d 06       		.uleb128 0x6
 2667 072e 8F6F0000 		.4byte	.LASF1161
 2668 0732 01       		.sleb128 1
 2669 0733 06       		.uleb128 0x6
 2670 0734 18180000 		.4byte	.LASF1162
 2671 0738 03       		.sleb128 3
 2672 0739 00       		.byte	0
 2673 073a 03       		.uleb128 0x3
 2674 073b 1D760000 		.4byte	.LASF1163
 2675 073f 02       		.byte	0x2
 2676 0740 AE       		.byte	0xae
 2677 0741 1B070000 		.4byte	0x71b
 2678 0745 0F       		.uleb128 0xf
 2679 0746 342C0000 		.4byte	.LASF1164
 2680 074a 01       		.byte	0x1
 2681 074b 02       		.byte	0x2
 2682 074c B3       		.byte	0xb3
 2683 074d 88070000 		.4byte	0x788
 2684 0751 06       		.uleb128 0x6
 2685 0752 802E0000 		.4byte	.LASF1165
 2686 0756 00       		.sleb128 0
 2687 0757 06       		.uleb128 0x6
 2688 0758 962E0000 		.4byte	.LASF1166
 2689 075c C000     		.sleb128 64
 2690 075e 06       		.uleb128 0x6
 2691 075f 774B0000 		.4byte	.LASF1167
 2692 0763 8001     		.sleb128 128
 2693 0765 06       		.uleb128 0x6
ARM GAS  /tmp/ccFRKuha.s 			page 76


 2694 0766 8D4B0000 		.4byte	.LASF1168
 2695 076a C001     		.sleb128 192
 2696 076c 06       		.uleb128 0x6
 2697 076d 332F0000 		.4byte	.LASF1169
 2698 0771 00       		.sleb128 0
 2699 0772 06       		.uleb128 0x6
 2700 0773 432F0000 		.4byte	.LASF1170
 2701 0777 8001     		.sleb128 128
 2702 0779 06       		.uleb128 0x6
 2703 077a BD050000 		.4byte	.LASF1171
 2704 077e C000     		.sleb128 64
 2705 0780 06       		.uleb128 0x6
 2706 0781 5E2F0000 		.4byte	.LASF1172
 2707 0785 C001     		.sleb128 192
 2708 0787 00       		.byte	0
 2709 0788 0F       		.uleb128 0xf
 2710 0789 26090000 		.4byte	.LASF1173
 2711 078d 01       		.byte	0x1
 2712 078e 02       		.byte	0x2
 2713 078f C1       		.byte	0xc1
 2714 0790 A7070000 		.4byte	0x7a7
 2715 0794 06       		.uleb128 0x6
 2716 0795 4A5E0000 		.4byte	.LASF1174
 2717 0799 00       		.sleb128 0
 2718 079a 06       		.uleb128 0x6
 2719 079b D02E0000 		.4byte	.LASF1175
 2720 079f 10       		.sleb128 16
 2721 07a0 06       		.uleb128 0x6
 2722 07a1 A6640000 		.4byte	.LASF1176
 2723 07a5 20       		.sleb128 32
 2724 07a6 00       		.byte	0
 2725 07a7 0F       		.uleb128 0xf
 2726 07a8 3B790000 		.4byte	.LASF1177
 2727 07ac 01       		.byte	0x1
 2728 07ad 02       		.byte	0x2
 2729 07ae CA       		.byte	0xca
 2730 07af 02080000 		.4byte	0x802
 2731 07b3 06       		.uleb128 0x6
 2732 07b4 2D7E0000 		.4byte	.LASF1178
 2733 07b8 03       		.sleb128 3
 2734 07b9 06       		.uleb128 0x6
 2735 07ba 521F0000 		.4byte	.LASF1179
 2736 07be 04       		.sleb128 4
 2737 07bf 06       		.uleb128 0x6
 2738 07c0 4A7E0000 		.4byte	.LASF1180
 2739 07c4 05       		.sleb128 5
 2740 07c5 06       		.uleb128 0x6
 2741 07c6 557E0000 		.4byte	.LASF1181
 2742 07ca 06       		.sleb128 6
 2743 07cb 06       		.uleb128 0x6
 2744 07cc 607E0000 		.4byte	.LASF1182
 2745 07d0 07       		.sleb128 7
 2746 07d1 06       		.uleb128 0x6
 2747 07d2 6B7E0000 		.4byte	.LASF1183
 2748 07d6 08       		.sleb128 8
 2749 07d7 06       		.uleb128 0x6
 2750 07d8 8E640000 		.4byte	.LASF1184
ARM GAS  /tmp/ccFRKuha.s 			page 77


 2751 07dc 09       		.sleb128 9
 2752 07dd 06       		.uleb128 0x6
 2753 07de 9A640000 		.4byte	.LASF1185
 2754 07e2 0A       		.sleb128 10
 2755 07e3 06       		.uleb128 0x6
 2756 07e4 40030000 		.4byte	.LASF1186
 2757 07e8 0B       		.sleb128 11
 2758 07e9 06       		.uleb128 0x6
 2759 07ea C0640000 		.4byte	.LASF1187
 2760 07ee 0C       		.sleb128 12
 2761 07ef 06       		.uleb128 0x6
 2762 07f0 CC640000 		.4byte	.LASF1188
 2763 07f4 0D       		.sleb128 13
 2764 07f5 06       		.uleb128 0x6
 2765 07f6 D8640000 		.4byte	.LASF1189
 2766 07fa 0E       		.sleb128 14
 2767 07fb 06       		.uleb128 0x6
 2768 07fc E4640000 		.4byte	.LASF1190
 2769 0800 0F       		.sleb128 15
 2770 0801 00       		.byte	0
 2771 0802 14       		.uleb128 0x14
 2772 0803 2E180000 		.4byte	.LASF1191
 2773 0807 01       		.byte	0x1
 2774 0808 02       		.byte	0x2
 2775 0809 AB01     		.2byte	0x1ab
 2776 080b 1C080000 		.4byte	0x81c
 2777 080f 06       		.uleb128 0x6
 2778 0810 13140000 		.4byte	.LASF1192
 2779 0814 00       		.sleb128 0
 2780 0815 06       		.uleb128 0x6
 2781 0816 677D0000 		.4byte	.LASF1193
 2782 081a 04       		.sleb128 4
 2783 081b 00       		.byte	0
 2784 081c 15       		.uleb128 0x15
 2785 081d 14       		.byte	0x14
 2786 081e 02       		.byte	0x2
 2787 081f BB01     		.2byte	0x1bb
 2788 0821 67080000 		.4byte	0x867
 2789 0825 16       		.uleb128 0x16
 2790 0826 FA190000 		.4byte	.LASF1194
 2791 082a 02       		.byte	0x2
 2792 082b BC01     		.2byte	0x1bc
 2793 082d 2F060000 		.4byte	0x62f
 2794 0831 00       		.byte	0
 2795 0832 16       		.uleb128 0x16
 2796 0833 9D610000 		.4byte	.LASF1195
 2797 0837 02       		.byte	0x2
 2798 0838 BD01     		.2byte	0x1bd
 2799 083a A6000000 		.4byte	0xa6
 2800 083e 04       		.byte	0x4
 2801 083f 16       		.uleb128 0x16
 2802 0840 100D0000 		.4byte	.LASF1196
 2803 0844 02       		.byte	0x2
 2804 0845 BE01     		.2byte	0x1be
 2805 0847 2F060000 		.4byte	0x62f
 2806 084b 08       		.byte	0x8
 2807 084c 16       		.uleb128 0x16
ARM GAS  /tmp/ccFRKuha.s 			page 78


 2808 084d 4B440000 		.4byte	.LASF1197
 2809 0851 02       		.byte	0x2
 2810 0852 BF01     		.2byte	0x1bf
 2811 0854 A6000000 		.4byte	0xa6
 2812 0858 0C       		.byte	0xc
 2813 0859 16       		.uleb128 0x16
 2814 085a 205B0000 		.4byte	.LASF1198
 2815 085e 02       		.byte	0x2
 2816 085f C001     		.2byte	0x1c0
 2817 0861 A6000000 		.4byte	0xa6
 2818 0865 10       		.byte	0x10
 2819 0866 00       		.byte	0
 2820 0867 10       		.uleb128 0x10
 2821 0868 92550000 		.4byte	.LASF1199
 2822 086c 02       		.byte	0x2
 2823 086d C101     		.2byte	0x1c1
 2824 086f 1C080000 		.4byte	0x81c
 2825 0873 0A       		.uleb128 0xa
 2826 0874 A6000000 		.4byte	0xa6
 2827 0878 17       		.uleb128 0x17
 2828 0879 04       		.byte	0x4
 2829 087a 90000000 		.4byte	0x90
 2830 087e 18       		.uleb128 0x18
 2831 087f C8510000 		.4byte	.LASF1204
 2832 0883 02       		.byte	0x2
 2833 0884 7701     		.2byte	0x177
 2834 0886 03       		.byte	0x3
 2835 0887 A4080000 		.4byte	0x8a4
 2836 088b 19       		.uleb128 0x19
 2837 088c E70F0000 		.4byte	.LASF1200
 2838 0890 02       		.byte	0x2
 2839 0891 7701     		.2byte	0x177
 2840 0893 A4080000 		.4byte	0x8a4
 2841 0897 19       		.uleb128 0x19
 2842 0898 FA190000 		.4byte	.LASF1194
 2843 089c 02       		.byte	0x2
 2844 089d 7701     		.2byte	0x177
 2845 089f 9B000000 		.4byte	0x9b
 2846 08a3 00       		.byte	0
 2847 08a4 17       		.uleb128 0x17
 2848 08a5 04       		.byte	0x4
 2849 08a6 A4060000 		.4byte	0x6a4
 2850 08aa 1A       		.uleb128 0x1a
 2851 08ab 8B470000 		.4byte	.LASF1201
 2852 08af 02       		.byte	0x2
 2853 08b0 6C01     		.2byte	0x16c
 2854 08b2 9B000000 		.4byte	0x9b
 2855 08b6 03       		.byte	0x3
 2856 08b7 C8080000 		.4byte	0x8c8
 2857 08bb 19       		.uleb128 0x19
 2858 08bc E70F0000 		.4byte	.LASF1200
 2859 08c0 02       		.byte	0x2
 2860 08c1 6C01     		.2byte	0x16c
 2861 08c3 A4080000 		.4byte	0x8a4
 2862 08c7 00       		.byte	0
 2863 08c8 1A       		.uleb128 0x1a
 2864 08c9 CF710000 		.4byte	.LASF1202
ARM GAS  /tmp/ccFRKuha.s 			page 79


 2865 08cd 02       		.byte	0x2
 2866 08ce 1A01     		.2byte	0x11a
 2867 08d0 C6000000 		.4byte	0xc6
 2868 08d4 03       		.byte	0x3
 2869 08d5 F2080000 		.4byte	0x8f2
 2870 08d9 19       		.uleb128 0x19
 2871 08da E70F0000 		.4byte	.LASF1200
 2872 08de 02       		.byte	0x2
 2873 08df 1A01     		.2byte	0x11a
 2874 08e1 A4080000 		.4byte	0x8a4
 2875 08e5 19       		.uleb128 0x19
 2876 08e6 8B4F0000 		.4byte	.LASF1203
 2877 08ea 02       		.byte	0x2
 2878 08eb 1A01     		.2byte	0x11a
 2879 08ed DA060000 		.4byte	0x6da
 2880 08f1 00       		.byte	0
 2881 08f2 18       		.uleb128 0x18
 2882 08f3 1F290000 		.4byte	.LASF1205
 2883 08f7 03       		.byte	0x3
 2884 08f8 3D01     		.2byte	0x13d
 2885 08fa 03       		.byte	0x3
 2886 08fb 0C090000 		.4byte	0x90c
 2887 08ff 1B       		.uleb128 0x1b
 2888 0900 64697600 		.ascii	"div\000"
 2889 0904 03       		.byte	0x3
 2890 0905 3D01     		.2byte	0x13d
 2891 0907 A6000000 		.4byte	0xa6
 2892 090b 00       		.byte	0
 2893 090c 18       		.uleb128 0x18
 2894 090d 6F440000 		.4byte	.LASF1206
 2895 0911 03       		.byte	0x3
 2896 0912 6A01     		.2byte	0x16a
 2897 0914 03       		.byte	0x3
 2898 0915 26090000 		.4byte	0x926
 2899 0919 1B       		.uleb128 0x1b
 2900 091a 64697600 		.ascii	"div\000"
 2901 091e 03       		.byte	0x3
 2902 091f 6A01     		.2byte	0x16a
 2903 0921 A6000000 		.4byte	0xa6
 2904 0925 00       		.byte	0
 2905 0926 1C       		.uleb128 0x1c
 2906 0927 70370000 		.4byte	.LASF1207
 2907 092b 03       		.byte	0x3
 2908 092c 4701     		.2byte	0x147
 2909 092e A6000000 		.4byte	0xa6
 2910 0932 03       		.byte	0x3
 2911 0933 1C       		.uleb128 0x1c
 2912 0934 D1530000 		.4byte	.LASF1208
 2913 0938 03       		.byte	0x3
 2914 0939 7401     		.2byte	0x174
 2915 093b A6000000 		.4byte	0xa6
 2916 093f 03       		.byte	0x3
 2917 0940 18       		.uleb128 0x18
 2918 0941 7E150000 		.4byte	.LASF1209
 2919 0945 02       		.byte	0x2
 2920 0946 4E01     		.2byte	0x14e
 2921 0948 03       		.byte	0x3
ARM GAS  /tmp/ccFRKuha.s 			page 80


 2922 0949 66090000 		.4byte	0x966
 2923 094d 19       		.uleb128 0x19
 2924 094e E70F0000 		.4byte	.LASF1200
 2925 0952 02       		.byte	0x2
 2926 0953 4E01     		.2byte	0x14e
 2927 0955 A4080000 		.4byte	0x8a4
 2928 0959 19       		.uleb128 0x19
 2929 095a 83270000 		.4byte	.LASF1210
 2930 095e 02       		.byte	0x2
 2931 095f 4E01     		.2byte	0x14e
 2932 0961 3A070000 		.4byte	0x73a
 2933 0965 00       		.byte	0
 2934 0966 1A       		.uleb128 0x1a
 2935 0967 88360000 		.4byte	.LASF1211
 2936 096b 02       		.byte	0x2
 2937 096c 4001     		.2byte	0x140
 2938 096e 90000000 		.4byte	0x90
 2939 0972 03       		.byte	0x3
 2940 0973 84090000 		.4byte	0x984
 2941 0977 19       		.uleb128 0x19
 2942 0978 E70F0000 		.4byte	.LASF1200
 2943 097c 02       		.byte	0x2
 2944 097d 4001     		.2byte	0x140
 2945 097f A4080000 		.4byte	0x8a4
 2946 0983 00       		.byte	0
 2947 0984 1A       		.uleb128 0x1a
 2948 0985 A5520000 		.4byte	.LASF1212
 2949 0989 02       		.byte	0x2
 2950 098a 3501     		.2byte	0x135
 2951 098c D1000000 		.4byte	0xd1
 2952 0990 03       		.byte	0x3
 2953 0991 AE090000 		.4byte	0x9ae
 2954 0995 19       		.uleb128 0x19
 2955 0996 E70F0000 		.4byte	.LASF1200
 2956 099a 02       		.byte	0x2
 2957 099b 3501     		.2byte	0x135
 2958 099d A4080000 		.4byte	0x8a4
 2959 09a1 19       		.uleb128 0x19
 2960 09a2 67030000 		.4byte	.LASF1213
 2961 09a6 02       		.byte	0x2
 2962 09a7 3501     		.2byte	0x135
 2963 09a9 10070000 		.4byte	0x710
 2964 09ad 00       		.byte	0
 2965 09ae 18       		.uleb128 0x18
 2966 09af 10710000 		.4byte	.LASF1214
 2967 09b3 02       		.byte	0x2
 2968 09b4 A301     		.2byte	0x1a3
 2969 09b6 03       		.byte	0x3
 2970 09b7 D4090000 		.4byte	0x9d4
 2971 09bb 19       		.uleb128 0x19
 2972 09bc E70F0000 		.4byte	.LASF1200
 2973 09c0 02       		.byte	0x2
 2974 09c1 A301     		.2byte	0x1a3
 2975 09c3 A4080000 		.4byte	0x8a4
 2976 09c7 19       		.uleb128 0x19
 2977 09c8 6C6A0000 		.4byte	.LASF1215
 2978 09cc 02       		.byte	0x2
ARM GAS  /tmp/ccFRKuha.s 			page 81


 2979 09cd A301     		.2byte	0x1a3
 2980 09cf A6000000 		.4byte	0xa6
 2981 09d3 00       		.byte	0
 2982 09d4 1D       		.uleb128 0x1d
 2983 09d5 272D0000 		.4byte	.LASF1216
 2984 09d9 01       		.byte	0x1
 2985 09da 69       		.byte	0x69
 2986 09db 23060000 		.4byte	0x623
 2987 09df 01       		.byte	0x1
 2988 09e0 FB090000 		.4byte	0x9fb
 2989 09e4 1E       		.uleb128 0x1e
 2990 09e5 E70F0000 		.4byte	.LASF1200
 2991 09e9 01       		.byte	0x1
 2992 09ea 69       		.byte	0x69
 2993 09eb A4080000 		.4byte	0x8a4
 2994 09ef 1F       		.uleb128 0x1f
 2995 09f0 D03F0000 		.4byte	.LASF1218
 2996 09f4 01       		.byte	0x1
 2997 09f5 6B       		.byte	0x6b
 2998 09f6 23060000 		.4byte	0x623
 2999 09fa 00       		.byte	0
 3000 09fb 1D       		.uleb128 0x1d
 3001 09fc FE740000 		.4byte	.LASF1217
 3002 0a00 01       		.byte	0x1
 3003 0a01 7A       		.byte	0x7a
 3004 0a02 99050000 		.4byte	0x599
 3005 0a06 01       		.byte	0x1
 3006 0a07 220A0000 		.4byte	0xa22
 3007 0a0b 1E       		.uleb128 0x1e
 3008 0a0c E70F0000 		.4byte	.LASF1200
 3009 0a10 01       		.byte	0x1
 3010 0a11 7A       		.byte	0x7a
 3011 0a12 A4080000 		.4byte	0x8a4
 3012 0a16 1F       		.uleb128 0x1f
 3013 0a17 EC720000 		.4byte	.LASF1219
 3014 0a1b 01       		.byte	0x1
 3015 0a1c 7C       		.byte	0x7c
 3016 0a1d 99050000 		.4byte	0x599
 3017 0a21 00       		.byte	0
 3018 0a22 18       		.uleb128 0x18
 3019 0a23 64460000 		.4byte	.LASF1220
 3020 0a27 02       		.byte	0x2
 3021 0a28 9601     		.2byte	0x196
 3022 0a2a 03       		.byte	0x3
 3023 0a2b 600A0000 		.4byte	0xa60
 3024 0a2f 19       		.uleb128 0x19
 3025 0a30 E70F0000 		.4byte	.LASF1200
 3026 0a34 02       		.byte	0x2
 3027 0a35 9601     		.2byte	0x196
 3028 0a37 A4080000 		.4byte	0x8a4
 3029 0a3b 19       		.uleb128 0x19
 3030 0a3c 704D0000 		.4byte	.LASF1221
 3031 0a40 02       		.byte	0x2
 3032 0a41 9601     		.2byte	0x196
 3033 0a43 A6000000 		.4byte	0xa6
 3034 0a47 19       		.uleb128 0x19
 3035 0a48 C71D0000 		.4byte	.LASF1222
ARM GAS  /tmp/ccFRKuha.s 			page 82


 3036 0a4c 02       		.byte	0x2
 3037 0a4d 9601     		.2byte	0x196
 3038 0a4f A6000000 		.4byte	0xa6
 3039 0a53 19       		.uleb128 0x19
 3040 0a54 887B0000 		.4byte	.LASF1223
 3041 0a58 02       		.byte	0x2
 3042 0a59 9601     		.2byte	0x196
 3043 0a5b A6000000 		.4byte	0xa6
 3044 0a5f 00       		.byte	0
 3045 0a60 20       		.uleb128 0x20
 3046 0a61 C4040000 		.4byte	.LASF1224
 3047 0a65 02       		.byte	0x2
 3048 0a66 F2       		.byte	0xf2
 3049 0a67 03       		.byte	0x3
 3050 0a68 780A0000 		.4byte	0xa78
 3051 0a6c 1E       		.uleb128 0x1e
 3052 0a6d E70F0000 		.4byte	.LASF1200
 3053 0a71 02       		.byte	0x2
 3054 0a72 F2       		.byte	0xf2
 3055 0a73 A4080000 		.4byte	0x8a4
 3056 0a77 00       		.byte	0
 3057 0a78 21       		.uleb128 0x21
 3058 0a79 BC470000 		.4byte	.LASF1227
 3059 0a7d 01       		.byte	0x1
 3060 0a7e 49       		.byte	0x49
 3061 0a7f 00000000 		.4byte	.LFB200
 3062 0a83 24000000 		.4byte	.LFE200-.LFB200
 3063 0a87 01       		.uleb128 0x1
 3064 0a88 9C       		.byte	0x9c
 3065 0a89 ED0A0000 		.4byte	0xaed
 3066 0a8d 22       		.uleb128 0x22
 3067 0a8e E70F0000 		.4byte	.LASF1200
 3068 0a92 01       		.byte	0x1
 3069 0a93 49       		.byte	0x49
 3070 0a94 A4080000 		.4byte	0x8a4
 3071 0a98 01       		.uleb128 0x1
 3072 0a99 50       		.byte	0x50
 3073 0a9a 22       		.uleb128 0x22
 3074 0a9b 9E210000 		.4byte	.LASF1225
 3075 0a9f 01       		.byte	0x1
 3076 0aa0 49       		.byte	0x49
 3077 0aa1 ED0A0000 		.4byte	0xaed
 3078 0aa5 01       		.uleb128 0x1
 3079 0aa6 51       		.byte	0x51
 3080 0aa7 1F       		.uleb128 0x1f
 3081 0aa8 DF740000 		.4byte	.LASF1226
 3082 0aac 01       		.byte	0x1
 3083 0aad 4B       		.byte	0x4b
 3084 0aae 9B000000 		.4byte	0x9b
 3085 0ab2 23       		.uleb128 0x23
 3086 0ab3 C8080000 		.4byte	0x8c8
 3087 0ab7 02000000 		.4byte	.LBB140
 3088 0abb 02000000 		.4byte	.LBE140-.LBB140
 3089 0abf 01       		.byte	0x1
 3090 0ac0 4D       		.byte	0x4d
 3091 0ac1 D30A0000 		.4byte	0xad3
 3092 0ac5 24       		.uleb128 0x24
ARM GAS  /tmp/ccFRKuha.s 			page 83


 3093 0ac6 E5080000 		.4byte	0x8e5
 3094 0aca 04       		.byte	0x4
 3095 0acb 25       		.uleb128 0x25
 3096 0acc D9080000 		.4byte	0x8d9
 3097 0ad0 01       		.uleb128 0x1
 3098 0ad1 50       		.byte	0x50
 3099 0ad2 00       		.byte	0
 3100 0ad3 26       		.uleb128 0x26
 3101 0ad4 AA080000 		.4byte	0x8aa
 3102 0ad8 10000000 		.4byte	.LBB142
 3103 0adc 00000000 		.4byte	.Ldebug_ranges0+0
 3104 0ae0 01       		.byte	0x1
 3105 0ae1 4F       		.byte	0x4f
 3106 0ae2 27       		.uleb128 0x27
 3107 0ae3 BB080000 		.4byte	0x8bb
 3108 0ae7 00000000 		.4byte	.LLST0
 3109 0aeb 00       		.byte	0
 3110 0aec 00       		.byte	0
 3111 0aed 17       		.uleb128 0x17
 3112 0aee 04       		.byte	0x4
 3113 0aef 67080000 		.4byte	0x867
 3114 0af3 21       		.uleb128 0x21
 3115 0af4 5D690000 		.4byte	.LASF1228
 3116 0af8 01       		.byte	0x1
 3117 0af9 59       		.byte	0x59
 3118 0afa 00000000 		.4byte	.LFB201
 3119 0afe 24000000 		.4byte	.LFE201-.LFB201
 3120 0b02 01       		.uleb128 0x1
 3121 0b03 9C       		.byte	0x9c
 3122 0b04 680B0000 		.4byte	0xb68
 3123 0b08 22       		.uleb128 0x22
 3124 0b09 E70F0000 		.4byte	.LASF1200
 3125 0b0d 01       		.byte	0x1
 3126 0b0e 59       		.byte	0x59
 3127 0b0f A4080000 		.4byte	0x8a4
 3128 0b13 01       		.uleb128 0x1
 3129 0b14 50       		.byte	0x50
 3130 0b15 22       		.uleb128 0x22
 3131 0b16 9E210000 		.4byte	.LASF1225
 3132 0b1a 01       		.byte	0x1
 3133 0b1b 59       		.byte	0x59
 3134 0b1c ED0A0000 		.4byte	0xaed
 3135 0b20 01       		.uleb128 0x1
 3136 0b21 51       		.byte	0x51
 3137 0b22 1F       		.uleb128 0x1f
 3138 0b23 DF740000 		.4byte	.LASF1226
 3139 0b27 01       		.byte	0x1
 3140 0b28 5B       		.byte	0x5b
 3141 0b29 9B000000 		.4byte	0x9b
 3142 0b2d 23       		.uleb128 0x23
 3143 0b2e C8080000 		.4byte	0x8c8
 3144 0b32 02000000 		.4byte	.LBB146
 3145 0b36 02000000 		.4byte	.LBE146-.LBB146
 3146 0b3a 01       		.byte	0x1
 3147 0b3b 5D       		.byte	0x5d
 3148 0b3c 4E0B0000 		.4byte	0xb4e
 3149 0b40 24       		.uleb128 0x24
ARM GAS  /tmp/ccFRKuha.s 			page 84


 3150 0b41 E5080000 		.4byte	0x8e5
 3151 0b45 04       		.byte	0x4
 3152 0b46 25       		.uleb128 0x25
 3153 0b47 D9080000 		.4byte	0x8d9
 3154 0b4b 01       		.uleb128 0x1
 3155 0b4c 50       		.byte	0x50
 3156 0b4d 00       		.byte	0
 3157 0b4e 28       		.uleb128 0x28
 3158 0b4f AA080000 		.4byte	0x8aa
 3159 0b53 12000000 		.4byte	.LBB148
 3160 0b57 02000000 		.4byte	.LBE148-.LBB148
 3161 0b5b 01       		.byte	0x1
 3162 0b5c 5F       		.byte	0x5f
 3163 0b5d 27       		.uleb128 0x27
 3164 0b5e BB080000 		.4byte	0x8bb
 3165 0b62 13000000 		.4byte	.LLST1
 3166 0b66 00       		.byte	0
 3167 0b67 00       		.byte	0
 3168 0b68 29       		.uleb128 0x29
 3169 0b69 5A360000 		.4byte	.LASF1243
 3170 0b6d 01       		.byte	0x1
 3171 0b6e AB       		.byte	0xab
 3172 0b6f 00000000 		.4byte	.LFB206
 3173 0b73 18000000 		.4byte	.LFE206-.LFB206
 3174 0b77 01       		.uleb128 0x1
 3175 0b78 9C       		.byte	0x9c
 3176 0b79 B60B0000 		.4byte	0xbb6
 3177 0b7d 22       		.uleb128 0x22
 3178 0b7e E70F0000 		.4byte	.LASF1200
 3179 0b82 01       		.byte	0x1
 3180 0b83 AB       		.byte	0xab
 3181 0b84 A4080000 		.4byte	0x8a4
 3182 0b88 01       		.uleb128 0x1
 3183 0b89 50       		.byte	0x50
 3184 0b8a 2A       		.uleb128 0x2a
 3185 0b8b E0010000 		.4byte	.LASF1229
 3186 0b8f 01       		.byte	0x1
 3187 0b90 AB       		.byte	0xab
 3188 0b91 A6000000 		.4byte	0xa6
 3189 0b95 26000000 		.4byte	.LLST2
 3190 0b99 22       		.uleb128 0x22
 3191 0b9a 89790000 		.4byte	.LASF1230
 3192 0b9e 01       		.byte	0x1
 3193 0b9f AB       		.byte	0xab
 3194 0ba0 A6000000 		.4byte	0xa6
 3195 0ba4 01       		.uleb128 0x1
 3196 0ba5 52       		.byte	0x52
 3197 0ba6 2B       		.uleb128 0x2b
 3198 0ba7 F87A0000 		.4byte	.LASF1237
 3199 0bab 01       		.byte	0x1
 3200 0bac AD       		.byte	0xad
 3201 0bad A6000000 		.4byte	0xa6
 3202 0bb1 47000000 		.4byte	.LLST3
 3203 0bb5 00       		.byte	0
 3204 0bb6 20       		.uleb128 0x20
 3205 0bb7 73310000 		.4byte	.LASF1231
 3206 0bbb 01       		.byte	0x1
ARM GAS  /tmp/ccFRKuha.s 			page 85


 3207 0bbc 2E       		.byte	0x2e
 3208 0bbd 01       		.byte	0x1
 3209 0bbe D90B0000 		.4byte	0xbd9
 3210 0bc2 1E       		.uleb128 0x1e
 3211 0bc3 E70F0000 		.4byte	.LASF1200
 3212 0bc7 01       		.byte	0x1
 3213 0bc8 2E       		.byte	0x2e
 3214 0bc9 A4080000 		.4byte	0x8a4
 3215 0bcd 1E       		.uleb128 0x1e
 3216 0bce 9E210000 		.4byte	.LASF1225
 3217 0bd2 01       		.byte	0x1
 3218 0bd3 2E       		.byte	0x2e
 3219 0bd4 ED0A0000 		.4byte	0xaed
 3220 0bd8 00       		.byte	0
 3221 0bd9 20       		.uleb128 0x20
 3222 0bda 76390000 		.4byte	.LASF1232
 3223 0bde 01       		.byte	0x1
 3224 0bdf 3C       		.byte	0x3c
 3225 0be0 01       		.byte	0x1
 3226 0be1 FC0B0000 		.4byte	0xbfc
 3227 0be5 1E       		.uleb128 0x1e
 3228 0be6 E70F0000 		.4byte	.LASF1200
 3229 0bea 01       		.byte	0x1
 3230 0beb 3C       		.byte	0x3c
 3231 0bec A4080000 		.4byte	0x8a4
 3232 0bf0 1E       		.uleb128 0x1e
 3233 0bf1 9E210000 		.4byte	.LASF1225
 3234 0bf5 01       		.byte	0x1
 3235 0bf6 3C       		.byte	0x3c
 3236 0bf7 ED0A0000 		.4byte	0xaed
 3237 0bfb 00       		.byte	0
 3238 0bfc 2C       		.uleb128 0x2c
 3239 0bfd AC740000 		.4byte	.LASF1233
 3240 0c01 01       		.byte	0x1
 3241 0c02 B4       		.byte	0xb4
 3242 0c03 A6000000 		.4byte	0xa6
 3243 0c07 00000000 		.4byte	.LFB207
 3244 0c0b B4000000 		.4byte	.LFE207-.LFB207
 3245 0c0f 01       		.uleb128 0x1
 3246 0c10 9C       		.byte	0x9c
 3247 0c11 580E0000 		.4byte	0xe58
 3248 0c15 2A       		.uleb128 0x2a
 3249 0c16 E70F0000 		.4byte	.LASF1200
 3250 0c1a 01       		.byte	0x1
 3251 0c1b B4       		.byte	0xb4
 3252 0c1c A4080000 		.4byte	0x8a4
 3253 0c20 6C000000 		.4byte	.LLST4
 3254 0c24 2A       		.uleb128 0x2a
 3255 0c25 9E210000 		.4byte	.LASF1225
 3256 0c29 01       		.byte	0x1
 3257 0c2a B4       		.byte	0xb4
 3258 0c2b ED0A0000 		.4byte	0xaed
 3259 0c2f 98000000 		.4byte	.LLST5
 3260 0c33 23       		.uleb128 0x23
 3261 0c34 C8080000 		.4byte	0x8c8
 3262 0c38 06000000 		.4byte	.LBB178
 3263 0c3c 06000000 		.4byte	.LBE178-.LBB178
ARM GAS  /tmp/ccFRKuha.s 			page 86


 3264 0c40 01       		.byte	0x1
 3265 0c41 B7       		.byte	0xb7
 3266 0c42 560C0000 		.4byte	0xc56
 3267 0c46 24       		.uleb128 0x24
 3268 0c47 E5080000 		.4byte	0x8e5
 3269 0c4b 04       		.byte	0x4
 3270 0c4c 27       		.uleb128 0x27
 3271 0c4d D9080000 		.4byte	0x8d9
 3272 0c51 C4000000 		.4byte	.LLST6
 3273 0c55 00       		.byte	0
 3274 0c56 23       		.uleb128 0x23
 3275 0c57 AA080000 		.4byte	0x8aa
 3276 0c5b 0E000000 		.4byte	.LBB180
 3277 0c5f 04000000 		.4byte	.LBE180-.LBB180
 3278 0c63 01       		.byte	0x1
 3279 0c64 B8       		.byte	0xb8
 3280 0c65 730C0000 		.4byte	0xc73
 3281 0c69 27       		.uleb128 0x27
 3282 0c6a BB080000 		.4byte	0x8bb
 3283 0c6e F0000000 		.4byte	.LLST7
 3284 0c72 00       		.byte	0
 3285 0c73 23       		.uleb128 0x23
 3286 0c74 40090000 		.4byte	0x940
 3287 0c78 12000000 		.4byte	.LBB182
 3288 0c7c 04000000 		.4byte	.LBE182-.LBB182
 3289 0c80 01       		.byte	0x1
 3290 0c81 BC       		.byte	0xbc
 3291 0c82 960C0000 		.4byte	0xc96
 3292 0c86 24       		.uleb128 0x24
 3293 0c87 59090000 		.4byte	0x959
 3294 0c8b 03       		.byte	0x3
 3295 0c8c 27       		.uleb128 0x27
 3296 0c8d 4D090000 		.4byte	0x94d
 3297 0c91 03010000 		.4byte	.LLST8
 3298 0c95 00       		.byte	0
 3299 0c96 23       		.uleb128 0x23
 3300 0c97 66090000 		.4byte	0x966
 3301 0c9b 16000000 		.4byte	.LBB184
 3302 0c9f 02000000 		.4byte	.LBE184-.LBB184
 3303 0ca3 01       		.byte	0x1
 3304 0ca4 BE       		.byte	0xbe
 3305 0ca5 B30C0000 		.4byte	0xcb3
 3306 0ca9 27       		.uleb128 0x27
 3307 0caa 77090000 		.4byte	0x977
 3308 0cae 2F010000 		.4byte	.LLST9
 3309 0cb2 00       		.byte	0
 3310 0cb3 23       		.uleb128 0x23
 3311 0cb4 C8080000 		.4byte	0x8c8
 3312 0cb8 28000000 		.4byte	.LBB186
 3313 0cbc 02000000 		.4byte	.LBE186-.LBB186
 3314 0cc0 01       		.byte	0x1
 3315 0cc1 C1       		.byte	0xc1
 3316 0cc2 D90C0000 		.4byte	0xcd9
 3317 0cc6 27       		.uleb128 0x27
 3318 0cc7 E5080000 		.4byte	0x8e5
 3319 0ccb 5B010000 		.4byte	.LLST10
 3320 0ccf 27       		.uleb128 0x27
ARM GAS  /tmp/ccFRKuha.s 			page 87


 3321 0cd0 D9080000 		.4byte	0x8d9
 3322 0cd4 6F010000 		.4byte	.LLST11
 3323 0cd8 00       		.byte	0
 3324 0cd9 23       		.uleb128 0x23
 3325 0cda B60B0000 		.4byte	0xbb6
 3326 0cde 34000000 		.4byte	.LBB188
 3327 0ce2 12000000 		.4byte	.LBE188-.LBB188
 3328 0ce6 01       		.byte	0x1
 3329 0ce7 C2       		.byte	0xc2
 3330 0ce8 470D0000 		.4byte	0xd47
 3331 0cec 27       		.uleb128 0x27
 3332 0ced CD0B0000 		.4byte	0xbcd
 3333 0cf1 82010000 		.4byte	.LLST12
 3334 0cf5 27       		.uleb128 0x27
 3335 0cf6 C20B0000 		.4byte	0xbc2
 3336 0cfa 95010000 		.4byte	.LLST13
 3337 0cfe 23       		.uleb128 0x23
 3338 0cff 7E080000 		.4byte	0x87e
 3339 0d03 3A000000 		.4byte	.LBB190
 3340 0d07 04000000 		.4byte	.LBE190-.LBB190
 3341 0d0b 01       		.byte	0x1
 3342 0d0c 31       		.byte	0x31
 3343 0d0d 240D0000 		.4byte	0xd24
 3344 0d11 27       		.uleb128 0x27
 3345 0d12 97080000 		.4byte	0x897
 3346 0d16 A8010000 		.4byte	.LLST14
 3347 0d1a 27       		.uleb128 0x27
 3348 0d1b 8B080000 		.4byte	0x88b
 3349 0d1f CF010000 		.4byte	.LLST15
 3350 0d23 00       		.byte	0
 3351 0d24 26       		.uleb128 0x26
 3352 0d25 7E080000 		.4byte	0x87e
 3353 0d29 3E000000 		.4byte	.LBB192
 3354 0d2d 18000000 		.4byte	.Ldebug_ranges0+0x18
 3355 0d31 01       		.byte	0x1
 3356 0d32 35       		.byte	0x35
 3357 0d33 27       		.uleb128 0x27
 3358 0d34 97080000 		.4byte	0x897
 3359 0d38 E2010000 		.4byte	.LLST16
 3360 0d3c 27       		.uleb128 0x27
 3361 0d3d 8B080000 		.4byte	0x88b
 3362 0d41 F7010000 		.4byte	.LLST17
 3363 0d45 00       		.byte	0
 3364 0d46 00       		.byte	0
 3365 0d47 23       		.uleb128 0x23
 3366 0d48 84090000 		.4byte	0x984
 3367 0d4c 46000000 		.4byte	.LBB196
 3368 0d50 02000000 		.4byte	.LBE196-.LBB196
 3369 0d54 01       		.byte	0x1
 3370 0d55 C6       		.byte	0xc6
 3371 0d56 6D0D0000 		.4byte	0xd6d
 3372 0d5a 27       		.uleb128 0x27
 3373 0d5b A1090000 		.4byte	0x9a1
 3374 0d5f 0A020000 		.4byte	.LLST18
 3375 0d63 27       		.uleb128 0x27
 3376 0d64 95090000 		.4byte	0x995
 3377 0d68 1E020000 		.4byte	.LLST19
ARM GAS  /tmp/ccFRKuha.s 			page 88


 3378 0d6c 00       		.byte	0
 3379 0d6d 23       		.uleb128 0x23
 3380 0d6e C8080000 		.4byte	0x8c8
 3381 0d72 6C000000 		.4byte	.LBB198
 3382 0d76 02000000 		.4byte	.LBE198-.LBB198
 3383 0d7a 01       		.byte	0x1
 3384 0d7b D1       		.byte	0xd1
 3385 0d7c 930D0000 		.4byte	0xd93
 3386 0d80 27       		.uleb128 0x27
 3387 0d81 E5080000 		.4byte	0x8e5
 3388 0d85 31020000 		.4byte	.LLST20
 3389 0d89 27       		.uleb128 0x27
 3390 0d8a D9080000 		.4byte	0x8d9
 3391 0d8e 51020000 		.4byte	.LLST21
 3392 0d92 00       		.byte	0
 3393 0d93 23       		.uleb128 0x23
 3394 0d94 84090000 		.4byte	0x984
 3395 0d98 72000000 		.4byte	.LBB200
 3396 0d9c 02000000 		.4byte	.LBE200-.LBB200
 3397 0da0 01       		.byte	0x1
 3398 0da1 D6       		.byte	0xd6
 3399 0da2 B90D0000 		.4byte	0xdb9
 3400 0da6 27       		.uleb128 0x27
 3401 0da7 A1090000 		.4byte	0x9a1
 3402 0dab 6F020000 		.4byte	.LLST22
 3403 0daf 27       		.uleb128 0x27
 3404 0db0 95090000 		.4byte	0x995
 3405 0db4 83020000 		.4byte	.LLST23
 3406 0db8 00       		.byte	0
 3407 0db9 23       		.uleb128 0x23
 3408 0dba D90B0000 		.4byte	0xbd9
 3409 0dbe 90000000 		.4byte	.LBB202
 3410 0dc2 14000000 		.4byte	.LBE202-.LBB202
 3411 0dc6 01       		.byte	0x1
 3412 0dc7 D2       		.byte	0xd2
 3413 0dc8 270E0000 		.4byte	0xe27
 3414 0dcc 27       		.uleb128 0x27
 3415 0dcd F00B0000 		.4byte	0xbf0
 3416 0dd1 96020000 		.4byte	.LLST24
 3417 0dd5 27       		.uleb128 0x27
 3418 0dd6 E50B0000 		.4byte	0xbe5
 3419 0dda A9020000 		.4byte	.LLST25
 3420 0dde 23       		.uleb128 0x23
 3421 0ddf 7E080000 		.4byte	0x87e
 3422 0de3 96000000 		.4byte	.LBB204
 3423 0de7 04000000 		.4byte	.LBE204-.LBB204
 3424 0deb 01       		.byte	0x1
 3425 0dec 3F       		.byte	0x3f
 3426 0ded 040E0000 		.4byte	0xe04
 3427 0df1 27       		.uleb128 0x27
 3428 0df2 97080000 		.4byte	0x897
 3429 0df6 BC020000 		.4byte	.LLST26
 3430 0dfa 27       		.uleb128 0x27
 3431 0dfb 8B080000 		.4byte	0x88b
 3432 0dff EF020000 		.4byte	.LLST27
 3433 0e03 00       		.byte	0
 3434 0e04 26       		.uleb128 0x26
ARM GAS  /tmp/ccFRKuha.s 			page 89


 3435 0e05 7E080000 		.4byte	0x87e
 3436 0e09 9A000000 		.4byte	.LBB206
 3437 0e0d 30000000 		.4byte	.Ldebug_ranges0+0x30
 3438 0e11 01       		.byte	0x1
 3439 0e12 42       		.byte	0x42
 3440 0e13 27       		.uleb128 0x27
 3441 0e14 97080000 		.4byte	0x897
 3442 0e18 02030000 		.4byte	.LLST28
 3443 0e1c 27       		.uleb128 0x27
 3444 0e1d 8B080000 		.4byte	0x88b
 3445 0e21 17030000 		.4byte	.LLST29
 3446 0e25 00       		.byte	0
 3447 0e26 00       		.byte	0
 3448 0e27 2D       		.uleb128 0x2d
 3449 0e28 54000000 		.4byte	.LVL25
 3450 0e2c 780A0000 		.4byte	0xa78
 3451 0e30 410E0000 		.4byte	0xe41
 3452 0e34 2E       		.uleb128 0x2e
 3453 0e35 01       		.uleb128 0x1
 3454 0e36 51       		.byte	0x51
 3455 0e37 02       		.uleb128 0x2
 3456 0e38 74       		.byte	0x74
 3457 0e39 00       		.sleb128 0
 3458 0e3a 2E       		.uleb128 0x2e
 3459 0e3b 01       		.uleb128 0x1
 3460 0e3c 50       		.byte	0x50
 3461 0e3d 02       		.uleb128 0x2
 3462 0e3e 75       		.byte	0x75
 3463 0e3f 00       		.sleb128 0
 3464 0e40 00       		.byte	0
 3465 0e41 2F       		.uleb128 0x2f
 3466 0e42 80000000 		.4byte	.LVL29
 3467 0e46 F30A0000 		.4byte	0xaf3
 3468 0e4a 2E       		.uleb128 0x2e
 3469 0e4b 01       		.uleb128 0x1
 3470 0e4c 51       		.byte	0x51
 3471 0e4d 02       		.uleb128 0x2
 3472 0e4e 74       		.byte	0x74
 3473 0e4f 00       		.sleb128 0
 3474 0e50 2E       		.uleb128 0x2e
 3475 0e51 01       		.uleb128 0x1
 3476 0e52 50       		.byte	0x50
 3477 0e53 02       		.uleb128 0x2
 3478 0e54 75       		.byte	0x75
 3479 0e55 00       		.sleb128 0
 3480 0e56 00       		.byte	0
 3481 0e57 00       		.byte	0
 3482 0e58 2C       		.uleb128 0x2c
 3483 0e59 A2780000 		.4byte	.LASF1234
 3484 0e5d 01       		.byte	0x1
 3485 0e5e E9       		.byte	0xe9
 3486 0e5f A6000000 		.4byte	0xa6
 3487 0e63 00000000 		.4byte	.LFB208
 3488 0e67 8C000000 		.4byte	.LFE208-.LFB208
 3489 0e6b 01       		.uleb128 0x1
 3490 0e6c 9C       		.byte	0x9c
 3491 0e6d D6100000 		.4byte	0x10d6
ARM GAS  /tmp/ccFRKuha.s 			page 90


 3492 0e71 2A       		.uleb128 0x2a
 3493 0e72 E70F0000 		.4byte	.LASF1200
 3494 0e76 01       		.byte	0x1
 3495 0e77 E9       		.byte	0xe9
 3496 0e78 A4080000 		.4byte	0x8a4
 3497 0e7c 2A030000 		.4byte	.LLST30
 3498 0e80 2A       		.uleb128 0x2a
 3499 0e81 CB300000 		.4byte	.LASF1235
 3500 0e85 01       		.byte	0x1
 3501 0e86 E9       		.byte	0xe9
 3502 0e87 78080000 		.4byte	0x878
 3503 0e8b 48030000 		.4byte	.LLST31
 3504 0e8f 22       		.uleb128 0x22
 3505 0e90 B6330000 		.4byte	.LASF1236
 3506 0e94 01       		.byte	0x1
 3507 0e95 E9       		.byte	0xe9
 3508 0e96 A6000000 		.4byte	0xa6
 3509 0e9a 01       		.uleb128 0x1
 3510 0e9b 52       		.byte	0x52
 3511 0e9c 2B       		.uleb128 0x2b
 3512 0e9d 9D610000 		.4byte	.LASF1195
 3513 0ea1 01       		.byte	0x1
 3514 0ea2 EB       		.byte	0xeb
 3515 0ea3 A6000000 		.4byte	0xa6
 3516 0ea7 69030000 		.4byte	.LLST32
 3517 0eab 2B       		.uleb128 0x2b
 3518 0eac 4B440000 		.4byte	.LASF1197
 3519 0eb0 01       		.byte	0x1
 3520 0eb1 EB       		.byte	0xeb
 3521 0eb2 A6000000 		.4byte	0xa6
 3522 0eb6 B8030000 		.4byte	.LLST33
 3523 0eba 23       		.uleb128 0x23
 3524 0ebb C8080000 		.4byte	0x8c8
 3525 0ebf 04000000 		.4byte	.LBB210
 3526 0ec3 06000000 		.4byte	.LBE210-.LBB210
 3527 0ec7 01       		.byte	0x1
 3528 0ec8 EE       		.byte	0xee
 3529 0ec9 DB0E0000 		.4byte	0xedb
 3530 0ecd 24       		.uleb128 0x24
 3531 0ece E5080000 		.4byte	0x8e5
 3532 0ed2 04       		.byte	0x4
 3533 0ed3 25       		.uleb128 0x25
 3534 0ed4 D9080000 		.4byte	0x8d9
 3535 0ed8 01       		.uleb128 0x1
 3536 0ed9 53       		.byte	0x53
 3537 0eda 00       		.byte	0
 3538 0edb 23       		.uleb128 0x23
 3539 0edc AA080000 		.4byte	0x8aa
 3540 0ee0 0C000000 		.4byte	.LBB212
 3541 0ee4 04000000 		.4byte	.LBE212-.LBB212
 3542 0ee8 01       		.byte	0x1
 3543 0ee9 EF       		.byte	0xef
 3544 0eea F80E0000 		.4byte	0xef8
 3545 0eee 27       		.uleb128 0x27
 3546 0eef BB080000 		.4byte	0x8bb
 3547 0ef3 D7030000 		.4byte	.LLST34
 3548 0ef7 00       		.byte	0
ARM GAS  /tmp/ccFRKuha.s 			page 91


 3549 0ef8 23       		.uleb128 0x23
 3550 0ef9 40090000 		.4byte	0x940
 3551 0efd 10000000 		.4byte	.LBB214
 3552 0f01 04000000 		.4byte	.LBE214-.LBB214
 3553 0f05 01       		.byte	0x1
 3554 0f06 F3       		.byte	0xf3
 3555 0f07 190F0000 		.4byte	0xf19
 3556 0f0b 24       		.uleb128 0x24
 3557 0f0c 59090000 		.4byte	0x959
 3558 0f10 03       		.byte	0x3
 3559 0f11 25       		.uleb128 0x25
 3560 0f12 4D090000 		.4byte	0x94d
 3561 0f16 01       		.uleb128 0x1
 3562 0f17 53       		.byte	0x53
 3563 0f18 00       		.byte	0
 3564 0f19 23       		.uleb128 0x23
 3565 0f1a 66090000 		.4byte	0x966
 3566 0f1e 14000000 		.4byte	.LBB216
 3567 0f22 02000000 		.4byte	.LBE216-.LBB216
 3568 0f26 01       		.byte	0x1
 3569 0f27 F5       		.byte	0xf5
 3570 0f28 340F0000 		.4byte	0xf34
 3571 0f2c 25       		.uleb128 0x25
 3572 0f2d 77090000 		.4byte	0x977
 3573 0f31 01       		.uleb128 0x1
 3574 0f32 53       		.byte	0x53
 3575 0f33 00       		.byte	0
 3576 0f34 30       		.uleb128 0x30
 3577 0f35 26000000 		.4byte	.LBB218
 3578 0f39 2E000000 		.4byte	.LBE218-.LBB218
 3579 0f3d 05100000 		.4byte	0x1005
 3580 0f41 2B       		.uleb128 0x2b
 3581 0f42 A9540000 		.4byte	.LASF1238
 3582 0f46 01       		.byte	0x1
 3583 0f47 F6       		.byte	0xf6
 3584 0f48 D6100000 		.4byte	0x10d6
 3585 0f4c EA030000 		.4byte	.LLST35
 3586 0f50 23       		.uleb128 0x23
 3587 0f51 C8080000 		.4byte	0x8c8
 3588 0f55 2A000000 		.4byte	.LBB219
 3589 0f59 02000000 		.4byte	.LBE219-.LBB219
 3590 0f5d 01       		.byte	0x1
 3591 0f5e FC       		.byte	0xfc
 3592 0f5f 760F0000 		.4byte	0xf76
 3593 0f63 27       		.uleb128 0x27
 3594 0f64 E5080000 		.4byte	0x8e5
 3595 0f68 FD030000 		.4byte	.LLST36
 3596 0f6c 27       		.uleb128 0x27
 3597 0f6d D9080000 		.4byte	0x8d9
 3598 0f71 11040000 		.4byte	.LLST37
 3599 0f75 00       		.byte	0
 3600 0f76 31       		.uleb128 0x31
 3601 0f77 7E080000 		.4byte	0x87e
 3602 0f7b 34000000 		.4byte	.LBB221
 3603 0f7f 48000000 		.4byte	.Ldebug_ranges0+0x48
 3604 0f83 01       		.byte	0x1
 3605 0f84 FD       		.byte	0xfd
ARM GAS  /tmp/ccFRKuha.s 			page 92


 3606 0f85 9C0F0000 		.4byte	0xf9c
 3607 0f89 27       		.uleb128 0x27
 3608 0f8a 97080000 		.4byte	0x897
 3609 0f8e 24040000 		.4byte	.LLST38
 3610 0f92 27       		.uleb128 0x27
 3611 0f93 8B080000 		.4byte	0x88b
 3612 0f97 43040000 		.4byte	.LLST39
 3613 0f9b 00       		.byte	0
 3614 0f9c 32       		.uleb128 0x32
 3615 0f9d 84090000 		.4byte	0x984
 3616 0fa1 3C000000 		.4byte	.LBB225
 3617 0fa5 02000000 		.4byte	.LBE225-.LBB225
 3618 0fa9 01       		.byte	0x1
 3619 0faa 0301     		.2byte	0x103
 3620 0fac C30F0000 		.4byte	0xfc3
 3621 0fb0 27       		.uleb128 0x27
 3622 0fb1 A1090000 		.4byte	0x9a1
 3623 0fb5 56040000 		.4byte	.LLST40
 3624 0fb9 27       		.uleb128 0x27
 3625 0fba 95090000 		.4byte	0x995
 3626 0fbe 6A040000 		.4byte	.LLST41
 3627 0fc2 00       		.byte	0
 3628 0fc3 32       		.uleb128 0x32
 3629 0fc4 C8080000 		.4byte	0x8c8
 3630 0fc8 42000000 		.4byte	.LBB227
 3631 0fcc 02000000 		.4byte	.LBE227-.LBB227
 3632 0fd0 01       		.byte	0x1
 3633 0fd1 0801     		.2byte	0x108
 3634 0fd3 EA0F0000 		.4byte	0xfea
 3635 0fd7 27       		.uleb128 0x27
 3636 0fd8 E5080000 		.4byte	0x8e5
 3637 0fdc 7D040000 		.4byte	.LLST42
 3638 0fe0 27       		.uleb128 0x27
 3639 0fe1 D9080000 		.4byte	0x8d9
 3640 0fe5 91040000 		.4byte	.LLST43
 3641 0fe9 00       		.byte	0
 3642 0fea 33       		.uleb128 0x33
 3643 0feb AA080000 		.4byte	0x8aa
 3644 0fef 48000000 		.4byte	.LBB229
 3645 0ff3 02000000 		.4byte	.LBE229-.LBB229
 3646 0ff7 01       		.byte	0x1
 3647 0ff8 0901     		.2byte	0x109
 3648 0ffa 27       		.uleb128 0x27
 3649 0ffb BB080000 		.4byte	0x8bb
 3650 0fff A4040000 		.4byte	.LLST44
 3651 1003 00       		.byte	0
 3652 1004 00       		.byte	0
 3653 1005 34       		.uleb128 0x34
 3654 1006 54000000 		.4byte	.LBB231
 3655 100a 36000000 		.4byte	.LBE231-.LBB231
 3656 100e 35       		.uleb128 0x35
 3657 100f 64000000 		.4byte	.LASF1239
 3658 1013 01       		.byte	0x1
 3659 1014 0F01     		.2byte	0x10f
 3660 1016 78080000 		.4byte	0x878
 3661 101a B7040000 		.4byte	.LLST45
 3662 101e 32       		.uleb128 0x32
ARM GAS  /tmp/ccFRKuha.s 			page 93


 3663 101f C8080000 		.4byte	0x8c8
 3664 1023 58000000 		.4byte	.LBB232
 3665 1027 02000000 		.4byte	.LBE232-.LBB232
 3666 102b 01       		.byte	0x1
 3667 102c 1501     		.2byte	0x115
 3668 102e 45100000 		.4byte	0x1045
 3669 1032 27       		.uleb128 0x27
 3670 1033 E5080000 		.4byte	0x8e5
 3671 1037 CA040000 		.4byte	.LLST46
 3672 103b 27       		.uleb128 0x27
 3673 103c D9080000 		.4byte	0x8d9
 3674 1040 EA040000 		.4byte	.LLST47
 3675 1044 00       		.byte	0
 3676 1045 32       		.uleb128 0x32
 3677 1046 84090000 		.4byte	0x984
 3678 104a 5E000000 		.4byte	.LBB234
 3679 104e 02000000 		.4byte	.LBE234-.LBB234
 3680 1052 01       		.byte	0x1
 3681 1053 1C01     		.2byte	0x11c
 3682 1055 6C100000 		.4byte	0x106c
 3683 1059 27       		.uleb128 0x27
 3684 105a A1090000 		.4byte	0x9a1
 3685 105e 08050000 		.4byte	.LLST48
 3686 1062 27       		.uleb128 0x27
 3687 1063 95090000 		.4byte	0x995
 3688 1067 28050000 		.4byte	.LLST49
 3689 106b 00       		.byte	0
 3690 106c 32       		.uleb128 0x32
 3691 106d C8080000 		.4byte	0x8c8
 3692 1071 64000000 		.4byte	.LBB236
 3693 1075 02000000 		.4byte	.LBE236-.LBB236
 3694 1079 01       		.byte	0x1
 3695 107a 2101     		.2byte	0x121
 3696 107c 93100000 		.4byte	0x1093
 3697 1080 27       		.uleb128 0x27
 3698 1081 E5080000 		.4byte	0x8e5
 3699 1085 46050000 		.4byte	.LLST50
 3700 1089 27       		.uleb128 0x27
 3701 108a D9080000 		.4byte	0x8d9
 3702 108e 66050000 		.4byte	.LLST51
 3703 1092 00       		.byte	0
 3704 1093 36       		.uleb128 0x36
 3705 1094 7E080000 		.4byte	0x87e
 3706 1098 74000000 		.4byte	.LBB238
 3707 109c 60000000 		.4byte	.Ldebug_ranges0+0x60
 3708 10a0 01       		.byte	0x1
 3709 10a1 1601     		.2byte	0x116
 3710 10a3 BA100000 		.4byte	0x10ba
 3711 10a7 27       		.uleb128 0x27
 3712 10a8 97080000 		.4byte	0x897
 3713 10ac 84050000 		.4byte	.LLST52
 3714 10b0 27       		.uleb128 0x27
 3715 10b1 8B080000 		.4byte	0x88b
 3716 10b5 AE050000 		.4byte	.LLST53
 3717 10b9 00       		.byte	0
 3718 10ba 33       		.uleb128 0x33
 3719 10bb AA080000 		.4byte	0x8aa
ARM GAS  /tmp/ccFRKuha.s 			page 94


 3720 10bf 82000000 		.4byte	.LBB242
 3721 10c3 02000000 		.4byte	.LBE242-.LBB242
 3722 10c7 01       		.byte	0x1
 3723 10c8 2201     		.2byte	0x122
 3724 10ca 27       		.uleb128 0x27
 3725 10cb BB080000 		.4byte	0x8bb
 3726 10cf C1050000 		.4byte	.LLST54
 3727 10d3 00       		.byte	0
 3728 10d4 00       		.byte	0
 3729 10d5 00       		.byte	0
 3730 10d6 17       		.uleb128 0x17
 3731 10d7 04       		.byte	0x4
 3732 10d8 9B000000 		.4byte	0x9b
 3733 10dc 37       		.uleb128 0x37
 3734 10dd E9450000 		.4byte	.LASF1240
 3735 10e1 01       		.byte	0x1
 3736 10e2 2D01     		.2byte	0x12d
 3737 10e4 A6000000 		.4byte	0xa6
 3738 10e8 00000000 		.4byte	.LFB209
 3739 10ec C0000000 		.4byte	.LFE209-.LFB209
 3740 10f0 01       		.uleb128 0x1
 3741 10f1 9C       		.byte	0x9c
 3742 10f2 5F130000 		.4byte	0x135f
 3743 10f6 38       		.uleb128 0x38
 3744 10f7 E70F0000 		.4byte	.LASF1200
 3745 10fb 01       		.byte	0x1
 3746 10fc 2D01     		.2byte	0x12d
 3747 10fe A4080000 		.4byte	0x8a4
 3748 1102 D4050000 		.4byte	.LLST55
 3749 1106 38       		.uleb128 0x38
 3750 1107 CB300000 		.4byte	.LASF1235
 3751 110b 01       		.byte	0x1
 3752 110c 2D01     		.2byte	0x12d
 3753 110e 78080000 		.4byte	0x878
 3754 1112 F2050000 		.4byte	.LLST56
 3755 1116 39       		.uleb128 0x39
 3756 1117 B6330000 		.4byte	.LASF1236
 3757 111b 01       		.byte	0x1
 3758 111c 2D01     		.2byte	0x12d
 3759 111e A6000000 		.4byte	0xa6
 3760 1122 01       		.uleb128 0x1
 3761 1123 52       		.byte	0x52
 3762 1124 35       		.uleb128 0x35
 3763 1125 4B440000 		.4byte	.LASF1197
 3764 1129 01       		.byte	0x1
 3765 112a 2F01     		.2byte	0x12f
 3766 112c A6000000 		.4byte	0xa6
 3767 1130 13060000 		.4byte	.LLST57
 3768 1134 35       		.uleb128 0x35
 3769 1135 9D610000 		.4byte	.LASF1195
 3770 1139 01       		.byte	0x1
 3771 113a 2F01     		.2byte	0x12f
 3772 113c A6000000 		.4byte	0xa6
 3773 1140 74060000 		.4byte	.LLST58
 3774 1144 32       		.uleb128 0x32
 3775 1145 C8080000 		.4byte	0x8c8
 3776 1149 06000000 		.4byte	.LBB244
ARM GAS  /tmp/ccFRKuha.s 			page 95


 3777 114d 06000000 		.4byte	.LBE244-.LBB244
 3778 1151 01       		.byte	0x1
 3779 1152 3201     		.2byte	0x132
 3780 1154 66110000 		.4byte	0x1166
 3781 1158 24       		.uleb128 0x24
 3782 1159 E5080000 		.4byte	0x8e5
 3783 115d 04       		.byte	0x4
 3784 115e 25       		.uleb128 0x25
 3785 115f D9080000 		.4byte	0x8d9
 3786 1163 01       		.uleb128 0x1
 3787 1164 53       		.byte	0x53
 3788 1165 00       		.byte	0
 3789 1166 32       		.uleb128 0x32
 3790 1167 AA080000 		.4byte	0x8aa
 3791 116b 0E000000 		.4byte	.LBB246
 3792 116f 04000000 		.4byte	.LBE246-.LBB246
 3793 1173 01       		.byte	0x1
 3794 1174 3301     		.2byte	0x133
 3795 1176 84110000 		.4byte	0x1184
 3796 117a 27       		.uleb128 0x27
 3797 117b BB080000 		.4byte	0x8bb
 3798 117f 93060000 		.4byte	.LLST59
 3799 1183 00       		.byte	0
 3800 1184 32       		.uleb128 0x32
 3801 1185 40090000 		.4byte	0x940
 3802 1189 12000000 		.4byte	.LBB248
 3803 118d 04000000 		.4byte	.LBE248-.LBB248
 3804 1191 01       		.byte	0x1
 3805 1192 3701     		.2byte	0x137
 3806 1194 A6110000 		.4byte	0x11a6
 3807 1198 24       		.uleb128 0x24
 3808 1199 59090000 		.4byte	0x959
 3809 119d 03       		.byte	0x3
 3810 119e 25       		.uleb128 0x25
 3811 119f 4D090000 		.4byte	0x94d
 3812 11a3 01       		.uleb128 0x1
 3813 11a4 53       		.byte	0x53
 3814 11a5 00       		.byte	0
 3815 11a6 32       		.uleb128 0x32
 3816 11a7 66090000 		.4byte	0x966
 3817 11ab 16000000 		.4byte	.LBB250
 3818 11af 02000000 		.4byte	.LBE250-.LBB250
 3819 11b3 01       		.byte	0x1
 3820 11b4 3901     		.2byte	0x139
 3821 11b6 C2110000 		.4byte	0x11c2
 3822 11ba 25       		.uleb128 0x25
 3823 11bb 77090000 		.4byte	0x977
 3824 11bf 01       		.uleb128 0x1
 3825 11c0 53       		.byte	0x53
 3826 11c1 00       		.byte	0
 3827 11c2 3A       		.uleb128 0x3a
 3828 11c3 78000000 		.4byte	.Ldebug_ranges0+0x78
 3829 11c7 92120000 		.4byte	0x1292
 3830 11cb 35       		.uleb128 0x35
 3831 11cc AA090000 		.4byte	.LASF1241
 3832 11d0 01       		.byte	0x1
 3833 11d1 3A01     		.2byte	0x13a
ARM GAS  /tmp/ccFRKuha.s 			page 96


 3834 11d3 D6100000 		.4byte	0x10d6
 3835 11d7 A6060000 		.4byte	.LLST60
 3836 11db 32       		.uleb128 0x32
 3837 11dc C8080000 		.4byte	0x8c8
 3838 11e0 2C000000 		.4byte	.LBB253
 3839 11e4 02000000 		.4byte	.LBE253-.LBB253
 3840 11e8 01       		.byte	0x1
 3841 11e9 4001     		.2byte	0x140
 3842 11eb 02120000 		.4byte	0x1202
 3843 11ef 27       		.uleb128 0x27
 3844 11f0 E5080000 		.4byte	0x8e5
 3845 11f4 1A070000 		.4byte	.LLST61
 3846 11f8 27       		.uleb128 0x27
 3847 11f9 D9080000 		.4byte	0x8d9
 3848 11fd 2E070000 		.4byte	.LLST62
 3849 1201 00       		.byte	0
 3850 1202 36       		.uleb128 0x36
 3851 1203 7E080000 		.4byte	0x87e
 3852 1207 36000000 		.4byte	.LBB255
 3853 120b 90000000 		.4byte	.Ldebug_ranges0+0x90
 3854 120f 01       		.byte	0x1
 3855 1210 4101     		.2byte	0x141
 3856 1212 29120000 		.4byte	0x1229
 3857 1216 27       		.uleb128 0x27
 3858 1217 97080000 		.4byte	0x897
 3859 121b 41070000 		.4byte	.LLST63
 3860 121f 27       		.uleb128 0x27
 3861 1220 8B080000 		.4byte	0x88b
 3862 1224 56070000 		.4byte	.LLST64
 3863 1228 00       		.byte	0
 3864 1229 32       		.uleb128 0x32
 3865 122a 84090000 		.4byte	0x984
 3866 122e 3C000000 		.4byte	.LBB259
 3867 1232 02000000 		.4byte	.LBE259-.LBB259
 3868 1236 01       		.byte	0x1
 3869 1237 4601     		.2byte	0x146
 3870 1239 50120000 		.4byte	0x1250
 3871 123d 27       		.uleb128 0x27
 3872 123e A1090000 		.4byte	0x9a1
 3873 1242 69070000 		.4byte	.LLST65
 3874 1246 27       		.uleb128 0x27
 3875 1247 95090000 		.4byte	0x995
 3876 124b 7D070000 		.4byte	.LLST66
 3877 124f 00       		.byte	0
 3878 1250 32       		.uleb128 0x32
 3879 1251 C8080000 		.4byte	0x8c8
 3880 1255 4A000000 		.4byte	.LBB261
 3881 1259 02000000 		.4byte	.LBE261-.LBB261
 3882 125d 01       		.byte	0x1
 3883 125e 4B01     		.2byte	0x14b
 3884 1260 77120000 		.4byte	0x1277
 3885 1264 27       		.uleb128 0x27
 3886 1265 E5080000 		.4byte	0x8e5
 3887 1269 90070000 		.4byte	.LLST67
 3888 126d 27       		.uleb128 0x27
 3889 126e D9080000 		.4byte	0x8d9
 3890 1272 A4070000 		.4byte	.LLST68
ARM GAS  /tmp/ccFRKuha.s 			page 97


 3891 1276 00       		.byte	0
 3892 1277 33       		.uleb128 0x33
 3893 1278 AA080000 		.4byte	0x8aa
 3894 127c 54000000 		.4byte	.LBB263
 3895 1280 08000000 		.4byte	.LBE263-.LBB263
 3896 1284 01       		.byte	0x1
 3897 1285 4C01     		.2byte	0x14c
 3898 1287 27       		.uleb128 0x27
 3899 1288 BB080000 		.4byte	0x8bb
 3900 128c B7070000 		.4byte	.LLST69
 3901 1290 00       		.byte	0
 3902 1291 00       		.byte	0
 3903 1292 3B       		.uleb128 0x3b
 3904 1293 A8000000 		.4byte	.Ldebug_ranges0+0xa8
 3905 1297 35       		.uleb128 0x35
 3906 1298 E14E0000 		.4byte	.LASF1242
 3907 129c 01       		.byte	0x1
 3908 129d 5301     		.2byte	0x153
 3909 129f 78080000 		.4byte	0x878
 3910 12a3 CA070000 		.4byte	.LLST70
 3911 12a7 32       		.uleb128 0x32
 3912 12a8 C8080000 		.4byte	0x8c8
 3913 12ac 74000000 		.4byte	.LBB267
 3914 12b0 02000000 		.4byte	.LBE267-.LBB267
 3915 12b4 01       		.byte	0x1
 3916 12b5 5901     		.2byte	0x159
 3917 12b7 CE120000 		.4byte	0x12ce
 3918 12bb 27       		.uleb128 0x27
 3919 12bc E5080000 		.4byte	0x8e5
 3920 12c0 3E080000 		.4byte	.LLST71
 3921 12c4 27       		.uleb128 0x27
 3922 12c5 D9080000 		.4byte	0x8d9
 3923 12c9 5E080000 		.4byte	.LLST72
 3924 12cd 00       		.byte	0
 3925 12ce 32       		.uleb128 0x32
 3926 12cf 84090000 		.4byte	0x984
 3927 12d3 7A000000 		.4byte	.LBB269
 3928 12d7 02000000 		.4byte	.LBE269-.LBB269
 3929 12db 01       		.byte	0x1
 3930 12dc 5F01     		.2byte	0x15f
 3931 12de F5120000 		.4byte	0x12f5
 3932 12e2 27       		.uleb128 0x27
 3933 12e3 A1090000 		.4byte	0x9a1
 3934 12e7 7C080000 		.4byte	.LLST73
 3935 12eb 27       		.uleb128 0x27
 3936 12ec 95090000 		.4byte	0x995
 3937 12f0 9C080000 		.4byte	.LLST74
 3938 12f4 00       		.byte	0
 3939 12f5 32       		.uleb128 0x32
 3940 12f6 C8080000 		.4byte	0x8c8
 3941 12fa 88000000 		.4byte	.LBB271
 3942 12fe 02000000 		.4byte	.LBE271-.LBB271
 3943 1302 01       		.byte	0x1
 3944 1303 6401     		.2byte	0x164
 3945 1305 1C130000 		.4byte	0x131c
 3946 1309 27       		.uleb128 0x27
 3947 130a E5080000 		.4byte	0x8e5
ARM GAS  /tmp/ccFRKuha.s 			page 98


 3948 130e BA080000 		.4byte	.LLST75
 3949 1312 27       		.uleb128 0x27
 3950 1313 D9080000 		.4byte	0x8d9
 3951 1317 DA080000 		.4byte	.LLST76
 3952 131b 00       		.byte	0
 3953 131c 36       		.uleb128 0x36
 3954 131d 7E080000 		.4byte	0x87e
 3955 1321 9C000000 		.4byte	.LBB273
 3956 1325 C0000000 		.4byte	.Ldebug_ranges0+0xc0
 3957 1329 01       		.byte	0x1
 3958 132a 5A01     		.2byte	0x15a
 3959 132c 43130000 		.4byte	0x1343
 3960 1330 27       		.uleb128 0x27
 3961 1331 97080000 		.4byte	0x897
 3962 1335 F8080000 		.4byte	.LLST77
 3963 1339 27       		.uleb128 0x27
 3964 133a 8B080000 		.4byte	0x88b
 3965 133e 0D090000 		.4byte	.LLST78
 3966 1342 00       		.byte	0
 3967 1343 33       		.uleb128 0x33
 3968 1344 AA080000 		.4byte	0x8aa
 3969 1348 A8000000 		.4byte	.LBB277
 3970 134c 08000000 		.4byte	.LBE277-.LBB277
 3971 1350 01       		.byte	0x1
 3972 1351 6501     		.2byte	0x165
 3973 1353 27       		.uleb128 0x27
 3974 1354 BB080000 		.4byte	0x8bb
 3975 1358 20090000 		.4byte	.LLST79
 3976 135c 00       		.byte	0
 3977 135d 00       		.byte	0
 3978 135e 00       		.byte	0
 3979 135f 3C       		.uleb128 0x3c
 3980 1360 00320000 		.4byte	.LASF1244
 3981 1364 01       		.byte	0x1
 3982 1365 7101     		.2byte	0x171
 3983 1367 00000000 		.4byte	.LFB210
 3984 136b 16000000 		.4byte	.LFE210-.LFB210
 3985 136f 01       		.uleb128 0x1
 3986 1370 9C       		.byte	0x9c
 3987 1371 04140000 		.4byte	0x1404
 3988 1375 39       		.uleb128 0x39
 3989 1376 E70F0000 		.4byte	.LASF1200
 3990 137a 01       		.byte	0x1
 3991 137b 7101     		.2byte	0x171
 3992 137d A4080000 		.4byte	0x8a4
 3993 1381 01       		.uleb128 0x1
 3994 1382 50       		.byte	0x50
 3995 1383 32       		.uleb128 0x32
 3996 1384 C8080000 		.4byte	0x8c8
 3997 1388 00000000 		.4byte	.LBB280
 3998 138c 02000000 		.4byte	.LBE280-.LBB280
 3999 1390 01       		.byte	0x1
 4000 1391 7301     		.2byte	0x173
 4001 1393 A5130000 		.4byte	0x13a5
 4002 1397 24       		.uleb128 0x24
 4003 1398 E5080000 		.4byte	0x8e5
 4004 139c 10       		.byte	0x10
ARM GAS  /tmp/ccFRKuha.s 			page 99


 4005 139d 25       		.uleb128 0x25
 4006 139e D9080000 		.4byte	0x8d9
 4007 13a2 01       		.uleb128 0x1
 4008 13a3 50       		.byte	0x50
 4009 13a4 00       		.byte	0
 4010 13a5 32       		.uleb128 0x32
 4011 13a6 C8080000 		.4byte	0x8c8
 4012 13aa 06000000 		.4byte	.LBB282
 4013 13ae 02000000 		.4byte	.LBE282-.LBB282
 4014 13b2 01       		.byte	0x1
 4015 13b3 7801     		.2byte	0x178
 4016 13b5 C7130000 		.4byte	0x13c7
 4017 13b9 24       		.uleb128 0x24
 4018 13ba E5080000 		.4byte	0x8e5
 4019 13be 04       		.byte	0x4
 4020 13bf 25       		.uleb128 0x25
 4021 13c0 D9080000 		.4byte	0x8d9
 4022 13c4 01       		.uleb128 0x1
 4023 13c5 50       		.byte	0x50
 4024 13c6 00       		.byte	0
 4025 13c7 32       		.uleb128 0x32
 4026 13c8 AA080000 		.4byte	0x8aa
 4027 13cc 0C000000 		.4byte	.LBB284
 4028 13d0 04000000 		.4byte	.LBE284-.LBB284
 4029 13d4 01       		.byte	0x1
 4030 13d5 7901     		.2byte	0x179
 4031 13d7 E5130000 		.4byte	0x13e5
 4032 13db 27       		.uleb128 0x27
 4033 13dc BB080000 		.4byte	0x8bb
 4034 13e0 33090000 		.4byte	.LLST80
 4035 13e4 00       		.byte	0
 4036 13e5 3D       		.uleb128 0x3d
 4037 13e6 40090000 		.4byte	0x940
 4038 13ea 10000000 		.4byte	.LBB286
 4039 13ee D8000000 		.4byte	.Ldebug_ranges0+0xd8
 4040 13f2 01       		.byte	0x1
 4041 13f3 7D01     		.2byte	0x17d
 4042 13f5 24       		.uleb128 0x24
 4043 13f6 59090000 		.4byte	0x959
 4044 13fa 03       		.byte	0x3
 4045 13fb 25       		.uleb128 0x25
 4046 13fc 4D090000 		.4byte	0x94d
 4047 1400 01       		.uleb128 0x1
 4048 1401 50       		.byte	0x50
 4049 1402 00       		.byte	0
 4050 1403 00       		.byte	0
 4051 1404 37       		.uleb128 0x37
 4052 1405 AD490000 		.4byte	.LASF1245
 4053 1409 01       		.byte	0x1
 4054 140a 8101     		.2byte	0x181
 4055 140c F1000000 		.4byte	0xf1
 4056 1410 00000000 		.4byte	.LFB211
 4057 1414 52000000 		.4byte	.LFE211-.LFB211
 4058 1418 01       		.uleb128 0x1
 4059 1419 9C       		.byte	0x9c
 4060 141a 36150000 		.4byte	0x1536
 4061 141e 38       		.uleb128 0x38
ARM GAS  /tmp/ccFRKuha.s 			page 100


 4062 141f E70F0000 		.4byte	.LASF1200
 4063 1423 01       		.byte	0x1
 4064 1424 8101     		.2byte	0x181
 4065 1426 A4080000 		.4byte	0x8a4
 4066 142a 46090000 		.4byte	.LLST81
 4067 142e 38       		.uleb128 0x38
 4068 142f 9E210000 		.4byte	.LASF1225
 4069 1433 01       		.byte	0x1
 4070 1434 8101     		.2byte	0x181
 4071 1436 ED0A0000 		.4byte	0xaed
 4072 143a 8B090000 		.4byte	.LLST82
 4073 143e 32       		.uleb128 0x32
 4074 143f 84090000 		.4byte	0x984
 4075 1443 02000000 		.4byte	.LBB302
 4076 1447 02000000 		.4byte	.LBE302-.LBB302
 4077 144b 01       		.byte	0x1
 4078 144c 8401     		.2byte	0x184
 4079 144e 62140000 		.4byte	0x1462
 4080 1452 24       		.uleb128 0x24
 4081 1453 A1090000 		.4byte	0x9a1
 4082 1457 01       		.byte	0x1
 4083 1458 27       		.uleb128 0x27
 4084 1459 95090000 		.4byte	0x995
 4085 145d 46090000 		.4byte	.LLST81
 4086 1461 00       		.byte	0
 4087 1462 32       		.uleb128 0x32
 4088 1463 C8080000 		.4byte	0x8c8
 4089 1467 26000000 		.4byte	.LBB304
 4090 146b 02000000 		.4byte	.LBE304-.LBB304
 4091 146f 01       		.byte	0x1
 4092 1470 8C01     		.2byte	0x18c
 4093 1472 89140000 		.4byte	0x1489
 4094 1476 27       		.uleb128 0x27
 4095 1477 E5080000 		.4byte	0x8e5
 4096 147b D0090000 		.4byte	.LLST84
 4097 147f 27       		.uleb128 0x27
 4098 1480 D9080000 		.4byte	0x8d9
 4099 1484 E4090000 		.4byte	.LLST85
 4100 1488 00       		.byte	0
 4101 1489 32       		.uleb128 0x32
 4102 148a D90B0000 		.4byte	0xbd9
 4103 148e 34000000 		.4byte	.LBB306
 4104 1492 12000000 		.4byte	.LBE306-.LBB306
 4105 1496 01       		.byte	0x1
 4106 1497 8E01     		.2byte	0x18e
 4107 1499 F8140000 		.4byte	0x14f8
 4108 149d 27       		.uleb128 0x27
 4109 149e F00B0000 		.4byte	0xbf0
 4110 14a2 F7090000 		.4byte	.LLST86
 4111 14a6 27       		.uleb128 0x27
 4112 14a7 E50B0000 		.4byte	0xbe5
 4113 14ab 0A0A0000 		.4byte	.LLST87
 4114 14af 23       		.uleb128 0x23
 4115 14b0 7E080000 		.4byte	0x87e
 4116 14b4 3A000000 		.4byte	.LBB308
 4117 14b8 04000000 		.4byte	.LBE308-.LBB308
 4118 14bc 01       		.byte	0x1
ARM GAS  /tmp/ccFRKuha.s 			page 101


 4119 14bd 3F       		.byte	0x3f
 4120 14be D5140000 		.4byte	0x14d5
 4121 14c2 27       		.uleb128 0x27
 4122 14c3 97080000 		.4byte	0x897
 4123 14c7 1D0A0000 		.4byte	.LLST88
 4124 14cb 27       		.uleb128 0x27
 4125 14cc 8B080000 		.4byte	0x88b
 4126 14d0 500A0000 		.4byte	.LLST89
 4127 14d4 00       		.byte	0
 4128 14d5 28       		.uleb128 0x28
 4129 14d6 7E080000 		.4byte	0x87e
 4130 14da 3E000000 		.4byte	.LBB310
 4131 14de 04000000 		.4byte	.LBE310-.LBB310
 4132 14e2 01       		.byte	0x1
 4133 14e3 42       		.byte	0x42
 4134 14e4 27       		.uleb128 0x27
 4135 14e5 97080000 		.4byte	0x897
 4136 14e9 630A0000 		.4byte	.LLST90
 4137 14ed 27       		.uleb128 0x27
 4138 14ee 8B080000 		.4byte	0x88b
 4139 14f2 780A0000 		.4byte	.LLST91
 4140 14f6 00       		.byte	0
 4141 14f7 00       		.byte	0
 4142 14f8 32       		.uleb128 0x32
 4143 14f9 84090000 		.4byte	0x984
 4144 14fd 46000000 		.4byte	.LBB312
 4145 1501 02000000 		.4byte	.LBE312-.LBB312
 4146 1505 01       		.byte	0x1
 4147 1506 9101     		.2byte	0x191
 4148 1508 1F150000 		.4byte	0x151f
 4149 150c 27       		.uleb128 0x27
 4150 150d A1090000 		.4byte	0x9a1
 4151 1511 8B0A0000 		.4byte	.LLST92
 4152 1515 27       		.uleb128 0x27
 4153 1516 95090000 		.4byte	0x995
 4154 151a 9F0A0000 		.4byte	.LLST93
 4155 151e 00       		.byte	0
 4156 151f 2F       		.uleb128 0x2f
 4157 1520 26000000 		.4byte	.LVL114
 4158 1524 F30A0000 		.4byte	0xaf3
 4159 1528 2E       		.uleb128 0x2e
 4160 1529 01       		.uleb128 0x1
 4161 152a 51       		.byte	0x51
 4162 152b 02       		.uleb128 0x2
 4163 152c 74       		.byte	0x74
 4164 152d 00       		.sleb128 0
 4165 152e 2E       		.uleb128 0x2e
 4166 152f 01       		.uleb128 0x1
 4167 1530 50       		.byte	0x50
 4168 1531 02       		.uleb128 0x2
 4169 1532 75       		.byte	0x75
 4170 1533 00       		.sleb128 0
 4171 1534 00       		.byte	0
 4172 1535 00       		.byte	0
 4173 1536 37       		.uleb128 0x37
 4174 1537 27350000 		.4byte	.LASF1246
 4175 153b 01       		.byte	0x1
ARM GAS  /tmp/ccFRKuha.s 			page 102


 4176 153c A001     		.2byte	0x1a0
 4177 153e F1000000 		.4byte	0xf1
 4178 1542 00000000 		.4byte	.LFB212
 4179 1546 58000000 		.4byte	.LFE212-.LFB212
 4180 154a 01       		.uleb128 0x1
 4181 154b 9C       		.byte	0x9c
 4182 154c 68160000 		.4byte	0x1668
 4183 1550 38       		.uleb128 0x38
 4184 1551 E70F0000 		.4byte	.LASF1200
 4185 1555 01       		.byte	0x1
 4186 1556 A001     		.2byte	0x1a0
 4187 1558 A4080000 		.4byte	0x8a4
 4188 155c B20A0000 		.4byte	.LLST94
 4189 1560 38       		.uleb128 0x38
 4190 1561 9E210000 		.4byte	.LASF1225
 4191 1565 01       		.byte	0x1
 4192 1566 A001     		.2byte	0x1a0
 4193 1568 ED0A0000 		.4byte	0xaed
 4194 156c F70A0000 		.4byte	.LLST95
 4195 1570 32       		.uleb128 0x32
 4196 1571 84090000 		.4byte	0x984
 4197 1575 02000000 		.4byte	.LBB326
 4198 1579 02000000 		.4byte	.LBE326-.LBB326
 4199 157d 01       		.byte	0x1
 4200 157e A301     		.2byte	0x1a3
 4201 1580 94150000 		.4byte	0x1594
 4202 1584 24       		.uleb128 0x24
 4203 1585 A1090000 		.4byte	0x9a1
 4204 1589 01       		.byte	0x1
 4205 158a 27       		.uleb128 0x27
 4206 158b 95090000 		.4byte	0x995
 4207 158f B20A0000 		.4byte	.LLST94
 4208 1593 00       		.byte	0
 4209 1594 32       		.uleb128 0x32
 4210 1595 C8080000 		.4byte	0x8c8
 4211 1599 26000000 		.4byte	.LBB328
 4212 159d 02000000 		.4byte	.LBE328-.LBB328
 4213 15a1 01       		.byte	0x1
 4214 15a2 AB01     		.2byte	0x1ab
 4215 15a4 BB150000 		.4byte	0x15bb
 4216 15a8 27       		.uleb128 0x27
 4217 15a9 E5080000 		.4byte	0x8e5
 4218 15ad 3C0B0000 		.4byte	.LLST97
 4219 15b1 27       		.uleb128 0x27
 4220 15b2 D9080000 		.4byte	0x8d9
 4221 15b6 500B0000 		.4byte	.LLST98
 4222 15ba 00       		.byte	0
 4223 15bb 32       		.uleb128 0x32
 4224 15bc B60B0000 		.4byte	0xbb6
 4225 15c0 34000000 		.4byte	.LBB330
 4226 15c4 12000000 		.4byte	.LBE330-.LBB330
 4227 15c8 01       		.byte	0x1
 4228 15c9 AD01     		.2byte	0x1ad
 4229 15cb 2A160000 		.4byte	0x162a
 4230 15cf 27       		.uleb128 0x27
 4231 15d0 CD0B0000 		.4byte	0xbcd
 4232 15d4 630B0000 		.4byte	.LLST99
ARM GAS  /tmp/ccFRKuha.s 			page 103


 4233 15d8 27       		.uleb128 0x27
 4234 15d9 C20B0000 		.4byte	0xbc2
 4235 15dd 760B0000 		.4byte	.LLST100
 4236 15e1 23       		.uleb128 0x23
 4237 15e2 7E080000 		.4byte	0x87e
 4238 15e6 3A000000 		.4byte	.LBB332
 4239 15ea 04000000 		.4byte	.LBE332-.LBB332
 4240 15ee 01       		.byte	0x1
 4241 15ef 31       		.byte	0x31
 4242 15f0 07160000 		.4byte	0x1607
 4243 15f4 27       		.uleb128 0x27
 4244 15f5 97080000 		.4byte	0x897
 4245 15f9 890B0000 		.4byte	.LLST101
 4246 15fd 27       		.uleb128 0x27
 4247 15fe 8B080000 		.4byte	0x88b
 4248 1602 B00B0000 		.4byte	.LLST102
 4249 1606 00       		.byte	0
 4250 1607 28       		.uleb128 0x28
 4251 1608 7E080000 		.4byte	0x87e
 4252 160c 3E000000 		.4byte	.LBB334
 4253 1610 04000000 		.4byte	.LBE334-.LBB334
 4254 1614 01       		.byte	0x1
 4255 1615 35       		.byte	0x35
 4256 1616 27       		.uleb128 0x27
 4257 1617 97080000 		.4byte	0x897
 4258 161b C30B0000 		.4byte	.LLST103
 4259 161f 27       		.uleb128 0x27
 4260 1620 8B080000 		.4byte	0x88b
 4261 1624 D80B0000 		.4byte	.LLST104
 4262 1628 00       		.byte	0
 4263 1629 00       		.byte	0
 4264 162a 32       		.uleb128 0x32
 4265 162b 84090000 		.4byte	0x984
 4266 162f 46000000 		.4byte	.LBB336
 4267 1633 02000000 		.4byte	.LBE336-.LBB336
 4268 1637 01       		.byte	0x1
 4269 1638 B001     		.2byte	0x1b0
 4270 163a 51160000 		.4byte	0x1651
 4271 163e 27       		.uleb128 0x27
 4272 163f A1090000 		.4byte	0x9a1
 4273 1643 EB0B0000 		.4byte	.LLST105
 4274 1647 27       		.uleb128 0x27
 4275 1648 95090000 		.4byte	0x995
 4276 164c FF0B0000 		.4byte	.LLST106
 4277 1650 00       		.byte	0
 4278 1651 2F       		.uleb128 0x2f
 4279 1652 26000000 		.4byte	.LVL127
 4280 1656 780A0000 		.4byte	0xa78
 4281 165a 2E       		.uleb128 0x2e
 4282 165b 01       		.uleb128 0x1
 4283 165c 51       		.byte	0x51
 4284 165d 02       		.uleb128 0x2
 4285 165e 74       		.byte	0x74
 4286 165f 00       		.sleb128 0
 4287 1660 2E       		.uleb128 0x2e
 4288 1661 01       		.uleb128 0x1
 4289 1662 50       		.byte	0x50
ARM GAS  /tmp/ccFRKuha.s 			page 104


 4290 1663 02       		.uleb128 0x2
 4291 1664 75       		.byte	0x75
 4292 1665 00       		.sleb128 0
 4293 1666 00       		.byte	0
 4294 1667 00       		.byte	0
 4295 1668 3C       		.uleb128 0x3c
 4296 1669 045D0000 		.4byte	.LASF1247
 4297 166d 01       		.byte	0x1
 4298 166e BF01     		.2byte	0x1bf
 4299 1670 00000000 		.4byte	.LFB213
 4300 1674 10000000 		.4byte	.LFE213-.LFB213
 4301 1678 01       		.uleb128 0x1
 4302 1679 9C       		.byte	0x9c
 4303 167a DD160000 		.4byte	0x16dd
 4304 167e 39       		.uleb128 0x39
 4305 167f E70F0000 		.4byte	.LASF1200
 4306 1683 01       		.byte	0x1
 4307 1684 BF01     		.2byte	0x1bf
 4308 1686 A4080000 		.4byte	0x8a4
 4309 168a 01       		.uleb128 0x1
 4310 168b 50       		.byte	0x50
 4311 168c 39       		.uleb128 0x39
 4312 168d D24D0000 		.4byte	.LASF1248
 4313 1691 01       		.byte	0x1
 4314 1692 BF01     		.2byte	0x1bf
 4315 1694 03010000 		.4byte	0x103
 4316 1698 01       		.uleb128 0x1
 4317 1699 51       		.byte	0x51
 4318 169a 32       		.uleb128 0x32
 4319 169b AE090000 		.4byte	0x9ae
 4320 169f 02000000 		.4byte	.LBB338
 4321 16a3 04000000 		.4byte	.LBE338-.LBB338
 4322 16a7 01       		.byte	0x1
 4323 16a8 C201     		.2byte	0x1c2
 4324 16aa B9160000 		.4byte	0x16b9
 4325 16ae 3E       		.uleb128 0x3e
 4326 16af C7090000 		.4byte	0x9c7
 4327 16b3 3E       		.uleb128 0x3e
 4328 16b4 BB090000 		.4byte	0x9bb
 4329 16b8 00       		.byte	0
 4330 16b9 33       		.uleb128 0x33
 4331 16ba AE090000 		.4byte	0x9ae
 4332 16be 0A000000 		.4byte	.LBB340
 4333 16c2 04000000 		.4byte	.LBE340-.LBB340
 4334 16c6 01       		.byte	0x1
 4335 16c7 C501     		.2byte	0x1c5
 4336 16c9 27       		.uleb128 0x27
 4337 16ca C7090000 		.4byte	0x9c7
 4338 16ce 120C0000 		.4byte	.LLST107
 4339 16d2 27       		.uleb128 0x27
 4340 16d3 BB090000 		.4byte	0x9bb
 4341 16d7 260C0000 		.4byte	.LLST108
 4342 16db 00       		.byte	0
 4343 16dc 00       		.byte	0
 4344 16dd 1D       		.uleb128 0x1d
 4345 16de 7B250000 		.4byte	.LASF1249
 4346 16e2 01       		.byte	0x1
ARM GAS  /tmp/ccFRKuha.s 			page 105


 4347 16e3 96       		.byte	0x96
 4348 16e4 A6000000 		.4byte	0xa6
 4349 16e8 01       		.byte	0x1
 4350 16e9 04170000 		.4byte	0x1704
 4351 16ed 1E       		.uleb128 0x1e
 4352 16ee E70F0000 		.4byte	.LASF1200
 4353 16f2 01       		.byte	0x1
 4354 16f3 96       		.byte	0x96
 4355 16f4 A4080000 		.4byte	0x8a4
 4356 16f8 1F       		.uleb128 0x1f
 4357 16f9 F7740000 		.4byte	.LASF1250
 4358 16fd 01       		.byte	0x1
 4359 16fe 98       		.byte	0x98
 4360 16ff A6000000 		.4byte	0xa6
 4361 1703 00       		.byte	0
 4362 1704 3F       		.uleb128 0x3f
 4363 1705 30100000 		.4byte	.LASF1251
 4364 1709 01       		.byte	0x1
 4365 170a CA01     		.2byte	0x1ca
 4366 170c 00000000 		.4byte	.LFB214
 4367 1710 64000000 		.4byte	.LFE214-.LFB214
 4368 1714 01       		.uleb128 0x1
 4369 1715 9C       		.byte	0x9c
 4370 1716 ED170000 		.4byte	0x17ed
 4371 171a 38       		.uleb128 0x38
 4372 171b E70F0000 		.4byte	.LASF1200
 4373 171f 01       		.byte	0x1
 4374 1720 CA01     		.2byte	0x1ca
 4375 1722 A4080000 		.4byte	0x8a4
 4376 1726 390C0000 		.4byte	.LLST109
 4377 172a 38       		.uleb128 0x38
 4378 172b 28640000 		.4byte	.LASF1252
 4379 172f 01       		.byte	0x1
 4380 1730 CA01     		.2byte	0x1ca
 4381 1732 A6000000 		.4byte	0xa6
 4382 1736 650C0000 		.4byte	.LLST110
 4383 173a 40       		.uleb128 0x40
 4384 173b CF360000 		.4byte	.LASF1253
 4385 173f 01       		.byte	0x1
 4386 1740 CC01     		.2byte	0x1cc
 4387 1742 A6000000 		.4byte	0xa6
 4388 1746 01       		.uleb128 0x1
 4389 1747 57       		.byte	0x57
 4390 1748 35       		.uleb128 0x35
 4391 1749 C55A0000 		.4byte	.LASF1254
 4392 174d 01       		.byte	0x1
 4393 174e CC01     		.2byte	0x1cc
 4394 1750 A6000000 		.4byte	0xa6
 4395 1754 840C0000 		.4byte	.LLST111
 4396 1758 35       		.uleb128 0x35
 4397 1759 66780000 		.4byte	.LASF1255
 4398 175d 01       		.byte	0x1
 4399 175e CC01     		.2byte	0x1cc
 4400 1760 A6000000 		.4byte	0xa6
 4401 1764 C60C0000 		.4byte	.LLST112
 4402 1768 35       		.uleb128 0x35
 4403 1769 89790000 		.4byte	.LASF1230
ARM GAS  /tmp/ccFRKuha.s 			page 106


 4404 176d 01       		.byte	0x1
 4405 176e CC01     		.2byte	0x1cc
 4406 1770 A6000000 		.4byte	0xa6
 4407 1774 F10C0000 		.4byte	.LLST113
 4408 1778 32       		.uleb128 0x32
 4409 1779 DD160000 		.4byte	0x16dd
 4410 177d 06000000 		.4byte	.LBB348
 4411 1781 18000000 		.4byte	.LBE348-.LBB348
 4412 1785 01       		.byte	0x1
 4413 1786 CE01     		.2byte	0x1ce
 4414 1788 D0170000 		.4byte	0x17d0
 4415 178c 27       		.uleb128 0x27
 4416 178d ED160000 		.4byte	0x16ed
 4417 1791 280D0000 		.4byte	.LLST114
 4418 1795 34       		.uleb128 0x34
 4419 1796 06000000 		.4byte	.LBB349
 4420 179a 18000000 		.4byte	.LBE349-.LBB349
 4421 179e 41       		.uleb128 0x41
 4422 179f F8160000 		.4byte	0x16f8
 4423 17a3 540D0000 		.4byte	.LLST115
 4424 17a7 42       		.uleb128 0x42
 4425 17a8 26090000 		.4byte	0x926
 4426 17ac 10000000 		.4byte	.LBB350
 4427 17b0 04000000 		.4byte	.LBE350-.LBB350
 4428 17b4 01       		.byte	0x1
 4429 17b5 9B       		.byte	0x9b
 4430 17b6 42       		.uleb128 0x42
 4431 17b7 33090000 		.4byte	0x933
 4432 17bb 14000000 		.4byte	.LBB352
 4433 17bf 04000000 		.4byte	.LBE352-.LBB352
 4434 17c3 01       		.byte	0x1
 4435 17c4 9F       		.byte	0x9f
 4436 17c5 43       		.uleb128 0x43
 4437 17c6 0A000000 		.4byte	.LVL141
 4438 17ca 161B0000 		.4byte	0x1b16
 4439 17ce 00       		.byte	0
 4440 17cf 00       		.byte	0
 4441 17d0 2F       		.uleb128 0x2f
 4442 17d1 54000000 		.4byte	.LVL154
 4443 17d5 680B0000 		.4byte	0xb68
 4444 17d9 2E       		.uleb128 0x2e
 4445 17da 01       		.uleb128 0x1
 4446 17db 52       		.byte	0x52
 4447 17dc 02       		.uleb128 0x2
 4448 17dd 75       		.byte	0x75
 4449 17de 00       		.sleb128 0
 4450 17df 2E       		.uleb128 0x2e
 4451 17e0 01       		.uleb128 0x1
 4452 17e1 51       		.byte	0x51
 4453 17e2 02       		.uleb128 0x2
 4454 17e3 74       		.byte	0x74
 4455 17e4 00       		.sleb128 0
 4456 17e5 2E       		.uleb128 0x2e
 4457 17e6 01       		.uleb128 0x1
 4458 17e7 50       		.byte	0x50
 4459 17e8 02       		.uleb128 0x2
 4460 17e9 76       		.byte	0x76
ARM GAS  /tmp/ccFRKuha.s 			page 107


 4461 17ea 00       		.sleb128 0
 4462 17eb 00       		.byte	0
 4463 17ec 00       		.byte	0
 4464 17ed 18       		.uleb128 0x18
 4465 17ee DB5A0000 		.4byte	.LASF1256
 4466 17f2 03       		.byte	0x3
 4467 17f3 2701     		.2byte	0x127
 4468 17f5 03       		.byte	0x3
 4469 17f6 07180000 		.4byte	0x1807
 4470 17fa 1B       		.uleb128 0x1b
 4471 17fb 636C6B00 		.ascii	"clk\000"
 4472 17ff 03       		.byte	0x3
 4473 1800 2701     		.2byte	0x127
 4474 1802 23060000 		.4byte	0x623
 4475 1806 00       		.byte	0
 4476 1807 20       		.uleb128 0x20
 4477 1808 9F660000 		.4byte	.LASF1257
 4478 180c 01       		.byte	0x1
 4479 180d 89       		.byte	0x89
 4480 180e 01       		.byte	0x1
 4481 180f 2A180000 		.4byte	0x182a
 4482 1813 1E       		.uleb128 0x1e
 4483 1814 E70F0000 		.4byte	.LASF1200
 4484 1818 01       		.byte	0x1
 4485 1819 89       		.byte	0x89
 4486 181a A4080000 		.4byte	0x8a4
 4487 181e 44       		.uleb128 0x44
 4488 181f 64697600 		.ascii	"div\000"
 4489 1823 01       		.byte	0x1
 4490 1824 89       		.byte	0x89
 4491 1825 A6000000 		.4byte	0xa6
 4492 1829 00       		.byte	0
 4493 182a 20       		.uleb128 0x20
 4494 182b B4160000 		.4byte	.LASF1258
 4495 182f 04       		.byte	0x4
 4496 1830 B3       		.byte	0xb3
 4497 1831 03       		.byte	0x3
 4498 1832 42180000 		.4byte	0x1842
 4499 1836 1E       		.uleb128 0x1e
 4500 1837 30640000 		.4byte	.LASF1259
 4501 183b 04       		.byte	0x4
 4502 183c B3       		.byte	0xb3
 4503 183d 99050000 		.4byte	0x599
 4504 1841 00       		.byte	0
 4505 1842 20       		.uleb128 0x20
 4506 1843 4E1B0000 		.4byte	.LASF1260
 4507 1847 04       		.byte	0x4
 4508 1848 9F       		.byte	0x9f
 4509 1849 03       		.byte	0x3
 4510 184a 5A180000 		.4byte	0x185a
 4511 184e 1E       		.uleb128 0x1e
 4512 184f 30640000 		.4byte	.LASF1259
 4513 1853 04       		.byte	0x4
 4514 1854 9F       		.byte	0x9f
 4515 1855 99050000 		.4byte	0x599
 4516 1859 00       		.byte	0
 4517 185a 20       		.uleb128 0x20
ARM GAS  /tmp/ccFRKuha.s 			page 108


 4518 185b CB4C0000 		.4byte	.LASF1261
 4519 185f 04       		.byte	0x4
 4520 1860 A9       		.byte	0xa9
 4521 1861 03       		.byte	0x3
 4522 1862 72180000 		.4byte	0x1872
 4523 1866 1E       		.uleb128 0x1e
 4524 1867 30640000 		.4byte	.LASF1259
 4525 186b 04       		.byte	0x4
 4526 186c A9       		.byte	0xa9
 4527 186d 99050000 		.4byte	0x599
 4528 1871 00       		.byte	0
 4529 1872 3C       		.uleb128 0x3c
 4530 1873 5A330000 		.4byte	.LASF1262
 4531 1877 01       		.byte	0x1
 4532 1878 E301     		.2byte	0x1e3
 4533 187a 00000000 		.4byte	.LFB215
 4534 187e 74000000 		.4byte	.LFE215-.LFB215
 4535 1882 01       		.uleb128 0x1
 4536 1883 9C       		.byte	0x9c
 4537 1884 191A0000 		.4byte	0x1a19
 4538 1888 38       		.uleb128 0x38
 4539 1889 E70F0000 		.4byte	.LASF1200
 4540 188d 01       		.byte	0x1
 4541 188e E301     		.2byte	0x1e3
 4542 1890 A4080000 		.4byte	0x8a4
 4543 1894 7D0D0000 		.4byte	.LLST116
 4544 1898 32       		.uleb128 0x32
 4545 1899 D4090000 		.4byte	0x9d4
 4546 189d 02000000 		.4byte	.LBB376
 4547 18a1 0A000000 		.4byte	.LBE376-.LBB376
 4548 18a5 01       		.byte	0x1
 4549 18a6 E501     		.2byte	0x1e5
 4550 18a8 C5180000 		.4byte	0x18c5
 4551 18ac 27       		.uleb128 0x27
 4552 18ad E4090000 		.4byte	0x9e4
 4553 18b1 7D0D0000 		.4byte	.LLST116
 4554 18b5 34       		.uleb128 0x34
 4555 18b6 02000000 		.4byte	.LBB377
 4556 18ba 0A000000 		.4byte	.LBE377-.LBB377
 4557 18be 45       		.uleb128 0x45
 4558 18bf EF090000 		.4byte	0x9ef
 4559 18c3 00       		.byte	0
 4560 18c4 00       		.byte	0
 4561 18c5 32       		.uleb128 0x32
 4562 18c6 ED170000 		.4byte	0x17ed
 4563 18ca 0C000000 		.4byte	.LBB378
 4564 18ce 12000000 		.4byte	.LBE378-.LBB378
 4565 18d2 01       		.byte	0x1
 4566 18d3 E501     		.2byte	0x1e5
 4567 18d5 DF180000 		.4byte	0x18df
 4568 18d9 3E       		.uleb128 0x3e
 4569 18da FA170000 		.4byte	0x17fa
 4570 18de 00       		.byte	0
 4571 18df 36       		.uleb128 0x36
 4572 18e0 07180000 		.4byte	0x1807
 4573 18e4 1E000000 		.4byte	.LBB380
 4574 18e8 F0000000 		.4byte	.Ldebug_ranges0+0xf0
ARM GAS  /tmp/ccFRKuha.s 			page 109


 4575 18ec 01       		.byte	0x1
 4576 18ed E601     		.2byte	0x1e6
 4577 18ef 39190000 		.4byte	0x1939
 4578 18f3 24       		.uleb128 0x24
 4579 18f4 1E180000 		.4byte	0x181e
 4580 18f8 01       		.byte	0x1
 4581 18f9 27       		.uleb128 0x27
 4582 18fa 13180000 		.4byte	0x1813
 4583 18fe 9E0D0000 		.4byte	.LLST118
 4584 1902 31       		.uleb128 0x31
 4585 1903 F2080000 		.4byte	0x8f2
 4586 1907 22000000 		.4byte	.LBB382
 4587 190b 10010000 		.4byte	.Ldebug_ranges0+0x110
 4588 190f 01       		.byte	0x1
 4589 1910 8C       		.byte	0x8c
 4590 1911 1F190000 		.4byte	0x191f
 4591 1915 27       		.uleb128 0x27
 4592 1916 FF080000 		.4byte	0x8ff
 4593 191a CC0D0000 		.4byte	.LLST119
 4594 191e 00       		.byte	0
 4595 191f 28       		.uleb128 0x28
 4596 1920 0C090000 		.4byte	0x90c
 4597 1924 2C000000 		.4byte	.LBB386
 4598 1928 04000000 		.4byte	.LBE386-.LBB386
 4599 192c 01       		.byte	0x1
 4600 192d 90       		.byte	0x90
 4601 192e 27       		.uleb128 0x27
 4602 192f 19090000 		.4byte	0x919
 4603 1933 E00D0000 		.4byte	.LLST120
 4604 1937 00       		.byte	0
 4605 1938 00       		.byte	0
 4606 1939 36       		.uleb128 0x36
 4607 193a FB090000 		.4byte	0x9fb
 4608 193e 24000000 		.4byte	.LBB390
 4609 1942 28010000 		.4byte	.Ldebug_ranges0+0x128
 4610 1946 01       		.byte	0x1
 4611 1947 E701     		.2byte	0x1e7
 4612 1949 62190000 		.4byte	0x1962
 4613 194d 27       		.uleb128 0x27
 4614 194e 0B0A0000 		.4byte	0xa0b
 4615 1952 F40D0000 		.4byte	.LLST121
 4616 1956 3B       		.uleb128 0x3b
 4617 1957 28010000 		.4byte	.Ldebug_ranges0+0x128
 4618 195b 45       		.uleb128 0x45
 4619 195c 160A0000 		.4byte	0xa16
 4620 1960 00       		.byte	0
 4621 1961 00       		.byte	0
 4622 1962 36       		.uleb128 0x36
 4623 1963 2A180000 		.4byte	0x182a
 4624 1967 30000000 		.4byte	.LBB396
 4625 196b 40010000 		.4byte	.Ldebug_ranges0+0x140
 4626 196f 01       		.byte	0x1
 4627 1970 E701     		.2byte	0x1e7
 4628 1972 AA190000 		.4byte	0x19aa
 4629 1976 3E       		.uleb128 0x3e
 4630 1977 36180000 		.4byte	0x1836
 4631 197b 31       		.uleb128 0x31
ARM GAS  /tmp/ccFRKuha.s 			page 110


 4632 197c 42180000 		.4byte	0x1842
 4633 1980 30000000 		.4byte	.LBB397
 4634 1984 58010000 		.4byte	.Ldebug_ranges0+0x158
 4635 1988 04       		.byte	0x4
 4636 1989 B5       		.byte	0xb5
 4637 198a 94190000 		.4byte	0x1994
 4638 198e 3E       		.uleb128 0x3e
 4639 198f 4E180000 		.4byte	0x184e
 4640 1993 00       		.byte	0
 4641 1994 28       		.uleb128 0x28
 4642 1995 5A180000 		.4byte	0x185a
 4643 1999 3A000000 		.4byte	.LBB401
 4644 199d 06000000 		.4byte	.LBE401-.LBB401
 4645 19a1 04       		.byte	0x4
 4646 19a2 B6       		.byte	0xb6
 4647 19a3 3E       		.uleb128 0x3e
 4648 19a4 66180000 		.4byte	0x1866
 4649 19a8 00       		.byte	0
 4650 19a9 00       		.byte	0
 4651 19aa 36       		.uleb128 0x36
 4652 19ab AE090000 		.4byte	0x9ae
 4653 19af 40000000 		.4byte	.LBB404
 4654 19b3 70010000 		.4byte	.Ldebug_ranges0+0x170
 4655 19b7 01       		.byte	0x1
 4656 19b8 E901     		.2byte	0x1e9
 4657 19ba CE190000 		.4byte	0x19ce
 4658 19be 24       		.uleb128 0x24
 4659 19bf C7090000 		.4byte	0x9c7
 4660 19c3 00       		.byte	0
 4661 19c4 27       		.uleb128 0x27
 4662 19c5 BB090000 		.4byte	0x9bb
 4663 19c9 0C0E0000 		.4byte	.LLST122
 4664 19cd 00       		.byte	0
 4665 19ce 32       		.uleb128 0x32
 4666 19cf 220A0000 		.4byte	0xa22
 4667 19d3 4A000000 		.4byte	.LBB408
 4668 19d7 0C000000 		.4byte	.LBE408-.LBB408
 4669 19db 01       		.byte	0x1
 4670 19dc EA01     		.2byte	0x1ea
 4671 19de FE190000 		.4byte	0x19fe
 4672 19e2 24       		.uleb128 0x24
 4673 19e3 530A0000 		.4byte	0xa53
 4674 19e7 00       		.byte	0
 4675 19e8 24       		.uleb128 0x24
 4676 19e9 470A0000 		.4byte	0xa47
 4677 19ed 00       		.byte	0
 4678 19ee 24       		.uleb128 0x24
 4679 19ef 3B0A0000 		.4byte	0xa3b
 4680 19f3 07       		.byte	0x7
 4681 19f4 27       		.uleb128 0x27
 4682 19f5 2F0A0000 		.4byte	0xa2f
 4683 19f9 2D0E0000 		.4byte	.LLST123
 4684 19fd 00       		.byte	0
 4685 19fe 2F       		.uleb128 0x2f
 4686 19ff 5A000000 		.4byte	.LVL169
 4687 1a03 04170000 		.4byte	0x1704
 4688 1a07 2E       		.uleb128 0x2e
ARM GAS  /tmp/ccFRKuha.s 			page 111


 4689 1a08 01       		.uleb128 0x1
 4690 1a09 51       		.byte	0x51
 4691 1a0a 05       		.uleb128 0x5
 4692 1a0b 0C       		.byte	0xc
 4693 1a0c A0860100 		.4byte	0x186a0
 4694 1a10 2E       		.uleb128 0x2e
 4695 1a11 01       		.uleb128 0x1
 4696 1a12 50       		.byte	0x50
 4697 1a13 03       		.uleb128 0x3
 4698 1a14 F3       		.byte	0xf3
 4699 1a15 01       		.uleb128 0x1
 4700 1a16 50       		.byte	0x50
 4701 1a17 00       		.byte	0
 4702 1a18 00       		.byte	0
 4703 1a19 18       		.uleb128 0x18
 4704 1a1a 43350000 		.4byte	.LASF1263
 4705 1a1e 03       		.byte	0x3
 4706 1a1f 3101     		.2byte	0x131
 4707 1a21 03       		.byte	0x3
 4708 1a22 331A0000 		.4byte	0x1a33
 4709 1a26 1B       		.uleb128 0x1b
 4710 1a27 636C6B00 		.ascii	"clk\000"
 4711 1a2b 03       		.byte	0x3
 4712 1a2c 3101     		.2byte	0x131
 4713 1a2e 23060000 		.4byte	0x623
 4714 1a32 00       		.byte	0
 4715 1a33 3C       		.uleb128 0x3c
 4716 1a34 D6280000 		.4byte	.LASF1264
 4717 1a38 01       		.byte	0x1
 4718 1a39 EF01     		.2byte	0x1ef
 4719 1a3b 00000000 		.4byte	.LFB216
 4720 1a3f 40000000 		.4byte	.LFE216-.LFB216
 4721 1a43 01       		.uleb128 0x1
 4722 1a44 9C       		.byte	0x9c
 4723 1a45 0B1B0000 		.4byte	0x1b0b
 4724 1a49 39       		.uleb128 0x39
 4725 1a4a E70F0000 		.4byte	.LASF1200
 4726 1a4e 01       		.byte	0x1
 4727 1a4f EF01     		.2byte	0x1ef
 4728 1a51 A4080000 		.4byte	0x8a4
 4729 1a55 01       		.uleb128 0x1
 4730 1a56 50       		.byte	0x50
 4731 1a57 36       		.uleb128 0x36
 4732 1a58 600A0000 		.4byte	0xa60
 4733 1a5c 00000000 		.4byte	.LBB422
 4734 1a60 88010000 		.4byte	.Ldebug_ranges0+0x188
 4735 1a64 01       		.byte	0x1
 4736 1a65 F101     		.2byte	0x1f1
 4737 1a67 731A0000 		.4byte	0x1a73
 4738 1a6b 25       		.uleb128 0x25
 4739 1a6c 6C0A0000 		.4byte	0xa6c
 4740 1a70 01       		.uleb128 0x1
 4741 1a71 50       		.byte	0x50
 4742 1a72 00       		.byte	0
 4743 1a73 36       		.uleb128 0x36
 4744 1a74 D4090000 		.4byte	0x9d4
 4745 1a78 04000000 		.4byte	.LBB426
ARM GAS  /tmp/ccFRKuha.s 			page 112


 4746 1a7c A8010000 		.4byte	.Ldebug_ranges0+0x1a8
 4747 1a80 01       		.byte	0x1
 4748 1a81 F301     		.2byte	0x1f3
 4749 1a83 9A1A0000 		.4byte	0x1a9a
 4750 1a87 25       		.uleb128 0x25
 4751 1a88 E4090000 		.4byte	0x9e4
 4752 1a8c 01       		.uleb128 0x1
 4753 1a8d 50       		.byte	0x50
 4754 1a8e 3B       		.uleb128 0x3b
 4755 1a8f A8010000 		.4byte	.Ldebug_ranges0+0x1a8
 4756 1a93 45       		.uleb128 0x45
 4757 1a94 EF090000 		.4byte	0x9ef
 4758 1a98 00       		.byte	0
 4759 1a99 00       		.byte	0
 4760 1a9a 32       		.uleb128 0x32
 4761 1a9b 191A0000 		.4byte	0x1a19
 4762 1a9f 14000000 		.4byte	.LBB432
 4763 1aa3 0E000000 		.4byte	.LBE432-.LBB432
 4764 1aa7 01       		.byte	0x1
 4765 1aa8 F301     		.2byte	0x1f3
 4766 1aaa B41A0000 		.4byte	0x1ab4
 4767 1aae 3E       		.uleb128 0x3e
 4768 1aaf 261A0000 		.4byte	0x1a26
 4769 1ab3 00       		.byte	0
 4770 1ab4 33       		.uleb128 0x33
 4771 1ab5 07180000 		.4byte	0x1807
 4772 1ab9 22000000 		.4byte	.LBB434
 4773 1abd 0C000000 		.4byte	.LBE434-.LBB434
 4774 1ac1 01       		.byte	0x1
 4775 1ac2 F401     		.2byte	0x1f4
 4776 1ac4 24       		.uleb128 0x24
 4777 1ac5 1E180000 		.4byte	0x181e
 4778 1ac9 00       		.byte	0
 4779 1aca 27       		.uleb128 0x27
 4780 1acb 13180000 		.4byte	0x1813
 4781 1acf 4E0E0000 		.4byte	.LLST124
 4782 1ad3 23       		.uleb128 0x23
 4783 1ad4 F2080000 		.4byte	0x8f2
 4784 1ad8 26000000 		.4byte	.LBB436
 4785 1adc 04000000 		.4byte	.LBE436-.LBB436
 4786 1ae0 01       		.byte	0x1
 4787 1ae1 8C       		.byte	0x8c
 4788 1ae2 F01A0000 		.4byte	0x1af0
 4789 1ae6 27       		.uleb128 0x27
 4790 1ae7 FF080000 		.4byte	0x8ff
 4791 1aeb 7C0E0000 		.4byte	.LLST125
 4792 1aef 00       		.byte	0
 4793 1af0 28       		.uleb128 0x28
 4794 1af1 0C090000 		.4byte	0x90c
 4795 1af5 2A000000 		.4byte	.LBB438
 4796 1af9 04000000 		.4byte	.LBE438-.LBB438
 4797 1afd 01       		.byte	0x1
 4798 1afe 90       		.byte	0x90
 4799 1aff 27       		.uleb128 0x27
 4800 1b00 19090000 		.4byte	0x919
 4801 1b04 900E0000 		.4byte	.LLST126
 4802 1b08 00       		.byte	0
ARM GAS  /tmp/ccFRKuha.s 			page 113


 4803 1b09 00       		.byte	0
 4804 1b0a 00       		.byte	0
 4805 1b0b 46       		.uleb128 0x46
 4806 1b0c D4570000 		.4byte	.LASF1268
 4807 1b10 08       		.byte	0x8
 4808 1b11 D4       		.byte	0xd4
 4809 1b12 73080000 		.4byte	0x873
 4810 1b16 47       		.uleb128 0x47
 4811 1b17 4E430000 		.4byte	.LASF1269
 4812 1b1b 03       		.byte	0x3
 4813 1b1c 1302     		.2byte	0x213
 4814 1b1e A6000000 		.4byte	0xa6
 4815 1b22 00       		.byte	0
 4816              		.section	.debug_abbrev,"",%progbits
 4817              	.Ldebug_abbrev0:
 4818 0000 01       		.uleb128 0x1
 4819 0001 11       		.uleb128 0x11
 4820 0002 01       		.byte	0x1
 4821 0003 25       		.uleb128 0x25
 4822 0004 0E       		.uleb128 0xe
 4823 0005 13       		.uleb128 0x13
 4824 0006 0B       		.uleb128 0xb
 4825 0007 03       		.uleb128 0x3
 4826 0008 0E       		.uleb128 0xe
 4827 0009 1B       		.uleb128 0x1b
 4828 000a 0E       		.uleb128 0xe
 4829 000b 55       		.uleb128 0x55
 4830 000c 17       		.uleb128 0x17
 4831 000d 11       		.uleb128 0x11
 4832 000e 01       		.uleb128 0x1
 4833 000f 10       		.uleb128 0x10
 4834 0010 17       		.uleb128 0x17
 4835 0011 9942     		.uleb128 0x2119
 4836 0013 17       		.uleb128 0x17
 4837 0014 00       		.byte	0
 4838 0015 00       		.byte	0
 4839 0016 02       		.uleb128 0x2
 4840 0017 24       		.uleb128 0x24
 4841 0018 00       		.byte	0
 4842 0019 0B       		.uleb128 0xb
 4843 001a 0B       		.uleb128 0xb
 4844 001b 3E       		.uleb128 0x3e
 4845 001c 0B       		.uleb128 0xb
 4846 001d 03       		.uleb128 0x3
 4847 001e 0E       		.uleb128 0xe
 4848 001f 00       		.byte	0
 4849 0020 00       		.byte	0
 4850 0021 03       		.uleb128 0x3
 4851 0022 16       		.uleb128 0x16
 4852 0023 00       		.byte	0
 4853 0024 03       		.uleb128 0x3
 4854 0025 0E       		.uleb128 0xe
 4855 0026 3A       		.uleb128 0x3a
 4856 0027 0B       		.uleb128 0xb
 4857 0028 3B       		.uleb128 0x3b
 4858 0029 0B       		.uleb128 0xb
 4859 002a 49       		.uleb128 0x49
ARM GAS  /tmp/ccFRKuha.s 			page 114


 4860 002b 13       		.uleb128 0x13
 4861 002c 00       		.byte	0
 4862 002d 00       		.byte	0
 4863 002e 04       		.uleb128 0x4
 4864 002f 24       		.uleb128 0x24
 4865 0030 00       		.byte	0
 4866 0031 0B       		.uleb128 0xb
 4867 0032 0B       		.uleb128 0xb
 4868 0033 3E       		.uleb128 0x3e
 4869 0034 0B       		.uleb128 0xb
 4870 0035 03       		.uleb128 0x3
 4871 0036 08       		.uleb128 0x8
 4872 0037 00       		.byte	0
 4873 0038 00       		.byte	0
 4874 0039 05       		.uleb128 0x5
 4875 003a 04       		.uleb128 0x4
 4876 003b 01       		.byte	0x1
 4877 003c 0B       		.uleb128 0xb
 4878 003d 0B       		.uleb128 0xb
 4879 003e 3A       		.uleb128 0x3a
 4880 003f 0B       		.uleb128 0xb
 4881 0040 3B       		.uleb128 0x3b
 4882 0041 0B       		.uleb128 0xb
 4883 0042 01       		.uleb128 0x1
 4884 0043 13       		.uleb128 0x13
 4885 0044 00       		.byte	0
 4886 0045 00       		.byte	0
 4887 0046 06       		.uleb128 0x6
 4888 0047 28       		.uleb128 0x28
 4889 0048 00       		.byte	0
 4890 0049 03       		.uleb128 0x3
 4891 004a 0E       		.uleb128 0xe
 4892 004b 1C       		.uleb128 0x1c
 4893 004c 0D       		.uleb128 0xd
 4894 004d 00       		.byte	0
 4895 004e 00       		.byte	0
 4896 004f 07       		.uleb128 0x7
 4897 0050 28       		.uleb128 0x28
 4898 0051 00       		.byte	0
 4899 0052 03       		.uleb128 0x3
 4900 0053 08       		.uleb128 0x8
 4901 0054 1C       		.uleb128 0x1c
 4902 0055 0D       		.uleb128 0xd
 4903 0056 00       		.byte	0
 4904 0057 00       		.byte	0
 4905 0058 08       		.uleb128 0x8
 4906 0059 01       		.uleb128 0x1
 4907 005a 01       		.byte	0x1
 4908 005b 49       		.uleb128 0x49
 4909 005c 13       		.uleb128 0x13
 4910 005d 01       		.uleb128 0x1
 4911 005e 13       		.uleb128 0x13
 4912 005f 00       		.byte	0
 4913 0060 00       		.byte	0
 4914 0061 09       		.uleb128 0x9
 4915 0062 21       		.uleb128 0x21
 4916 0063 00       		.byte	0
ARM GAS  /tmp/ccFRKuha.s 			page 115


 4917 0064 49       		.uleb128 0x49
 4918 0065 13       		.uleb128 0x13
 4919 0066 2F       		.uleb128 0x2f
 4920 0067 0B       		.uleb128 0xb
 4921 0068 00       		.byte	0
 4922 0069 00       		.byte	0
 4923 006a 0A       		.uleb128 0xa
 4924 006b 26       		.uleb128 0x26
 4925 006c 00       		.byte	0
 4926 006d 49       		.uleb128 0x49
 4927 006e 13       		.uleb128 0x13
 4928 006f 00       		.byte	0
 4929 0070 00       		.byte	0
 4930 0071 0B       		.uleb128 0xb
 4931 0072 35       		.uleb128 0x35
 4932 0073 00       		.byte	0
 4933 0074 49       		.uleb128 0x49
 4934 0075 13       		.uleb128 0x13
 4935 0076 00       		.byte	0
 4936 0077 00       		.byte	0
 4937 0078 0C       		.uleb128 0xc
 4938 0079 13       		.uleb128 0x13
 4939 007a 01       		.byte	0x1
 4940 007b 0B       		.uleb128 0xb
 4941 007c 05       		.uleb128 0x5
 4942 007d 3A       		.uleb128 0x3a
 4943 007e 0B       		.uleb128 0xb
 4944 007f 3B       		.uleb128 0x3b
 4945 0080 0B       		.uleb128 0xb
 4946 0081 01       		.uleb128 0x1
 4947 0082 13       		.uleb128 0x13
 4948 0083 00       		.byte	0
 4949 0084 00       		.byte	0
 4950 0085 0D       		.uleb128 0xd
 4951 0086 0D       		.uleb128 0xd
 4952 0087 00       		.byte	0
 4953 0088 03       		.uleb128 0x3
 4954 0089 0E       		.uleb128 0xe
 4955 008a 3A       		.uleb128 0x3a
 4956 008b 0B       		.uleb128 0xb
 4957 008c 3B       		.uleb128 0x3b
 4958 008d 0B       		.uleb128 0xb
 4959 008e 49       		.uleb128 0x49
 4960 008f 13       		.uleb128 0x13
 4961 0090 38       		.uleb128 0x38
 4962 0091 0B       		.uleb128 0xb
 4963 0092 00       		.byte	0
 4964 0093 00       		.byte	0
 4965 0094 0E       		.uleb128 0xe
 4966 0095 0D       		.uleb128 0xd
 4967 0096 00       		.byte	0
 4968 0097 03       		.uleb128 0x3
 4969 0098 0E       		.uleb128 0xe
 4970 0099 3A       		.uleb128 0x3a
 4971 009a 0B       		.uleb128 0xb
 4972 009b 3B       		.uleb128 0x3b
 4973 009c 0B       		.uleb128 0xb
ARM GAS  /tmp/ccFRKuha.s 			page 116


 4974 009d 49       		.uleb128 0x49
 4975 009e 13       		.uleb128 0x13
 4976 009f 38       		.uleb128 0x38
 4977 00a0 05       		.uleb128 0x5
 4978 00a1 00       		.byte	0
 4979 00a2 00       		.byte	0
 4980 00a3 0F       		.uleb128 0xf
 4981 00a4 04       		.uleb128 0x4
 4982 00a5 01       		.byte	0x1
 4983 00a6 03       		.uleb128 0x3
 4984 00a7 0E       		.uleb128 0xe
 4985 00a8 0B       		.uleb128 0xb
 4986 00a9 0B       		.uleb128 0xb
 4987 00aa 3A       		.uleb128 0x3a
 4988 00ab 0B       		.uleb128 0xb
 4989 00ac 3B       		.uleb128 0x3b
 4990 00ad 0B       		.uleb128 0xb
 4991 00ae 01       		.uleb128 0x1
 4992 00af 13       		.uleb128 0x13
 4993 00b0 00       		.byte	0
 4994 00b1 00       		.byte	0
 4995 00b2 10       		.uleb128 0x10
 4996 00b3 16       		.uleb128 0x16
 4997 00b4 00       		.byte	0
 4998 00b5 03       		.uleb128 0x3
 4999 00b6 0E       		.uleb128 0xe
 5000 00b7 3A       		.uleb128 0x3a
 5001 00b8 0B       		.uleb128 0xb
 5002 00b9 3B       		.uleb128 0x3b
 5003 00ba 05       		.uleb128 0x5
 5004 00bb 49       		.uleb128 0x49
 5005 00bc 13       		.uleb128 0x13
 5006 00bd 00       		.byte	0
 5007 00be 00       		.byte	0
 5008 00bf 11       		.uleb128 0x11
 5009 00c0 0F       		.uleb128 0xf
 5010 00c1 00       		.byte	0
 5011 00c2 0B       		.uleb128 0xb
 5012 00c3 0B       		.uleb128 0xb
 5013 00c4 00       		.byte	0
 5014 00c5 00       		.byte	0
 5015 00c6 12       		.uleb128 0x12
 5016 00c7 13       		.uleb128 0x13
 5017 00c8 01       		.byte	0x1
 5018 00c9 0B       		.uleb128 0xb
 5019 00ca 0B       		.uleb128 0xb
 5020 00cb 3A       		.uleb128 0x3a
 5021 00cc 0B       		.uleb128 0xb
 5022 00cd 3B       		.uleb128 0x3b
 5023 00ce 0B       		.uleb128 0xb
 5024 00cf 01       		.uleb128 0x1
 5025 00d0 13       		.uleb128 0x13
 5026 00d1 00       		.byte	0
 5027 00d2 00       		.byte	0
 5028 00d3 13       		.uleb128 0x13
 5029 00d4 0D       		.uleb128 0xd
 5030 00d5 00       		.byte	0
ARM GAS  /tmp/ccFRKuha.s 			page 117


 5031 00d6 03       		.uleb128 0x3
 5032 00d7 08       		.uleb128 0x8
 5033 00d8 3A       		.uleb128 0x3a
 5034 00d9 0B       		.uleb128 0xb
 5035 00da 3B       		.uleb128 0x3b
 5036 00db 0B       		.uleb128 0xb
 5037 00dc 49       		.uleb128 0x49
 5038 00dd 13       		.uleb128 0x13
 5039 00de 38       		.uleb128 0x38
 5040 00df 0B       		.uleb128 0xb
 5041 00e0 00       		.byte	0
 5042 00e1 00       		.byte	0
 5043 00e2 14       		.uleb128 0x14
 5044 00e3 04       		.uleb128 0x4
 5045 00e4 01       		.byte	0x1
 5046 00e5 03       		.uleb128 0x3
 5047 00e6 0E       		.uleb128 0xe
 5048 00e7 0B       		.uleb128 0xb
 5049 00e8 0B       		.uleb128 0xb
 5050 00e9 3A       		.uleb128 0x3a
 5051 00ea 0B       		.uleb128 0xb
 5052 00eb 3B       		.uleb128 0x3b
 5053 00ec 05       		.uleb128 0x5
 5054 00ed 01       		.uleb128 0x1
 5055 00ee 13       		.uleb128 0x13
 5056 00ef 00       		.byte	0
 5057 00f0 00       		.byte	0
 5058 00f1 15       		.uleb128 0x15
 5059 00f2 13       		.uleb128 0x13
 5060 00f3 01       		.byte	0x1
 5061 00f4 0B       		.uleb128 0xb
 5062 00f5 0B       		.uleb128 0xb
 5063 00f6 3A       		.uleb128 0x3a
 5064 00f7 0B       		.uleb128 0xb
 5065 00f8 3B       		.uleb128 0x3b
 5066 00f9 05       		.uleb128 0x5
 5067 00fa 01       		.uleb128 0x1
 5068 00fb 13       		.uleb128 0x13
 5069 00fc 00       		.byte	0
 5070 00fd 00       		.byte	0
 5071 00fe 16       		.uleb128 0x16
 5072 00ff 0D       		.uleb128 0xd
 5073 0100 00       		.byte	0
 5074 0101 03       		.uleb128 0x3
 5075 0102 0E       		.uleb128 0xe
 5076 0103 3A       		.uleb128 0x3a
 5077 0104 0B       		.uleb128 0xb
 5078 0105 3B       		.uleb128 0x3b
 5079 0106 05       		.uleb128 0x5
 5080 0107 49       		.uleb128 0x49
 5081 0108 13       		.uleb128 0x13
 5082 0109 38       		.uleb128 0x38
 5083 010a 0B       		.uleb128 0xb
 5084 010b 00       		.byte	0
 5085 010c 00       		.byte	0
 5086 010d 17       		.uleb128 0x17
 5087 010e 0F       		.uleb128 0xf
ARM GAS  /tmp/ccFRKuha.s 			page 118


 5088 010f 00       		.byte	0
 5089 0110 0B       		.uleb128 0xb
 5090 0111 0B       		.uleb128 0xb
 5091 0112 49       		.uleb128 0x49
 5092 0113 13       		.uleb128 0x13
 5093 0114 00       		.byte	0
 5094 0115 00       		.byte	0
 5095 0116 18       		.uleb128 0x18
 5096 0117 2E       		.uleb128 0x2e
 5097 0118 01       		.byte	0x1
 5098 0119 03       		.uleb128 0x3
 5099 011a 0E       		.uleb128 0xe
 5100 011b 3A       		.uleb128 0x3a
 5101 011c 0B       		.uleb128 0xb
 5102 011d 3B       		.uleb128 0x3b
 5103 011e 05       		.uleb128 0x5
 5104 011f 27       		.uleb128 0x27
 5105 0120 19       		.uleb128 0x19
 5106 0121 20       		.uleb128 0x20
 5107 0122 0B       		.uleb128 0xb
 5108 0123 01       		.uleb128 0x1
 5109 0124 13       		.uleb128 0x13
 5110 0125 00       		.byte	0
 5111 0126 00       		.byte	0
 5112 0127 19       		.uleb128 0x19
 5113 0128 05       		.uleb128 0x5
 5114 0129 00       		.byte	0
 5115 012a 03       		.uleb128 0x3
 5116 012b 0E       		.uleb128 0xe
 5117 012c 3A       		.uleb128 0x3a
 5118 012d 0B       		.uleb128 0xb
 5119 012e 3B       		.uleb128 0x3b
 5120 012f 05       		.uleb128 0x5
 5121 0130 49       		.uleb128 0x49
 5122 0131 13       		.uleb128 0x13
 5123 0132 00       		.byte	0
 5124 0133 00       		.byte	0
 5125 0134 1A       		.uleb128 0x1a
 5126 0135 2E       		.uleb128 0x2e
 5127 0136 01       		.byte	0x1
 5128 0137 03       		.uleb128 0x3
 5129 0138 0E       		.uleb128 0xe
 5130 0139 3A       		.uleb128 0x3a
 5131 013a 0B       		.uleb128 0xb
 5132 013b 3B       		.uleb128 0x3b
 5133 013c 05       		.uleb128 0x5
 5134 013d 27       		.uleb128 0x27
 5135 013e 19       		.uleb128 0x19
 5136 013f 49       		.uleb128 0x49
 5137 0140 13       		.uleb128 0x13
 5138 0141 20       		.uleb128 0x20
 5139 0142 0B       		.uleb128 0xb
 5140 0143 01       		.uleb128 0x1
 5141 0144 13       		.uleb128 0x13
 5142 0145 00       		.byte	0
 5143 0146 00       		.byte	0
 5144 0147 1B       		.uleb128 0x1b
ARM GAS  /tmp/ccFRKuha.s 			page 119


 5145 0148 05       		.uleb128 0x5
 5146 0149 00       		.byte	0
 5147 014a 03       		.uleb128 0x3
 5148 014b 08       		.uleb128 0x8
 5149 014c 3A       		.uleb128 0x3a
 5150 014d 0B       		.uleb128 0xb
 5151 014e 3B       		.uleb128 0x3b
 5152 014f 05       		.uleb128 0x5
 5153 0150 49       		.uleb128 0x49
 5154 0151 13       		.uleb128 0x13
 5155 0152 00       		.byte	0
 5156 0153 00       		.byte	0
 5157 0154 1C       		.uleb128 0x1c
 5158 0155 2E       		.uleb128 0x2e
 5159 0156 00       		.byte	0
 5160 0157 03       		.uleb128 0x3
 5161 0158 0E       		.uleb128 0xe
 5162 0159 3A       		.uleb128 0x3a
 5163 015a 0B       		.uleb128 0xb
 5164 015b 3B       		.uleb128 0x3b
 5165 015c 05       		.uleb128 0x5
 5166 015d 27       		.uleb128 0x27
 5167 015e 19       		.uleb128 0x19
 5168 015f 49       		.uleb128 0x49
 5169 0160 13       		.uleb128 0x13
 5170 0161 20       		.uleb128 0x20
 5171 0162 0B       		.uleb128 0xb
 5172 0163 00       		.byte	0
 5173 0164 00       		.byte	0
 5174 0165 1D       		.uleb128 0x1d
 5175 0166 2E       		.uleb128 0x2e
 5176 0167 01       		.byte	0x1
 5177 0168 03       		.uleb128 0x3
 5178 0169 0E       		.uleb128 0xe
 5179 016a 3A       		.uleb128 0x3a
 5180 016b 0B       		.uleb128 0xb
 5181 016c 3B       		.uleb128 0x3b
 5182 016d 0B       		.uleb128 0xb
 5183 016e 27       		.uleb128 0x27
 5184 016f 19       		.uleb128 0x19
 5185 0170 49       		.uleb128 0x49
 5186 0171 13       		.uleb128 0x13
 5187 0172 20       		.uleb128 0x20
 5188 0173 0B       		.uleb128 0xb
 5189 0174 01       		.uleb128 0x1
 5190 0175 13       		.uleb128 0x13
 5191 0176 00       		.byte	0
 5192 0177 00       		.byte	0
 5193 0178 1E       		.uleb128 0x1e
 5194 0179 05       		.uleb128 0x5
 5195 017a 00       		.byte	0
 5196 017b 03       		.uleb128 0x3
 5197 017c 0E       		.uleb128 0xe
 5198 017d 3A       		.uleb128 0x3a
 5199 017e 0B       		.uleb128 0xb
 5200 017f 3B       		.uleb128 0x3b
 5201 0180 0B       		.uleb128 0xb
ARM GAS  /tmp/ccFRKuha.s 			page 120


 5202 0181 49       		.uleb128 0x49
 5203 0182 13       		.uleb128 0x13
 5204 0183 00       		.byte	0
 5205 0184 00       		.byte	0
 5206 0185 1F       		.uleb128 0x1f
 5207 0186 34       		.uleb128 0x34
 5208 0187 00       		.byte	0
 5209 0188 03       		.uleb128 0x3
 5210 0189 0E       		.uleb128 0xe
 5211 018a 3A       		.uleb128 0x3a
 5212 018b 0B       		.uleb128 0xb
 5213 018c 3B       		.uleb128 0x3b
 5214 018d 0B       		.uleb128 0xb
 5215 018e 49       		.uleb128 0x49
 5216 018f 13       		.uleb128 0x13
 5217 0190 00       		.byte	0
 5218 0191 00       		.byte	0
 5219 0192 20       		.uleb128 0x20
 5220 0193 2E       		.uleb128 0x2e
 5221 0194 01       		.byte	0x1
 5222 0195 03       		.uleb128 0x3
 5223 0196 0E       		.uleb128 0xe
 5224 0197 3A       		.uleb128 0x3a
 5225 0198 0B       		.uleb128 0xb
 5226 0199 3B       		.uleb128 0x3b
 5227 019a 0B       		.uleb128 0xb
 5228 019b 27       		.uleb128 0x27
 5229 019c 19       		.uleb128 0x19
 5230 019d 20       		.uleb128 0x20
 5231 019e 0B       		.uleb128 0xb
 5232 019f 01       		.uleb128 0x1
 5233 01a0 13       		.uleb128 0x13
 5234 01a1 00       		.byte	0
 5235 01a2 00       		.byte	0
 5236 01a3 21       		.uleb128 0x21
 5237 01a4 2E       		.uleb128 0x2e
 5238 01a5 01       		.byte	0x1
 5239 01a6 03       		.uleb128 0x3
 5240 01a7 0E       		.uleb128 0xe
 5241 01a8 3A       		.uleb128 0x3a
 5242 01a9 0B       		.uleb128 0xb
 5243 01aa 3B       		.uleb128 0x3b
 5244 01ab 0B       		.uleb128 0xb
 5245 01ac 27       		.uleb128 0x27
 5246 01ad 19       		.uleb128 0x19
 5247 01ae 11       		.uleb128 0x11
 5248 01af 01       		.uleb128 0x1
 5249 01b0 12       		.uleb128 0x12
 5250 01b1 06       		.uleb128 0x6
 5251 01b2 40       		.uleb128 0x40
 5252 01b3 18       		.uleb128 0x18
 5253 01b4 9742     		.uleb128 0x2117
 5254 01b6 19       		.uleb128 0x19
 5255 01b7 01       		.uleb128 0x1
 5256 01b8 13       		.uleb128 0x13
 5257 01b9 00       		.byte	0
 5258 01ba 00       		.byte	0
ARM GAS  /tmp/ccFRKuha.s 			page 121


 5259 01bb 22       		.uleb128 0x22
 5260 01bc 05       		.uleb128 0x5
 5261 01bd 00       		.byte	0
 5262 01be 03       		.uleb128 0x3
 5263 01bf 0E       		.uleb128 0xe
 5264 01c0 3A       		.uleb128 0x3a
 5265 01c1 0B       		.uleb128 0xb
 5266 01c2 3B       		.uleb128 0x3b
 5267 01c3 0B       		.uleb128 0xb
 5268 01c4 49       		.uleb128 0x49
 5269 01c5 13       		.uleb128 0x13
 5270 01c6 02       		.uleb128 0x2
 5271 01c7 18       		.uleb128 0x18
 5272 01c8 00       		.byte	0
 5273 01c9 00       		.byte	0
 5274 01ca 23       		.uleb128 0x23
 5275 01cb 1D       		.uleb128 0x1d
 5276 01cc 01       		.byte	0x1
 5277 01cd 31       		.uleb128 0x31
 5278 01ce 13       		.uleb128 0x13
 5279 01cf 11       		.uleb128 0x11
 5280 01d0 01       		.uleb128 0x1
 5281 01d1 12       		.uleb128 0x12
 5282 01d2 06       		.uleb128 0x6
 5283 01d3 58       		.uleb128 0x58
 5284 01d4 0B       		.uleb128 0xb
 5285 01d5 59       		.uleb128 0x59
 5286 01d6 0B       		.uleb128 0xb
 5287 01d7 01       		.uleb128 0x1
 5288 01d8 13       		.uleb128 0x13
 5289 01d9 00       		.byte	0
 5290 01da 00       		.byte	0
 5291 01db 24       		.uleb128 0x24
 5292 01dc 05       		.uleb128 0x5
 5293 01dd 00       		.byte	0
 5294 01de 31       		.uleb128 0x31
 5295 01df 13       		.uleb128 0x13
 5296 01e0 1C       		.uleb128 0x1c
 5297 01e1 0B       		.uleb128 0xb
 5298 01e2 00       		.byte	0
 5299 01e3 00       		.byte	0
 5300 01e4 25       		.uleb128 0x25
 5301 01e5 05       		.uleb128 0x5
 5302 01e6 00       		.byte	0
 5303 01e7 31       		.uleb128 0x31
 5304 01e8 13       		.uleb128 0x13
 5305 01e9 02       		.uleb128 0x2
 5306 01ea 18       		.uleb128 0x18
 5307 01eb 00       		.byte	0
 5308 01ec 00       		.byte	0
 5309 01ed 26       		.uleb128 0x26
 5310 01ee 1D       		.uleb128 0x1d
 5311 01ef 01       		.byte	0x1
 5312 01f0 31       		.uleb128 0x31
 5313 01f1 13       		.uleb128 0x13
 5314 01f2 52       		.uleb128 0x52
 5315 01f3 01       		.uleb128 0x1
ARM GAS  /tmp/ccFRKuha.s 			page 122


 5316 01f4 55       		.uleb128 0x55
 5317 01f5 17       		.uleb128 0x17
 5318 01f6 58       		.uleb128 0x58
 5319 01f7 0B       		.uleb128 0xb
 5320 01f8 59       		.uleb128 0x59
 5321 01f9 0B       		.uleb128 0xb
 5322 01fa 00       		.byte	0
 5323 01fb 00       		.byte	0
 5324 01fc 27       		.uleb128 0x27
 5325 01fd 05       		.uleb128 0x5
 5326 01fe 00       		.byte	0
 5327 01ff 31       		.uleb128 0x31
 5328 0200 13       		.uleb128 0x13
 5329 0201 02       		.uleb128 0x2
 5330 0202 17       		.uleb128 0x17
 5331 0203 00       		.byte	0
 5332 0204 00       		.byte	0
 5333 0205 28       		.uleb128 0x28
 5334 0206 1D       		.uleb128 0x1d
 5335 0207 01       		.byte	0x1
 5336 0208 31       		.uleb128 0x31
 5337 0209 13       		.uleb128 0x13
 5338 020a 11       		.uleb128 0x11
 5339 020b 01       		.uleb128 0x1
 5340 020c 12       		.uleb128 0x12
 5341 020d 06       		.uleb128 0x6
 5342 020e 58       		.uleb128 0x58
 5343 020f 0B       		.uleb128 0xb
 5344 0210 59       		.uleb128 0x59
 5345 0211 0B       		.uleb128 0xb
 5346 0212 00       		.byte	0
 5347 0213 00       		.byte	0
 5348 0214 29       		.uleb128 0x29
 5349 0215 2E       		.uleb128 0x2e
 5350 0216 01       		.byte	0x1
 5351 0217 3F       		.uleb128 0x3f
 5352 0218 19       		.uleb128 0x19
 5353 0219 03       		.uleb128 0x3
 5354 021a 0E       		.uleb128 0xe
 5355 021b 3A       		.uleb128 0x3a
 5356 021c 0B       		.uleb128 0xb
 5357 021d 3B       		.uleb128 0x3b
 5358 021e 0B       		.uleb128 0xb
 5359 021f 27       		.uleb128 0x27
 5360 0220 19       		.uleb128 0x19
 5361 0221 11       		.uleb128 0x11
 5362 0222 01       		.uleb128 0x1
 5363 0223 12       		.uleb128 0x12
 5364 0224 06       		.uleb128 0x6
 5365 0225 40       		.uleb128 0x40
 5366 0226 18       		.uleb128 0x18
 5367 0227 9742     		.uleb128 0x2117
 5368 0229 19       		.uleb128 0x19
 5369 022a 01       		.uleb128 0x1
 5370 022b 13       		.uleb128 0x13
 5371 022c 00       		.byte	0
 5372 022d 00       		.byte	0
ARM GAS  /tmp/ccFRKuha.s 			page 123


 5373 022e 2A       		.uleb128 0x2a
 5374 022f 05       		.uleb128 0x5
 5375 0230 00       		.byte	0
 5376 0231 03       		.uleb128 0x3
 5377 0232 0E       		.uleb128 0xe
 5378 0233 3A       		.uleb128 0x3a
 5379 0234 0B       		.uleb128 0xb
 5380 0235 3B       		.uleb128 0x3b
 5381 0236 0B       		.uleb128 0xb
 5382 0237 49       		.uleb128 0x49
 5383 0238 13       		.uleb128 0x13
 5384 0239 02       		.uleb128 0x2
 5385 023a 17       		.uleb128 0x17
 5386 023b 00       		.byte	0
 5387 023c 00       		.byte	0
 5388 023d 2B       		.uleb128 0x2b
 5389 023e 34       		.uleb128 0x34
 5390 023f 00       		.byte	0
 5391 0240 03       		.uleb128 0x3
 5392 0241 0E       		.uleb128 0xe
 5393 0242 3A       		.uleb128 0x3a
 5394 0243 0B       		.uleb128 0xb
 5395 0244 3B       		.uleb128 0x3b
 5396 0245 0B       		.uleb128 0xb
 5397 0246 49       		.uleb128 0x49
 5398 0247 13       		.uleb128 0x13
 5399 0248 02       		.uleb128 0x2
 5400 0249 17       		.uleb128 0x17
 5401 024a 00       		.byte	0
 5402 024b 00       		.byte	0
 5403 024c 2C       		.uleb128 0x2c
 5404 024d 2E       		.uleb128 0x2e
 5405 024e 01       		.byte	0x1
 5406 024f 3F       		.uleb128 0x3f
 5407 0250 19       		.uleb128 0x19
 5408 0251 03       		.uleb128 0x3
 5409 0252 0E       		.uleb128 0xe
 5410 0253 3A       		.uleb128 0x3a
 5411 0254 0B       		.uleb128 0xb
 5412 0255 3B       		.uleb128 0x3b
 5413 0256 0B       		.uleb128 0xb
 5414 0257 27       		.uleb128 0x27
 5415 0258 19       		.uleb128 0x19
 5416 0259 49       		.uleb128 0x49
 5417 025a 13       		.uleb128 0x13
 5418 025b 11       		.uleb128 0x11
 5419 025c 01       		.uleb128 0x1
 5420 025d 12       		.uleb128 0x12
 5421 025e 06       		.uleb128 0x6
 5422 025f 40       		.uleb128 0x40
 5423 0260 18       		.uleb128 0x18
 5424 0261 9742     		.uleb128 0x2117
 5425 0263 19       		.uleb128 0x19
 5426 0264 01       		.uleb128 0x1
 5427 0265 13       		.uleb128 0x13
 5428 0266 00       		.byte	0
 5429 0267 00       		.byte	0
ARM GAS  /tmp/ccFRKuha.s 			page 124


 5430 0268 2D       		.uleb128 0x2d
 5431 0269 898201   		.uleb128 0x4109
 5432 026c 01       		.byte	0x1
 5433 026d 11       		.uleb128 0x11
 5434 026e 01       		.uleb128 0x1
 5435 026f 31       		.uleb128 0x31
 5436 0270 13       		.uleb128 0x13
 5437 0271 01       		.uleb128 0x1
 5438 0272 13       		.uleb128 0x13
 5439 0273 00       		.byte	0
 5440 0274 00       		.byte	0
 5441 0275 2E       		.uleb128 0x2e
 5442 0276 8A8201   		.uleb128 0x410a
 5443 0279 00       		.byte	0
 5444 027a 02       		.uleb128 0x2
 5445 027b 18       		.uleb128 0x18
 5446 027c 9142     		.uleb128 0x2111
 5447 027e 18       		.uleb128 0x18
 5448 027f 00       		.byte	0
 5449 0280 00       		.byte	0
 5450 0281 2F       		.uleb128 0x2f
 5451 0282 898201   		.uleb128 0x4109
 5452 0285 01       		.byte	0x1
 5453 0286 11       		.uleb128 0x11
 5454 0287 01       		.uleb128 0x1
 5455 0288 31       		.uleb128 0x31
 5456 0289 13       		.uleb128 0x13
 5457 028a 00       		.byte	0
 5458 028b 00       		.byte	0
 5459 028c 30       		.uleb128 0x30
 5460 028d 0B       		.uleb128 0xb
 5461 028e 01       		.byte	0x1
 5462 028f 11       		.uleb128 0x11
 5463 0290 01       		.uleb128 0x1
 5464 0291 12       		.uleb128 0x12
 5465 0292 06       		.uleb128 0x6
 5466 0293 01       		.uleb128 0x1
 5467 0294 13       		.uleb128 0x13
 5468 0295 00       		.byte	0
 5469 0296 00       		.byte	0
 5470 0297 31       		.uleb128 0x31
 5471 0298 1D       		.uleb128 0x1d
 5472 0299 01       		.byte	0x1
 5473 029a 31       		.uleb128 0x31
 5474 029b 13       		.uleb128 0x13
 5475 029c 52       		.uleb128 0x52
 5476 029d 01       		.uleb128 0x1
 5477 029e 55       		.uleb128 0x55
 5478 029f 17       		.uleb128 0x17
 5479 02a0 58       		.uleb128 0x58
 5480 02a1 0B       		.uleb128 0xb
 5481 02a2 59       		.uleb128 0x59
 5482 02a3 0B       		.uleb128 0xb
 5483 02a4 01       		.uleb128 0x1
 5484 02a5 13       		.uleb128 0x13
 5485 02a6 00       		.byte	0
 5486 02a7 00       		.byte	0
ARM GAS  /tmp/ccFRKuha.s 			page 125


 5487 02a8 32       		.uleb128 0x32
 5488 02a9 1D       		.uleb128 0x1d
 5489 02aa 01       		.byte	0x1
 5490 02ab 31       		.uleb128 0x31
 5491 02ac 13       		.uleb128 0x13
 5492 02ad 11       		.uleb128 0x11
 5493 02ae 01       		.uleb128 0x1
 5494 02af 12       		.uleb128 0x12
 5495 02b0 06       		.uleb128 0x6
 5496 02b1 58       		.uleb128 0x58
 5497 02b2 0B       		.uleb128 0xb
 5498 02b3 59       		.uleb128 0x59
 5499 02b4 05       		.uleb128 0x5
 5500 02b5 01       		.uleb128 0x1
 5501 02b6 13       		.uleb128 0x13
 5502 02b7 00       		.byte	0
 5503 02b8 00       		.byte	0
 5504 02b9 33       		.uleb128 0x33
 5505 02ba 1D       		.uleb128 0x1d
 5506 02bb 01       		.byte	0x1
 5507 02bc 31       		.uleb128 0x31
 5508 02bd 13       		.uleb128 0x13
 5509 02be 11       		.uleb128 0x11
 5510 02bf 01       		.uleb128 0x1
 5511 02c0 12       		.uleb128 0x12
 5512 02c1 06       		.uleb128 0x6
 5513 02c2 58       		.uleb128 0x58
 5514 02c3 0B       		.uleb128 0xb
 5515 02c4 59       		.uleb128 0x59
 5516 02c5 05       		.uleb128 0x5
 5517 02c6 00       		.byte	0
 5518 02c7 00       		.byte	0
 5519 02c8 34       		.uleb128 0x34
 5520 02c9 0B       		.uleb128 0xb
 5521 02ca 01       		.byte	0x1
 5522 02cb 11       		.uleb128 0x11
 5523 02cc 01       		.uleb128 0x1
 5524 02cd 12       		.uleb128 0x12
 5525 02ce 06       		.uleb128 0x6
 5526 02cf 00       		.byte	0
 5527 02d0 00       		.byte	0
 5528 02d1 35       		.uleb128 0x35
 5529 02d2 34       		.uleb128 0x34
 5530 02d3 00       		.byte	0
 5531 02d4 03       		.uleb128 0x3
 5532 02d5 0E       		.uleb128 0xe
 5533 02d6 3A       		.uleb128 0x3a
 5534 02d7 0B       		.uleb128 0xb
 5535 02d8 3B       		.uleb128 0x3b
 5536 02d9 05       		.uleb128 0x5
 5537 02da 49       		.uleb128 0x49
 5538 02db 13       		.uleb128 0x13
 5539 02dc 02       		.uleb128 0x2
 5540 02dd 17       		.uleb128 0x17
 5541 02de 00       		.byte	0
 5542 02df 00       		.byte	0
 5543 02e0 36       		.uleb128 0x36
ARM GAS  /tmp/ccFRKuha.s 			page 126


 5544 02e1 1D       		.uleb128 0x1d
 5545 02e2 01       		.byte	0x1
 5546 02e3 31       		.uleb128 0x31
 5547 02e4 13       		.uleb128 0x13
 5548 02e5 52       		.uleb128 0x52
 5549 02e6 01       		.uleb128 0x1
 5550 02e7 55       		.uleb128 0x55
 5551 02e8 17       		.uleb128 0x17
 5552 02e9 58       		.uleb128 0x58
 5553 02ea 0B       		.uleb128 0xb
 5554 02eb 59       		.uleb128 0x59
 5555 02ec 05       		.uleb128 0x5
 5556 02ed 01       		.uleb128 0x1
 5557 02ee 13       		.uleb128 0x13
 5558 02ef 00       		.byte	0
 5559 02f0 00       		.byte	0
 5560 02f1 37       		.uleb128 0x37
 5561 02f2 2E       		.uleb128 0x2e
 5562 02f3 01       		.byte	0x1
 5563 02f4 3F       		.uleb128 0x3f
 5564 02f5 19       		.uleb128 0x19
 5565 02f6 03       		.uleb128 0x3
 5566 02f7 0E       		.uleb128 0xe
 5567 02f8 3A       		.uleb128 0x3a
 5568 02f9 0B       		.uleb128 0xb
 5569 02fa 3B       		.uleb128 0x3b
 5570 02fb 05       		.uleb128 0x5
 5571 02fc 27       		.uleb128 0x27
 5572 02fd 19       		.uleb128 0x19
 5573 02fe 49       		.uleb128 0x49
 5574 02ff 13       		.uleb128 0x13
 5575 0300 11       		.uleb128 0x11
 5576 0301 01       		.uleb128 0x1
 5577 0302 12       		.uleb128 0x12
 5578 0303 06       		.uleb128 0x6
 5579 0304 40       		.uleb128 0x40
 5580 0305 18       		.uleb128 0x18
 5581 0306 9742     		.uleb128 0x2117
 5582 0308 19       		.uleb128 0x19
 5583 0309 01       		.uleb128 0x1
 5584 030a 13       		.uleb128 0x13
 5585 030b 00       		.byte	0
 5586 030c 00       		.byte	0
 5587 030d 38       		.uleb128 0x38
 5588 030e 05       		.uleb128 0x5
 5589 030f 00       		.byte	0
 5590 0310 03       		.uleb128 0x3
 5591 0311 0E       		.uleb128 0xe
 5592 0312 3A       		.uleb128 0x3a
 5593 0313 0B       		.uleb128 0xb
 5594 0314 3B       		.uleb128 0x3b
 5595 0315 05       		.uleb128 0x5
 5596 0316 49       		.uleb128 0x49
 5597 0317 13       		.uleb128 0x13
 5598 0318 02       		.uleb128 0x2
 5599 0319 17       		.uleb128 0x17
 5600 031a 00       		.byte	0
ARM GAS  /tmp/ccFRKuha.s 			page 127


 5601 031b 00       		.byte	0
 5602 031c 39       		.uleb128 0x39
 5603 031d 05       		.uleb128 0x5
 5604 031e 00       		.byte	0
 5605 031f 03       		.uleb128 0x3
 5606 0320 0E       		.uleb128 0xe
 5607 0321 3A       		.uleb128 0x3a
 5608 0322 0B       		.uleb128 0xb
 5609 0323 3B       		.uleb128 0x3b
 5610 0324 05       		.uleb128 0x5
 5611 0325 49       		.uleb128 0x49
 5612 0326 13       		.uleb128 0x13
 5613 0327 02       		.uleb128 0x2
 5614 0328 18       		.uleb128 0x18
 5615 0329 00       		.byte	0
 5616 032a 00       		.byte	0
 5617 032b 3A       		.uleb128 0x3a
 5618 032c 0B       		.uleb128 0xb
 5619 032d 01       		.byte	0x1
 5620 032e 55       		.uleb128 0x55
 5621 032f 17       		.uleb128 0x17
 5622 0330 01       		.uleb128 0x1
 5623 0331 13       		.uleb128 0x13
 5624 0332 00       		.byte	0
 5625 0333 00       		.byte	0
 5626 0334 3B       		.uleb128 0x3b
 5627 0335 0B       		.uleb128 0xb
 5628 0336 01       		.byte	0x1
 5629 0337 55       		.uleb128 0x55
 5630 0338 17       		.uleb128 0x17
 5631 0339 00       		.byte	0
 5632 033a 00       		.byte	0
 5633 033b 3C       		.uleb128 0x3c
 5634 033c 2E       		.uleb128 0x2e
 5635 033d 01       		.byte	0x1
 5636 033e 3F       		.uleb128 0x3f
 5637 033f 19       		.uleb128 0x19
 5638 0340 03       		.uleb128 0x3
 5639 0341 0E       		.uleb128 0xe
 5640 0342 3A       		.uleb128 0x3a
 5641 0343 0B       		.uleb128 0xb
 5642 0344 3B       		.uleb128 0x3b
 5643 0345 05       		.uleb128 0x5
 5644 0346 27       		.uleb128 0x27
 5645 0347 19       		.uleb128 0x19
 5646 0348 11       		.uleb128 0x11
 5647 0349 01       		.uleb128 0x1
 5648 034a 12       		.uleb128 0x12
 5649 034b 06       		.uleb128 0x6
 5650 034c 40       		.uleb128 0x40
 5651 034d 18       		.uleb128 0x18
 5652 034e 9742     		.uleb128 0x2117
 5653 0350 19       		.uleb128 0x19
 5654 0351 01       		.uleb128 0x1
 5655 0352 13       		.uleb128 0x13
 5656 0353 00       		.byte	0
 5657 0354 00       		.byte	0
ARM GAS  /tmp/ccFRKuha.s 			page 128


 5658 0355 3D       		.uleb128 0x3d
 5659 0356 1D       		.uleb128 0x1d
 5660 0357 01       		.byte	0x1
 5661 0358 31       		.uleb128 0x31
 5662 0359 13       		.uleb128 0x13
 5663 035a 52       		.uleb128 0x52
 5664 035b 01       		.uleb128 0x1
 5665 035c 55       		.uleb128 0x55
 5666 035d 17       		.uleb128 0x17
 5667 035e 58       		.uleb128 0x58
 5668 035f 0B       		.uleb128 0xb
 5669 0360 59       		.uleb128 0x59
 5670 0361 05       		.uleb128 0x5
 5671 0362 00       		.byte	0
 5672 0363 00       		.byte	0
 5673 0364 3E       		.uleb128 0x3e
 5674 0365 05       		.uleb128 0x5
 5675 0366 00       		.byte	0
 5676 0367 31       		.uleb128 0x31
 5677 0368 13       		.uleb128 0x13
 5678 0369 00       		.byte	0
 5679 036a 00       		.byte	0
 5680 036b 3F       		.uleb128 0x3f
 5681 036c 2E       		.uleb128 0x2e
 5682 036d 01       		.byte	0x1
 5683 036e 3F       		.uleb128 0x3f
 5684 036f 19       		.uleb128 0x19
 5685 0370 03       		.uleb128 0x3
 5686 0371 0E       		.uleb128 0xe
 5687 0372 3A       		.uleb128 0x3a
 5688 0373 0B       		.uleb128 0xb
 5689 0374 3B       		.uleb128 0x3b
 5690 0375 05       		.uleb128 0x5
 5691 0376 27       		.uleb128 0x27
 5692 0377 19       		.uleb128 0x19
 5693 0378 11       		.uleb128 0x11
 5694 0379 01       		.uleb128 0x1
 5695 037a 12       		.uleb128 0x12
 5696 037b 06       		.uleb128 0x6
 5697 037c 40       		.uleb128 0x40
 5698 037d 18       		.uleb128 0x18
 5699 037e 9642     		.uleb128 0x2116
 5700 0380 19       		.uleb128 0x19
 5701 0381 01       		.uleb128 0x1
 5702 0382 13       		.uleb128 0x13
 5703 0383 00       		.byte	0
 5704 0384 00       		.byte	0
 5705 0385 40       		.uleb128 0x40
 5706 0386 34       		.uleb128 0x34
 5707 0387 00       		.byte	0
 5708 0388 03       		.uleb128 0x3
 5709 0389 0E       		.uleb128 0xe
 5710 038a 3A       		.uleb128 0x3a
 5711 038b 0B       		.uleb128 0xb
 5712 038c 3B       		.uleb128 0x3b
 5713 038d 05       		.uleb128 0x5
 5714 038e 49       		.uleb128 0x49
ARM GAS  /tmp/ccFRKuha.s 			page 129


 5715 038f 13       		.uleb128 0x13
 5716 0390 02       		.uleb128 0x2
 5717 0391 18       		.uleb128 0x18
 5718 0392 00       		.byte	0
 5719 0393 00       		.byte	0
 5720 0394 41       		.uleb128 0x41
 5721 0395 34       		.uleb128 0x34
 5722 0396 00       		.byte	0
 5723 0397 31       		.uleb128 0x31
 5724 0398 13       		.uleb128 0x13
 5725 0399 02       		.uleb128 0x2
 5726 039a 17       		.uleb128 0x17
 5727 039b 00       		.byte	0
 5728 039c 00       		.byte	0
 5729 039d 42       		.uleb128 0x42
 5730 039e 1D       		.uleb128 0x1d
 5731 039f 00       		.byte	0
 5732 03a0 31       		.uleb128 0x31
 5733 03a1 13       		.uleb128 0x13
 5734 03a2 11       		.uleb128 0x11
 5735 03a3 01       		.uleb128 0x1
 5736 03a4 12       		.uleb128 0x12
 5737 03a5 06       		.uleb128 0x6
 5738 03a6 58       		.uleb128 0x58
 5739 03a7 0B       		.uleb128 0xb
 5740 03a8 59       		.uleb128 0x59
 5741 03a9 0B       		.uleb128 0xb
 5742 03aa 00       		.byte	0
 5743 03ab 00       		.byte	0
 5744 03ac 43       		.uleb128 0x43
 5745 03ad 898201   		.uleb128 0x4109
 5746 03b0 00       		.byte	0
 5747 03b1 11       		.uleb128 0x11
 5748 03b2 01       		.uleb128 0x1
 5749 03b3 31       		.uleb128 0x31
 5750 03b4 13       		.uleb128 0x13
 5751 03b5 00       		.byte	0
 5752 03b6 00       		.byte	0
 5753 03b7 44       		.uleb128 0x44
 5754 03b8 05       		.uleb128 0x5
 5755 03b9 00       		.byte	0
 5756 03ba 03       		.uleb128 0x3
 5757 03bb 08       		.uleb128 0x8
 5758 03bc 3A       		.uleb128 0x3a
 5759 03bd 0B       		.uleb128 0xb
 5760 03be 3B       		.uleb128 0x3b
 5761 03bf 0B       		.uleb128 0xb
 5762 03c0 49       		.uleb128 0x49
 5763 03c1 13       		.uleb128 0x13
 5764 03c2 00       		.byte	0
 5765 03c3 00       		.byte	0
 5766 03c4 45       		.uleb128 0x45
 5767 03c5 34       		.uleb128 0x34
 5768 03c6 00       		.byte	0
 5769 03c7 31       		.uleb128 0x31
 5770 03c8 13       		.uleb128 0x13
 5771 03c9 00       		.byte	0
ARM GAS  /tmp/ccFRKuha.s 			page 130


 5772 03ca 00       		.byte	0
 5773 03cb 46       		.uleb128 0x46
 5774 03cc 34       		.uleb128 0x34
 5775 03cd 00       		.byte	0
 5776 03ce 03       		.uleb128 0x3
 5777 03cf 0E       		.uleb128 0xe
 5778 03d0 3A       		.uleb128 0x3a
 5779 03d1 0B       		.uleb128 0xb
 5780 03d2 3B       		.uleb128 0x3b
 5781 03d3 0B       		.uleb128 0xb
 5782 03d4 49       		.uleb128 0x49
 5783 03d5 13       		.uleb128 0x13
 5784 03d6 3F       		.uleb128 0x3f
 5785 03d7 19       		.uleb128 0x19
 5786 03d8 3C       		.uleb128 0x3c
 5787 03d9 19       		.uleb128 0x19
 5788 03da 00       		.byte	0
 5789 03db 00       		.byte	0
 5790 03dc 47       		.uleb128 0x47
 5791 03dd 2E       		.uleb128 0x2e
 5792 03de 00       		.byte	0
 5793 03df 3F       		.uleb128 0x3f
 5794 03e0 19       		.uleb128 0x19
 5795 03e1 03       		.uleb128 0x3
 5796 03e2 0E       		.uleb128 0xe
 5797 03e3 3A       		.uleb128 0x3a
 5798 03e4 0B       		.uleb128 0xb
 5799 03e5 3B       		.uleb128 0x3b
 5800 03e6 05       		.uleb128 0x5
 5801 03e7 27       		.uleb128 0x27
 5802 03e8 19       		.uleb128 0x19
 5803 03e9 49       		.uleb128 0x49
 5804 03ea 13       		.uleb128 0x13
 5805 03eb 3C       		.uleb128 0x3c
 5806 03ec 19       		.uleb128 0x19
 5807 03ed 00       		.byte	0
 5808 03ee 00       		.byte	0
 5809 03ef 00       		.byte	0
 5810              		.section	.debug_loc,"",%progbits
 5811              	.Ldebug_loc0:
 5812              	.LLST0:
 5813 0000 10000000 		.4byte	.LVL2
 5814 0004 22000000 		.4byte	.LVL3
 5815 0008 0100     		.2byte	0x1
 5816 000a 50       		.byte	0x50
 5817 000b 00000000 		.4byte	0
 5818 000f 00000000 		.4byte	0
 5819              	.LLST1:
 5820 0013 10000000 		.4byte	.LVL6
 5821 0017 22000000 		.4byte	.LVL7
 5822 001b 0100     		.2byte	0x1
 5823 001d 50       		.byte	0x50
 5824 001e 00000000 		.4byte	0
 5825 0022 00000000 		.4byte	0
 5826              	.LLST2:
 5827 0026 00000000 		.4byte	.LVL8
 5828 002a 08000000 		.4byte	.LVL10
ARM GAS  /tmp/ccFRKuha.s 			page 131


 5829 002e 0100     		.2byte	0x1
 5830 0030 51       		.byte	0x51
 5831 0031 08000000 		.4byte	.LVL10
 5832 0035 18000000 		.4byte	.LFE206
 5833 0039 0400     		.2byte	0x4
 5834 003b F3       		.byte	0xf3
 5835 003c 01       		.uleb128 0x1
 5836 003d 51       		.byte	0x51
 5837 003e 9F       		.byte	0x9f
 5838 003f 00000000 		.4byte	0
 5839 0043 00000000 		.4byte	0
 5840              	.LLST3:
 5841 0047 06000000 		.4byte	.LVL9
 5842 004b 0A000000 		.4byte	.LVL11
 5843 004f 0800     		.2byte	0x8
 5844 0051 74       		.byte	0x74
 5845 0052 00       		.sleb128 0
 5846 0053 11       		.byte	0x11
 5847 0054 FF817C   		.sleb128 -65281
 5848 0057 1A       		.byte	0x1a
 5849 0058 9F       		.byte	0x9f
 5850 0059 0A000000 		.4byte	.LVL11
 5851 005d 18000000 		.4byte	.LFE206
 5852 0061 0100     		.2byte	0x1
 5853 0063 53       		.byte	0x53
 5854 0064 00000000 		.4byte	0
 5855 0068 00000000 		.4byte	0
 5856              	.LLST4:
 5857 006c 00000000 		.4byte	.LVL12
 5858 0070 20000000 		.4byte	.LVL17
 5859 0074 0100     		.2byte	0x1
 5860 0076 50       		.byte	0x50
 5861 0077 20000000 		.4byte	.LVL17
 5862 007b AE000000 		.4byte	.LVL38
 5863 007f 0100     		.2byte	0x1
 5864 0081 55       		.byte	0x55
 5865 0082 AE000000 		.4byte	.LVL38
 5866 0086 B4000000 		.4byte	.LFE207
 5867 008a 0400     		.2byte	0x4
 5868 008c F3       		.byte	0xf3
 5869 008d 01       		.uleb128 0x1
 5870 008e 50       		.byte	0x50
 5871 008f 9F       		.byte	0x9f
 5872 0090 00000000 		.4byte	0
 5873 0094 00000000 		.4byte	0
 5874              	.LLST5:
 5875 0098 00000000 		.4byte	.LVL12
 5876 009c 20000000 		.4byte	.LVL17
 5877 00a0 0100     		.2byte	0x1
 5878 00a2 51       		.byte	0x51
 5879 00a3 20000000 		.4byte	.LVL17
 5880 00a7 AE000000 		.4byte	.LVL37
 5881 00ab 0100     		.2byte	0x1
 5882 00ad 54       		.byte	0x54
 5883 00ae AE000000 		.4byte	.LVL37
 5884 00b2 B4000000 		.4byte	.LFE207
 5885 00b6 0400     		.2byte	0x4
ARM GAS  /tmp/ccFRKuha.s 			page 132


 5886 00b8 F3       		.byte	0xf3
 5887 00b9 01       		.uleb128 0x1
 5888 00ba 51       		.byte	0x51
 5889 00bb 9F       		.byte	0x9f
 5890 00bc 00000000 		.4byte	0
 5891 00c0 00000000 		.4byte	0
 5892              	.LLST6:
 5893 00c4 06000000 		.4byte	.LVL13
 5894 00c8 20000000 		.4byte	.LVL17
 5895 00cc 0100     		.2byte	0x1
 5896 00ce 50       		.byte	0x50
 5897 00cf 20000000 		.4byte	.LVL17
 5898 00d3 AE000000 		.4byte	.LVL38
 5899 00d7 0100     		.2byte	0x1
 5900 00d9 55       		.byte	0x55
 5901 00da AE000000 		.4byte	.LVL38
 5902 00de B4000000 		.4byte	.LFE207
 5903 00e2 0400     		.2byte	0x4
 5904 00e4 F3       		.byte	0xf3
 5905 00e5 01       		.uleb128 0x1
 5906 00e6 50       		.byte	0x50
 5907 00e7 9F       		.byte	0x9f
 5908 00e8 00000000 		.4byte	0
 5909 00ec 00000000 		.4byte	0
 5910              	.LLST7:
 5911 00f0 0E000000 		.4byte	.LVL14
 5912 00f4 12000000 		.4byte	.LVL15
 5913 00f8 0100     		.2byte	0x1
 5914 00fa 50       		.byte	0x50
 5915 00fb 00000000 		.4byte	0
 5916 00ff 00000000 		.4byte	0
 5917              	.LLST8:
 5918 0103 12000000 		.4byte	.LVL15
 5919 0107 20000000 		.4byte	.LVL17
 5920 010b 0100     		.2byte	0x1
 5921 010d 50       		.byte	0x50
 5922 010e 20000000 		.4byte	.LVL17
 5923 0112 AE000000 		.4byte	.LVL38
 5924 0116 0100     		.2byte	0x1
 5925 0118 55       		.byte	0x55
 5926 0119 AE000000 		.4byte	.LVL38
 5927 011d B4000000 		.4byte	.LFE207
 5928 0121 0400     		.2byte	0x4
 5929 0123 F3       		.byte	0xf3
 5930 0124 01       		.uleb128 0x1
 5931 0125 50       		.byte	0x50
 5932 0126 9F       		.byte	0x9f
 5933 0127 00000000 		.4byte	0
 5934 012b 00000000 		.4byte	0
 5935              	.LLST9:
 5936 012f 16000000 		.4byte	.LVL16
 5937 0133 20000000 		.4byte	.LVL17
 5938 0137 0100     		.2byte	0x1
 5939 0139 50       		.byte	0x50
 5940 013a 20000000 		.4byte	.LVL17
 5941 013e AE000000 		.4byte	.LVL38
 5942 0142 0100     		.2byte	0x1
ARM GAS  /tmp/ccFRKuha.s 			page 133


 5943 0144 55       		.byte	0x55
 5944 0145 AE000000 		.4byte	.LVL38
 5945 0149 B4000000 		.4byte	.LFE207
 5946 014d 0400     		.2byte	0x4
 5947 014f F3       		.byte	0xf3
 5948 0150 01       		.uleb128 0x1
 5949 0151 50       		.byte	0x50
 5950 0152 9F       		.byte	0x9f
 5951 0153 00000000 		.4byte	0
 5952 0157 00000000 		.4byte	0
 5953              	.LLST10:
 5954 015b 28000000 		.4byte	.LVL18
 5955 015f 56000000 		.4byte	.LVL26
 5956 0163 0200     		.2byte	0x2
 5957 0165 32       		.byte	0x32
 5958 0166 9F       		.byte	0x9f
 5959 0167 00000000 		.4byte	0
 5960 016b 00000000 		.4byte	0
 5961              	.LLST11:
 5962 016f 28000000 		.4byte	.LVL18
 5963 0173 56000000 		.4byte	.LVL26
 5964 0177 0100     		.2byte	0x1
 5965 0179 55       		.byte	0x55
 5966 017a 00000000 		.4byte	0
 5967 017e 00000000 		.4byte	0
 5968              	.LLST12:
 5969 0182 34000000 		.4byte	.LVL19
 5970 0186 46000000 		.4byte	.LVL24
 5971 018a 0100     		.2byte	0x1
 5972 018c 54       		.byte	0x54
 5973 018d 00000000 		.4byte	0
 5974 0191 00000000 		.4byte	0
 5975              	.LLST13:
 5976 0195 34000000 		.4byte	.LVL19
 5977 0199 46000000 		.4byte	.LVL24
 5978 019d 0100     		.2byte	0x1
 5979 019f 55       		.byte	0x55
 5980 01a0 00000000 		.4byte	0
 5981 01a4 00000000 		.4byte	0
 5982              	.LLST14:
 5983 01a8 3A000000 		.4byte	.LVL20
 5984 01ac 3C000000 		.4byte	.LVL21
 5985 01b0 0500     		.2byte	0x5
 5986 01b2 72       		.byte	0x72
 5987 01b3 00       		.sleb128 0
 5988 01b4 73       		.byte	0x73
 5989 01b5 00       		.sleb128 0
 5990 01b6 22       		.byte	0x22
 5991 01b7 3C000000 		.4byte	.LVL21
 5992 01bb 3E000000 		.4byte	.LVL22
 5993 01bf 0600     		.2byte	0x6
 5994 01c1 74       		.byte	0x74
 5995 01c2 00       		.sleb128 0
 5996 01c3 06       		.byte	0x6
 5997 01c4 73       		.byte	0x73
 5998 01c5 00       		.sleb128 0
 5999 01c6 22       		.byte	0x22
ARM GAS  /tmp/ccFRKuha.s 			page 134


 6000 01c7 00000000 		.4byte	0
 6001 01cb 00000000 		.4byte	0
 6002              	.LLST15:
 6003 01cf 3A000000 		.4byte	.LVL20
 6004 01d3 3E000000 		.4byte	.LVL22
 6005 01d7 0100     		.2byte	0x1
 6006 01d9 55       		.byte	0x55
 6007 01da 00000000 		.4byte	0
 6008 01de 00000000 		.4byte	0
 6009              	.LLST16:
 6010 01e2 3E000000 		.4byte	.LVL22
 6011 01e6 40000000 		.4byte	.LVL23
 6012 01ea 0300     		.2byte	0x3
 6013 01ec 09       		.byte	0x9
 6014 01ed FF       		.byte	0xff
 6015 01ee 9F       		.byte	0x9f
 6016 01ef 00000000 		.4byte	0
 6017 01f3 00000000 		.4byte	0
 6018              	.LLST17:
 6019 01f7 3E000000 		.4byte	.LVL22
 6020 01fb 40000000 		.4byte	.LVL23
 6021 01ff 0100     		.2byte	0x1
 6022 0201 55       		.byte	0x55
 6023 0202 00000000 		.4byte	0
 6024 0206 00000000 		.4byte	0
 6025              	.LLST18:
 6026 020a 46000000 		.4byte	.LVL24
 6027 020e 56000000 		.4byte	.LVL26
 6028 0212 0200     		.2byte	0x2
 6029 0214 31       		.byte	0x31
 6030 0215 9F       		.byte	0x9f
 6031 0216 00000000 		.4byte	0
 6032 021a 00000000 		.4byte	0
 6033              	.LLST19:
 6034 021e 46000000 		.4byte	.LVL24
 6035 0222 56000000 		.4byte	.LVL26
 6036 0226 0100     		.2byte	0x1
 6037 0228 55       		.byte	0x55
 6038 0229 00000000 		.4byte	0
 6039 022d 00000000 		.4byte	0
 6040              	.LLST20:
 6041 0231 6C000000 		.4byte	.LVL27
 6042 0235 80000000 		.4byte	.LVL29
 6043 0239 0200     		.2byte	0x2
 6044 023b 32       		.byte	0x32
 6045 023c 9F       		.byte	0x9f
 6046 023d 8A000000 		.4byte	.LVL30
 6047 0241 A4000000 		.4byte	.LVL36
 6048 0245 0200     		.2byte	0x2
 6049 0247 32       		.byte	0x32
 6050 0248 9F       		.byte	0x9f
 6051 0249 00000000 		.4byte	0
 6052 024d 00000000 		.4byte	0
 6053              	.LLST21:
 6054 0251 6C000000 		.4byte	.LVL27
 6055 0255 80000000 		.4byte	.LVL29
 6056 0259 0100     		.2byte	0x1
ARM GAS  /tmp/ccFRKuha.s 			page 135


 6057 025b 55       		.byte	0x55
 6058 025c 8A000000 		.4byte	.LVL30
 6059 0260 A4000000 		.4byte	.LVL36
 6060 0264 0100     		.2byte	0x1
 6061 0266 55       		.byte	0x55
 6062 0267 00000000 		.4byte	0
 6063 026b 00000000 		.4byte	0
 6064              	.LLST22:
 6065 026f 72000000 		.4byte	.LVL28
 6066 0273 80000000 		.4byte	.LVL29
 6067 0277 0200     		.2byte	0x2
 6068 0279 31       		.byte	0x31
 6069 027a 9F       		.byte	0x9f
 6070 027b 00000000 		.4byte	0
 6071 027f 00000000 		.4byte	0
 6072              	.LLST23:
 6073 0283 72000000 		.4byte	.LVL28
 6074 0287 80000000 		.4byte	.LVL29
 6075 028b 0100     		.2byte	0x1
 6076 028d 55       		.byte	0x55
 6077 028e 00000000 		.4byte	0
 6078 0292 00000000 		.4byte	0
 6079              	.LLST24:
 6080 0296 90000000 		.4byte	.LVL31
 6081 029a A4000000 		.4byte	.LVL36
 6082 029e 0100     		.2byte	0x1
 6083 02a0 54       		.byte	0x54
 6084 02a1 00000000 		.4byte	0
 6085 02a5 00000000 		.4byte	0
 6086              	.LLST25:
 6087 02a9 90000000 		.4byte	.LVL31
 6088 02ad A4000000 		.4byte	.LVL36
 6089 02b1 0100     		.2byte	0x1
 6090 02b3 55       		.byte	0x55
 6091 02b4 00000000 		.4byte	0
 6092 02b8 00000000 		.4byte	0
 6093              	.LLST26:
 6094 02bc 96000000 		.4byte	.LVL32
 6095 02c0 98000000 		.4byte	.LVL33
 6096 02c4 0B00     		.2byte	0xb
 6097 02c6 72       		.byte	0x72
 6098 02c7 00       		.sleb128 0
 6099 02c8 73       		.byte	0x73
 6100 02c9 00       		.sleb128 0
 6101 02ca 22       		.byte	0x22
 6102 02cb 94       		.byte	0x94
 6103 02cc 01       		.byte	0x1
 6104 02cd 08       		.byte	0x8
 6105 02ce FF       		.byte	0xff
 6106 02cf 1A       		.byte	0x1a
 6107 02d0 9F       		.byte	0x9f
 6108 02d1 98000000 		.4byte	.LVL33
 6109 02d5 9A000000 		.4byte	.LVL34
 6110 02d9 0C00     		.2byte	0xc
 6111 02db 74       		.byte	0x74
 6112 02dc 00       		.sleb128 0
 6113 02dd 06       		.byte	0x6
ARM GAS  /tmp/ccFRKuha.s 			page 136


 6114 02de 73       		.byte	0x73
 6115 02df 00       		.sleb128 0
 6116 02e0 22       		.byte	0x22
 6117 02e1 94       		.byte	0x94
 6118 02e2 01       		.byte	0x1
 6119 02e3 08       		.byte	0x8
 6120 02e4 FF       		.byte	0xff
 6121 02e5 1A       		.byte	0x1a
 6122 02e6 9F       		.byte	0x9f
 6123 02e7 00000000 		.4byte	0
 6124 02eb 00000000 		.4byte	0
 6125              	.LLST27:
 6126 02ef 96000000 		.4byte	.LVL32
 6127 02f3 9A000000 		.4byte	.LVL34
 6128 02f7 0100     		.2byte	0x1
 6129 02f9 55       		.byte	0x55
 6130 02fa 00000000 		.4byte	0
 6131 02fe 00000000 		.4byte	0
 6132              	.LLST28:
 6133 0302 9A000000 		.4byte	.LVL34
 6134 0306 9C000000 		.4byte	.LVL35
 6135 030a 0300     		.2byte	0x3
 6136 030c 08       		.byte	0x8
 6137 030d FF       		.byte	0xff
 6138 030e 9F       		.byte	0x9f
 6139 030f 00000000 		.4byte	0
 6140 0313 00000000 		.4byte	0
 6141              	.LLST29:
 6142 0317 9A000000 		.4byte	.LVL34
 6143 031b 9C000000 		.4byte	.LVL35
 6144 031f 0100     		.2byte	0x1
 6145 0321 55       		.byte	0x55
 6146 0322 00000000 		.4byte	0
 6147 0326 00000000 		.4byte	0
 6148              	.LLST30:
 6149 032a 00000000 		.4byte	.LVL39
 6150 032e 04000000 		.4byte	.LVL41
 6151 0332 0100     		.2byte	0x1
 6152 0334 50       		.byte	0x50
 6153 0335 04000000 		.4byte	.LVL41
 6154 0339 8C000000 		.4byte	.LFE208
 6155 033d 0100     		.2byte	0x1
 6156 033f 53       		.byte	0x53
 6157 0340 00000000 		.4byte	0
 6158 0344 00000000 		.4byte	0
 6159              	.LLST31:
 6160 0348 00000000 		.4byte	.LVL39
 6161 034c 26000000 		.4byte	.LVL45
 6162 0350 0100     		.2byte	0x1
 6163 0352 51       		.byte	0x51
 6164 0353 26000000 		.4byte	.LVL45
 6165 0357 8C000000 		.4byte	.LFE208
 6166 035b 0400     		.2byte	0x4
 6167 035d F3       		.byte	0xf3
 6168 035e 01       		.uleb128 0x1
 6169 035f 51       		.byte	0x51
 6170 0360 9F       		.byte	0x9f
ARM GAS  /tmp/ccFRKuha.s 			page 137


 6171 0361 00000000 		.4byte	0
 6172 0365 00000000 		.4byte	0
 6173              	.LLST32:
 6174 0369 02000000 		.4byte	.LVL40
 6175 036d 26000000 		.4byte	.LVL45
 6176 0371 0200     		.2byte	0x2
 6177 0373 30       		.byte	0x30
 6178 0374 9F       		.byte	0x9f
 6179 0375 26000000 		.4byte	.LVL45
 6180 0379 38000000 		.4byte	.LVL48
 6181 037d 0100     		.2byte	0x1
 6182 037f 54       		.byte	0x54
 6183 0380 38000000 		.4byte	.LVL48
 6184 0384 3C000000 		.4byte	.LVL50
 6185 0388 0300     		.2byte	0x3
 6186 038a 74       		.byte	0x74
 6187 038b 7E       		.sleb128 -2
 6188 038c 9F       		.byte	0x9f
 6189 038d 3C000000 		.4byte	.LVL50
 6190 0391 78000000 		.4byte	.LVL62
 6191 0395 0100     		.2byte	0x1
 6192 0397 54       		.byte	0x54
 6193 0398 78000000 		.4byte	.LVL62
 6194 039c 7C000000 		.4byte	.LVL64
 6195 03a0 0300     		.2byte	0x3
 6196 03a2 74       		.byte	0x74
 6197 03a3 7F       		.sleb128 -1
 6198 03a4 9F       		.byte	0x9f
 6199 03a5 7C000000 		.4byte	.LVL64
 6200 03a9 8A000000 		.4byte	.LVL69
 6201 03ad 0100     		.2byte	0x1
 6202 03af 54       		.byte	0x54
 6203 03b0 00000000 		.4byte	0
 6204 03b4 00000000 		.4byte	0
 6205              	.LLST33:
 6206 03b8 02000000 		.4byte	.LVL40
 6207 03bc 26000000 		.4byte	.LVL45
 6208 03c0 0200     		.2byte	0x2
 6209 03c2 30       		.byte	0x30
 6210 03c3 9F       		.byte	0x9f
 6211 03c4 26000000 		.4byte	.LVL45
 6212 03c8 8A000000 		.4byte	.LVL70
 6213 03cc 0100     		.2byte	0x1
 6214 03ce 55       		.byte	0x55
 6215 03cf 00000000 		.4byte	0
 6216 03d3 00000000 		.4byte	0
 6217              	.LLST34:
 6218 03d7 0C000000 		.4byte	.LVL42
 6219 03db 10000000 		.4byte	.LVL43
 6220 03df 0100     		.2byte	0x1
 6221 03e1 53       		.byte	0x53
 6222 03e2 00000000 		.4byte	0
 6223 03e6 00000000 		.4byte	0
 6224              	.LLST35:
 6225 03ea 26000000 		.4byte	.LVL45
 6226 03ee 54000000 		.4byte	.LVL55
 6227 03f2 0100     		.2byte	0x1
ARM GAS  /tmp/ccFRKuha.s 			page 138


 6228 03f4 51       		.byte	0x51
 6229 03f5 00000000 		.4byte	0
 6230 03f9 00000000 		.4byte	0
 6231              	.LLST36:
 6232 03fd 2A000000 		.4byte	.LVL46
 6233 0401 4E000000 		.4byte	.LVL54
 6234 0405 0200     		.2byte	0x2
 6235 0407 32       		.byte	0x32
 6236 0408 9F       		.byte	0x9f
 6237 0409 00000000 		.4byte	0
 6238 040d 00000000 		.4byte	0
 6239              	.LLST37:
 6240 0411 2A000000 		.4byte	.LVL46
 6241 0415 4E000000 		.4byte	.LVL54
 6242 0419 0100     		.2byte	0x1
 6243 041b 53       		.byte	0x53
 6244 041c 00000000 		.4byte	0
 6245 0420 00000000 		.4byte	0
 6246              	.LLST38:
 6247 0424 34000000 		.4byte	.LVL47
 6248 0428 3A000000 		.4byte	.LVL49
 6249 042c 0200     		.2byte	0x2
 6250 042e 71       		.byte	0x71
 6251 042f 00       		.sleb128 0
 6252 0430 3A000000 		.4byte	.LVL49
 6253 0434 3C000000 		.4byte	.LVL50
 6254 0438 0100     		.2byte	0x1
 6255 043a 56       		.byte	0x56
 6256 043b 00000000 		.4byte	0
 6257 043f 00000000 		.4byte	0
 6258              	.LLST39:
 6259 0443 34000000 		.4byte	.LVL47
 6260 0447 3C000000 		.4byte	.LVL50
 6261 044b 0100     		.2byte	0x1
 6262 044d 53       		.byte	0x53
 6263 044e 00000000 		.4byte	0
 6264 0452 00000000 		.4byte	0
 6265              	.LLST40:
 6266 0456 3C000000 		.4byte	.LVL50
 6267 045a 4E000000 		.4byte	.LVL54
 6268 045e 0200     		.2byte	0x2
 6269 0460 31       		.byte	0x31
 6270 0461 9F       		.byte	0x9f
 6271 0462 00000000 		.4byte	0
 6272 0466 00000000 		.4byte	0
 6273              	.LLST41:
 6274 046a 3C000000 		.4byte	.LVL50
 6275 046e 4E000000 		.4byte	.LVL54
 6276 0472 0100     		.2byte	0x1
 6277 0474 53       		.byte	0x53
 6278 0475 00000000 		.4byte	0
 6279 0479 00000000 		.4byte	0
 6280              	.LLST42:
 6281 047d 42000000 		.4byte	.LVL51
 6282 0481 4E000000 		.4byte	.LVL54
 6283 0485 0200     		.2byte	0x2
 6284 0487 34       		.byte	0x34
ARM GAS  /tmp/ccFRKuha.s 			page 139


 6285 0488 9F       		.byte	0x9f
 6286 0489 00000000 		.4byte	0
 6287 048d 00000000 		.4byte	0
 6288              	.LLST43:
 6289 0491 42000000 		.4byte	.LVL51
 6290 0495 4E000000 		.4byte	.LVL54
 6291 0499 0100     		.2byte	0x1
 6292 049b 53       		.byte	0x53
 6293 049c 00000000 		.4byte	0
 6294 04a0 00000000 		.4byte	0
 6295              	.LLST44:
 6296 04a4 48000000 		.4byte	.LVL52
 6297 04a8 4E000000 		.4byte	.LVL54
 6298 04ac 0100     		.2byte	0x1
 6299 04ae 53       		.byte	0x53
 6300 04af 00000000 		.4byte	0
 6301 04b3 00000000 		.4byte	0
 6302              	.LLST45:
 6303 04b7 54000000 		.4byte	.LVL55
 6304 04bb 88000000 		.4byte	.LVL68
 6305 04bf 0100     		.2byte	0x1
 6306 04c1 51       		.byte	0x51
 6307 04c2 00000000 		.4byte	0
 6308 04c6 00000000 		.4byte	0
 6309              	.LLST46:
 6310 04ca 58000000 		.4byte	.LVL56
 6311 04ce 6A000000 		.4byte	.LVL59
 6312 04d2 0200     		.2byte	0x2
 6313 04d4 32       		.byte	0x32
 6314 04d5 9F       		.byte	0x9f
 6315 04d6 70000000 		.4byte	.LVL60
 6316 04da 88000000 		.4byte	.LVL68
 6317 04de 0200     		.2byte	0x2
 6318 04e0 32       		.byte	0x32
 6319 04e1 9F       		.byte	0x9f
 6320 04e2 00000000 		.4byte	0
 6321 04e6 00000000 		.4byte	0
 6322              	.LLST47:
 6323 04ea 58000000 		.4byte	.LVL56
 6324 04ee 6A000000 		.4byte	.LVL59
 6325 04f2 0100     		.2byte	0x1
 6326 04f4 53       		.byte	0x53
 6327 04f5 70000000 		.4byte	.LVL60
 6328 04f9 88000000 		.4byte	.LVL68
 6329 04fd 0100     		.2byte	0x1
 6330 04ff 53       		.byte	0x53
 6331 0500 00000000 		.4byte	0
 6332 0504 00000000 		.4byte	0
 6333              	.LLST48:
 6334 0508 5E000000 		.4byte	.LVL57
 6335 050c 6A000000 		.4byte	.LVL59
 6336 0510 0200     		.2byte	0x2
 6337 0512 31       		.byte	0x31
 6338 0513 9F       		.byte	0x9f
 6339 0514 7E000000 		.4byte	.LVL65
 6340 0518 88000000 		.4byte	.LVL68
 6341 051c 0200     		.2byte	0x2
ARM GAS  /tmp/ccFRKuha.s 			page 140


 6342 051e 31       		.byte	0x31
 6343 051f 9F       		.byte	0x9f
 6344 0520 00000000 		.4byte	0
 6345 0524 00000000 		.4byte	0
 6346              	.LLST49:
 6347 0528 5E000000 		.4byte	.LVL57
 6348 052c 6A000000 		.4byte	.LVL59
 6349 0530 0100     		.2byte	0x1
 6350 0532 53       		.byte	0x53
 6351 0533 7E000000 		.4byte	.LVL65
 6352 0537 88000000 		.4byte	.LVL68
 6353 053b 0100     		.2byte	0x1
 6354 053d 53       		.byte	0x53
 6355 053e 00000000 		.4byte	0
 6356 0542 00000000 		.4byte	0
 6357              	.LLST50:
 6358 0546 64000000 		.4byte	.LVL58
 6359 054a 6A000000 		.4byte	.LVL59
 6360 054e 0200     		.2byte	0x2
 6361 0550 34       		.byte	0x34
 6362 0551 9F       		.byte	0x9f
 6363 0552 7E000000 		.4byte	.LVL65
 6364 0556 88000000 		.4byte	.LVL68
 6365 055a 0200     		.2byte	0x2
 6366 055c 34       		.byte	0x34
 6367 055d 9F       		.byte	0x9f
 6368 055e 00000000 		.4byte	0
 6369 0562 00000000 		.4byte	0
 6370              	.LLST51:
 6371 0566 64000000 		.4byte	.LVL58
 6372 056a 6A000000 		.4byte	.LVL59
 6373 056e 0100     		.2byte	0x1
 6374 0570 53       		.byte	0x53
 6375 0571 7E000000 		.4byte	.LVL65
 6376 0575 88000000 		.4byte	.LVL68
 6377 0579 0100     		.2byte	0x1
 6378 057b 53       		.byte	0x53
 6379 057c 00000000 		.4byte	0
 6380 0580 00000000 		.4byte	0
 6381              	.LLST52:
 6382 0584 74000000 		.4byte	.LVL61
 6383 0588 7A000000 		.4byte	.LVL63
 6384 058c 0800     		.2byte	0x8
 6385 058e 71       		.byte	0x71
 6386 058f 00       		.sleb128 0
 6387 0590 94       		.byte	0x94
 6388 0591 01       		.byte	0x1
 6389 0592 08       		.byte	0x8
 6390 0593 FF       		.byte	0xff
 6391 0594 1A       		.byte	0x1a
 6392 0595 9F       		.byte	0x9f
 6393 0596 7A000000 		.4byte	.LVL63
 6394 059a 7E000000 		.4byte	.LVL65
 6395 059e 0600     		.2byte	0x6
 6396 05a0 76       		.byte	0x76
 6397 05a1 00       		.sleb128 0
 6398 05a2 08       		.byte	0x8
ARM GAS  /tmp/ccFRKuha.s 			page 141


 6399 05a3 FF       		.byte	0xff
 6400 05a4 1A       		.byte	0x1a
 6401 05a5 9F       		.byte	0x9f
 6402 05a6 00000000 		.4byte	0
 6403 05aa 00000000 		.4byte	0
 6404              	.LLST53:
 6405 05ae 74000000 		.4byte	.LVL61
 6406 05b2 7E000000 		.4byte	.LVL65
 6407 05b6 0100     		.2byte	0x1
 6408 05b8 53       		.byte	0x53
 6409 05b9 00000000 		.4byte	0
 6410 05bd 00000000 		.4byte	0
 6411              	.LLST54:
 6412 05c1 82000000 		.4byte	.LVL66
 6413 05c5 88000000 		.4byte	.LVL68
 6414 05c9 0100     		.2byte	0x1
 6415 05cb 53       		.byte	0x53
 6416 05cc 00000000 		.4byte	0
 6417 05d0 00000000 		.4byte	0
 6418              	.LLST55:
 6419 05d4 00000000 		.4byte	.LVL71
 6420 05d8 06000000 		.4byte	.LVL72
 6421 05dc 0100     		.2byte	0x1
 6422 05de 50       		.byte	0x50
 6423 05df 06000000 		.4byte	.LVL72
 6424 05e3 C0000000 		.4byte	.LFE209
 6425 05e7 0100     		.2byte	0x1
 6426 05e9 53       		.byte	0x53
 6427 05ea 00000000 		.4byte	0
 6428 05ee 00000000 		.4byte	0
 6429              	.LLST56:
 6430 05f2 00000000 		.4byte	.LVL71
 6431 05f6 28000000 		.4byte	.LVL76
 6432 05fa 0100     		.2byte	0x1
 6433 05fc 51       		.byte	0x51
 6434 05fd 28000000 		.4byte	.LVL76
 6435 0601 C0000000 		.4byte	.LFE209
 6436 0605 0400     		.2byte	0x4
 6437 0607 F3       		.byte	0xf3
 6438 0608 01       		.uleb128 0x1
 6439 0609 51       		.byte	0x51
 6440 060a 9F       		.byte	0x9f
 6441 060b 00000000 		.4byte	0
 6442 060f 00000000 		.4byte	0
 6443              	.LLST57:
 6444 0613 06000000 		.4byte	.LVL72
 6445 0617 28000000 		.4byte	.LVL76
 6446 061b 0200     		.2byte	0x2
 6447 061d 30       		.byte	0x30
 6448 061e 9F       		.byte	0x9f
 6449 061f 28000000 		.4byte	.LVL76
 6450 0623 44000000 		.4byte	.LVL81
 6451 0627 0100     		.2byte	0x1
 6452 0629 54       		.byte	0x54
 6453 062a 44000000 		.4byte	.LVL81
 6454 062e 6A000000 		.4byte	.LVL88
 6455 0632 0100     		.2byte	0x1
ARM GAS  /tmp/ccFRKuha.s 			page 142


 6456 0634 55       		.byte	0x55
 6457 0635 6A000000 		.4byte	.LVL88
 6458 0639 82000000 		.4byte	.LVL92
 6459 063d 0100     		.2byte	0x1
 6460 063f 54       		.byte	0x54
 6461 0640 82000000 		.4byte	.LVL92
 6462 0644 92000000 		.4byte	.LVL94
 6463 0648 0100     		.2byte	0x1
 6464 064a 55       		.byte	0x55
 6465 064b 92000000 		.4byte	.LVL94
 6466 064f A4000000 		.4byte	.LVL98
 6467 0653 0100     		.2byte	0x1
 6468 0655 54       		.byte	0x54
 6469 0656 A4000000 		.4byte	.LVL98
 6470 065a B8000000 		.4byte	.LVL103
 6471 065e 0100     		.2byte	0x1
 6472 0660 55       		.byte	0x55
 6473 0661 B8000000 		.4byte	.LVL103
 6474 0665 BA000000 		.4byte	.LVL104
 6475 0669 0100     		.2byte	0x1
 6476 066b 54       		.byte	0x54
 6477 066c 00000000 		.4byte	0
 6478 0670 00000000 		.4byte	0
 6479              	.LLST58:
 6480 0674 06000000 		.4byte	.LVL72
 6481 0678 28000000 		.4byte	.LVL76
 6482 067c 0200     		.2byte	0x2
 6483 067e 30       		.byte	0x30
 6484 067f 9F       		.byte	0x9f
 6485 0680 28000000 		.4byte	.LVL76
 6486 0684 BA000000 		.4byte	.LVL105
 6487 0688 0100     		.2byte	0x1
 6488 068a 56       		.byte	0x56
 6489 068b 00000000 		.4byte	0
 6490 068f 00000000 		.4byte	0
 6491              	.LLST59:
 6492 0693 0E000000 		.4byte	.LVL73
 6493 0697 12000000 		.4byte	.LVL74
 6494 069b 0100     		.2byte	0x1
 6495 069d 53       		.byte	0x53
 6496 069e 00000000 		.4byte	0
 6497 06a2 00000000 		.4byte	0
 6498              	.LLST60:
 6499 06a6 28000000 		.4byte	.LVL76
 6500 06aa 44000000 		.4byte	.LVL81
 6501 06ae 0200     		.2byte	0x2
 6502 06b0 91       		.byte	0x91
 6503 06b1 64       		.sleb128 -28
 6504 06b2 4A000000 		.4byte	.LVL82
 6505 06b6 56000000 		.4byte	.LVL84
 6506 06ba 0100     		.2byte	0x1
 6507 06bc 57       		.byte	0x57
 6508 06bd 56000000 		.4byte	.LVL84
 6509 06c1 60000000 		.4byte	.LVL85
 6510 06c5 0A00     		.2byte	0xa
 6511 06c7 75       		.byte	0x75
 6512 06c8 00       		.sleb128 0
ARM GAS  /tmp/ccFRKuha.s 			page 143


 6513 06c9 74       		.byte	0x74
 6514 06ca 00       		.sleb128 0
 6515 06cb 1C       		.byte	0x1c
 6516 06cc 91       		.byte	0x91
 6517 06cd 64       		.sleb128 -28
 6518 06ce 06       		.byte	0x6
 6519 06cf 22       		.byte	0x22
 6520 06d0 9F       		.byte	0x9f
 6521 06d1 60000000 		.4byte	.LVL85
 6522 06d5 62000000 		.4byte	.LVL86
 6523 06d9 0C00     		.2byte	0xc
 6524 06db 91       		.byte	0x91
 6525 06dc 64       		.sleb128 -28
 6526 06dd 06       		.byte	0x6
 6527 06de 74       		.byte	0x74
 6528 06df 00       		.sleb128 0
 6529 06e0 1C       		.byte	0x1c
 6530 06e1 75       		.byte	0x75
 6531 06e2 00       		.sleb128 0
 6532 06e3 22       		.byte	0x22
 6533 06e4 23       		.byte	0x23
 6534 06e5 02       		.uleb128 0x2
 6535 06e6 9F       		.byte	0x9f
 6536 06e7 62000000 		.4byte	.LVL86
 6537 06eb 64000000 		.4byte	.LVL87
 6538 06ef 0A00     		.2byte	0xa
 6539 06f1 75       		.byte	0x75
 6540 06f2 00       		.sleb128 0
 6541 06f3 74       		.byte	0x74
 6542 06f4 00       		.sleb128 0
 6543 06f5 1C       		.byte	0x1c
 6544 06f6 91       		.byte	0x91
 6545 06f7 64       		.sleb128 -28
 6546 06f8 06       		.byte	0x6
 6547 06f9 22       		.byte	0x22
 6548 06fa 9F       		.byte	0x9f
 6549 06fb 64000000 		.4byte	.LVL87
 6550 06ff 6A000000 		.4byte	.LVL88
 6551 0703 0100     		.2byte	0x1
 6552 0705 57       		.byte	0x57
 6553 0706 6A000000 		.4byte	.LVL88
 6554 070a 70000000 		.4byte	.LVL89
 6555 070e 0200     		.2byte	0x2
 6556 0710 91       		.byte	0x91
 6557 0711 64       		.sleb128 -28
 6558 0712 00000000 		.4byte	0
 6559 0716 00000000 		.4byte	0
 6560              	.LLST61:
 6561 071a 2C000000 		.4byte	.LVL77
 6562 071e 6A000000 		.4byte	.LVL88
 6563 0722 0200     		.2byte	0x2
 6564 0724 32       		.byte	0x32
 6565 0725 9F       		.byte	0x9f
 6566 0726 00000000 		.4byte	0
 6567 072a 00000000 		.4byte	0
 6568              	.LLST62:
 6569 072e 2C000000 		.4byte	.LVL77
ARM GAS  /tmp/ccFRKuha.s 			page 144


 6570 0732 6A000000 		.4byte	.LVL88
 6571 0736 0100     		.2byte	0x1
 6572 0738 53       		.byte	0x53
 6573 0739 00000000 		.4byte	0
 6574 073d 00000000 		.4byte	0
 6575              	.LLST63:
 6576 0741 36000000 		.4byte	.LVL78
 6577 0745 3C000000 		.4byte	.LVL80
 6578 0749 0300     		.2byte	0x3
 6579 074b 09       		.byte	0x9
 6580 074c FF       		.byte	0xff
 6581 074d 9F       		.byte	0x9f
 6582 074e 00000000 		.4byte	0
 6583 0752 00000000 		.4byte	0
 6584              	.LLST64:
 6585 0756 36000000 		.4byte	.LVL78
 6586 075a 3C000000 		.4byte	.LVL80
 6587 075e 0100     		.2byte	0x1
 6588 0760 53       		.byte	0x53
 6589 0761 00000000 		.4byte	0
 6590 0765 00000000 		.4byte	0
 6591              	.LLST65:
 6592 0769 3C000000 		.4byte	.LVL80
 6593 076d 6A000000 		.4byte	.LVL88
 6594 0771 0200     		.2byte	0x2
 6595 0773 31       		.byte	0x31
 6596 0774 9F       		.byte	0x9f
 6597 0775 00000000 		.4byte	0
 6598 0779 00000000 		.4byte	0
 6599              	.LLST66:
 6600 077d 3C000000 		.4byte	.LVL80
 6601 0781 6A000000 		.4byte	.LVL88
 6602 0785 0100     		.2byte	0x1
 6603 0787 53       		.byte	0x53
 6604 0788 00000000 		.4byte	0
 6605 078c 00000000 		.4byte	0
 6606              	.LLST67:
 6607 0790 4A000000 		.4byte	.LVL82
 6608 0794 6A000000 		.4byte	.LVL88
 6609 0798 0200     		.2byte	0x2
 6610 079a 34       		.byte	0x34
 6611 079b 9F       		.byte	0x9f
 6612 079c 00000000 		.4byte	0
 6613 07a0 00000000 		.4byte	0
 6614              	.LLST68:
 6615 07a4 4A000000 		.4byte	.LVL82
 6616 07a8 6A000000 		.4byte	.LVL88
 6617 07ac 0100     		.2byte	0x1
 6618 07ae 53       		.byte	0x53
 6619 07af 00000000 		.4byte	0
 6620 07b3 00000000 		.4byte	0
 6621              	.LLST69:
 6622 07b7 54000000 		.4byte	.LVL83
 6623 07bb 64000000 		.4byte	.LVL87
 6624 07bf 0100     		.2byte	0x1
 6625 07c1 53       		.byte	0x53
 6626 07c2 00000000 		.4byte	0
ARM GAS  /tmp/ccFRKuha.s 			page 145


 6627 07c6 00000000 		.4byte	0
 6628              	.LLST70:
 6629 07ca 70000000 		.4byte	.LVL89
 6630 07ce 82000000 		.4byte	.LVL92
 6631 07d2 0200     		.2byte	0x2
 6632 07d4 91       		.byte	0x91
 6633 07d5 64       		.sleb128 -28
 6634 07d6 88000000 		.4byte	.LVL93
 6635 07da 92000000 		.4byte	.LVL94
 6636 07de 0100     		.2byte	0x1
 6637 07e0 57       		.byte	0x57
 6638 07e1 92000000 		.4byte	.LVL94
 6639 07e5 A4000000 		.4byte	.LVL98
 6640 07e9 0200     		.2byte	0x2
 6641 07eb 91       		.byte	0x91
 6642 07ec 64       		.sleb128 -28
 6643 07ed A4000000 		.4byte	.LVL98
 6644 07f1 B0000000 		.4byte	.LVL100
 6645 07f5 0100     		.2byte	0x1
 6646 07f7 57       		.byte	0x57
 6647 07f8 B0000000 		.4byte	.LVL100
 6648 07fc B4000000 		.4byte	.LVL101
 6649 0800 0A00     		.2byte	0xa
 6650 0802 75       		.byte	0x75
 6651 0803 00       		.sleb128 0
 6652 0804 74       		.byte	0x74
 6653 0805 00       		.sleb128 0
 6654 0806 1C       		.byte	0x1c
 6655 0807 91       		.byte	0x91
 6656 0808 64       		.sleb128 -28
 6657 0809 06       		.byte	0x6
 6658 080a 22       		.byte	0x22
 6659 080b 9F       		.byte	0x9f
 6660 080c B4000000 		.4byte	.LVL101
 6661 0810 B6000000 		.4byte	.LVL102
 6662 0814 0C00     		.2byte	0xc
 6663 0816 91       		.byte	0x91
 6664 0817 64       		.sleb128 -28
 6665 0818 06       		.byte	0x6
 6666 0819 74       		.byte	0x74
 6667 081a 00       		.sleb128 0
 6668 081b 1C       		.byte	0x1c
 6669 081c 75       		.byte	0x75
 6670 081d 00       		.sleb128 0
 6671 081e 22       		.byte	0x22
 6672 081f 23       		.byte	0x23
 6673 0820 01       		.uleb128 0x1
 6674 0821 9F       		.byte	0x9f
 6675 0822 B6000000 		.4byte	.LVL102
 6676 0826 B8000000 		.4byte	.LVL103
 6677 082a 0A00     		.2byte	0xa
 6678 082c 91       		.byte	0x91
 6679 082d 64       		.sleb128 -28
 6680 082e 06       		.byte	0x6
 6681 082f 74       		.byte	0x74
 6682 0830 00       		.sleb128 0
 6683 0831 1C       		.byte	0x1c
ARM GAS  /tmp/ccFRKuha.s 			page 146


 6684 0832 75       		.byte	0x75
 6685 0833 00       		.sleb128 0
 6686 0834 22       		.byte	0x22
 6687 0835 9F       		.byte	0x9f
 6688 0836 00000000 		.4byte	0
 6689 083a 00000000 		.4byte	0
 6690              	.LLST71:
 6691 083e 74000000 		.4byte	.LVL90
 6692 0842 92000000 		.4byte	.LVL94
 6693 0846 0200     		.2byte	0x2
 6694 0848 32       		.byte	0x32
 6695 0849 9F       		.byte	0x9f
 6696 084a 98000000 		.4byte	.LVL95
 6697 084e B8000000 		.4byte	.LVL103
 6698 0852 0200     		.2byte	0x2
 6699 0854 32       		.byte	0x32
 6700 0855 9F       		.byte	0x9f
 6701 0856 00000000 		.4byte	0
 6702 085a 00000000 		.4byte	0
 6703              	.LLST72:
 6704 085e 74000000 		.4byte	.LVL90
 6705 0862 92000000 		.4byte	.LVL94
 6706 0866 0100     		.2byte	0x1
 6707 0868 53       		.byte	0x53
 6708 0869 98000000 		.4byte	.LVL95
 6709 086d B8000000 		.4byte	.LVL103
 6710 0871 0100     		.2byte	0x1
 6711 0873 53       		.byte	0x53
 6712 0874 00000000 		.4byte	0
 6713 0878 00000000 		.4byte	0
 6714              	.LLST73:
 6715 087c 7A000000 		.4byte	.LVL91
 6716 0880 92000000 		.4byte	.LVL94
 6717 0884 0200     		.2byte	0x2
 6718 0886 31       		.byte	0x31
 6719 0887 9F       		.byte	0x9f
 6720 0888 A4000000 		.4byte	.LVL98
 6721 088c B8000000 		.4byte	.LVL103
 6722 0890 0200     		.2byte	0x2
 6723 0892 31       		.byte	0x31
 6724 0893 9F       		.byte	0x9f
 6725 0894 00000000 		.4byte	0
 6726 0898 00000000 		.4byte	0
 6727              	.LLST74:
 6728 089c 7A000000 		.4byte	.LVL91
 6729 08a0 92000000 		.4byte	.LVL94
 6730 08a4 0100     		.2byte	0x1
 6731 08a6 53       		.byte	0x53
 6732 08a7 A4000000 		.4byte	.LVL98
 6733 08ab B8000000 		.4byte	.LVL103
 6734 08af 0100     		.2byte	0x1
 6735 08b1 53       		.byte	0x53
 6736 08b2 00000000 		.4byte	0
 6737 08b6 00000000 		.4byte	0
 6738              	.LLST75:
 6739 08ba 88000000 		.4byte	.LVL93
 6740 08be 92000000 		.4byte	.LVL94
ARM GAS  /tmp/ccFRKuha.s 			page 147


 6741 08c2 0200     		.2byte	0x2
 6742 08c4 34       		.byte	0x34
 6743 08c5 9F       		.byte	0x9f
 6744 08c6 A4000000 		.4byte	.LVL98
 6745 08ca B8000000 		.4byte	.LVL103
 6746 08ce 0200     		.2byte	0x2
 6747 08d0 34       		.byte	0x34
 6748 08d1 9F       		.byte	0x9f
 6749 08d2 00000000 		.4byte	0
 6750 08d6 00000000 		.4byte	0
 6751              	.LLST76:
 6752 08da 88000000 		.4byte	.LVL93
 6753 08de 92000000 		.4byte	.LVL94
 6754 08e2 0100     		.2byte	0x1
 6755 08e4 53       		.byte	0x53
 6756 08e5 A4000000 		.4byte	.LVL98
 6757 08e9 B8000000 		.4byte	.LVL103
 6758 08ed 0100     		.2byte	0x1
 6759 08ef 53       		.byte	0x53
 6760 08f0 00000000 		.4byte	0
 6761 08f4 00000000 		.4byte	0
 6762              	.LLST77:
 6763 08f8 9C000000 		.4byte	.LVL96
 6764 08fc A4000000 		.4byte	.LVL98
 6765 0900 0300     		.2byte	0x3
 6766 0902 08       		.byte	0x8
 6767 0903 FF       		.byte	0xff
 6768 0904 9F       		.byte	0x9f
 6769 0905 00000000 		.4byte	0
 6770 0909 00000000 		.4byte	0
 6771              	.LLST78:
 6772 090d 9C000000 		.4byte	.LVL96
 6773 0911 A4000000 		.4byte	.LVL98
 6774 0915 0100     		.2byte	0x1
 6775 0917 53       		.byte	0x53
 6776 0918 00000000 		.4byte	0
 6777 091c 00000000 		.4byte	0
 6778              	.LLST79:
 6779 0920 A8000000 		.4byte	.LVL99
 6780 0924 B8000000 		.4byte	.LVL103
 6781 0928 0100     		.2byte	0x1
 6782 092a 53       		.byte	0x53
 6783 092b 00000000 		.4byte	0
 6784 092f 00000000 		.4byte	0
 6785              	.LLST80:
 6786 0933 0C000000 		.4byte	.LVL108
 6787 0937 10000000 		.4byte	.LVL109
 6788 093b 0100     		.2byte	0x1
 6789 093d 50       		.byte	0x50
 6790 093e 00000000 		.4byte	0
 6791 0942 00000000 		.4byte	0
 6792              	.LLST81:
 6793 0946 00000000 		.4byte	.LVL110
 6794 094a 08000000 		.4byte	.LVL111
 6795 094e 0100     		.2byte	0x1
 6796 0950 50       		.byte	0x50
 6797 0951 08000000 		.4byte	.LVL111
ARM GAS  /tmp/ccFRKuha.s 			page 148


 6798 0955 0C000000 		.4byte	.LVL112
 6799 0959 0400     		.2byte	0x4
 6800 095b F3       		.byte	0xf3
 6801 095c 01       		.uleb128 0x1
 6802 095d 50       		.byte	0x50
 6803 095e 9F       		.byte	0x9f
 6804 095f 0C000000 		.4byte	.LVL112
 6805 0963 1E000000 		.4byte	.LVL113
 6806 0967 0100     		.2byte	0x1
 6807 0969 50       		.byte	0x50
 6808 096a 1E000000 		.4byte	.LVL113
 6809 096e 50000000 		.4byte	.LVL122
 6810 0972 0100     		.2byte	0x1
 6811 0974 55       		.byte	0x55
 6812 0975 50000000 		.4byte	.LVL122
 6813 0979 52000000 		.4byte	.LFE211
 6814 097d 0400     		.2byte	0x4
 6815 097f F3       		.byte	0xf3
 6816 0980 01       		.uleb128 0x1
 6817 0981 50       		.byte	0x50
 6818 0982 9F       		.byte	0x9f
 6819 0983 00000000 		.4byte	0
 6820 0987 00000000 		.4byte	0
 6821              	.LLST82:
 6822 098b 00000000 		.4byte	.LVL110
 6823 098f 08000000 		.4byte	.LVL111
 6824 0993 0100     		.2byte	0x1
 6825 0995 51       		.byte	0x51
 6826 0996 08000000 		.4byte	.LVL111
 6827 099a 0C000000 		.4byte	.LVL112
 6828 099e 0400     		.2byte	0x4
 6829 09a0 F3       		.byte	0xf3
 6830 09a1 01       		.uleb128 0x1
 6831 09a2 51       		.byte	0x51
 6832 09a3 9F       		.byte	0x9f
 6833 09a4 0C000000 		.4byte	.LVL112
 6834 09a8 1E000000 		.4byte	.LVL113
 6835 09ac 0100     		.2byte	0x1
 6836 09ae 51       		.byte	0x51
 6837 09af 1E000000 		.4byte	.LVL113
 6838 09b3 50000000 		.4byte	.LVL122
 6839 09b7 0100     		.2byte	0x1
 6840 09b9 54       		.byte	0x54
 6841 09ba 50000000 		.4byte	.LVL122
 6842 09be 52000000 		.4byte	.LFE211
 6843 09c2 0400     		.2byte	0x4
 6844 09c4 F3       		.byte	0xf3
 6845 09c5 01       		.uleb128 0x1
 6846 09c6 51       		.byte	0x51
 6847 09c7 9F       		.byte	0x9f
 6848 09c8 00000000 		.4byte	0
 6849 09cc 00000000 		.4byte	0
 6850              	.LLST84:
 6851 09d0 26000000 		.4byte	.LVL114
 6852 09d4 50000000 		.4byte	.LVL122
 6853 09d8 0200     		.2byte	0x2
 6854 09da 32       		.byte	0x32
ARM GAS  /tmp/ccFRKuha.s 			page 149


 6855 09db 9F       		.byte	0x9f
 6856 09dc 00000000 		.4byte	0
 6857 09e0 00000000 		.4byte	0
 6858              	.LLST85:
 6859 09e4 26000000 		.4byte	.LVL114
 6860 09e8 50000000 		.4byte	.LVL122
 6861 09ec 0100     		.2byte	0x1
 6862 09ee 55       		.byte	0x55
 6863 09ef 00000000 		.4byte	0
 6864 09f3 00000000 		.4byte	0
 6865              	.LLST86:
 6866 09f7 34000000 		.4byte	.LVL115
 6867 09fb 4E000000 		.4byte	.LVL121
 6868 09ff 0100     		.2byte	0x1
 6869 0a01 54       		.byte	0x54
 6870 0a02 00000000 		.4byte	0
 6871 0a06 00000000 		.4byte	0
 6872              	.LLST87:
 6873 0a0a 34000000 		.4byte	.LVL115
 6874 0a0e 4E000000 		.4byte	.LVL121
 6875 0a12 0100     		.2byte	0x1
 6876 0a14 55       		.byte	0x55
 6877 0a15 00000000 		.4byte	0
 6878 0a19 00000000 		.4byte	0
 6879              	.LLST88:
 6880 0a1d 3A000000 		.4byte	.LVL116
 6881 0a21 3C000000 		.4byte	.LVL117
 6882 0a25 0B00     		.2byte	0xb
 6883 0a27 72       		.byte	0x72
 6884 0a28 00       		.sleb128 0
 6885 0a29 73       		.byte	0x73
 6886 0a2a 00       		.sleb128 0
 6887 0a2b 22       		.byte	0x22
 6888 0a2c 94       		.byte	0x94
 6889 0a2d 01       		.byte	0x1
 6890 0a2e 08       		.byte	0x8
 6891 0a2f FF       		.byte	0xff
 6892 0a30 1A       		.byte	0x1a
 6893 0a31 9F       		.byte	0x9f
 6894 0a32 3C000000 		.4byte	.LVL117
 6895 0a36 3E000000 		.4byte	.LVL118
 6896 0a3a 0C00     		.2byte	0xc
 6897 0a3c 74       		.byte	0x74
 6898 0a3d 00       		.sleb128 0
 6899 0a3e 06       		.byte	0x6
 6900 0a3f 73       		.byte	0x73
 6901 0a40 00       		.sleb128 0
 6902 0a41 22       		.byte	0x22
 6903 0a42 94       		.byte	0x94
 6904 0a43 01       		.byte	0x1
 6905 0a44 08       		.byte	0x8
 6906 0a45 FF       		.byte	0xff
 6907 0a46 1A       		.byte	0x1a
 6908 0a47 9F       		.byte	0x9f
 6909 0a48 00000000 		.4byte	0
 6910 0a4c 00000000 		.4byte	0
 6911              	.LLST89:
ARM GAS  /tmp/ccFRKuha.s 			page 150


 6912 0a50 3A000000 		.4byte	.LVL116
 6913 0a54 3E000000 		.4byte	.LVL118
 6914 0a58 0100     		.2byte	0x1
 6915 0a5a 55       		.byte	0x55
 6916 0a5b 00000000 		.4byte	0
 6917 0a5f 00000000 		.4byte	0
 6918              	.LLST90:
 6919 0a63 3E000000 		.4byte	.LVL118
 6920 0a67 40000000 		.4byte	.LVL119
 6921 0a6b 0300     		.2byte	0x3
 6922 0a6d 08       		.byte	0x8
 6923 0a6e FF       		.byte	0xff
 6924 0a6f 9F       		.byte	0x9f
 6925 0a70 00000000 		.4byte	0
 6926 0a74 00000000 		.4byte	0
 6927              	.LLST91:
 6928 0a78 3E000000 		.4byte	.LVL118
 6929 0a7c 40000000 		.4byte	.LVL119
 6930 0a80 0100     		.2byte	0x1
 6931 0a82 55       		.byte	0x55
 6932 0a83 00000000 		.4byte	0
 6933 0a87 00000000 		.4byte	0
 6934              	.LLST92:
 6935 0a8b 46000000 		.4byte	.LVL120
 6936 0a8f 4E000000 		.4byte	.LVL121
 6937 0a93 0200     		.2byte	0x2
 6938 0a95 31       		.byte	0x31
 6939 0a96 9F       		.byte	0x9f
 6940 0a97 00000000 		.4byte	0
 6941 0a9b 00000000 		.4byte	0
 6942              	.LLST93:
 6943 0a9f 46000000 		.4byte	.LVL120
 6944 0aa3 4E000000 		.4byte	.LVL121
 6945 0aa7 0100     		.2byte	0x1
 6946 0aa9 55       		.byte	0x55
 6947 0aaa 00000000 		.4byte	0
 6948 0aae 00000000 		.4byte	0
 6949              	.LLST94:
 6950 0ab2 00000000 		.4byte	.LVL123
 6951 0ab6 08000000 		.4byte	.LVL124
 6952 0aba 0100     		.2byte	0x1
 6953 0abc 50       		.byte	0x50
 6954 0abd 08000000 		.4byte	.LVL124
 6955 0ac1 0C000000 		.4byte	.LVL125
 6956 0ac5 0400     		.2byte	0x4
 6957 0ac7 F3       		.byte	0xf3
 6958 0ac8 01       		.uleb128 0x1
 6959 0ac9 50       		.byte	0x50
 6960 0aca 9F       		.byte	0x9f
 6961 0acb 0C000000 		.4byte	.LVL125
 6962 0acf 1E000000 		.4byte	.LVL126
 6963 0ad3 0100     		.2byte	0x1
 6964 0ad5 50       		.byte	0x50
 6965 0ad6 1E000000 		.4byte	.LVL126
 6966 0ada 50000000 		.4byte	.LVL135
 6967 0ade 0100     		.2byte	0x1
 6968 0ae0 55       		.byte	0x55
ARM GAS  /tmp/ccFRKuha.s 			page 151


 6969 0ae1 50000000 		.4byte	.LVL135
 6970 0ae5 58000000 		.4byte	.LFE212
 6971 0ae9 0400     		.2byte	0x4
 6972 0aeb F3       		.byte	0xf3
 6973 0aec 01       		.uleb128 0x1
 6974 0aed 50       		.byte	0x50
 6975 0aee 9F       		.byte	0x9f
 6976 0aef 00000000 		.4byte	0
 6977 0af3 00000000 		.4byte	0
 6978              	.LLST95:
 6979 0af7 00000000 		.4byte	.LVL123
 6980 0afb 08000000 		.4byte	.LVL124
 6981 0aff 0100     		.2byte	0x1
 6982 0b01 51       		.byte	0x51
 6983 0b02 08000000 		.4byte	.LVL124
 6984 0b06 0C000000 		.4byte	.LVL125
 6985 0b0a 0400     		.2byte	0x4
 6986 0b0c F3       		.byte	0xf3
 6987 0b0d 01       		.uleb128 0x1
 6988 0b0e 51       		.byte	0x51
 6989 0b0f 9F       		.byte	0x9f
 6990 0b10 0C000000 		.4byte	.LVL125
 6991 0b14 1E000000 		.4byte	.LVL126
 6992 0b18 0100     		.2byte	0x1
 6993 0b1a 51       		.byte	0x51
 6994 0b1b 1E000000 		.4byte	.LVL126
 6995 0b1f 50000000 		.4byte	.LVL135
 6996 0b23 0100     		.2byte	0x1
 6997 0b25 54       		.byte	0x54
 6998 0b26 50000000 		.4byte	.LVL135
 6999 0b2a 58000000 		.4byte	.LFE212
 7000 0b2e 0400     		.2byte	0x4
 7001 0b30 F3       		.byte	0xf3
 7002 0b31 01       		.uleb128 0x1
 7003 0b32 51       		.byte	0x51
 7004 0b33 9F       		.byte	0x9f
 7005 0b34 00000000 		.4byte	0
 7006 0b38 00000000 		.4byte	0
 7007              	.LLST97:
 7008 0b3c 26000000 		.4byte	.LVL127
 7009 0b40 50000000 		.4byte	.LVL135
 7010 0b44 0200     		.2byte	0x2
 7011 0b46 32       		.byte	0x32
 7012 0b47 9F       		.byte	0x9f
 7013 0b48 00000000 		.4byte	0
 7014 0b4c 00000000 		.4byte	0
 7015              	.LLST98:
 7016 0b50 26000000 		.4byte	.LVL127
 7017 0b54 50000000 		.4byte	.LVL135
 7018 0b58 0100     		.2byte	0x1
 7019 0b5a 55       		.byte	0x55
 7020 0b5b 00000000 		.4byte	0
 7021 0b5f 00000000 		.4byte	0
 7022              	.LLST99:
 7023 0b63 34000000 		.4byte	.LVL128
 7024 0b67 4E000000 		.4byte	.LVL134
 7025 0b6b 0100     		.2byte	0x1
ARM GAS  /tmp/ccFRKuha.s 			page 152


 7026 0b6d 54       		.byte	0x54
 7027 0b6e 00000000 		.4byte	0
 7028 0b72 00000000 		.4byte	0
 7029              	.LLST100:
 7030 0b76 34000000 		.4byte	.LVL128
 7031 0b7a 4E000000 		.4byte	.LVL134
 7032 0b7e 0100     		.2byte	0x1
 7033 0b80 55       		.byte	0x55
 7034 0b81 00000000 		.4byte	0
 7035 0b85 00000000 		.4byte	0
 7036              	.LLST101:
 7037 0b89 3A000000 		.4byte	.LVL129
 7038 0b8d 3C000000 		.4byte	.LVL130
 7039 0b91 0500     		.2byte	0x5
 7040 0b93 72       		.byte	0x72
 7041 0b94 00       		.sleb128 0
 7042 0b95 73       		.byte	0x73
 7043 0b96 00       		.sleb128 0
 7044 0b97 22       		.byte	0x22
 7045 0b98 3C000000 		.4byte	.LVL130
 7046 0b9c 3E000000 		.4byte	.LVL131
 7047 0ba0 0600     		.2byte	0x6
 7048 0ba2 74       		.byte	0x74
 7049 0ba3 00       		.sleb128 0
 7050 0ba4 06       		.byte	0x6
 7051 0ba5 73       		.byte	0x73
 7052 0ba6 00       		.sleb128 0
 7053 0ba7 22       		.byte	0x22
 7054 0ba8 00000000 		.4byte	0
 7055 0bac 00000000 		.4byte	0
 7056              	.LLST102:
 7057 0bb0 3A000000 		.4byte	.LVL129
 7058 0bb4 3E000000 		.4byte	.LVL131
 7059 0bb8 0100     		.2byte	0x1
 7060 0bba 55       		.byte	0x55
 7061 0bbb 00000000 		.4byte	0
 7062 0bbf 00000000 		.4byte	0
 7063              	.LLST103:
 7064 0bc3 3E000000 		.4byte	.LVL131
 7065 0bc7 40000000 		.4byte	.LVL132
 7066 0bcb 0300     		.2byte	0x3
 7067 0bcd 09       		.byte	0x9
 7068 0bce FF       		.byte	0xff
 7069 0bcf 9F       		.byte	0x9f
 7070 0bd0 00000000 		.4byte	0
 7071 0bd4 00000000 		.4byte	0
 7072              	.LLST104:
 7073 0bd8 3E000000 		.4byte	.LVL131
 7074 0bdc 40000000 		.4byte	.LVL132
 7075 0be0 0100     		.2byte	0x1
 7076 0be2 55       		.byte	0x55
 7077 0be3 00000000 		.4byte	0
 7078 0be7 00000000 		.4byte	0
 7079              	.LLST105:
 7080 0beb 46000000 		.4byte	.LVL133
 7081 0bef 4E000000 		.4byte	.LVL134
 7082 0bf3 0200     		.2byte	0x2
ARM GAS  /tmp/ccFRKuha.s 			page 153


 7083 0bf5 31       		.byte	0x31
 7084 0bf6 9F       		.byte	0x9f
 7085 0bf7 00000000 		.4byte	0
 7086 0bfb 00000000 		.4byte	0
 7087              	.LLST106:
 7088 0bff 46000000 		.4byte	.LVL133
 7089 0c03 4E000000 		.4byte	.LVL134
 7090 0c07 0100     		.2byte	0x1
 7091 0c09 55       		.byte	0x55
 7092 0c0a 00000000 		.4byte	0
 7093 0c0e 00000000 		.4byte	0
 7094              	.LLST107:
 7095 0c12 0A000000 		.4byte	.LVL137
 7096 0c16 0C000000 		.4byte	.LVL138
 7097 0c1a 0200     		.2byte	0x2
 7098 0c1c 34       		.byte	0x34
 7099 0c1d 9F       		.byte	0x9f
 7100 0c1e 00000000 		.4byte	0
 7101 0c22 00000000 		.4byte	0
 7102              	.LLST108:
 7103 0c26 0A000000 		.4byte	.LVL137
 7104 0c2a 0C000000 		.4byte	.LVL138
 7105 0c2e 0100     		.2byte	0x1
 7106 0c30 50       		.byte	0x50
 7107 0c31 00000000 		.4byte	0
 7108 0c35 00000000 		.4byte	0
 7109              	.LLST109:
 7110 0c39 00000000 		.4byte	.LVL139
 7111 0c3d 09000000 		.4byte	.LVL141-1
 7112 0c41 0100     		.2byte	0x1
 7113 0c43 50       		.byte	0x50
 7114 0c44 09000000 		.4byte	.LVL141-1
 7115 0c48 54000000 		.4byte	.LVL157
 7116 0c4c 0100     		.2byte	0x1
 7117 0c4e 56       		.byte	0x56
 7118 0c4f 54000000 		.4byte	.LVL157
 7119 0c53 64000000 		.4byte	.LFE214
 7120 0c57 0400     		.2byte	0x4
 7121 0c59 F3       		.byte	0xf3
 7122 0c5a 01       		.uleb128 0x1
 7123 0c5b 50       		.byte	0x50
 7124 0c5c 9F       		.byte	0x9f
 7125 0c5d 00000000 		.4byte	0
 7126 0c61 00000000 		.4byte	0
 7127              	.LLST110:
 7128 0c65 00000000 		.4byte	.LVL139
 7129 0c69 09000000 		.4byte	.LVL141-1
 7130 0c6d 0100     		.2byte	0x1
 7131 0c6f 51       		.byte	0x51
 7132 0c70 09000000 		.4byte	.LVL141-1
 7133 0c74 64000000 		.4byte	.LFE214
 7134 0c78 0200     		.2byte	0x2
 7135 0c7a 91       		.byte	0x91
 7136 0c7b 64       		.sleb128 -28
 7137 0c7c 00000000 		.4byte	0
 7138 0c80 00000000 		.4byte	0
 7139              	.LLST111:
ARM GAS  /tmp/ccFRKuha.s 			page 154


 7140 0c84 1E000000 		.4byte	.LVL143
 7141 0c88 26000000 		.4byte	.LVL146
 7142 0c8c 0200     		.2byte	0x2
 7143 0c8e 30       		.byte	0x30
 7144 0c8f 9F       		.byte	0x9f
 7145 0c90 26000000 		.4byte	.LVL146
 7146 0c94 40000000 		.4byte	.LVL149
 7147 0c98 0100     		.2byte	0x1
 7148 0c9a 54       		.byte	0x54
 7149 0c9b 40000000 		.4byte	.LVL149
 7150 0c9f 46000000 		.4byte	.LVL150
 7151 0ca3 0200     		.2byte	0x2
 7152 0ca5 7D       		.byte	0x7d
 7153 0ca6 00       		.sleb128 0
 7154 0ca7 46000000 		.4byte	.LVL150
 7155 0cab 4A000000 		.4byte	.LVL152
 7156 0caf 0200     		.2byte	0x2
 7157 0cb1 30       		.byte	0x30
 7158 0cb2 9F       		.byte	0x9f
 7159 0cb3 4A000000 		.4byte	.LVL152
 7160 0cb7 54000000 		.4byte	.LVL155
 7161 0cbb 0100     		.2byte	0x1
 7162 0cbd 54       		.byte	0x54
 7163 0cbe 00000000 		.4byte	0
 7164 0cc2 00000000 		.4byte	0
 7165              	.LLST112:
 7166 0cc6 1E000000 		.4byte	.LVL143
 7167 0cca 24000000 		.4byte	.LVL145
 7168 0cce 0300     		.2byte	0x3
 7169 0cd0 09       		.byte	0x9
 7170 0cd1 FF       		.byte	0xff
 7171 0cd2 9F       		.byte	0x9f
 7172 0cd3 26000000 		.4byte	.LVL146
 7173 0cd7 32000000 		.4byte	.LVL147
 7174 0cdb 0100     		.2byte	0x1
 7175 0cdd 50       		.byte	0x50
 7176 0cde 3A000000 		.4byte	.LVL148
 7177 0ce2 4C000000 		.4byte	.LVL153
 7178 0ce6 0100     		.2byte	0x1
 7179 0ce8 50       		.byte	0x50
 7180 0ce9 00000000 		.4byte	0
 7181 0ced 00000000 		.4byte	0
 7182              	.LLST113:
 7183 0cf1 1E000000 		.4byte	.LVL143
 7184 0cf5 24000000 		.4byte	.LVL145
 7185 0cf9 0200     		.2byte	0x2
 7186 0cfb 32       		.byte	0x32
 7187 0cfc 9F       		.byte	0x9f
 7188 0cfd 24000000 		.4byte	.LVL145
 7189 0d01 48000000 		.4byte	.LVL151
 7190 0d05 0100     		.2byte	0x1
 7191 0d07 55       		.byte	0x55
 7192 0d08 48000000 		.4byte	.LVL151
 7193 0d0c 4A000000 		.4byte	.LVL152
 7194 0d10 0300     		.2byte	0x3
 7195 0d12 75       		.byte	0x75
 7196 0d13 7E       		.sleb128 -2
ARM GAS  /tmp/ccFRKuha.s 			page 155


 7197 0d14 9F       		.byte	0x9f
 7198 0d15 4A000000 		.4byte	.LVL152
 7199 0d19 54000000 		.4byte	.LVL156
 7200 0d1d 0100     		.2byte	0x1
 7201 0d1f 55       		.byte	0x55
 7202 0d20 00000000 		.4byte	0
 7203 0d24 00000000 		.4byte	0
 7204              	.LLST114:
 7205 0d28 04000000 		.4byte	.LVL140
 7206 0d2c 09000000 		.4byte	.LVL141-1
 7207 0d30 0100     		.2byte	0x1
 7208 0d32 50       		.byte	0x50
 7209 0d33 09000000 		.4byte	.LVL141-1
 7210 0d37 54000000 		.4byte	.LVL157
 7211 0d3b 0100     		.2byte	0x1
 7212 0d3d 56       		.byte	0x56
 7213 0d3e 54000000 		.4byte	.LVL157
 7214 0d42 64000000 		.4byte	.LFE214
 7215 0d46 0400     		.2byte	0x4
 7216 0d48 F3       		.byte	0xf3
 7217 0d49 01       		.uleb128 0x1
 7218 0d4a 50       		.byte	0x50
 7219 0d4b 9F       		.byte	0x9f
 7220 0d4c 00000000 		.4byte	0
 7221 0d50 00000000 		.4byte	0
 7222              	.LLST115:
 7223 0d54 0A000000 		.4byte	.LVL141
 7224 0d58 1B000000 		.4byte	.LVL142-1
 7225 0d5c 0100     		.2byte	0x1
 7226 0d5e 50       		.byte	0x50
 7227 0d5f 1E000000 		.4byte	.LVL143
 7228 0d63 20000000 		.4byte	.LVL144
 7229 0d67 0100     		.2byte	0x1
 7230 0d69 50       		.byte	0x50
 7231 0d6a 20000000 		.4byte	.LVL144
 7232 0d6e 54000000 		.4byte	.LVL158
 7233 0d72 0100     		.2byte	0x1
 7234 0d74 57       		.byte	0x57
 7235 0d75 00000000 		.4byte	0
 7236 0d79 00000000 		.4byte	0
 7237              	.LLST116:
 7238 0d7d 00000000 		.4byte	.LVL159
 7239 0d81 59000000 		.4byte	.LVL169-1
 7240 0d85 0100     		.2byte	0x1
 7241 0d87 50       		.byte	0x50
 7242 0d88 59000000 		.4byte	.LVL169-1
 7243 0d8c 74000000 		.4byte	.LFE215
 7244 0d90 0400     		.2byte	0x4
 7245 0d92 F3       		.byte	0xf3
 7246 0d93 01       		.uleb128 0x1
 7247 0d94 50       		.byte	0x50
 7248 0d95 9F       		.byte	0x9f
 7249 0d96 00000000 		.4byte	0
 7250 0d9a 00000000 		.4byte	0
 7251              	.LLST118:
 7252 0d9e 1C000000 		.4byte	.LVL161
 7253 0da2 22000000 		.4byte	.LVL162
ARM GAS  /tmp/ccFRKuha.s 			page 156


 7254 0da6 0100     		.2byte	0x1
 7255 0da8 50       		.byte	0x50
 7256 0da9 22000000 		.4byte	.LVL162
 7257 0dad 2A000000 		.4byte	.LVL164
 7258 0db1 0600     		.2byte	0x6
 7259 0db3 0C       		.byte	0xc
 7260 0db4 00000440 		.4byte	0x40040000
 7261 0db8 9F       		.byte	0x9f
 7262 0db9 2A000000 		.4byte	.LVL164
 7263 0dbd 30000000 		.4byte	.LVL165
 7264 0dc1 0100     		.2byte	0x1
 7265 0dc3 50       		.byte	0x50
 7266 0dc4 00000000 		.4byte	0
 7267 0dc8 00000000 		.4byte	0
 7268              	.LLST119:
 7269 0dcc 22000000 		.4byte	.LVL162
 7270 0dd0 2A000000 		.4byte	.LVL164
 7271 0dd4 0200     		.2byte	0x2
 7272 0dd6 31       		.byte	0x31
 7273 0dd7 9F       		.byte	0x9f
 7274 0dd8 00000000 		.4byte	0
 7275 0ddc 00000000 		.4byte	0
 7276              	.LLST120:
 7277 0de0 2A000000 		.4byte	.LVL164
 7278 0de4 30000000 		.4byte	.LVL165
 7279 0de8 0200     		.2byte	0x2
 7280 0dea 31       		.byte	0x31
 7281 0deb 9F       		.byte	0x9f
 7282 0dec 00000000 		.4byte	0
 7283 0df0 00000000 		.4byte	0
 7284              	.LLST121:
 7285 0df4 28000000 		.4byte	.LVL163
 7286 0df8 2A000000 		.4byte	.LVL164
 7287 0dfc 0600     		.2byte	0x6
 7288 0dfe 0C       		.byte	0xc
 7289 0dff 00000440 		.4byte	0x40040000
 7290 0e03 9F       		.byte	0x9f
 7291 0e04 00000000 		.4byte	0
 7292 0e08 00000000 		.4byte	0
 7293              	.LLST122:
 7294 0e0c 40000000 		.4byte	.LVL167
 7295 0e10 59000000 		.4byte	.LVL169-1
 7296 0e14 0100     		.2byte	0x1
 7297 0e16 50       		.byte	0x50
 7298 0e17 59000000 		.4byte	.LVL169-1
 7299 0e1b 74000000 		.4byte	.LFE215
 7300 0e1f 0400     		.2byte	0x4
 7301 0e21 F3       		.byte	0xf3
 7302 0e22 01       		.uleb128 0x1
 7303 0e23 50       		.byte	0x50
 7304 0e24 9F       		.byte	0x9f
 7305 0e25 00000000 		.4byte	0
 7306 0e29 00000000 		.4byte	0
 7307              	.LLST123:
 7308 0e2d 4A000000 		.4byte	.LVL168
 7309 0e31 59000000 		.4byte	.LVL169-1
 7310 0e35 0100     		.2byte	0x1
ARM GAS  /tmp/ccFRKuha.s 			page 157


 7311 0e37 50       		.byte	0x50
 7312 0e38 59000000 		.4byte	.LVL169-1
 7313 0e3c 74000000 		.4byte	.LFE215
 7314 0e40 0400     		.2byte	0x4
 7315 0e42 F3       		.byte	0xf3
 7316 0e43 01       		.uleb128 0x1
 7317 0e44 50       		.byte	0x50
 7318 0e45 9F       		.byte	0x9f
 7319 0e46 00000000 		.4byte	0
 7320 0e4a 00000000 		.4byte	0
 7321              	.LLST124:
 7322 0e4e 20000000 		.4byte	.LVL173
 7323 0e52 26000000 		.4byte	.LVL174
 7324 0e56 0100     		.2byte	0x1
 7325 0e58 50       		.byte	0x50
 7326 0e59 26000000 		.4byte	.LVL174
 7327 0e5d 2A000000 		.4byte	.LVL175
 7328 0e61 0600     		.2byte	0x6
 7329 0e63 0C       		.byte	0xc
 7330 0e64 00000440 		.4byte	0x40040000
 7331 0e68 9F       		.byte	0x9f
 7332 0e69 2A000000 		.4byte	.LVL175
 7333 0e6d 2C000000 		.4byte	.LVL176
 7334 0e71 0100     		.2byte	0x1
 7335 0e73 50       		.byte	0x50
 7336 0e74 00000000 		.4byte	0
 7337 0e78 00000000 		.4byte	0
 7338              	.LLST125:
 7339 0e7c 26000000 		.4byte	.LVL174
 7340 0e80 2A000000 		.4byte	.LVL175
 7341 0e84 0200     		.2byte	0x2
 7342 0e86 30       		.byte	0x30
 7343 0e87 9F       		.byte	0x9f
 7344 0e88 00000000 		.4byte	0
 7345 0e8c 00000000 		.4byte	0
 7346              	.LLST126:
 7347 0e90 2A000000 		.4byte	.LVL175
 7348 0e94 2C000000 		.4byte	.LVL176
 7349 0e98 0200     		.2byte	0x2
 7350 0e9a 30       		.byte	0x30
 7351 0e9b 9F       		.byte	0x9f
 7352 0e9c 00000000 		.4byte	0
 7353 0ea0 00000000 		.4byte	0
 7354              		.section	.debug_aranges,"",%progbits
 7355 0000 7C000000 		.4byte	0x7c
 7356 0004 0200     		.2byte	0x2
 7357 0006 00000000 		.4byte	.Ldebug_info0
 7358 000a 04       		.byte	0x4
 7359 000b 00       		.byte	0
 7360 000c 0000     		.2byte	0
 7361 000e 0000     		.2byte	0
 7362 0010 00000000 		.4byte	.LFB200
 7363 0014 24000000 		.4byte	.LFE200-.LFB200
 7364 0018 00000000 		.4byte	.LFB201
 7365 001c 24000000 		.4byte	.LFE201-.LFB201
 7366 0020 00000000 		.4byte	.LFB206
 7367 0024 18000000 		.4byte	.LFE206-.LFB206
ARM GAS  /tmp/ccFRKuha.s 			page 158


 7368 0028 00000000 		.4byte	.LFB207
 7369 002c B4000000 		.4byte	.LFE207-.LFB207
 7370 0030 00000000 		.4byte	.LFB208
 7371 0034 8C000000 		.4byte	.LFE208-.LFB208
 7372 0038 00000000 		.4byte	.LFB209
 7373 003c C0000000 		.4byte	.LFE209-.LFB209
 7374 0040 00000000 		.4byte	.LFB210
 7375 0044 16000000 		.4byte	.LFE210-.LFB210
 7376 0048 00000000 		.4byte	.LFB211
 7377 004c 52000000 		.4byte	.LFE211-.LFB211
 7378 0050 00000000 		.4byte	.LFB212
 7379 0054 58000000 		.4byte	.LFE212-.LFB212
 7380 0058 00000000 		.4byte	.LFB213
 7381 005c 10000000 		.4byte	.LFE213-.LFB213
 7382 0060 00000000 		.4byte	.LFB214
 7383 0064 64000000 		.4byte	.LFE214-.LFB214
 7384 0068 00000000 		.4byte	.LFB215
 7385 006c 74000000 		.4byte	.LFE215-.LFB215
 7386 0070 00000000 		.4byte	.LFB216
 7387 0074 40000000 		.4byte	.LFE216-.LFB216
 7388 0078 00000000 		.4byte	0
 7389 007c 00000000 		.4byte	0
 7390              		.section	.debug_ranges,"",%progbits
 7391              	.Ldebug_ranges0:
 7392 0000 10000000 		.4byte	.LBB142
 7393 0004 12000000 		.4byte	.LBE142
 7394 0008 14000000 		.4byte	.LBB145
 7395 000c 16000000 		.4byte	.LBE145
 7396 0010 00000000 		.4byte	0
 7397 0014 00000000 		.4byte	0
 7398 0018 3E000000 		.4byte	.LBB192
 7399 001c 40000000 		.4byte	.LBE192
 7400 0020 42000000 		.4byte	.LBB195
 7401 0024 44000000 		.4byte	.LBE195
 7402 0028 00000000 		.4byte	0
 7403 002c 00000000 		.4byte	0
 7404 0030 9A000000 		.4byte	.LBB206
 7405 0034 9C000000 		.4byte	.LBE206
 7406 0038 9E000000 		.4byte	.LBB209
 7407 003c A0000000 		.4byte	.LBE209
 7408 0040 00000000 		.4byte	0
 7409 0044 00000000 		.4byte	0
 7410 0048 34000000 		.4byte	.LBB221
 7411 004c 36000000 		.4byte	.LBE221
 7412 0050 38000000 		.4byte	.LBB224
 7413 0054 3A000000 		.4byte	.LBE224
 7414 0058 00000000 		.4byte	0
 7415 005c 00000000 		.4byte	0
 7416 0060 74000000 		.4byte	.LBB238
 7417 0064 76000000 		.4byte	.LBE238
 7418 0068 78000000 		.4byte	.LBB241
 7419 006c 7A000000 		.4byte	.LBE241
 7420 0070 00000000 		.4byte	0
 7421 0074 00000000 		.4byte	0
 7422 0078 28000000 		.4byte	.LBB252
 7423 007c 64000000 		.4byte	.LBE252
 7424 0080 6A000000 		.4byte	.LBB265
ARM GAS  /tmp/ccFRKuha.s 			page 159


 7425 0084 70000000 		.4byte	.LBE265
 7426 0088 00000000 		.4byte	0
 7427 008c 00000000 		.4byte	0
 7428 0090 36000000 		.4byte	.LBB255
 7429 0094 38000000 		.4byte	.LBE255
 7430 0098 3A000000 		.4byte	.LBB258
 7431 009c 3C000000 		.4byte	.LBE258
 7432 00a0 00000000 		.4byte	0
 7433 00a4 00000000 		.4byte	0
 7434 00a8 70000000 		.4byte	.LBB266
 7435 00ac 8E000000 		.4byte	.LBE266
 7436 00b0 92000000 		.4byte	.LBB279
 7437 00b4 BA000000 		.4byte	.LBE279
 7438 00b8 00000000 		.4byte	0
 7439 00bc 00000000 		.4byte	0
 7440 00c0 9C000000 		.4byte	.LBB273
 7441 00c4 9E000000 		.4byte	.LBE273
 7442 00c8 A0000000 		.4byte	.LBB276
 7443 00cc A4000000 		.4byte	.LBE276
 7444 00d0 00000000 		.4byte	0
 7445 00d4 00000000 		.4byte	0
 7446 00d8 10000000 		.4byte	.LBB286
 7447 00dc 12000000 		.4byte	.LBE286
 7448 00e0 12000000 		.4byte	.LBB289
 7449 00e4 14000000 		.4byte	.LBE289
 7450 00e8 00000000 		.4byte	0
 7451 00ec 00000000 		.4byte	0
 7452 00f0 1E000000 		.4byte	.LBB380
 7453 00f4 24000000 		.4byte	.LBE380
 7454 00f8 26000000 		.4byte	.LBB393
 7455 00fc 2A000000 		.4byte	.LBE393
 7456 0100 2C000000 		.4byte	.LBB395
 7457 0104 30000000 		.4byte	.LBE395
 7458 0108 00000000 		.4byte	0
 7459 010c 00000000 		.4byte	0
 7460 0110 22000000 		.4byte	.LBB382
 7461 0114 24000000 		.4byte	.LBE382
 7462 0118 26000000 		.4byte	.LBB385
 7463 011c 2A000000 		.4byte	.LBE385
 7464 0120 00000000 		.4byte	0
 7465 0124 00000000 		.4byte	0
 7466 0128 24000000 		.4byte	.LBB390
 7467 012c 26000000 		.4byte	.LBE390
 7468 0130 2A000000 		.4byte	.LBB394
 7469 0134 2C000000 		.4byte	.LBE394
 7470 0138 00000000 		.4byte	0
 7471 013c 00000000 		.4byte	0
 7472 0140 30000000 		.4byte	.LBB396
 7473 0144 36000000 		.4byte	.LBE396
 7474 0148 36000000 		.4byte	.LBB403
 7475 014c 40000000 		.4byte	.LBE403
 7476 0150 00000000 		.4byte	0
 7477 0154 00000000 		.4byte	0
 7478 0158 30000000 		.4byte	.LBB397
 7479 015c 36000000 		.4byte	.LBE397
 7480 0160 36000000 		.4byte	.LBB400
 7481 0164 3A000000 		.4byte	.LBE400
ARM GAS  /tmp/ccFRKuha.s 			page 160


 7482 0168 00000000 		.4byte	0
 7483 016c 00000000 		.4byte	0
 7484 0170 40000000 		.4byte	.LBB404
 7485 0174 44000000 		.4byte	.LBE404
 7486 0178 46000000 		.4byte	.LBB407
 7487 017c 4A000000 		.4byte	.LBE407
 7488 0180 00000000 		.4byte	0
 7489 0184 00000000 		.4byte	0
 7490 0188 00000000 		.4byte	.LBB422
 7491 018c 04000000 		.4byte	.LBE422
 7492 0190 06000000 		.4byte	.LBB429
 7493 0194 08000000 		.4byte	.LBE429
 7494 0198 0A000000 		.4byte	.LBB430
 7495 019c 0C000000 		.4byte	.LBE430
 7496 01a0 00000000 		.4byte	0
 7497 01a4 00000000 		.4byte	0
 7498 01a8 04000000 		.4byte	.LBB426
 7499 01ac 06000000 		.4byte	.LBE426
 7500 01b0 0C000000 		.4byte	.LBB431
 7501 01b4 14000000 		.4byte	.LBE431
 7502 01b8 00000000 		.4byte	0
 7503 01bc 00000000 		.4byte	0
 7504 01c0 00000000 		.4byte	.LFB200
 7505 01c4 24000000 		.4byte	.LFE200
 7506 01c8 00000000 		.4byte	.LFB201
 7507 01cc 24000000 		.4byte	.LFE201
 7508 01d0 00000000 		.4byte	.LFB206
 7509 01d4 18000000 		.4byte	.LFE206
 7510 01d8 00000000 		.4byte	.LFB207
 7511 01dc B4000000 		.4byte	.LFE207
 7512 01e0 00000000 		.4byte	.LFB208
 7513 01e4 8C000000 		.4byte	.LFE208
 7514 01e8 00000000 		.4byte	.LFB209
 7515 01ec C0000000 		.4byte	.LFE209
 7516 01f0 00000000 		.4byte	.LFB210
 7517 01f4 16000000 		.4byte	.LFE210
 7518 01f8 00000000 		.4byte	.LFB211
 7519 01fc 52000000 		.4byte	.LFE211
 7520 0200 00000000 		.4byte	.LFB212
 7521 0204 58000000 		.4byte	.LFE212
 7522 0208 00000000 		.4byte	.LFB213
 7523 020c 10000000 		.4byte	.LFE213
 7524 0210 00000000 		.4byte	.LFB214
 7525 0214 64000000 		.4byte	.LFE214
 7526 0218 00000000 		.4byte	.LFB215
 7527 021c 74000000 		.4byte	.LFE215
 7528 0220 00000000 		.4byte	.LFB216
 7529 0224 40000000 		.4byte	.LFE216
 7530 0228 00000000 		.4byte	0
 7531 022c 00000000 		.4byte	0
 7532              		.section	.debug_macro,"",%progbits
 7533              	.Ldebug_macro0:
 7534 0000 0400     		.2byte	0x4
 7535 0002 02       		.byte	0x2
 7536 0003 00000000 		.4byte	.Ldebug_line0
 7537 0007 07       		.byte	0x7
 7538 0008 00000000 		.4byte	.Ldebug_macro1
ARM GAS  /tmp/ccFRKuha.s 			page 161


 7539 000c 03       		.byte	0x3
 7540 000d 00       		.uleb128 0
 7541 000e 01       		.uleb128 0x1
 7542 000f 03       		.byte	0x3
 7543 0010 20       		.uleb128 0x20
 7544 0011 08       		.uleb128 0x8
 7545 0012 05       		.byte	0x5
 7546 0013 1E       		.uleb128 0x1e
 7547 0014 287C0000 		.4byte	.LASF346
 7548 0018 03       		.byte	0x3
 7549 0019 20       		.uleb128 0x20
 7550 001a 07       		.uleb128 0x7
 7551 001b 05       		.byte	0x5
 7552 001c 21       		.uleb128 0x21
 7553 001d 14230000 		.4byte	.LASF347
 7554              		.file 9 "/usr/lib/gcc/arm-none-eabi/4.9.3/include/stdint.h"
 7555 0021 03       		.byte	0x3
 7556 0022 23       		.uleb128 0x23
 7557 0023 09       		.uleb128 0x9
 7558              		.file 10 "/usr/arm-none-eabi/include/stdint.h"
 7559 0024 03       		.byte	0x3
 7560 0025 09       		.uleb128 0x9
 7561 0026 0A       		.uleb128 0xa
 7562 0027 05       		.byte	0x5
 7563 0028 0A       		.uleb128 0xa
 7564 0029 471D0000 		.4byte	.LASF348
 7565 002d 03       		.byte	0x3
 7566 002e 0C       		.uleb128 0xc
 7567 002f 05       		.uleb128 0x5
 7568 0030 05       		.byte	0x5
 7569 0031 06       		.uleb128 0x6
 7570 0032 35530000 		.4byte	.LASF349
 7571              		.file 11 "/usr/arm-none-eabi/include/sys/features.h"
 7572 0036 03       		.byte	0x3
 7573 0037 08       		.uleb128 0x8
 7574 0038 0B       		.uleb128 0xb
 7575 0039 07       		.byte	0x7
 7576 003a 00000000 		.4byte	.Ldebug_macro2
 7577 003e 04       		.byte	0x4
 7578 003f 07       		.byte	0x7
 7579 0040 00000000 		.4byte	.Ldebug_macro3
 7580 0044 04       		.byte	0x4
 7581              		.file 12 "/usr/arm-none-eabi/include/sys/_intsup.h"
 7582 0045 03       		.byte	0x3
 7583 0046 0D       		.uleb128 0xd
 7584 0047 0C       		.uleb128 0xc
 7585 0048 07       		.byte	0x7
 7586 0049 00000000 		.4byte	.Ldebug_macro4
 7587 004d 04       		.byte	0x4
 7588 004e 03       		.byte	0x3
 7589 004f 0E       		.uleb128 0xe
 7590 0050 06       		.uleb128 0x6
 7591 0051 07       		.byte	0x7
 7592 0052 00000000 		.4byte	.Ldebug_macro5
 7593 0056 04       		.byte	0x4
 7594 0057 07       		.byte	0x7
 7595 0058 00000000 		.4byte	.Ldebug_macro6
ARM GAS  /tmp/ccFRKuha.s 			page 162


 7596 005c 04       		.byte	0x4
 7597 005d 05       		.byte	0x5
 7598 005e 0D       		.uleb128 0xd
 7599 005f C1680000 		.4byte	.LASF467
 7600 0063 04       		.byte	0x4
 7601              		.file 13 "/usr/lib/gcc/arm-none-eabi/4.9.3/include/stdbool.h"
 7602 0064 03       		.byte	0x3
 7603 0065 24       		.uleb128 0x24
 7604 0066 0D       		.uleb128 0xd
 7605 0067 07       		.byte	0x7
 7606 0068 00000000 		.4byte	.Ldebug_macro7
 7607 006c 04       		.byte	0x4
 7608 006d 07       		.byte	0x7
 7609 006e 00000000 		.4byte	.Ldebug_macro8
 7610 0072 04       		.byte	0x4
 7611              		.file 14 "../../lpc11cx4-library/lpc_chip_11cxx_lib/inc/sys_config.h"
 7612 0073 03       		.byte	0x3
 7613 0074 21       		.uleb128 0x21
 7614 0075 0E       		.uleb128 0xe
 7615 0076 07       		.byte	0x7
 7616 0077 00000000 		.4byte	.Ldebug_macro9
 7617 007b 04       		.byte	0x4
 7618              		.file 15 "../../lpc11cx4-library/lpc_chip_11cxx_lib/inc/cmsis.h"
 7619 007c 03       		.byte	0x3
 7620 007d 22       		.uleb128 0x22
 7621 007e 0F       		.uleb128 0xf
 7622 007f 05       		.byte	0x5
 7623 0080 1E       		.uleb128 0x1e
 7624 0081 BC510000 		.4byte	.LASF491
 7625              		.file 16 "../../lpc11cx4-library/lpc_chip_11cxx_lib/inc/cmsis_11cxx.h"
 7626 0085 03       		.byte	0x3
 7627 0086 2E       		.uleb128 0x2e
 7628 0087 10       		.uleb128 0x10
 7629 0088 07       		.byte	0x7
 7630 0089 00000000 		.4byte	.Ldebug_macro10
 7631 008d 04       		.byte	0x4
 7632              		.file 17 "../../lpc11cx4-library/lpc_chip_11cxx_lib/inc/core_cm0.h"
 7633 008e 03       		.byte	0x3
 7634 008f 3E       		.uleb128 0x3e
 7635 0090 11       		.uleb128 0x11
 7636 0091 07       		.byte	0x7
 7637 0092 00000000 		.4byte	.Ldebug_macro11
 7638              		.file 18 "../../lpc11cx4-library/lpc_chip_11cxx_lib/inc/core_cmInstr.h"
 7639 0096 03       		.byte	0x3
 7640 0097 70       		.uleb128 0x70
 7641 0098 12       		.uleb128 0x12
 7642 0099 05       		.byte	0x5
 7643 009a 19       		.uleb128 0x19
 7644 009b B51D0000 		.4byte	.LASF505
 7645 009f 04       		.byte	0x4
 7646              		.file 19 "../../lpc11cx4-library/lpc_chip_11cxx_lib/inc/core_cmFunc.h"
 7647 00a0 03       		.byte	0x3
 7648 00a1 71       		.uleb128 0x71
 7649 00a2 13       		.uleb128 0x13
 7650 00a3 05       		.byte	0x5
 7651 00a4 19       		.uleb128 0x19
 7652 00a5 DE0B0000 		.4byte	.LASF506
ARM GAS  /tmp/ccFRKuha.s 			page 163


 7653 00a9 04       		.byte	0x4
 7654 00aa 07       		.byte	0x7
 7655 00ab 00000000 		.4byte	.Ldebug_macro12
 7656 00af 04       		.byte	0x4
 7657 00b0 04       		.byte	0x4
 7658 00b1 07       		.byte	0x7
 7659 00b2 00000000 		.4byte	.Ldebug_macro13
 7660              		.file 20 "../../lpc11cx4-library/lpc_chip_11cxx_lib/inc/pmu_11xx.h"
 7661 00b6 03       		.byte	0x3
 7662 00b7 E901     		.uleb128 0xe9
 7663 00b9 14       		.uleb128 0x14
 7664 00ba 07       		.byte	0x7
 7665 00bb 00000000 		.4byte	.Ldebug_macro14
 7666 00bf 04       		.byte	0x4
 7667              		.file 21 "../../lpc11cx4-library/lpc_chip_11cxx_lib/inc/fmc_11xx.h"
 7668 00c0 03       		.byte	0x3
 7669 00c1 EA01     		.uleb128 0xea
 7670 00c3 15       		.uleb128 0x15
 7671 00c4 05       		.byte	0x5
 7672 00c5 21       		.uleb128 0x21
 7673 00c6 0E6B0000 		.4byte	.LASF636
 7674 00ca 04       		.byte	0x4
 7675 00cb 03       		.byte	0x3
 7676 00cc EB01     		.uleb128 0xeb
 7677 00ce 04       		.uleb128 0x4
 7678 00cf 07       		.byte	0x7
 7679 00d0 00000000 		.4byte	.Ldebug_macro15
 7680 00d4 04       		.byte	0x4
 7681 00d5 03       		.byte	0x3
 7682 00d6 EC01     		.uleb128 0xec
 7683 00d8 03       		.uleb128 0x3
 7684 00d9 07       		.byte	0x7
 7685 00da 00000000 		.4byte	.Ldebug_macro16
 7686 00de 04       		.byte	0x4
 7687              		.file 22 "../../lpc11cx4-library/lpc_chip_11cxx_lib/inc/iocon_11xx.h"
 7688 00df 03       		.byte	0x3
 7689 00e0 ED01     		.uleb128 0xed
 7690 00e2 16       		.uleb128 0x16
 7691 00e3 07       		.byte	0x7
 7692 00e4 00000000 		.4byte	.Ldebug_macro17
 7693 00e8 04       		.byte	0x4
 7694              		.file 23 "../../lpc11cx4-library/lpc_chip_11cxx_lib/inc/timer_11xx.h"
 7695 00e9 03       		.byte	0x3
 7696 00ea EE01     		.uleb128 0xee
 7697 00ec 17       		.uleb128 0x17
 7698 00ed 07       		.byte	0x7
 7699 00ee 00000000 		.4byte	.Ldebug_macro18
 7700 00f2 04       		.byte	0x4
 7701              		.file 24 "../../lpc11cx4-library/lpc_chip_11cxx_lib/inc/uart_11xx.h"
 7702 00f3 03       		.byte	0x3
 7703 00f4 EF01     		.uleb128 0xef
 7704 00f6 18       		.uleb128 0x18
 7705 00f7 05       		.byte	0x5
 7706 00f8 21       		.uleb128 0x21
 7707 00f9 70260000 		.4byte	.LASF720
 7708              		.file 25 "../../lpc11cx4-library/lpc_chip_11cxx_lib/inc/ring_buffer.h"
 7709 00fd 03       		.byte	0x3
ARM GAS  /tmp/ccFRKuha.s 			page 164


 7710 00fe 23       		.uleb128 0x23
 7711 00ff 19       		.uleb128 0x19
 7712 0100 07       		.byte	0x7
 7713 0101 00000000 		.4byte	.Ldebug_macro19
 7714 0105 04       		.byte	0x4
 7715 0106 07       		.byte	0x7
 7716 0107 00000000 		.4byte	.Ldebug_macro20
 7717 010b 04       		.byte	0x4
 7718              		.file 26 "../../lpc11cx4-library/lpc_chip_11cxx_lib/inc/wwdt_11xx.h"
 7719 010c 03       		.byte	0x3
 7720 010d F001     		.uleb128 0xf0
 7721 010f 1A       		.uleb128 0x1a
 7722 0110 07       		.byte	0x7
 7723 0111 00000000 		.4byte	.Ldebug_macro21
 7724 0115 04       		.byte	0x4
 7725 0116 03       		.byte	0x3
 7726 0117 F101     		.uleb128 0xf1
 7727 0119 02       		.uleb128 0x2
 7728 011a 07       		.byte	0x7
 7729 011b 00000000 		.4byte	.Ldebug_macro22
 7730 011f 04       		.byte	0x4
 7731              		.file 27 "../../lpc11cx4-library/lpc_chip_11cxx_lib/inc/romapi_11xx.h"
 7732 0120 03       		.byte	0x3
 7733 0121 F201     		.uleb128 0xf2
 7734 0123 1B       		.uleb128 0x1b
 7735 0124 05       		.byte	0x5
 7736 0125 21       		.uleb128 0x21
 7737 0126 EE410000 		.4byte	.LASF873
 7738              		.file 28 "../../lpc11cx4-library/lpc_chip_11cxx_lib/inc/error.h"
 7739 012a 03       		.byte	0x3
 7740 012b 23       		.uleb128 0x23
 7741 012c 1C       		.uleb128 0x1c
 7742 012d 07       		.byte	0x7
 7743 012e 00000000 		.4byte	.Ldebug_macro23
 7744 0132 04       		.byte	0x4
 7745 0133 04       		.byte	0x4
 7746              		.file 29 "../../lpc11cx4-library/lpc_chip_11cxx_lib/inc/adc_11xx.h"
 7747 0134 03       		.byte	0x3
 7748 0135 F601     		.uleb128 0xf6
 7749 0137 1D       		.uleb128 0x1d
 7750 0138 07       		.byte	0x7
 7751 0139 00000000 		.4byte	.Ldebug_macro24
 7752 013d 04       		.byte	0x4
 7753              		.file 30 "../../lpc11cx4-library/lpc_chip_11cxx_lib/inc/gpio_11xx_2.h"
 7754 013e 03       		.byte	0x3
 7755 013f FF01     		.uleb128 0xff
 7756 0141 1E       		.uleb128 0x1e
 7757 0142 05       		.byte	0x5
 7758 0143 22       		.uleb128 0x22
 7759 0144 4B690000 		.4byte	.LASF896
 7760 0148 04       		.byte	0x4
 7761              		.file 31 "../../lpc11cx4-library/lpc_chip_11cxx_lib/inc/i2c_11xx.h"
 7762 0149 03       		.byte	0x3
 7763 014a 8C02     		.uleb128 0x10c
 7764 014c 1F       		.uleb128 0x1f
 7765 014d 07       		.byte	0x7
 7766 014e 00000000 		.4byte	.Ldebug_macro25
ARM GAS  /tmp/ccFRKuha.s 			page 165


 7767 0152 04       		.byte	0x4
 7768              		.file 32 "../../lpc11cx4-library/lpc_chip_11cxx_lib/inc/ccand_11xx.h"
 7769 0153 03       		.byte	0x3
 7770 0154 8F02     		.uleb128 0x10f
 7771 0156 20       		.uleb128 0x20
 7772 0157 07       		.byte	0x7
 7773 0158 00000000 		.4byte	.Ldebug_macro26
 7774 015c 04       		.byte	0x4
 7775 015d 04       		.byte	0x4
 7776 015e 04       		.byte	0x4
 7777 015f 00       		.byte	0
 7778              		.section	.debug_macro,"G",%progbits,wm4.0.d60539c8b2f01ca1b851fc35675107cd,comdat
 7779              	.Ldebug_macro1:
 7780 0000 0400     		.2byte	0x4
 7781 0002 00       		.byte	0
 7782 0003 05       		.byte	0x5
 7783 0004 00       		.uleb128 0
 7784 0005 754D0000 		.4byte	.LASF0
 7785 0009 05       		.byte	0x5
 7786 000a 00       		.uleb128 0
 7787 000b F0090000 		.4byte	.LASF1
 7788 000f 05       		.byte	0x5
 7789 0010 00       		.uleb128 0
 7790 0011 56380000 		.4byte	.LASF2
 7791 0015 05       		.byte	0x5
 7792 0016 00       		.uleb128 0
 7793 0017 BB630000 		.4byte	.LASF3
 7794 001b 05       		.byte	0x5
 7795 001c 00       		.uleb128 0
 7796 001d D91C0000 		.4byte	.LASF4
 7797 0021 05       		.byte	0x5
 7798 0022 00       		.uleb128 0
 7799 0023 864E0000 		.4byte	.LASF5
 7800 0027 05       		.byte	0x5
 7801 0028 00       		.uleb128 0
 7802 0029 E36A0000 		.4byte	.LASF6
 7803 002d 05       		.byte	0x5
 7804 002e 00       		.uleb128 0
 7805 002f ED1F0000 		.4byte	.LASF7
 7806 0033 05       		.byte	0x5
 7807 0034 00       		.uleb128 0
 7808 0035 14350000 		.4byte	.LASF8
 7809 0039 05       		.byte	0x5
 7810 003a 00       		.uleb128 0
 7811 003b A13C0000 		.4byte	.LASF9
 7812 003f 05       		.byte	0x5
 7813 0040 00       		.uleb128 0
 7814 0041 FD7B0000 		.4byte	.LASF10
 7815 0045 05       		.byte	0x5
 7816 0046 00       		.uleb128 0
 7817 0047 6E030000 		.4byte	.LASF11
 7818 004b 05       		.byte	0x5
 7819 004c 00       		.uleb128 0
 7820 004d E3460000 		.4byte	.LASF12
 7821 0051 05       		.byte	0x5
 7822 0052 00       		.uleb128 0
 7823 0053 733D0000 		.4byte	.LASF13
ARM GAS  /tmp/ccFRKuha.s 			page 166


 7824 0057 05       		.byte	0x5
 7825 0058 00       		.uleb128 0
 7826 0059 E95D0000 		.4byte	.LASF14
 7827 005d 05       		.byte	0x5
 7828 005e 00       		.uleb128 0
 7829 005f 6C730000 		.4byte	.LASF15
 7830 0063 05       		.byte	0x5
 7831 0064 00       		.uleb128 0
 7832 0065 EB170000 		.4byte	.LASF16
 7833 0069 05       		.byte	0x5
 7834 006a 00       		.uleb128 0
 7835 006b D5040000 		.4byte	.LASF17
 7836 006f 05       		.byte	0x5
 7837 0070 00       		.uleb128 0
 7838 0071 81220000 		.4byte	.LASF18
 7839 0075 05       		.byte	0x5
 7840 0076 00       		.uleb128 0
 7841 0077 386C0000 		.4byte	.LASF19
 7842 007b 05       		.byte	0x5
 7843 007c 00       		.uleb128 0
 7844 007d 99180000 		.4byte	.LASF20
 7845 0081 05       		.byte	0x5
 7846 0082 00       		.uleb128 0
 7847 0083 89230000 		.4byte	.LASF21
 7848 0087 05       		.byte	0x5
 7849 0088 00       		.uleb128 0
 7850 0089 A1670000 		.4byte	.LASF22
 7851 008d 05       		.byte	0x5
 7852 008e 00       		.uleb128 0
 7853 008f 8A440000 		.4byte	.LASF23
 7854 0093 05       		.byte	0x5
 7855 0094 00       		.uleb128 0
 7856 0095 50530000 		.4byte	.LASF24
 7857 0099 05       		.byte	0x5
 7858 009a 00       		.uleb128 0
 7859 009b F9590000 		.4byte	.LASF25
 7860 009f 05       		.byte	0x5
 7861 00a0 00       		.uleb128 0
 7862 00a1 C60D0000 		.4byte	.LASF26
 7863 00a5 05       		.byte	0x5
 7864 00a6 00       		.uleb128 0
 7865 00a7 34060000 		.4byte	.LASF27
 7866 00ab 05       		.byte	0x5
 7867 00ac 00       		.uleb128 0
 7868 00ad 67450000 		.4byte	.LASF28
 7869 00b1 05       		.byte	0x5
 7870 00b2 00       		.uleb128 0
 7871 00b3 A54D0000 		.4byte	.LASF29
 7872 00b7 05       		.byte	0x5
 7873 00b8 00       		.uleb128 0
 7874 00b9 97150000 		.4byte	.LASF30
 7875 00bd 05       		.byte	0x5
 7876 00be 00       		.uleb128 0
 7877 00bf E3790000 		.4byte	.LASF31
 7878 00c3 05       		.byte	0x5
 7879 00c4 00       		.uleb128 0
 7880 00c5 4A2C0000 		.4byte	.LASF32
ARM GAS  /tmp/ccFRKuha.s 			page 167


 7881 00c9 05       		.byte	0x5
 7882 00ca 00       		.uleb128 0
 7883 00cb EE230000 		.4byte	.LASF33
 7884 00cf 05       		.byte	0x5
 7885 00d0 00       		.uleb128 0
 7886 00d1 37480000 		.4byte	.LASF34
 7887 00d5 05       		.byte	0x5
 7888 00d6 00       		.uleb128 0
 7889 00d7 FE790000 		.4byte	.LASF35
 7890 00db 05       		.byte	0x5
 7891 00dc 00       		.uleb128 0
 7892 00dd 2E4B0000 		.4byte	.LASF36
 7893 00e1 05       		.byte	0x5
 7894 00e2 00       		.uleb128 0
 7895 00e3 7C660000 		.4byte	.LASF37
 7896 00e7 05       		.byte	0x5
 7897 00e8 00       		.uleb128 0
 7898 00e9 21170000 		.4byte	.LASF38
 7899 00ed 05       		.byte	0x5
 7900 00ee 00       		.uleb128 0
 7901 00ef 243B0000 		.4byte	.LASF39
 7902 00f3 05       		.byte	0x5
 7903 00f4 00       		.uleb128 0
 7904 00f5 CE060000 		.4byte	.LASF40
 7905 00f9 05       		.byte	0x5
 7906 00fa 00       		.uleb128 0
 7907 00fb 20080000 		.4byte	.LASF41
 7908 00ff 05       		.byte	0x5
 7909 0100 00       		.uleb128 0
 7910 0101 107C0000 		.4byte	.LASF42
 7911 0105 05       		.byte	0x5
 7912 0106 00       		.uleb128 0
 7913 0107 52440000 		.4byte	.LASF43
 7914 010b 05       		.byte	0x5
 7915 010c 00       		.uleb128 0
 7916 010d F64D0000 		.4byte	.LASF44
 7917 0111 05       		.byte	0x5
 7918 0112 00       		.uleb128 0
 7919 0113 AA380000 		.4byte	.LASF45
 7920 0117 05       		.byte	0x5
 7921 0118 00       		.uleb128 0
 7922 0119 E2710000 		.4byte	.LASF46
 7923 011d 05       		.byte	0x5
 7924 011e 00       		.uleb128 0
 7925 011f EF670000 		.4byte	.LASF47
 7926 0123 05       		.byte	0x5
 7927 0124 00       		.uleb128 0
 7928 0125 AC150000 		.4byte	.LASF48
 7929 0129 05       		.byte	0x5
 7930 012a 00       		.uleb128 0
 7931 012b 81760000 		.4byte	.LASF49
 7932 012f 05       		.byte	0x5
 7933 0130 00       		.uleb128 0
 7934 0131 173D0000 		.4byte	.LASF50
 7935 0135 05       		.byte	0x5
 7936 0136 00       		.uleb128 0
 7937 0137 EF7D0000 		.4byte	.LASF51
ARM GAS  /tmp/ccFRKuha.s 			page 168


 7938 013b 05       		.byte	0x5
 7939 013c 00       		.uleb128 0
 7940 013d BF120000 		.4byte	.LASF52
 7941 0141 05       		.byte	0x5
 7942 0142 00       		.uleb128 0
 7943 0143 515C0000 		.4byte	.LASF53
 7944 0147 05       		.byte	0x5
 7945 0148 00       		.uleb128 0
 7946 0149 84630000 		.4byte	.LASF54
 7947 014d 05       		.byte	0x5
 7948 014e 00       		.uleb128 0
 7949 014f C43B0000 		.4byte	.LASF55
 7950 0153 05       		.byte	0x5
 7951 0154 00       		.uleb128 0
 7952 0155 22150000 		.4byte	.LASF56
 7953 0159 05       		.byte	0x5
 7954 015a 00       		.uleb128 0
 7955 015b 855B0000 		.4byte	.LASF57
 7956 015f 05       		.byte	0x5
 7957 0160 00       		.uleb128 0
 7958 0161 EC3C0000 		.4byte	.LASF58
 7959 0165 05       		.byte	0x5
 7960 0166 00       		.uleb128 0
 7961 0167 5F0A0000 		.4byte	.LASF59
 7962 016b 05       		.byte	0x5
 7963 016c 00       		.uleb128 0
 7964 016d EC390000 		.4byte	.LASF60
 7965 0171 05       		.byte	0x5
 7966 0172 00       		.uleb128 0
 7967 0173 2D380000 		.4byte	.LASF61
 7968 0177 05       		.byte	0x5
 7969 0178 00       		.uleb128 0
 7970 0179 635B0000 		.4byte	.LASF62
 7971 017d 05       		.byte	0x5
 7972 017e 00       		.uleb128 0
 7973 017f E0240000 		.4byte	.LASF63
 7974 0183 05       		.byte	0x5
 7975 0184 00       		.uleb128 0
 7976 0185 68660000 		.4byte	.LASF64
 7977 0189 05       		.byte	0x5
 7978 018a 00       		.uleb128 0
 7979 018b CD380000 		.4byte	.LASF65
 7980 018f 05       		.byte	0x5
 7981 0190 00       		.uleb128 0
 7982 0191 E2350000 		.4byte	.LASF66
 7983 0195 05       		.byte	0x5
 7984 0196 00       		.uleb128 0
 7985 0197 AA2A0000 		.4byte	.LASF67
 7986 019b 05       		.byte	0x5
 7987 019c 00       		.uleb128 0
 7988 019d C9240000 		.4byte	.LASF68
 7989 01a1 05       		.byte	0x5
 7990 01a2 00       		.uleb128 0
 7991 01a3 040F0000 		.4byte	.LASF69
 7992 01a7 05       		.byte	0x5
 7993 01a8 00       		.uleb128 0
 7994 01a9 636C0000 		.4byte	.LASF70
ARM GAS  /tmp/ccFRKuha.s 			page 169


 7995 01ad 05       		.byte	0x5
 7996 01ae 00       		.uleb128 0
 7997 01af AD3B0000 		.4byte	.LASF71
 7998 01b3 05       		.byte	0x5
 7999 01b4 00       		.uleb128 0
 8000 01b5 406E0000 		.4byte	.LASF72
 8001 01b9 05       		.byte	0x5
 8002 01ba 00       		.uleb128 0
 8003 01bb 9F010000 		.4byte	.LASF73
 8004 01bf 05       		.byte	0x5
 8005 01c0 00       		.uleb128 0
 8006 01c1 CE140000 		.4byte	.LASF74
 8007 01c5 05       		.byte	0x5
 8008 01c6 00       		.uleb128 0
 8009 01c7 B6400000 		.4byte	.LASF75
 8010 01cb 05       		.byte	0x5
 8011 01cc 00       		.uleb128 0
 8012 01cd D5410000 		.4byte	.LASF76
 8013 01d1 05       		.byte	0x5
 8014 01d2 00       		.uleb128 0
 8015 01d3 0D760000 		.4byte	.LASF77
 8016 01d7 05       		.byte	0x5
 8017 01d8 00       		.uleb128 0
 8018 01d9 E0650000 		.4byte	.LASF78
 8019 01dd 05       		.byte	0x5
 8020 01de 00       		.uleb128 0
 8021 01df 1C610000 		.4byte	.LASF79
 8022 01e3 05       		.byte	0x5
 8023 01e4 00       		.uleb128 0
 8024 01e5 79100000 		.4byte	.LASF80
 8025 01e9 05       		.byte	0x5
 8026 01ea 00       		.uleb128 0
 8027 01eb 9E020000 		.4byte	.LASF81
 8028 01ef 05       		.byte	0x5
 8029 01f0 00       		.uleb128 0
 8030 01f1 11630000 		.4byte	.LASF82
 8031 01f5 05       		.byte	0x5
 8032 01f6 00       		.uleb128 0
 8033 01f7 400B0000 		.4byte	.LASF83
 8034 01fb 05       		.byte	0x5
 8035 01fc 00       		.uleb128 0
 8036 01fd 2E4F0000 		.4byte	.LASF84
 8037 0201 05       		.byte	0x5
 8038 0202 00       		.uleb128 0
 8039 0203 6F300000 		.4byte	.LASF85
 8040 0207 05       		.byte	0x5
 8041 0208 00       		.uleb128 0
 8042 0209 1F620000 		.4byte	.LASF86
 8043 020d 05       		.byte	0x5
 8044 020e 00       		.uleb128 0
 8045 020f EC0F0000 		.4byte	.LASF87
 8046 0213 05       		.byte	0x5
 8047 0214 00       		.uleb128 0
 8048 0215 3B3C0000 		.4byte	.LASF88
 8049 0219 05       		.byte	0x5
 8050 021a 00       		.uleb128 0
 8051 021b AC2B0000 		.4byte	.LASF89
ARM GAS  /tmp/ccFRKuha.s 			page 170


 8052 021f 05       		.byte	0x5
 8053 0220 00       		.uleb128 0
 8054 0221 CF7C0000 		.4byte	.LASF90
 8055 0225 05       		.byte	0x5
 8056 0226 00       		.uleb128 0
 8057 0227 82590000 		.4byte	.LASF91
 8058 022b 05       		.byte	0x5
 8059 022c 00       		.uleb128 0
 8060 022d C7400000 		.4byte	.LASF92
 8061 0231 05       		.byte	0x5
 8062 0232 00       		.uleb128 0
 8063 0233 767E0000 		.4byte	.LASF93
 8064 0237 05       		.byte	0x5
 8065 0238 00       		.uleb128 0
 8066 0239 8C500000 		.4byte	.LASF94
 8067 023d 05       		.byte	0x5
 8068 023e 00       		.uleb128 0
 8069 023f 05560000 		.4byte	.LASF95
 8070 0243 05       		.byte	0x5
 8071 0244 00       		.uleb128 0
 8072 0245 512A0000 		.4byte	.LASF96
 8073 0249 05       		.byte	0x5
 8074 024a 00       		.uleb128 0
 8075 024b 3F7B0000 		.4byte	.LASF97
 8076 024f 05       		.byte	0x5
 8077 0250 00       		.uleb128 0
 8078 0251 F4630000 		.4byte	.LASF98
 8079 0255 05       		.byte	0x5
 8080 0256 00       		.uleb128 0
 8081 0257 A20D0000 		.4byte	.LASF99
 8082 025b 05       		.byte	0x5
 8083 025c 00       		.uleb128 0
 8084 025d 17600000 		.4byte	.LASF100
 8085 0261 05       		.byte	0x5
 8086 0262 00       		.uleb128 0
 8087 0263 2F680000 		.4byte	.LASF101
 8088 0267 05       		.byte	0x5
 8089 0268 00       		.uleb128 0
 8090 0269 177D0000 		.4byte	.LASF102
 8091 026d 05       		.byte	0x5
 8092 026e 00       		.uleb128 0
 8093 026f 11080000 		.4byte	.LASF103
 8094 0273 05       		.byte	0x5
 8095 0274 00       		.uleb128 0
 8096 0275 245D0000 		.4byte	.LASF104
 8097 0279 05       		.byte	0x5
 8098 027a 00       		.uleb128 0
 8099 027b 0F6A0000 		.4byte	.LASF105
 8100 027f 05       		.byte	0x5
 8101 0280 00       		.uleb128 0
 8102 0281 096D0000 		.4byte	.LASF106
 8103 0285 05       		.byte	0x5
 8104 0286 00       		.uleb128 0
 8105 0287 292B0000 		.4byte	.LASF107
 8106 028b 05       		.byte	0x5
 8107 028c 00       		.uleb128 0
 8108 028d 12550000 		.4byte	.LASF108
ARM GAS  /tmp/ccFRKuha.s 			page 171


 8109 0291 05       		.byte	0x5
 8110 0292 00       		.uleb128 0
 8111 0293 91580000 		.4byte	.LASF109
 8112 0297 05       		.byte	0x5
 8113 0298 00       		.uleb128 0
 8114 0299 5F550000 		.4byte	.LASF110
 8115 029d 05       		.byte	0x5
 8116 029e 00       		.uleb128 0
 8117 029f 21160000 		.4byte	.LASF111
 8118 02a3 05       		.byte	0x5
 8119 02a4 00       		.uleb128 0
 8120 02a5 B7000000 		.4byte	.LASF112
 8121 02a9 05       		.byte	0x5
 8122 02aa 00       		.uleb128 0
 8123 02ab 0A330000 		.4byte	.LASF113
 8124 02af 05       		.byte	0x5
 8125 02b0 00       		.uleb128 0
 8126 02b1 58210000 		.4byte	.LASF114
 8127 02b5 05       		.byte	0x5
 8128 02b6 00       		.uleb128 0
 8129 02b7 85770000 		.4byte	.LASF115
 8130 02bb 05       		.byte	0x5
 8131 02bc 00       		.uleb128 0
 8132 02bd F77C0000 		.4byte	.LASF116
 8133 02c1 05       		.byte	0x5
 8134 02c2 00       		.uleb128 0
 8135 02c3 BA130000 		.4byte	.LASF117
 8136 02c7 05       		.byte	0x5
 8137 02c8 00       		.uleb128 0
 8138 02c9 304C0000 		.4byte	.LASF118
 8139 02cd 05       		.byte	0x5
 8140 02ce 00       		.uleb128 0
 8141 02cf F04A0000 		.4byte	.LASF119
 8142 02d3 05       		.byte	0x5
 8143 02d4 00       		.uleb128 0
 8144 02d5 371F0000 		.4byte	.LASF120
 8145 02d9 05       		.byte	0x5
 8146 02da 00       		.uleb128 0
 8147 02db 90110000 		.4byte	.LASF121
 8148 02df 05       		.byte	0x5
 8149 02e0 00       		.uleb128 0
 8150 02e1 A34B0000 		.4byte	.LASF122
 8151 02e5 05       		.byte	0x5
 8152 02e6 00       		.uleb128 0
 8153 02e7 064A0000 		.4byte	.LASF123
 8154 02eb 05       		.byte	0x5
 8155 02ec 00       		.uleb128 0
 8156 02ed 58410000 		.4byte	.LASF124
 8157 02f1 05       		.byte	0x5
 8158 02f2 00       		.uleb128 0
 8159 02f3 C03C0000 		.4byte	.LASF125
 8160 02f7 05       		.byte	0x5
 8161 02f8 00       		.uleb128 0
 8162 02f9 204B0000 		.4byte	.LASF126
 8163 02fd 05       		.byte	0x5
 8164 02fe 00       		.uleb128 0
 8165 02ff EF490000 		.4byte	.LASF127
ARM GAS  /tmp/ccFRKuha.s 			page 172


 8166 0303 05       		.byte	0x5
 8167 0304 00       		.uleb128 0
 8168 0305 7D1A0000 		.4byte	.LASF128
 8169 0309 05       		.byte	0x5
 8170 030a 00       		.uleb128 0
 8171 030b D7170000 		.4byte	.LASF129
 8172 030f 05       		.byte	0x5
 8173 0310 00       		.uleb128 0
 8174 0311 39630000 		.4byte	.LASF130
 8175 0315 05       		.byte	0x5
 8176 0316 00       		.uleb128 0
 8177 0317 D91A0000 		.4byte	.LASF131
 8178 031b 05       		.byte	0x5
 8179 031c 00       		.uleb128 0
 8180 031d 06260000 		.4byte	.LASF132
 8181 0321 05       		.byte	0x5
 8182 0322 00       		.uleb128 0
 8183 0323 57250000 		.4byte	.LASF133
 8184 0327 05       		.byte	0x5
 8185 0328 00       		.uleb128 0
 8186 0329 D02B0000 		.4byte	.LASF134
 8187 032d 05       		.byte	0x5
 8188 032e 00       		.uleb128 0
 8189 032f 182A0000 		.4byte	.LASF135
 8190 0333 05       		.byte	0x5
 8191 0334 00       		.uleb128 0
 8192 0335 B9060000 		.4byte	.LASF136
 8193 0339 05       		.byte	0x5
 8194 033a 00       		.uleb128 0
 8195 033b D7360000 		.4byte	.LASF137
 8196 033f 05       		.byte	0x5
 8197 0340 00       		.uleb128 0
 8198 0341 4F1C0000 		.4byte	.LASF138
 8199 0345 05       		.byte	0x5
 8200 0346 00       		.uleb128 0
 8201 0347 407D0000 		.4byte	.LASF139
 8202 034b 05       		.byte	0x5
 8203 034c 00       		.uleb128 0
 8204 034d 73040000 		.4byte	.LASF140
 8205 0351 05       		.byte	0x5
 8206 0352 00       		.uleb128 0
 8207 0353 D4560000 		.4byte	.LASF141
 8208 0357 05       		.byte	0x5
 8209 0358 00       		.uleb128 0
 8210 0359 337C0000 		.4byte	.LASF142
 8211 035d 05       		.byte	0x5
 8212 035e 00       		.uleb128 0
 8213 035f 43210000 		.4byte	.LASF143
 8214 0363 05       		.byte	0x5
 8215 0364 00       		.uleb128 0
 8216 0365 EC040000 		.4byte	.LASF144
 8217 0369 05       		.byte	0x5
 8218 036a 00       		.uleb128 0
 8219 036b 9F6C0000 		.4byte	.LASF145
 8220 036f 05       		.byte	0x5
 8221 0370 00       		.uleb128 0
 8222 0371 CA760000 		.4byte	.LASF146
ARM GAS  /tmp/ccFRKuha.s 			page 173


 8223 0375 05       		.byte	0x5
 8224 0376 00       		.uleb128 0
 8225 0377 47140000 		.4byte	.LASF147
 8226 037b 05       		.byte	0x5
 8227 037c 00       		.uleb128 0
 8228 037d 9D360000 		.4byte	.LASF148
 8229 0381 05       		.byte	0x5
 8230 0382 00       		.uleb128 0
 8231 0383 CF700000 		.4byte	.LASF149
 8232 0387 05       		.byte	0x5
 8233 0388 00       		.uleb128 0
 8234 0389 88280000 		.4byte	.LASF150
 8235 038d 05       		.byte	0x5
 8236 038e 00       		.uleb128 0
 8237 038f 366B0000 		.4byte	.LASF151
 8238 0393 05       		.byte	0x5
 8239 0394 00       		.uleb128 0
 8240 0395 73720000 		.4byte	.LASF152
 8241 0399 05       		.byte	0x5
 8242 039a 00       		.uleb128 0
 8243 039b B7070000 		.4byte	.LASF153
 8244 039f 05       		.byte	0x5
 8245 03a0 00       		.uleb128 0
 8246 03a1 B3750000 		.4byte	.LASF154
 8247 03a5 05       		.byte	0x5
 8248 03a6 00       		.uleb128 0
 8249 03a7 9E070000 		.4byte	.LASF155
 8250 03ab 05       		.byte	0x5
 8251 03ac 00       		.uleb128 0
 8252 03ad 55370000 		.4byte	.LASF156
 8253 03b1 05       		.byte	0x5
 8254 03b2 00       		.uleb128 0
 8255 03b3 00280000 		.4byte	.LASF157
 8256 03b7 05       		.byte	0x5
 8257 03b8 00       		.uleb128 0
 8258 03b9 C1480000 		.4byte	.LASF158
 8259 03bd 05       		.byte	0x5
 8260 03be 00       		.uleb128 0
 8261 03bf 32000000 		.4byte	.LASF159
 8262 03c3 05       		.byte	0x5
 8263 03c4 00       		.uleb128 0
 8264 03c5 32410000 		.4byte	.LASF160
 8265 03c9 05       		.byte	0x5
 8266 03ca 00       		.uleb128 0
 8267 03cb F7680000 		.4byte	.LASF161
 8268 03cf 05       		.byte	0x5
 8269 03d0 00       		.uleb128 0
 8270 03d1 3C270000 		.4byte	.LASF162
 8271 03d5 05       		.byte	0x5
 8272 03d6 00       		.uleb128 0
 8273 03d7 4E3E0000 		.4byte	.LASF163
 8274 03db 05       		.byte	0x5
 8275 03dc 00       		.uleb128 0
 8276 03dd 14580000 		.4byte	.LASF164
 8277 03e1 05       		.byte	0x5
 8278 03e2 00       		.uleb128 0
 8279 03e3 6E490000 		.4byte	.LASF165
ARM GAS  /tmp/ccFRKuha.s 			page 174


 8280 03e7 05       		.byte	0x5
 8281 03e8 00       		.uleb128 0
 8282 03e9 E3110000 		.4byte	.LASF166
 8283 03ed 05       		.byte	0x5
 8284 03ee 00       		.uleb128 0
 8285 03ef BE520000 		.4byte	.LASF167
 8286 03f3 05       		.byte	0x5
 8287 03f4 00       		.uleb128 0
 8288 03f5 F3260000 		.4byte	.LASF168
 8289 03f9 05       		.byte	0x5
 8290 03fa 00       		.uleb128 0
 8291 03fb 24390000 		.4byte	.LASF169
 8292 03ff 05       		.byte	0x5
 8293 0400 00       		.uleb128 0
 8294 0401 CD050000 		.4byte	.LASF170
 8295 0405 05       		.byte	0x5
 8296 0406 00       		.uleb128 0
 8297 0407 A8110000 		.4byte	.LASF171
 8298 040b 05       		.byte	0x5
 8299 040c 00       		.uleb128 0
 8300 040d 160F0000 		.4byte	.LASF172
 8301 0411 05       		.byte	0x5
 8302 0412 00       		.uleb128 0
 8303 0413 0B030000 		.4byte	.LASF173
 8304 0417 05       		.byte	0x5
 8305 0418 00       		.uleb128 0
 8306 0419 23570000 		.4byte	.LASF174
 8307 041d 05       		.byte	0x5
 8308 041e 00       		.uleb128 0
 8309 041f 927B0000 		.4byte	.LASF175
 8310 0423 05       		.byte	0x5
 8311 0424 00       		.uleb128 0
 8312 0425 62060000 		.4byte	.LASF176
 8313 0429 05       		.byte	0x5
 8314 042a 00       		.uleb128 0
 8315 042b 97570000 		.4byte	.LASF177
 8316 042f 05       		.byte	0x5
 8317 0430 00       		.uleb128 0
 8318 0431 D4190000 		.4byte	.LASF178
 8319 0435 05       		.byte	0x5
 8320 0436 00       		.uleb128 0
 8321 0437 2C760000 		.4byte	.LASF179
 8322 043b 05       		.byte	0x5
 8323 043c 00       		.uleb128 0
 8324 043d A0320000 		.4byte	.LASF180
 8325 0441 05       		.byte	0x5
 8326 0442 00       		.uleb128 0
 8327 0443 174F0000 		.4byte	.LASF181
 8328 0447 05       		.byte	0x5
 8329 0448 00       		.uleb128 0
 8330 0449 E8140000 		.4byte	.LASF182
 8331 044d 05       		.byte	0x5
 8332 044e 00       		.uleb128 0
 8333 044f 1F1F0000 		.4byte	.LASF183
 8334 0453 05       		.byte	0x5
 8335 0454 00       		.uleb128 0
 8336 0455 16680000 		.4byte	.LASF184
ARM GAS  /tmp/ccFRKuha.s 			page 175


 8337 0459 05       		.byte	0x5
 8338 045a 00       		.uleb128 0
 8339 045b 45020000 		.4byte	.LASF185
 8340 045f 05       		.byte	0x5
 8341 0460 00       		.uleb128 0
 8342 0461 F13B0000 		.4byte	.LASF186
 8343 0465 05       		.byte	0x5
 8344 0466 00       		.uleb128 0
 8345 0467 07670000 		.4byte	.LASF187
 8346 046b 05       		.byte	0x5
 8347 046c 00       		.uleb128 0
 8348 046d 84010000 		.4byte	.LASF188
 8349 0471 05       		.byte	0x5
 8350 0472 00       		.uleb128 0
 8351 0473 F8780000 		.4byte	.LASF189
 8352 0477 05       		.byte	0x5
 8353 0478 00       		.uleb128 0
 8354 0479 EE370000 		.4byte	.LASF190
 8355 047d 05       		.byte	0x5
 8356 047e 00       		.uleb128 0
 8357 047f 977A0000 		.4byte	.LASF191
 8358 0483 05       		.byte	0x5
 8359 0484 00       		.uleb128 0
 8360 0485 860D0000 		.4byte	.LASF192
 8361 0489 05       		.byte	0x5
 8362 048a 00       		.uleb128 0
 8363 048b 283C0000 		.4byte	.LASF193
 8364 048f 05       		.byte	0x5
 8365 0490 00       		.uleb128 0
 8366 0491 0B270000 		.4byte	.LASF194
 8367 0495 05       		.byte	0x5
 8368 0496 00       		.uleb128 0
 8369 0497 8C270000 		.4byte	.LASF195
 8370 049b 05       		.byte	0x5
 8371 049c 00       		.uleb128 0
 8372 049d 6C0B0000 		.4byte	.LASF196
 8373 04a1 05       		.byte	0x5
 8374 04a2 00       		.uleb128 0
 8375 04a3 D1320000 		.4byte	.LASF197
 8376 04a7 05       		.byte	0x5
 8377 04a8 00       		.uleb128 0
 8378 04a9 331C0000 		.4byte	.LASF198
 8379 04ad 05       		.byte	0x5
 8380 04ae 00       		.uleb128 0
 8381 04af 71590000 		.4byte	.LASF199
 8382 04b3 05       		.byte	0x5
 8383 04b4 00       		.uleb128 0
 8384 04b5 37050000 		.4byte	.LASF200
 8385 04b9 05       		.byte	0x5
 8386 04ba 00       		.uleb128 0
 8387 04bb C8490000 		.4byte	.LASF201
 8388 04bf 05       		.byte	0x5
 8389 04c0 00       		.uleb128 0
 8390 04c1 5E3A0000 		.4byte	.LASF202
 8391 04c5 05       		.byte	0x5
 8392 04c6 00       		.uleb128 0
 8393 04c7 FC690000 		.4byte	.LASF203
ARM GAS  /tmp/ccFRKuha.s 			page 176


 8394 04cb 05       		.byte	0x5
 8395 04cc 00       		.uleb128 0
 8396 04cd BE550000 		.4byte	.LASF204
 8397 04d1 05       		.byte	0x5
 8398 04d2 00       		.uleb128 0
 8399 04d3 DA7D0000 		.4byte	.LASF205
 8400 04d7 05       		.byte	0x5
 8401 04d8 00       		.uleb128 0
 8402 04d9 CD450000 		.4byte	.LASF206
 8403 04dd 05       		.byte	0x5
 8404 04de 00       		.uleb128 0
 8405 04df 99400000 		.4byte	.LASF207
 8406 04e3 05       		.byte	0x5
 8407 04e4 00       		.uleb128 0
 8408 04e5 7C6F0000 		.4byte	.LASF208
 8409 04e9 05       		.byte	0x5
 8410 04ea 00       		.uleb128 0
 8411 04eb 13560000 		.4byte	.LASF209
 8412 04ef 05       		.byte	0x5
 8413 04f0 00       		.uleb128 0
 8414 04f1 81030000 		.4byte	.LASF210
 8415 04f5 05       		.byte	0x5
 8416 04f6 00       		.uleb128 0
 8417 04f7 394D0000 		.4byte	.LASF211
 8418 04fb 05       		.byte	0x5
 8419 04fc 00       		.uleb128 0
 8420 04fd 4A500000 		.4byte	.LASF212
 8421 0501 05       		.byte	0x5
 8422 0502 00       		.uleb128 0
 8423 0503 B10C0000 		.4byte	.LASF213
 8424 0507 05       		.byte	0x5
 8425 0508 00       		.uleb128 0
 8426 0509 547D0000 		.4byte	.LASF214
 8427 050d 05       		.byte	0x5
 8428 050e 00       		.uleb128 0
 8429 050f 3F5F0000 		.4byte	.LASF215
 8430 0513 05       		.byte	0x5
 8431 0514 00       		.uleb128 0
 8432 0515 155C0000 		.4byte	.LASF216
 8433 0519 05       		.byte	0x5
 8434 051a 00       		.uleb128 0
 8435 051b 56670000 		.4byte	.LASF217
 8436 051f 05       		.byte	0x5
 8437 0520 00       		.uleb128 0
 8438 0521 0C770000 		.4byte	.LASF218
 8439 0525 05       		.byte	0x5
 8440 0526 00       		.uleb128 0
 8441 0527 7D730000 		.4byte	.LASF219
 8442 052b 05       		.byte	0x5
 8443 052c 00       		.uleb128 0
 8444 052d 2F700000 		.4byte	.LASF220
 8445 0531 05       		.byte	0x5
 8446 0532 00       		.uleb128 0
 8447 0533 2E650000 		.4byte	.LASF221
 8448 0537 05       		.byte	0x5
 8449 0538 00       		.uleb128 0
 8450 0539 59610000 		.4byte	.LASF222
ARM GAS  /tmp/ccFRKuha.s 			page 177


 8451 053d 05       		.byte	0x5
 8452 053e 00       		.uleb128 0
 8453 053f 020A0000 		.4byte	.LASF223
 8454 0543 05       		.byte	0x5
 8455 0544 00       		.uleb128 0
 8456 0545 B13E0000 		.4byte	.LASF224
 8457 0549 05       		.byte	0x5
 8458 054a 00       		.uleb128 0
 8459 054b D3720000 		.4byte	.LASF225
 8460 054f 05       		.byte	0x5
 8461 0550 00       		.uleb128 0
 8462 0551 67160000 		.4byte	.LASF226
 8463 0555 05       		.byte	0x5
 8464 0556 00       		.uleb128 0
 8465 0557 976E0000 		.4byte	.LASF227
 8466 055b 05       		.byte	0x5
 8467 055c 00       		.uleb128 0
 8468 055d 2A580000 		.4byte	.LASF228
 8469 0561 05       		.byte	0x5
 8470 0562 00       		.uleb128 0
 8471 0563 3F160000 		.4byte	.LASF229
 8472 0567 05       		.byte	0x5
 8473 0568 00       		.uleb128 0
 8474 0569 F35B0000 		.4byte	.LASF230
 8475 056d 05       		.byte	0x5
 8476 056e 00       		.uleb128 0
 8477 056f 4D660000 		.4byte	.LASF231
 8478 0573 05       		.byte	0x5
 8479 0574 00       		.uleb128 0
 8480 0575 35740000 		.4byte	.LASF232
 8481 0579 05       		.byte	0x5
 8482 057a 00       		.uleb128 0
 8483 057b E82D0000 		.4byte	.LASF233
 8484 057f 05       		.byte	0x5
 8485 0580 00       		.uleb128 0
 8486 0581 A74A0000 		.4byte	.LASF234
 8487 0585 05       		.byte	0x5
 8488 0586 00       		.uleb128 0
 8489 0587 8A530000 		.4byte	.LASF235
 8490 058b 05       		.byte	0x5
 8491 058c 00       		.uleb128 0
 8492 058d 16470000 		.4byte	.LASF236
 8493 0591 05       		.byte	0x5
 8494 0592 00       		.uleb128 0
 8495 0593 60150000 		.4byte	.LASF237
 8496 0597 05       		.byte	0x5
 8497 0598 00       		.uleb128 0
 8498 0599 10130000 		.4byte	.LASF238
 8499 059d 05       		.byte	0x5
 8500 059e 00       		.uleb128 0
 8501 059f 1D690000 		.4byte	.LASF239
 8502 05a3 05       		.byte	0x5
 8503 05a4 00       		.uleb128 0
 8504 05a5 19040000 		.4byte	.LASF240
 8505 05a9 05       		.byte	0x5
 8506 05aa 00       		.uleb128 0
 8507 05ab FE360000 		.4byte	.LASF241
ARM GAS  /tmp/ccFRKuha.s 			page 178


 8508 05af 05       		.byte	0x5
 8509 05b0 00       		.uleb128 0
 8510 05b1 79750000 		.4byte	.LASF242
 8511 05b5 05       		.byte	0x5
 8512 05b6 00       		.uleb128 0
 8513 05b7 74400000 		.4byte	.LASF243
 8514 05bb 05       		.byte	0x5
 8515 05bc 00       		.uleb128 0
 8516 05bd 9E130000 		.4byte	.LASF244
 8517 05c1 05       		.byte	0x5
 8518 05c2 00       		.uleb128 0
 8519 05c3 9C300000 		.4byte	.LASF245
 8520 05c7 05       		.byte	0x5
 8521 05c8 00       		.uleb128 0
 8522 05c9 EB020000 		.4byte	.LASF246
 8523 05cd 05       		.byte	0x5
 8524 05ce 00       		.uleb128 0
 8525 05cf D72C0000 		.4byte	.LASF247
 8526 05d3 05       		.byte	0x5
 8527 05d4 00       		.uleb128 0
 8528 05d5 AC2E0000 		.4byte	.LASF248
 8529 05d9 05       		.byte	0x5
 8530 05da 00       		.uleb128 0
 8531 05db 44680000 		.4byte	.LASF249
 8532 05df 05       		.byte	0x5
 8533 05e0 00       		.uleb128 0
 8534 05e1 74700000 		.4byte	.LASF250
 8535 05e5 05       		.byte	0x5
 8536 05e6 00       		.uleb128 0
 8537 05e7 7A080000 		.4byte	.LASF251
 8538 05eb 05       		.byte	0x5
 8539 05ec 00       		.uleb128 0
 8540 05ed 10020000 		.4byte	.LASF252
 8541 05f1 05       		.byte	0x5
 8542 05f2 00       		.uleb128 0
 8543 05f3 2B6D0000 		.4byte	.LASF253
 8544 05f7 05       		.byte	0x5
 8545 05f8 00       		.uleb128 0
 8546 05f9 755A0000 		.4byte	.LASF254
 8547 05fd 05       		.byte	0x5
 8548 05fe 00       		.uleb128 0
 8549 05ff 10410000 		.4byte	.LASF255
 8550 0603 05       		.byte	0x5
 8551 0604 00       		.uleb128 0
 8552 0605 F45E0000 		.4byte	.LASF256
 8553 0609 05       		.byte	0x5
 8554 060a 00       		.uleb128 0
 8555 060b 94750000 		.4byte	.LASF257
 8556 060f 05       		.byte	0x5
 8557 0610 00       		.uleb128 0
 8558 0611 FD620000 		.4byte	.LASF258
 8559 0615 05       		.byte	0x5
 8560 0616 00       		.uleb128 0
 8561 0617 0D3A0000 		.4byte	.LASF259
 8562 061b 05       		.byte	0x5
 8563 061c 00       		.uleb128 0
 8564 061d E9010000 		.4byte	.LASF260
ARM GAS  /tmp/ccFRKuha.s 			page 179


 8565 0621 05       		.byte	0x5
 8566 0622 00       		.uleb128 0
 8567 0623 68330000 		.4byte	.LASF261
 8568 0627 05       		.byte	0x5
 8569 0628 00       		.uleb128 0
 8570 0629 CA5D0000 		.4byte	.LASF262
 8571 062d 05       		.byte	0x5
 8572 062e 00       		.uleb128 0
 8573 062f 94220000 		.4byte	.LASF263
 8574 0633 05       		.byte	0x5
 8575 0634 00       		.uleb128 0
 8576 0635 5A6F0000 		.4byte	.LASF264
 8577 0639 05       		.byte	0x5
 8578 063a 00       		.uleb128 0
 8579 063b D30E0000 		.4byte	.LASF265
 8580 063f 05       		.byte	0x5
 8581 0640 00       		.uleb128 0
 8582 0641 52050000 		.4byte	.LASF266
 8583 0645 05       		.byte	0x5
 8584 0646 00       		.uleb128 0
 8585 0647 6B2A0000 		.4byte	.LASF267
 8586 064b 05       		.byte	0x5
 8587 064c 00       		.uleb128 0
 8588 064d 596E0000 		.4byte	.LASF268
 8589 0651 05       		.byte	0x5
 8590 0652 00       		.uleb128 0
 8591 0653 4D620000 		.4byte	.LASF269
 8592 0657 05       		.byte	0x5
 8593 0658 00       		.uleb128 0
 8594 0659 C2770000 		.4byte	.LASF270
 8595 065d 05       		.byte	0x5
 8596 065e 00       		.uleb128 0
 8597 065f C82D0000 		.4byte	.LASF271
 8598 0663 05       		.byte	0x5
 8599 0664 00       		.uleb128 0
 8600 0665 080E0000 		.4byte	.LASF272
 8601 0669 05       		.byte	0x5
 8602 066a 00       		.uleb128 0
 8603 066b 26060000 		.4byte	.LASF273
 8604 066f 05       		.byte	0x5
 8605 0670 00       		.uleb128 0
 8606 0671 305B0000 		.4byte	.LASF274
 8607 0675 05       		.byte	0x5
 8608 0676 00       		.uleb128 0
 8609 0677 605F0000 		.4byte	.LASF275
 8610 067b 05       		.byte	0x5
 8611 067c 00       		.uleb128 0
 8612 067d 8E210000 		.4byte	.LASF276
 8613 0681 05       		.byte	0x5
 8614 0682 00       		.uleb128 0
 8615 0683 32030000 		.4byte	.LASF277
 8616 0687 05       		.byte	0x5
 8617 0688 00       		.uleb128 0
 8618 0689 7C4C0000 		.4byte	.LASF278
 8619 068d 05       		.byte	0x5
 8620 068e 00       		.uleb128 0
 8621 068f E3400000 		.4byte	.LASF279
ARM GAS  /tmp/ccFRKuha.s 			page 180


 8622 0693 05       		.byte	0x5
 8623 0694 00       		.uleb128 0
 8624 0695 750E0000 		.4byte	.LASF280
 8625 0699 05       		.byte	0x5
 8626 069a 00       		.uleb128 0
 8627 069b AC630000 		.4byte	.LASF281
 8628 069f 05       		.byte	0x5
 8629 06a0 00       		.uleb128 0
 8630 06a1 B60D0000 		.4byte	.LASF282
 8631 06a5 05       		.byte	0x5
 8632 06a6 00       		.uleb128 0
 8633 06a7 75630000 		.4byte	.LASF283
 8634 06ab 05       		.byte	0x5
 8635 06ac 00       		.uleb128 0
 8636 06ad 6F480000 		.4byte	.LASF284
 8637 06b1 05       		.byte	0x5
 8638 06b2 00       		.uleb128 0
 8639 06b3 5D730000 		.4byte	.LASF285
 8640 06b7 05       		.byte	0x5
 8641 06b8 00       		.uleb128 0
 8642 06b9 3F5D0000 		.4byte	.LASF286
 8643 06bd 05       		.byte	0x5
 8644 06be 00       		.uleb128 0
 8645 06bf 3B610000 		.4byte	.LASF287
 8646 06c3 05       		.byte	0x5
 8647 06c4 00       		.uleb128 0
 8648 06c5 91250000 		.4byte	.LASF288
 8649 06c9 05       		.byte	0x5
 8650 06ca 00       		.uleb128 0
 8651 06cb C5420000 		.4byte	.LASF289
 8652 06cf 05       		.byte	0x5
 8653 06d0 00       		.uleb128 0
 8654 06d1 4A610000 		.4byte	.LASF290
 8655 06d5 05       		.byte	0x5
 8656 06d6 00       		.uleb128 0
 8657 06d7 1E380000 		.4byte	.LASF291
 8658 06db 05       		.byte	0x5
 8659 06dc 00       		.uleb128 0
 8660 06dd 96290000 		.4byte	.LASF292
 8661 06e1 05       		.byte	0x5
 8662 06e2 00       		.uleb128 0
 8663 06e3 5E7B0000 		.4byte	.LASF293
 8664 06e7 05       		.byte	0x5
 8665 06e8 00       		.uleb128 0
 8666 06e9 6E2F0000 		.4byte	.LASF294
 8667 06ed 05       		.byte	0x5
 8668 06ee 00       		.uleb128 0
 8669 06ef 30010000 		.4byte	.LASF295
 8670 06f3 05       		.byte	0x5
 8671 06f4 00       		.uleb128 0
 8672 06f5 55460000 		.4byte	.LASF296
 8673 06f9 05       		.byte	0x5
 8674 06fa 00       		.uleb128 0
 8675 06fb 4C750000 		.4byte	.LASF297
 8676 06ff 05       		.byte	0x5
 8677 0700 00       		.uleb128 0
 8678 0701 7B4F0000 		.4byte	.LASF298
ARM GAS  /tmp/ccFRKuha.s 			page 181


 8679 0705 05       		.byte	0x5
 8680 0706 00       		.uleb128 0
 8681 0707 2C240000 		.4byte	.LASF299
 8682 070b 05       		.byte	0x5
 8683 070c 00       		.uleb128 0
 8684 070d 46150000 		.4byte	.LASF300
 8685 0711 05       		.byte	0x5
 8686 0712 00       		.uleb128 0
 8687 0713 5C6A0000 		.4byte	.LASF301
 8688 0717 05       		.byte	0x5
 8689 0718 00       		.uleb128 0
 8690 0719 260E0000 		.4byte	.LASF302
 8691 071d 05       		.byte	0x5
 8692 071e 00       		.uleb128 0
 8693 071f 4A6F0000 		.4byte	.LASF303
 8694 0723 05       		.byte	0x5
 8695 0724 00       		.uleb128 0
 8696 0725 F2660000 		.4byte	.LASF304
 8697 0729 05       		.byte	0x5
 8698 072a 00       		.uleb128 0
 8699 072b DB330000 		.4byte	.LASF305
 8700 072f 05       		.byte	0x5
 8701 0730 00       		.uleb128 0
 8702 0731 D3420000 		.4byte	.LASF306
 8703 0735 05       		.byte	0x5
 8704 0736 00       		.uleb128 0
 8705 0737 14640000 		.4byte	.LASF307
 8706 073b 05       		.byte	0x5
 8707 073c 00       		.uleb128 0
 8708 073d CC150000 		.4byte	.LASF308
 8709 0741 05       		.byte	0x5
 8710 0742 00       		.uleb128 0
 8711 0743 10500000 		.4byte	.LASF309
 8712 0747 05       		.byte	0x5
 8713 0748 00       		.uleb128 0
 8714 0749 713C0000 		.4byte	.LASF310
 8715 074d 05       		.byte	0x5
 8716 074e 00       		.uleb128 0
 8717 074f 7E1C0000 		.4byte	.LASF311
 8718 0753 05       		.byte	0x5
 8719 0754 00       		.uleb128 0
 8720 0755 0F010000 		.4byte	.LASF312
 8721 0759 05       		.byte	0x5
 8722 075a 00       		.uleb128 0
 8723 075b 3E2D0000 		.4byte	.LASF313
 8724 075f 05       		.byte	0x5
 8725 0760 00       		.uleb128 0
 8726 0761 D7630000 		.4byte	.LASF314
 8727 0765 05       		.byte	0x5
 8728 0766 00       		.uleb128 0
 8729 0767 F2400000 		.4byte	.LASF315
 8730 076b 05       		.byte	0x5
 8731 076c 00       		.uleb128 0
 8732 076d 2A260000 		.4byte	.LASF316
 8733 0771 05       		.byte	0x5
 8734 0772 00       		.uleb128 0
 8735 0773 FB2D0000 		.4byte	.LASF317
ARM GAS  /tmp/ccFRKuha.s 			page 182


 8736 0777 05       		.byte	0x5
 8737 0778 00       		.uleb128 0
 8738 0779 B3560000 		.4byte	.LASF318
 8739 077d 05       		.byte	0x5
 8740 077e 00       		.uleb128 0
 8741 077f BE370000 		.4byte	.LASF319
 8742 0783 05       		.byte	0x5
 8743 0784 00       		.uleb128 0
 8744 0785 D2230000 		.4byte	.LASF320
 8745 0789 05       		.byte	0x5
 8746 078a 00       		.uleb128 0
 8747 078b 99440000 		.4byte	.LASF321
 8748 078f 05       		.byte	0x5
 8749 0790 00       		.uleb128 0
 8750 0791 C16F0000 		.4byte	.LASF322
 8751 0795 05       		.byte	0x5
 8752 0796 00       		.uleb128 0
 8753 0797 594D0000 		.4byte	.LASF323
 8754 079b 05       		.byte	0x5
 8755 079c 00       		.uleb128 0
 8756 079d F5070000 		.4byte	.LASF324
 8757 07a1 05       		.byte	0x5
 8758 07a2 00       		.uleb128 0
 8759 07a3 AF350000 		.4byte	.LASF325
 8760 07a7 05       		.byte	0x5
 8761 07a8 00       		.uleb128 0
 8762 07a9 E8060000 		.4byte	.LASF326
 8763 07ad 05       		.byte	0x5
 8764 07ae 00       		.uleb128 0
 8765 07af E2500000 		.4byte	.LASF327
 8766 07b3 05       		.byte	0x5
 8767 07b4 00       		.uleb128 0
 8768 07b5 C85E0000 		.4byte	.LASF328
 8769 07b9 05       		.byte	0x5
 8770 07ba 00       		.uleb128 0
 8771 07bb CD5A0000 		.4byte	.LASF329
 8772 07bf 05       		.byte	0x5
 8773 07c0 00       		.uleb128 0
 8774 07c1 60770000 		.4byte	.LASF330
 8775 07c5 05       		.byte	0x5
 8776 07c6 00       		.uleb128 0
 8777 07c7 FB540000 		.4byte	.LASF331
 8778 07cb 05       		.byte	0x5
 8779 07cc 00       		.uleb128 0
 8780 07cd 0C6E0000 		.4byte	.LASF332
 8781 07d1 05       		.byte	0x5
 8782 07d2 00       		.uleb128 0
 8783 07d3 A7210000 		.4byte	.LASF333
 8784 07d7 05       		.byte	0x5
 8785 07d8 00       		.uleb128 0
 8786 07d9 EB380000 		.4byte	.LASF334
 8787 07dd 05       		.byte	0x5
 8788 07de 00       		.uleb128 0
 8789 07df F42C0000 		.4byte	.LASF335
 8790 07e3 05       		.byte	0x5
 8791 07e4 00       		.uleb128 0
 8792 07e5 10610000 		.4byte	.LASF336
ARM GAS  /tmp/ccFRKuha.s 			page 183


 8793 07e9 05       		.byte	0x5
 8794 07ea 00       		.uleb128 0
 8795 07eb F8050000 		.4byte	.LASF337
 8796 07ef 05       		.byte	0x5
 8797 07f0 00       		.uleb128 0
 8798 07f1 51160000 		.4byte	.LASF338
 8799 07f5 05       		.byte	0x5
 8800 07f6 00       		.uleb128 0
 8801 07f7 8F670000 		.4byte	.LASF339
 8802 07fb 05       		.byte	0x5
 8803 07fc 00       		.uleb128 0
 8804 07fd EF2F0000 		.4byte	.LASF340
 8805 0801 05       		.byte	0x5
 8806 0802 00       		.uleb128 0
 8807 0803 B6700000 		.4byte	.LASF341
 8808 0807 05       		.byte	0x5
 8809 0808 00       		.uleb128 0
 8810 0809 F33A0000 		.4byte	.LASF342
 8811 080d 05       		.byte	0x5
 8812 080e 00       		.uleb128 0
 8813 080f F6610000 		.4byte	.LASF343
 8814 0813 05       		.byte	0x5
 8815 0814 00       		.uleb128 0
 8816 0815 41220000 		.4byte	.LASF344
 8817 0819 05       		.byte	0x5
 8818 081a 00       		.uleb128 0
 8819 081b 16720000 		.4byte	.LASF345
 8820 081f 00       		.byte	0
 8821              		.section	.debug_macro,"G",%progbits,wm4.features.h.22.2e382148a0560adabf236cddd4e880f4,comdat
 8822              	.Ldebug_macro2:
 8823 0000 0400     		.2byte	0x4
 8824 0002 00       		.byte	0
 8825 0003 05       		.byte	0x5
 8826 0004 16       		.uleb128 0x16
 8827 0005 47230000 		.4byte	.LASF350
 8828 0009 05       		.byte	0x5
 8829 000a 1F       		.uleb128 0x1f
 8830 000b AD6A0000 		.4byte	.LASF351
 8831 000f 05       		.byte	0x5
 8832 0010 20       		.uleb128 0x20
 8833 0011 3C180000 		.4byte	.LASF352
 8834 0015 05       		.byte	0x5
 8835 0016 25       		.uleb128 0x25
 8836 0017 22130000 		.4byte	.LASF353
 8837 001b 05       		.byte	0x5
 8838 001c 2C       		.uleb128 0x2c
 8839 001d 036F0000 		.4byte	.LASF354
 8840 0021 00       		.byte	0
 8841              		.section	.debug_macro,"G",%progbits,wm4._default_types.h.15.933e8edd27a65e0b69af4a865eb623d2,comda
 8842              	.Ldebug_macro3:
 8843 0000 0400     		.2byte	0x4
 8844 0002 00       		.byte	0
 8845 0003 05       		.byte	0x5
 8846 0004 0F       		.uleb128 0xf
 8847 0005 CE460000 		.4byte	.LASF355
 8848 0009 05       		.byte	0x5
 8849 000a 21       		.uleb128 0x21
ARM GAS  /tmp/ccFRKuha.s 			page 184


 8850 000b DA370000 		.4byte	.LASF356
 8851 000f 05       		.byte	0x5
 8852 0010 2F       		.uleb128 0x2f
 8853 0011 EB270000 		.4byte	.LASF357
 8854 0015 05       		.byte	0x5
 8855 0016 45       		.uleb128 0x45
 8856 0017 CB430000 		.4byte	.LASF358
 8857 001b 05       		.byte	0x5
 8858 001c 5F       		.uleb128 0x5f
 8859 001d FF570000 		.4byte	.LASF359
 8860 0021 05       		.byte	0x5
 8861 0022 7E       		.uleb128 0x7e
 8862 0023 8B4D0000 		.4byte	.LASF360
 8863 0027 05       		.byte	0x5
 8864 0028 9801     		.uleb128 0x98
 8865 002a B3140000 		.4byte	.LASF361
 8866 002e 05       		.byte	0x5
 8867 002f AE01     		.uleb128 0xae
 8868 0031 FD170000 		.4byte	.LASF362
 8869 0035 05       		.byte	0x5
 8870 0036 C001     		.uleb128 0xc0
 8871 0038 6D740000 		.4byte	.LASF363
 8872 003c 06       		.byte	0x6
 8873 003d D601     		.uleb128 0xd6
 8874 003f DE570000 		.4byte	.LASF364
 8875 0043 00       		.byte	0
 8876              		.section	.debug_macro,"G",%progbits,wm4._intsup.h.10.35a45952db64d30146faa63a55c20c1c,comdat
 8877              	.Ldebug_macro4:
 8878 0000 0400     		.2byte	0x4
 8879 0002 00       		.byte	0
 8880 0003 05       		.byte	0x5
 8881 0004 0A       		.uleb128 0xa
 8882 0005 1B740000 		.4byte	.LASF365
 8883 0009 05       		.byte	0x5
 8884 000a 10       		.uleb128 0x10
 8885 000b B2460000 		.4byte	.LASF366
 8886 000f 05       		.byte	0x5
 8887 0010 1A       		.uleb128 0x1a
 8888 0011 195E0000 		.4byte	.LASF367
 8889 0015 05       		.byte	0x5
 8890 0016 21       		.uleb128 0x21
 8891 0017 D06C0000 		.4byte	.LASF368
 8892 001b 06       		.byte	0x6
 8893 001c 37       		.uleb128 0x37
 8894 001d 4F380000 		.4byte	.LASF369
 8895 0021 06       		.byte	0x6
 8896 0022 38       		.uleb128 0x38
 8897 0023 39080000 		.4byte	.LASF370
 8898 0027 06       		.byte	0x6
 8899 0028 39       		.uleb128 0x39
 8900 0029 27240000 		.4byte	.LASF371
 8901 002d 06       		.byte	0x6
 8902 002e 3A       		.uleb128 0x3a
 8903 002f 8C550000 		.4byte	.LASF372
 8904 0033 02       		.byte	0x2
 8905 0034 3B       		.uleb128 0x3b
 8906 0035 696E7400 		.ascii	"int\000"
ARM GAS  /tmp/ccFRKuha.s 			page 185


 8907 0039 06       		.byte	0x6
 8908 003a 3C       		.uleb128 0x3c
 8909 003b 7C550000 		.4byte	.LASF373
 8910 003f 05       		.byte	0x5
 8911 0040 3D       		.uleb128 0x3d
 8912 0041 D70A0000 		.4byte	.LASF374
 8913 0045 05       		.byte	0x5
 8914 0046 3E       		.uleb128 0x3e
 8915 0047 B43C0000 		.4byte	.LASF375
 8916 004b 05       		.byte	0x5
 8917 004c 3F       		.uleb128 0x3f
 8918 004d 314D0000 		.4byte	.LASF376
 8919 0051 05       		.byte	0x5
 8920 0052 40       		.uleb128 0x40
 8921 0053 78570000 		.4byte	.LASF377
 8922 0057 05       		.byte	0x5
 8923 0058 41       		.uleb128 0x41
 8924 0059 A7390000 		.4byte	.LASF378
 8925 005d 05       		.byte	0x5
 8926 005e 42       		.uleb128 0x42
 8927 005f 59790000 		.4byte	.LASF379
 8928 0063 05       		.byte	0x5
 8929 0064 4D       		.uleb128 0x4d
 8930 0065 19780000 		.4byte	.LASF380
 8931 0069 05       		.byte	0x5
 8932 006a 55       		.uleb128 0x55
 8933 006b D55E0000 		.4byte	.LASF381
 8934 006f 05       		.byte	0x5
 8935 0070 60       		.uleb128 0x60
 8936 0071 244C0000 		.4byte	.LASF382
 8937 0075 05       		.byte	0x5
 8938 0076 6B       		.uleb128 0x6b
 8939 0077 3A710000 		.4byte	.LASF383
 8940 007b 05       		.byte	0x5
 8941 007c 74       		.uleb128 0x74
 8942 007d 52100000 		.4byte	.LASF384
 8943 0081 05       		.byte	0x5
 8944 0082 7B       		.uleb128 0x7b
 8945 0083 306E0000 		.4byte	.LASF385
 8946 0087 05       		.byte	0x5
 8947 0088 8401     		.uleb128 0x84
 8948 008a 98190000 		.4byte	.LASF386
 8949 008e 05       		.byte	0x5
 8950 008f 8B01     		.uleb128 0x8b
 8951 0091 E63D0000 		.4byte	.LASF387
 8952 0095 05       		.byte	0x5
 8953 0096 9601     		.uleb128 0x96
 8954 0098 933C0000 		.4byte	.LASF388
 8955 009c 05       		.byte	0x5
 8956 009d 9A01     		.uleb128 0x9a
 8957 009f 432A0000 		.4byte	.LASF389
 8958 00a3 05       		.byte	0x5
 8959 00a4 A501     		.uleb128 0xa5
 8960 00a6 73760000 		.4byte	.LASF390
 8961 00aa 05       		.byte	0x5
 8962 00ab B001     		.uleb128 0xb0
 8963 00ad 44100000 		.4byte	.LASF391
ARM GAS  /tmp/ccFRKuha.s 			page 186


 8964 00b1 05       		.byte	0x5
 8965 00b2 B901     		.uleb128 0xb9
 8966 00b4 FD530000 		.4byte	.LASF392
 8967 00b8 06       		.byte	0x6
 8968 00b9 BB01     		.uleb128 0xbb
 8969 00bb 4F380000 		.4byte	.LASF369
 8970 00bf 06       		.byte	0x6
 8971 00c0 BC01     		.uleb128 0xbc
 8972 00c2 39080000 		.4byte	.LASF370
 8973 00c6 06       		.byte	0x6
 8974 00c7 BD01     		.uleb128 0xbd
 8975 00c9 27240000 		.4byte	.LASF371
 8976 00cd 06       		.byte	0x6
 8977 00ce BE01     		.uleb128 0xbe
 8978 00d0 8C550000 		.4byte	.LASF372
 8979 00d4 02       		.byte	0x2
 8980 00d5 BF01     		.uleb128 0xbf
 8981 00d7 696E7400 		.ascii	"int\000"
 8982 00db 06       		.byte	0x6
 8983 00dc C001     		.uleb128 0xc0
 8984 00de 7C550000 		.4byte	.LASF373
 8985 00e2 00       		.byte	0
 8986              		.section	.debug_macro,"G",%progbits,wm4._stdint.h.10.f76354baea1c7088202064e6f3d4f5e3,comdat
 8987              	.Ldebug_macro5:
 8988 0000 0400     		.2byte	0x4
 8989 0002 00       		.byte	0
 8990 0003 05       		.byte	0x5
 8991 0004 0A       		.uleb128 0xa
 8992 0005 473B0000 		.4byte	.LASF393
 8993 0009 05       		.byte	0x5
 8994 000a 15       		.uleb128 0x15
 8995 000b 59280000 		.4byte	.LASF394
 8996 000f 05       		.byte	0x5
 8997 0010 1B       		.uleb128 0x1b
 8998 0011 9D3E0000 		.4byte	.LASF395
 8999 0015 05       		.byte	0x5
 9000 0016 21       		.uleb128 0x21
 9001 0017 F8380000 		.4byte	.LASF396
 9002 001b 05       		.byte	0x5
 9003 001c 27       		.uleb128 0x27
 9004 001d DE6D0000 		.4byte	.LASF397
 9005 0021 00       		.byte	0
 9006              		.section	.debug_macro,"G",%progbits,wm4.stdint.h.23.373a9d32a9e4c2e88fd347156532d281,comdat
 9007              	.Ldebug_macro6:
 9008 0000 0400     		.2byte	0x4
 9009 0002 00       		.byte	0
 9010 0003 05       		.byte	0x5
 9011 0004 17       		.uleb128 0x17
 9012 0005 22790000 		.4byte	.LASF398
 9013 0009 05       		.byte	0x5
 9014 000a 1D       		.uleb128 0x1d
 9015 000b BD2C0000 		.4byte	.LASF399
 9016 000f 05       		.byte	0x5
 9017 0010 23       		.uleb128 0x23
 9018 0011 C1330000 		.4byte	.LASF400
 9019 0015 05       		.byte	0x5
 9020 0016 29       		.uleb128 0x29
ARM GAS  /tmp/ccFRKuha.s 			page 187


 9021 0017 E6310000 		.4byte	.LASF401
 9022 001b 05       		.byte	0x5
 9023 001c 35       		.uleb128 0x35
 9024 001d 514E0000 		.4byte	.LASF402
 9025 0021 05       		.byte	0x5
 9026 0022 3F       		.uleb128 0x3f
 9027 0023 8F480000 		.4byte	.LASF403
 9028 0027 05       		.byte	0x5
 9029 0028 49       		.uleb128 0x49
 9030 0029 180D0000 		.4byte	.LASF404
 9031 002d 05       		.byte	0x5
 9032 002e 53       		.uleb128 0x53
 9033 002f 08220000 		.4byte	.LASF405
 9034 0033 05       		.byte	0x5
 9035 0034 9301     		.uleb128 0x93
 9036 0036 B72F0000 		.4byte	.LASF406
 9037 003a 05       		.byte	0x5
 9038 003b 9401     		.uleb128 0x94
 9039 003d 916A0000 		.4byte	.LASF407
 9040 0041 05       		.byte	0x5
 9041 0042 9501     		.uleb128 0x95
 9042 0044 03160000 		.4byte	.LASF408
 9043 0048 05       		.byte	0x5
 9044 0049 AB01     		.uleb128 0xab
 9045 004b 98340000 		.4byte	.LASF409
 9046 004f 05       		.byte	0x5
 9047 0050 AC01     		.uleb128 0xac
 9048 0052 9B0A0000 		.4byte	.LASF410
 9049 0056 05       		.byte	0x5
 9050 0057 AD01     		.uleb128 0xad
 9051 0059 DE780000 		.4byte	.LASF411
 9052 005d 05       		.byte	0x5
 9053 005e B501     		.uleb128 0xb5
 9054 0060 E06C0000 		.4byte	.LASF412
 9055 0064 05       		.byte	0x5
 9056 0065 B601     		.uleb128 0xb6
 9057 0067 760F0000 		.4byte	.LASF413
 9058 006b 05       		.byte	0x5
 9059 006c B701     		.uleb128 0xb7
 9060 006e 4F630000 		.4byte	.LASF414
 9061 0072 05       		.byte	0x5
 9062 0073 C101     		.uleb128 0xc1
 9063 0075 EA510000 		.4byte	.LASF415
 9064 0079 05       		.byte	0x5
 9065 007a C201     		.uleb128 0xc2
 9066 007c 7A0C0000 		.4byte	.LASF416
 9067 0080 05       		.byte	0x5
 9068 0081 C301     		.uleb128 0xc3
 9069 0083 C6350000 		.4byte	.LASF417
 9070 0087 05       		.byte	0x5
 9071 0088 CB01     		.uleb128 0xcb
 9072 008a EC440000 		.4byte	.LASF418
 9073 008e 05       		.byte	0x5
 9074 008f CC01     		.uleb128 0xcc
 9075 0091 B2090000 		.4byte	.LASF419
 9076 0095 05       		.byte	0x5
 9077 0096 CD01     		.uleb128 0xcd
ARM GAS  /tmp/ccFRKuha.s 			page 188


 9078 0098 012B0000 		.4byte	.LASF420
 9079 009c 05       		.byte	0x5
 9080 009d D701     		.uleb128 0xd7
 9081 009f 00620000 		.4byte	.LASF421
 9082 00a3 05       		.byte	0x5
 9083 00a4 D801     		.uleb128 0xd8
 9084 00a6 56290000 		.4byte	.LASF422
 9085 00aa 05       		.byte	0x5
 9086 00ab D901     		.uleb128 0xd9
 9087 00ad A1410000 		.4byte	.LASF423
 9088 00b1 05       		.byte	0x5
 9089 00b2 E701     		.uleb128 0xe7
 9090 00b4 7B680000 		.4byte	.LASF424
 9091 00b8 05       		.byte	0x5
 9092 00b9 E801     		.uleb128 0xe8
 9093 00bb 012D0000 		.4byte	.LASF425
 9094 00bf 05       		.byte	0x5
 9095 00c0 E901     		.uleb128 0xe9
 9096 00c2 98650000 		.4byte	.LASF426
 9097 00c6 05       		.byte	0x5
 9098 00c7 F901     		.uleb128 0xf9
 9099 00c9 C46A0000 		.4byte	.LASF427
 9100 00cd 05       		.byte	0x5
 9101 00ce FA01     		.uleb128 0xfa
 9102 00d0 15490000 		.4byte	.LASF428
 9103 00d4 05       		.byte	0x5
 9104 00d5 FB01     		.uleb128 0xfb
 9105 00d7 8B6B0000 		.4byte	.LASF429
 9106 00db 05       		.byte	0x5
 9107 00dc 8902     		.uleb128 0x109
 9108 00de D0100000 		.4byte	.LASF430
 9109 00e2 05       		.byte	0x5
 9110 00e3 8A02     		.uleb128 0x10a
 9111 00e5 850E0000 		.4byte	.LASF431
 9112 00e9 05       		.byte	0x5
 9113 00ea 8B02     		.uleb128 0x10b
 9114 00ec 4D5A0000 		.4byte	.LASF432
 9115 00f0 05       		.byte	0x5
 9116 00f1 9902     		.uleb128 0x119
 9117 00f3 C94A0000 		.4byte	.LASF433
 9118 00f7 05       		.byte	0x5
 9119 00f8 9A02     		.uleb128 0x11a
 9120 00fa F1200000 		.4byte	.LASF434
 9121 00fe 05       		.byte	0x5
 9122 00ff 9B02     		.uleb128 0x11b
 9123 0101 895A0000 		.4byte	.LASF435
 9124 0105 05       		.byte	0x5
 9125 0106 A902     		.uleb128 0x129
 9126 0108 CC070000 		.4byte	.LASF436
 9127 010c 05       		.byte	0x5
 9128 010d AA02     		.uleb128 0x12a
 9129 010f 3B0A0000 		.4byte	.LASF437
 9130 0113 05       		.byte	0x5
 9131 0114 AB02     		.uleb128 0x12b
 9132 0116 08650000 		.4byte	.LASF438
 9133 011a 05       		.byte	0x5
 9134 011b B902     		.uleb128 0x139
ARM GAS  /tmp/ccFRKuha.s 			page 189


 9135 011d 65120000 		.4byte	.LASF439
 9136 0121 05       		.byte	0x5
 9137 0122 BA02     		.uleb128 0x13a
 9138 0124 76140000 		.4byte	.LASF440
 9139 0128 05       		.byte	0x5
 9140 0129 BB02     		.uleb128 0x13b
 9141 012b 8C460000 		.4byte	.LASF441
 9142 012f 05       		.byte	0x5
 9143 0130 C902     		.uleb128 0x149
 9144 0132 D3520000 		.4byte	.LASF442
 9145 0136 05       		.byte	0x5
 9146 0137 CA02     		.uleb128 0x14a
 9147 0139 88740000 		.4byte	.LASF443
 9148 013d 05       		.byte	0x5
 9149 013e CB02     		.uleb128 0x14b
 9150 0140 656B0000 		.4byte	.LASF444
 9151 0144 05       		.byte	0x5
 9152 0145 D902     		.uleb128 0x159
 9153 0147 3A290000 		.4byte	.LASF445
 9154 014b 05       		.byte	0x5
 9155 014c DA02     		.uleb128 0x15a
 9156 014e D94D0000 		.4byte	.LASF446
 9157 0152 05       		.byte	0x5
 9158 0153 E202     		.uleb128 0x162
 9159 0155 353D0000 		.4byte	.LASF447
 9160 0159 05       		.byte	0x5
 9161 015a EA02     		.uleb128 0x16a
 9162 015c 0C390000 		.4byte	.LASF448
 9163 0160 05       		.byte	0x5
 9164 0161 F002     		.uleb128 0x170
 9165 0163 26310000 		.4byte	.LASF449
 9166 0167 05       		.byte	0x5
 9167 0168 F102     		.uleb128 0x171
 9168 016a 49260000 		.4byte	.LASF450
 9169 016e 05       		.byte	0x5
 9170 016f F502     		.uleb128 0x175
 9171 0171 E10A0000 		.4byte	.LASF451
 9172 0175 05       		.byte	0x5
 9173 0176 F902     		.uleb128 0x179
 9174 0178 89240000 		.4byte	.LASF452
 9175 017c 05       		.byte	0x5
 9176 017d FE02     		.uleb128 0x17e
 9177 017f 081C0000 		.4byte	.LASF453
 9178 0183 05       		.byte	0x5
 9179 0184 8903     		.uleb128 0x189
 9180 0186 2F0F0000 		.4byte	.LASF454
 9181 018a 05       		.byte	0x5
 9182 018b 9303     		.uleb128 0x193
 9183 018d 42420000 		.4byte	.LASF455
 9184 0191 05       		.byte	0x5
 9185 0192 9803     		.uleb128 0x198
 9186 0194 1A000000 		.4byte	.LASF456
 9187 0198 05       		.byte	0x5
 9188 0199 9F03     		.uleb128 0x19f
 9189 019b D6390000 		.4byte	.LASF457
 9190 019f 05       		.byte	0x5
 9191 01a0 A003     		.uleb128 0x1a0
ARM GAS  /tmp/ccFRKuha.s 			page 190


 9192 01a2 4B6C0000 		.4byte	.LASF458
 9193 01a6 05       		.byte	0x5
 9194 01a7 AB03     		.uleb128 0x1ab
 9195 01a9 AA690000 		.4byte	.LASF459
 9196 01ad 05       		.byte	0x5
 9197 01ae AC03     		.uleb128 0x1ac
 9198 01b0 90730000 		.4byte	.LASF460
 9199 01b4 05       		.byte	0x5
 9200 01b5 B703     		.uleb128 0x1b7
 9201 01b7 F0640000 		.4byte	.LASF461
 9202 01bb 05       		.byte	0x5
 9203 01bc B803     		.uleb128 0x1b8
 9204 01be 1C4A0000 		.4byte	.LASF462
 9205 01c2 05       		.byte	0x5
 9206 01c3 C403     		.uleb128 0x1c4
 9207 01c5 80340000 		.4byte	.LASF463
 9208 01c9 05       		.byte	0x5
 9209 01ca C503     		.uleb128 0x1c5
 9210 01cc E3620000 		.4byte	.LASF464
 9211 01d0 05       		.byte	0x5
 9212 01d1 D403     		.uleb128 0x1d4
 9213 01d3 6F240000 		.4byte	.LASF465
 9214 01d7 05       		.byte	0x5
 9215 01d8 D503     		.uleb128 0x1d5
 9216 01da B8570000 		.4byte	.LASF466
 9217 01de 00       		.byte	0
 9218              		.section	.debug_macro,"G",%progbits,wm4.stdbool.h.29.1c9ee6859ce8145f7838a4f2549ccec2,comdat
 9219              	.Ldebug_macro7:
 9220 0000 0400     		.2byte	0x4
 9221 0002 00       		.byte	0
 9222 0003 05       		.byte	0x5
 9223 0004 1D       		.uleb128 0x1d
 9224 0005 8F1D0000 		.4byte	.LASF468
 9225 0009 05       		.byte	0x5
 9226 000a 21       		.uleb128 0x21
 9227 000b FB2F0000 		.4byte	.LASF469
 9228 000f 05       		.byte	0x5
 9229 0010 22       		.uleb128 0x22
 9230 0011 644F0000 		.4byte	.LASF470
 9231 0015 05       		.byte	0x5
 9232 0016 23       		.uleb128 0x23
 9233 0017 5D2D0000 		.4byte	.LASF471
 9234 001b 05       		.byte	0x5
 9235 001c 30       		.uleb128 0x30
 9236 001d D1770000 		.4byte	.LASF472
 9237 0021 00       		.byte	0
 9238              		.section	.debug_macro,"G",%progbits,wm4.lpc_types.h.63.860ba57581a002825766a7c2ac00d549,comdat
 9239              	.Ldebug_macro8:
 9240 0000 0400     		.2byte	0x4
 9241 0002 00       		.byte	0
 9242 0003 05       		.byte	0x5
 9243 0004 3F       		.uleb128 0x3f
 9244 0005 43170000 		.4byte	.LASF473
 9245 0009 05       		.byte	0x5
 9246 000a 45       		.uleb128 0x45
 9247 000b DF080000 		.4byte	.LASF474
 9248 000f 06       		.byte	0x6
ARM GAS  /tmp/ccFRKuha.s 			page 191


 9249 0010 66       		.uleb128 0x66
 9250 0011 B2000000 		.4byte	.LASF475
 9251 0015 05       		.byte	0x5
 9252 0016 68       		.uleb128 0x68
 9253 0017 1E270000 		.4byte	.LASF476
 9254 001b 06       		.byte	0x6
 9255 001c 6E       		.uleb128 0x6e
 9256 001d A72B0000 		.4byte	.LASF477
 9257 0021 05       		.byte	0x5
 9258 0022 70       		.uleb128 0x70
 9259 0023 671C0000 		.4byte	.LASF478
 9260 0027 06       		.byte	0x6
 9261 0028 7F       		.uleb128 0x7f
 9262 0029 01330000 		.4byte	.LASF479
 9263 002d 05       		.byte	0x5
 9264 002e 8101     		.uleb128 0x81
 9265 0030 88710000 		.4byte	.LASF480
 9266 0034 05       		.byte	0x5
 9267 0035 8501     		.uleb128 0x85
 9268 0037 05570000 		.4byte	.LASF481
 9269 003b 05       		.byte	0x5
 9270 003c 8901     		.uleb128 0x89
 9271 003e 03480000 		.4byte	.LASF482
 9272 0042 05       		.byte	0x5
 9273 0043 8C01     		.uleb128 0x8c
 9274 0045 67230000 		.4byte	.LASF483
 9275 0049 05       		.byte	0x5
 9276 004a 8E01     		.uleb128 0x8e
 9277 004c 793A0000 		.4byte	.LASF484
 9278 0050 05       		.byte	0x5
 9279 0051 9101     		.uleb128 0x91
 9280 0053 580B0000 		.4byte	.LASF485
 9281 0057 05       		.byte	0x5
 9282 0058 9401     		.uleb128 0x94
 9283 005a 1F6A0000 		.4byte	.LASF486
 9284 005e 05       		.byte	0x5
 9285 005f 9701     		.uleb128 0x97
 9286 0061 24230000 		.4byte	.LASF487
 9287 0065 05       		.byte	0x5
 9288 0066 D001     		.uleb128 0xd0
 9289 0068 B86E0000 		.4byte	.LASF488
 9290 006c 00       		.byte	0
 9291              		.section	.debug_macro,"G",%progbits,wm4.sys_config.h.31.9f234e9c90333d233c7e647ebe63e928,comdat
 9292              	.Ldebug_macro9:
 9293 0000 0400     		.2byte	0x4
 9294 0002 00       		.byte	0
 9295 0003 05       		.byte	0x5
 9296 0004 1F       		.uleb128 0x1f
 9297 0005 6C5E0000 		.4byte	.LASF489
 9298 0009 05       		.byte	0x5
 9299 000a 26       		.uleb128 0x26
 9300 000b B31B0000 		.4byte	.LASF490
 9301 000f 00       		.byte	0
 9302              		.section	.debug_macro,"G",%progbits,wm4.cmsis_11cxx.h.33.407e9bbb5d170cd1552d3f7dc3fd5c42,comdat
 9303              	.Ldebug_macro10:
 9304 0000 0400     		.2byte	0x4
 9305 0002 00       		.byte	0
ARM GAS  /tmp/ccFRKuha.s 			page 192


 9306 0003 05       		.byte	0x5
 9307 0004 21       		.uleb128 0x21
 9308 0005 6E780000 		.4byte	.LASF492
 9309 0009 05       		.byte	0x5
 9310 000a 8801     		.uleb128 0x88
 9311 000c 143B0000 		.4byte	.LASF493
 9312 0010 05       		.byte	0x5
 9313 0011 8901     		.uleb128 0x89
 9314 0013 E4740000 		.4byte	.LASF494
 9315 0017 05       		.byte	0x5
 9316 0018 8A01     		.uleb128 0x8a
 9317 001a 3F560000 		.4byte	.LASF495
 9318 001e 00       		.byte	0
 9319              		.section	.debug_macro,"G",%progbits,wm4.core_cm0.h.32.192d13cfa8b31e63c86621de62eb153f,comdat
 9320              	.Ldebug_macro11:
 9321 0000 0400     		.2byte	0x4
 9322 0002 00       		.byte	0
 9323 0003 05       		.byte	0x5
 9324 0004 20       		.uleb128 0x20
 9325 0005 A9120000 		.4byte	.LASF496
 9326 0009 05       		.byte	0x5
 9327 000a 38       		.uleb128 0x38
 9328 000b 3F550000 		.4byte	.LASF497
 9329 000f 05       		.byte	0x5
 9330 0010 39       		.uleb128 0x39
 9331 0011 A26F0000 		.4byte	.LASF498
 9332 0015 05       		.byte	0x5
 9333 0016 3A       		.uleb128 0x3a
 9334 0017 5D1F0000 		.4byte	.LASF499
 9335 001b 05       		.byte	0x5
 9336 001c 3D       		.uleb128 0x3d
 9337 001d D62D0000 		.4byte	.LASF500
 9338 0021 05       		.byte	0x5
 9339 0022 4B       		.uleb128 0x4b
 9340 0023 9A0F0000 		.4byte	.LASF501
 9341 0027 05       		.byte	0x5
 9342 0028 4C       		.uleb128 0x4c
 9343 0029 7F480000 		.4byte	.LASF502
 9344 002d 05       		.byte	0x5
 9345 002e 4D       		.uleb128 0x4d
 9346 002f B23F0000 		.4byte	.LASF503
 9347 0033 05       		.byte	0x5
 9348 0034 58       		.uleb128 0x58
 9349 0035 6F6F0000 		.4byte	.LASF504
 9350 0039 00       		.byte	0
 9351              		.section	.debug_macro,"G",%progbits,wm4.core_cm0.h.120.f4257ea7d0bce0cbabffe223e23b2fd4,comdat
 9352              	.Ldebug_macro12:
 9353 0000 0400     		.2byte	0x4
 9354 0002 00       		.byte	0
 9355 0003 05       		.byte	0x5
 9356 0004 78       		.uleb128 0x78
 9357 0005 0A790000 		.4byte	.LASF507
 9358 0009 05       		.byte	0x5
 9359 000a 9701     		.uleb128 0x97
 9360 000c F03D0000 		.4byte	.LASF508
 9361 0010 05       		.byte	0x5
 9362 0011 9901     		.uleb128 0x99
ARM GAS  /tmp/ccFRKuha.s 			page 193


 9363 0013 EE300000 		.4byte	.LASF509
 9364 0017 05       		.byte	0x5
 9365 0018 9A01     		.uleb128 0x9a
 9366 001a EF6B0000 		.4byte	.LASF510
 9367 001e 05       		.byte	0x5
 9368 001f B002     		.uleb128 0x130
 9369 0021 2D5E0000 		.4byte	.LASF511
 9370 0025 05       		.byte	0x5
 9371 0026 B102     		.uleb128 0x131
 9372 0028 20770000 		.4byte	.LASF512
 9373 002c 05       		.byte	0x5
 9374 002d B302     		.uleb128 0x133
 9375 002f C05F0000 		.4byte	.LASF513
 9376 0033 05       		.byte	0x5
 9377 0034 B402     		.uleb128 0x134
 9378 0036 364A0000 		.4byte	.LASF514
 9379 003a 05       		.byte	0x5
 9380 003b B602     		.uleb128 0x136
 9381 003d 55220000 		.4byte	.LASF515
 9382 0041 05       		.byte	0x5
 9383 0042 B702     		.uleb128 0x137
 9384 0044 D8030000 		.4byte	.LASF516
 9385 0048 05       		.byte	0x5
 9386 0049 B902     		.uleb128 0x139
 9387 004b 3F2B0000 		.4byte	.LASF517
 9388 004f 05       		.byte	0x5
 9389 0050 BA02     		.uleb128 0x13a
 9390 0052 0B1B0000 		.4byte	.LASF518
 9391 0056 05       		.byte	0x5
 9392 0057 BC02     		.uleb128 0x13c
 9393 0059 993F0000 		.4byte	.LASF519
 9394 005d 05       		.byte	0x5
 9395 005e BD02     		.uleb128 0x13d
 9396 0060 7A560000 		.4byte	.LASF520
 9397 0064 05       		.byte	0x5
 9398 0065 C002     		.uleb128 0x140
 9399 0067 B1540000 		.4byte	.LASF521
 9400 006b 05       		.byte	0x5
 9401 006c C102     		.uleb128 0x141
 9402 006e 562B0000 		.4byte	.LASF522
 9403 0072 05       		.byte	0x5
 9404 0073 C302     		.uleb128 0x143
 9405 0075 B1300000 		.4byte	.LASF523
 9406 0079 05       		.byte	0x5
 9407 007a C402     		.uleb128 0x144
 9408 007c FB650000 		.4byte	.LASF524
 9409 0080 05       		.byte	0x5
 9410 0081 C602     		.uleb128 0x146
 9411 0083 B66C0000 		.4byte	.LASF525
 9412 0087 05       		.byte	0x5
 9413 0088 C702     		.uleb128 0x147
 9414 008a E1290000 		.4byte	.LASF526
 9415 008e 05       		.byte	0x5
 9416 008f C902     		.uleb128 0x149
 9417 0091 810A0000 		.4byte	.LASF527
 9418 0095 05       		.byte	0x5
 9419 0096 CA02     		.uleb128 0x14a
ARM GAS  /tmp/ccFRKuha.s 			page 194


 9420 0098 16070000 		.4byte	.LASF528
 9421 009c 05       		.byte	0x5
 9422 009d CC02     		.uleb128 0x14c
 9423 009f 86490000 		.4byte	.LASF529
 9424 00a3 05       		.byte	0x5
 9425 00a4 CD02     		.uleb128 0x14d
 9426 00a6 B4020000 		.4byte	.LASF530
 9427 00aa 05       		.byte	0x5
 9428 00ab CF02     		.uleb128 0x14f
 9429 00ad 8E540000 		.4byte	.LASF531
 9430 00b1 05       		.byte	0x5
 9431 00b2 D002     		.uleb128 0x150
 9432 00b4 873A0000 		.4byte	.LASF532
 9433 00b8 05       		.byte	0x5
 9434 00b9 D202     		.uleb128 0x152
 9435 00bb A9040000 		.4byte	.LASF533
 9436 00bf 05       		.byte	0x5
 9437 00c0 D302     		.uleb128 0x153
 9438 00c2 1C370000 		.4byte	.LASF534
 9439 00c6 05       		.byte	0x5
 9440 00c7 D502     		.uleb128 0x155
 9441 00c9 8E450000 		.4byte	.LASF535
 9442 00cd 05       		.byte	0x5
 9443 00ce D602     		.uleb128 0x156
 9444 00d0 412E0000 		.4byte	.LASF536
 9445 00d4 05       		.byte	0x5
 9446 00d5 D802     		.uleb128 0x158
 9447 00d7 3E0C0000 		.4byte	.LASF537
 9448 00db 05       		.byte	0x5
 9449 00dc D902     		.uleb128 0x159
 9450 00de 521D0000 		.4byte	.LASF538
 9451 00e2 05       		.byte	0x5
 9452 00e3 DC02     		.uleb128 0x15c
 9453 00e5 6F710000 		.4byte	.LASF539
 9454 00e9 05       		.byte	0x5
 9455 00ea DD02     		.uleb128 0x15d
 9456 00ec 733B0000 		.4byte	.LASF540
 9457 00f0 05       		.byte	0x5
 9458 00f1 DF02     		.uleb128 0x15f
 9459 00f3 EF0B0000 		.4byte	.LASF541
 9460 00f7 05       		.byte	0x5
 9461 00f8 E002     		.uleb128 0x160
 9462 00fa 6D7C0000 		.4byte	.LASF542
 9463 00fe 05       		.byte	0x5
 9464 00ff E202     		.uleb128 0x162
 9465 0101 3F6D0000 		.4byte	.LASF543
 9466 0105 05       		.byte	0x5
 9467 0106 E302     		.uleb128 0x163
 9468 0108 A01C0000 		.4byte	.LASF544
 9469 010c 05       		.byte	0x5
 9470 010d E502     		.uleb128 0x165
 9471 010f D2300000 		.4byte	.LASF545
 9472 0113 05       		.byte	0x5
 9473 0114 E602     		.uleb128 0x166
 9474 0116 213A0000 		.4byte	.LASF546
 9475 011a 05       		.byte	0x5
 9476 011b E802     		.uleb128 0x168
ARM GAS  /tmp/ccFRKuha.s 			page 195


 9477 011d 29780000 		.4byte	.LASF547
 9478 0121 05       		.byte	0x5
 9479 0122 E902     		.uleb128 0x169
 9480 0124 7C6D0000 		.4byte	.LASF548
 9481 0128 05       		.byte	0x5
 9482 0129 EC02     		.uleb128 0x16c
 9483 012b A1530000 		.4byte	.LASF549
 9484 012f 05       		.byte	0x5
 9485 0130 ED02     		.uleb128 0x16d
 9486 0132 AB7B0000 		.4byte	.LASF550
 9487 0136 05       		.byte	0x5
 9488 0137 EF02     		.uleb128 0x16f
 9489 0139 C9290000 		.4byte	.LASF551
 9490 013d 05       		.byte	0x5
 9491 013e F002     		.uleb128 0x170
 9492 0140 0B1A0000 		.4byte	.LASF552
 9493 0144 05       		.byte	0x5
 9494 0145 F202     		.uleb128 0x172
 9495 0147 26280000 		.4byte	.LASF553
 9496 014b 05       		.byte	0x5
 9497 014c F302     		.uleb128 0x173
 9498 014e 00200000 		.4byte	.LASF554
 9499 0152 05       		.byte	0x5
 9500 0153 F602     		.uleb128 0x176
 9501 0155 C66E0000 		.4byte	.LASF555
 9502 0159 05       		.byte	0x5
 9503 015a F702     		.uleb128 0x177
 9504 015c 22120000 		.4byte	.LASF556
 9505 0160 05       		.byte	0x5
 9506 0161 F902     		.uleb128 0x179
 9507 0163 67500000 		.4byte	.LASF557
 9508 0167 05       		.byte	0x5
 9509 0168 FA02     		.uleb128 0x17a
 9510 016a 80060000 		.4byte	.LASF558
 9511 016e 05       		.byte	0x5
 9512 016f FD02     		.uleb128 0x17d
 9513 0171 5F2C0000 		.4byte	.LASF559
 9514 0175 05       		.byte	0x5
 9515 0176 FE02     		.uleb128 0x17e
 9516 0178 A3500000 		.4byte	.LASF560
 9517 017c 05       		.byte	0x5
 9518 017d 9403     		.uleb128 0x194
 9519 017f 9F2C0000 		.4byte	.LASF561
 9520 0183 05       		.byte	0x5
 9521 0184 9503     		.uleb128 0x195
 9522 0186 F06F0000 		.4byte	.LASF562
 9523 018a 05       		.byte	0x5
 9524 018b 9703     		.uleb128 0x197
 9525 018d 870B0000 		.4byte	.LASF563
 9526 0191 05       		.byte	0x5
 9527 0192 9803     		.uleb128 0x198
 9528 0194 7E050000 		.4byte	.LASF564
 9529 0198 05       		.byte	0x5
 9530 0199 9A03     		.uleb128 0x19a
 9531 019b 8E120000 		.4byte	.LASF565
 9532 019f 05       		.byte	0x5
 9533 01a0 9B03     		.uleb128 0x19b
ARM GAS  /tmp/ccFRKuha.s 			page 196


 9534 01a2 C0600000 		.4byte	.LASF566
 9535 01a6 05       		.byte	0x5
 9536 01a7 9D03     		.uleb128 0x19d
 9537 01a9 05290000 		.4byte	.LASF567
 9538 01ad 05       		.byte	0x5
 9539 01ae 9E03     		.uleb128 0x19e
 9540 01b0 B9660000 		.4byte	.LASF568
 9541 01b4 05       		.byte	0x5
 9542 01b5 A103     		.uleb128 0x1a1
 9543 01b7 F26D0000 		.4byte	.LASF569
 9544 01bb 05       		.byte	0x5
 9545 01bc A203     		.uleb128 0x1a2
 9546 01be 58650000 		.4byte	.LASF570
 9547 01c2 05       		.byte	0x5
 9548 01c3 A503     		.uleb128 0x1a5
 9549 01c5 375C0000 		.4byte	.LASF571
 9550 01c9 05       		.byte	0x5
 9551 01ca A603     		.uleb128 0x1a6
 9552 01cc 8B4C0000 		.4byte	.LASF572
 9553 01d0 05       		.byte	0x5
 9554 01d1 A903     		.uleb128 0x1a9
 9555 01d3 32660000 		.4byte	.LASF573
 9556 01d7 05       		.byte	0x5
 9557 01d8 AA03     		.uleb128 0x1aa
 9558 01da AE200000 		.4byte	.LASF574
 9559 01de 05       		.byte	0x5
 9560 01df AC03     		.uleb128 0x1ac
 9561 01e1 505D0000 		.4byte	.LASF575
 9562 01e5 05       		.byte	0x5
 9563 01e6 AD03     		.uleb128 0x1ad
 9564 01e8 15750000 		.4byte	.LASF576
 9565 01ec 05       		.byte	0x5
 9566 01ed AF03     		.uleb128 0x1af
 9567 01ef 39390000 		.4byte	.LASF577
 9568 01f3 05       		.byte	0x5
 9569 01f4 B003     		.uleb128 0x1b0
 9570 01f6 A8580000 		.4byte	.LASF578
 9571 01fa 05       		.byte	0x5
 9572 01fb C603     		.uleb128 0x1c6
 9573 01fd ED550000 		.4byte	.LASF579
 9574 0201 05       		.byte	0x5
 9575 0202 C703     		.uleb128 0x1c7
 9576 0204 904F0000 		.4byte	.LASF580
 9577 0208 05       		.byte	0x5
 9578 0209 C803     		.uleb128 0x1c8
 9579 020b EF000000 		.4byte	.LASF581
 9580 020f 05       		.byte	0x5
 9581 0210 C903     		.uleb128 0x1c9
 9582 0212 C7220000 		.4byte	.LASF582
 9583 0216 05       		.byte	0x5
 9584 0217 CB03     		.uleb128 0x1cb
 9585 0219 0A240000 		.4byte	.LASF583
 9586 021d 05       		.byte	0x5
 9587 021e CC03     		.uleb128 0x1cc
 9588 0220 766C0000 		.4byte	.LASF584
 9589 0224 05       		.byte	0x5
 9590 0225 CD03     		.uleb128 0x1cd
ARM GAS  /tmp/ccFRKuha.s 			page 197


 9591 0227 F5480000 		.4byte	.LASF585
 9592 022b 05       		.byte	0x5
 9593 022c E903     		.uleb128 0x1e9
 9594 022e 00430000 		.4byte	.LASF586
 9595 0232 05       		.byte	0x5
 9596 0233 EA03     		.uleb128 0x1ea
 9597 0235 60600000 		.4byte	.LASF587
 9598 0239 05       		.byte	0x5
 9599 023a EB03     		.uleb128 0x1eb
 9600 023c 4F180000 		.4byte	.LASF588
 9601 0240 00       		.byte	0
 9602              		.section	.debug_macro,"G",%progbits,wm4.chip.h.116.857da603c399e979152c31968de4baae,comdat
 9603              	.Ldebug_macro13:
 9604 0000 0400     		.2byte	0x4
 9605 0002 00       		.byte	0
 9606 0003 05       		.byte	0x5
 9607 0004 74       		.uleb128 0x74
 9608 0005 F72B0000 		.4byte	.LASF589
 9609 0009 05       		.byte	0x5
 9610 000a 75       		.uleb128 0x75
 9611 000b C7010000 		.4byte	.LASF590
 9612 000f 05       		.byte	0x5
 9613 0010 76       		.uleb128 0x76
 9614 0011 306F0000 		.4byte	.LASF591
 9615 0015 05       		.byte	0x5
 9616 0016 77       		.uleb128 0x77
 9617 0017 9C620000 		.4byte	.LASF592
 9618 001b 05       		.byte	0x5
 9619 001c 78       		.uleb128 0x78
 9620 001d 6B790000 		.4byte	.LASF593
 9621 0021 05       		.byte	0x5
 9622 0022 79       		.uleb128 0x79
 9623 0023 A2080000 		.4byte	.LASF594
 9624 0027 05       		.byte	0x5
 9625 0028 7A       		.uleb128 0x7a
 9626 0029 08060000 		.4byte	.LASF595
 9627 002d 05       		.byte	0x5
 9628 002e 7B       		.uleb128 0x7b
 9629 002f 5B720000 		.4byte	.LASF596
 9630 0033 05       		.byte	0x5
 9631 0034 7C       		.uleb128 0x7c
 9632 0035 22710000 		.4byte	.LASF597
 9633 0039 05       		.byte	0x5
 9634 003a 7D       		.uleb128 0x7d
 9635 003b EA150000 		.4byte	.LASF598
 9636 003f 05       		.byte	0x5
 9637 0040 7E       		.uleb128 0x7e
 9638 0041 D73F0000 		.4byte	.LASF599
 9639 0045 05       		.byte	0x5
 9640 0046 7F       		.uleb128 0x7f
 9641 0047 D2440000 		.4byte	.LASF600
 9642 004b 05       		.byte	0x5
 9643 004c 8001     		.uleb128 0x80
 9644 004e 37510000 		.4byte	.LASF601
 9645 0052 05       		.byte	0x5
 9646 0053 8101     		.uleb128 0x81
 9647 0055 D5000000 		.4byte	.LASF602
ARM GAS  /tmp/ccFRKuha.s 			page 198


 9648 0059 05       		.byte	0x5
 9649 005a 8201     		.uleb128 0x82
 9650 005c 54300000 		.4byte	.LASF603
 9651 0060 05       		.byte	0x5
 9652 0061 8301     		.uleb128 0x83
 9653 0063 265F0000 		.4byte	.LASF604
 9654 0067 05       		.byte	0x5
 9655 0068 8401     		.uleb128 0x84
 9656 006a E8580000 		.4byte	.LASF605
 9657 006e 05       		.byte	0x5
 9658 006f 8501     		.uleb128 0x85
 9659 0071 4E520000 		.4byte	.LASF606
 9660 0075 05       		.byte	0x5
 9661 0076 9001     		.uleb128 0x90
 9662 0078 B8610000 		.4byte	.LASF607
 9663 007c 05       		.byte	0x5
 9664 007d 9101     		.uleb128 0x91
 9665 007f 2F520000 		.4byte	.LASF608
 9666 0083 05       		.byte	0x5
 9667 0084 9301     		.uleb128 0x93
 9668 0086 F7460000 		.4byte	.LASF609
 9669 008a 05       		.byte	0x5
 9670 008b 9401     		.uleb128 0x94
 9671 008d 16340000 		.4byte	.LASF610
 9672 0091 05       		.byte	0x5
 9673 0092 9701     		.uleb128 0x97
 9674 0094 98700000 		.4byte	.LASF611
 9675 0098 05       		.byte	0x5
 9676 0099 9801     		.uleb128 0x98
 9677 009b 21220000 		.4byte	.LASF612
 9678 009f 05       		.byte	0x5
 9679 00a0 9B01     		.uleb128 0x9b
 9680 00a2 0F2C0000 		.4byte	.LASF613
 9681 00a6 05       		.byte	0x5
 9682 00a7 9E01     		.uleb128 0x9e
 9683 00a9 98600000 		.4byte	.LASF614
 9684 00ad 05       		.byte	0x5
 9685 00ae 9F01     		.uleb128 0x9f
 9686 00b0 32730000 		.4byte	.LASF615
 9687 00b4 05       		.byte	0x5
 9688 00b5 A001     		.uleb128 0xa0
 9689 00b7 8B370000 		.4byte	.LASF616
 9690 00bb 05       		.byte	0x5
 9691 00bc A101     		.uleb128 0xa1
 9692 00be 3C240000 		.4byte	.LASF617
 9693 00c2 05       		.byte	0x5
 9694 00c3 A201     		.uleb128 0xa2
 9695 00c5 CC160000 		.4byte	.LASF618
 9696 00c9 05       		.byte	0x5
 9697 00ca A301     		.uleb128 0xa3
 9698 00cc D31D0000 		.4byte	.LASF619
 9699 00d0 05       		.byte	0x5
 9700 00d1 A401     		.uleb128 0xa4
 9701 00d3 89200000 		.4byte	.LASF620
 9702 00d7 05       		.byte	0x5
 9703 00d8 B101     		.uleb128 0xb1
 9704 00da 76420000 		.4byte	.LASF621
ARM GAS  /tmp/ccFRKuha.s 			page 199


 9705 00de 05       		.byte	0x5
 9706 00df B201     		.uleb128 0xb2
 9707 00e1 7D5E0000 		.4byte	.LASF622
 9708 00e5 05       		.byte	0x5
 9709 00e6 B301     		.uleb128 0xb3
 9710 00e8 33330000 		.4byte	.LASF623
 9711 00ec 05       		.byte	0x5
 9712 00ed B401     		.uleb128 0xb4
 9713 00ef FB300000 		.4byte	.LASF624
 9714 00f3 05       		.byte	0x5
 9715 00f4 B501     		.uleb128 0xb5
 9716 00f6 D8250000 		.4byte	.LASF625
 9717 00fa 05       		.byte	0x5
 9718 00fb B701     		.uleb128 0xb7
 9719 00fd 3E3F0000 		.4byte	.LASF626
 9720 0101 05       		.byte	0x5
 9721 0102 B801     		.uleb128 0xb8
 9722 0104 76130000 		.4byte	.LASF627
 9723 0108 05       		.byte	0x5
 9724 0109 BA01     		.uleb128 0xba
 9725 010b 09520000 		.4byte	.LASF628
 9726 010f 05       		.byte	0x5
 9727 0110 C101     		.uleb128 0xc1
 9728 0112 E6220000 		.4byte	.LASF629
 9729 0116 05       		.byte	0x5
 9730 0117 C401     		.uleb128 0xc4
 9731 0119 9D3D0000 		.4byte	.LASF630
 9732 011d 00       		.byte	0
 9733              		.section	.debug_macro,"G",%progbits,wm4.pmu_11xx.h.33.1d6b708881441cb98d19b8bab3caa180,comdat
 9734              	.Ldebug_macro14:
 9735 0000 0400     		.2byte	0x4
 9736 0002 00       		.byte	0
 9737 0003 05       		.byte	0x5
 9738 0004 21       		.uleb128 0x21
 9739 0005 3B500000 		.4byte	.LASF631
 9740 0009 05       		.byte	0x5
 9741 000a 4D       		.uleb128 0x4d
 9742 000b 4D6B0000 		.4byte	.LASF632
 9743 000f 05       		.byte	0x5
 9744 0010 53       		.uleb128 0x53
 9745 0011 61350000 		.4byte	.LASF633
 9746 0015 05       		.byte	0x5
 9747 0016 55       		.uleb128 0x55
 9748 0017 51740000 		.4byte	.LASF634
 9749 001b 05       		.byte	0x5
 9750 001c 56       		.uleb128 0x56
 9751 001d D56F0000 		.4byte	.LASF635
 9752 0021 00       		.byte	0
 9753              		.section	.debug_macro,"G",%progbits,wm4.sysctl_11xx.h.33.ae61a1181e608f8409883008e291930c,comdat
 9754              	.Ldebug_macro15:
 9755 0000 0400     		.2byte	0x4
 9756 0002 00       		.byte	0
 9757 0003 05       		.byte	0x5
 9758 0004 21       		.uleb128 0x21
 9759 0005 04720000 		.4byte	.LASF637
 9760 0009 05       		.byte	0x5
 9761 000a BC01     		.uleb128 0xbc
ARM GAS  /tmp/ccFRKuha.s 			page 200


 9762 000c 2D020000 		.4byte	.LASF638
 9763 0010 05       		.byte	0x5
 9764 0011 BD01     		.uleb128 0xbd
 9765 0013 BC5B0000 		.4byte	.LASF639
 9766 0017 05       		.byte	0x5
 9767 0018 BE01     		.uleb128 0xbe
 9768 001a 3C300000 		.4byte	.LASF640
 9769 001e 05       		.byte	0x5
 9770 001f BF01     		.uleb128 0xbf
 9771 0021 B7710000 		.4byte	.LASF641
 9772 0025 05       		.byte	0x5
 9773 0026 C001     		.uleb128 0xc0
 9774 0028 F5720000 		.4byte	.LASF642
 9775 002c 05       		.byte	0x5
 9776 002d C501     		.uleb128 0xc5
 9777 002f 7E170000 		.4byte	.LASF643
 9778 0033 05       		.byte	0x5
 9779 0034 A904     		.uleb128 0x229
 9780 0036 E6280000 		.4byte	.LASF644
 9781 003a 05       		.byte	0x5
 9782 003b AA04     		.uleb128 0x22a
 9783 003d D95F0000 		.4byte	.LASF645
 9784 0041 05       		.byte	0x5
 9785 0042 C904     		.uleb128 0x249
 9786 0044 10730000 		.4byte	.LASF646
 9787 0048 05       		.byte	0x5
 9788 0049 CA04     		.uleb128 0x24a
 9789 004b AB760000 		.4byte	.LASF647
 9790 004f 05       		.byte	0x5
 9791 0050 CB04     		.uleb128 0x24b
 9792 0052 86390000 		.4byte	.LASF648
 9793 0056 05       		.byte	0x5
 9794 0057 CC04     		.uleb128 0x24c
 9795 0059 C80F0000 		.4byte	.LASF649
 9796 005d 05       		.byte	0x5
 9797 005e CD04     		.uleb128 0x24d
 9798 0060 9D5B0000 		.4byte	.LASF650
 9799 0064 05       		.byte	0x5
 9800 0065 CE04     		.uleb128 0x24e
 9801 0067 20420000 		.4byte	.LASF651
 9802 006b 05       		.byte	0x5
 9803 006c CF04     		.uleb128 0x24f
 9804 006e 5A6D0000 		.4byte	.LASF652
 9805 0072 05       		.byte	0x5
 9806 0073 D004     		.uleb128 0x250
 9807 0075 825F0000 		.4byte	.LASF653
 9808 0079 05       		.byte	0x5
 9809 007a F104     		.uleb128 0x271
 9810 007c 6D4A0000 		.4byte	.LASF654
 9811 0080 05       		.byte	0x5
 9812 0081 F204     		.uleb128 0x272
 9813 0083 D04F0000 		.4byte	.LASF655
 9814 0087 05       		.byte	0x5
 9815 0088 F304     		.uleb128 0x273
 9816 008a 831B0000 		.4byte	.LASF656
 9817 008e 05       		.byte	0x5
 9818 008f F504     		.uleb128 0x275
ARM GAS  /tmp/ccFRKuha.s 			page 201


 9819 0091 E2470000 		.4byte	.LASF657
 9820 0095 05       		.byte	0x5
 9821 0096 F704     		.uleb128 0x277
 9822 0098 BD6D0000 		.4byte	.LASF658
 9823 009c 05       		.byte	0x5
 9824 009d F804     		.uleb128 0x278
 9825 009f B30A0000 		.4byte	.LASF659
 9826 00a3 05       		.byte	0x5
 9827 00a4 F904     		.uleb128 0x279
 9828 00a6 4A490000 		.4byte	.LASF660
 9829 00aa 05       		.byte	0x5
 9830 00ab FA04     		.uleb128 0x27a
 9831 00ad E84E0000 		.4byte	.LASF661
 9832 00b1 00       		.byte	0
 9833              		.section	.debug_macro,"G",%progbits,wm4.clock_11xx.h.33.23290a9e2ed919e3a6958d25130bc848,comdat
 9834              	.Ldebug_macro16:
 9835 0000 0400     		.2byte	0x4
 9836 0002 00       		.byte	0
 9837 0003 05       		.byte	0x5
 9838 0004 21       		.uleb128 0x21
 9839 0005 63400000 		.4byte	.LASF662
 9840 0009 05       		.byte	0x5
 9841 000a 2D       		.uleb128 0x2d
 9842 000b C5650000 		.4byte	.LASF663
 9843 000f 00       		.byte	0
 9844              		.section	.debug_macro,"G",%progbits,wm4.iocon_11xx.h.33.25e2b3cde122df23fb07b984cb4f3a93,comdat
 9845              	.Ldebug_macro17:
 9846 0000 0400     		.2byte	0x4
 9847 0002 00       		.byte	0
 9848 0003 05       		.byte	0x5
 9849 0004 21       		.uleb128 0x21
 9850 0005 BF2E0000 		.4byte	.LASF664
 9851 0009 05       		.byte	0x5
 9852 000a A601     		.uleb128 0xa6
 9853 000c 49790000 		.4byte	.LASF665
 9854 0010 05       		.byte	0x5
 9855 0011 A701     		.uleb128 0xa7
 9856 0013 9A090000 		.4byte	.LASF666
 9857 0017 05       		.byte	0x5
 9858 0018 A801     		.uleb128 0xa8
 9859 001a 88190000 		.4byte	.LASF667
 9860 001e 05       		.byte	0x5
 9861 001f A901     		.uleb128 0xa9
 9862 0021 30620000 		.4byte	.LASF668
 9863 0025 05       		.byte	0x5
 9864 0026 AA01     		.uleb128 0xaa
 9865 0028 6B4F0000 		.4byte	.LASF669
 9866 002c 05       		.byte	0x5
 9867 002d AB01     		.uleb128 0xab
 9868 002f 180B0000 		.4byte	.LASF670
 9869 0033 05       		.byte	0x5
 9870 0034 AC01     		.uleb128 0xac
 9871 0036 16280000 		.4byte	.LASF671
 9872 003a 05       		.byte	0x5
 9873 003b AD01     		.uleb128 0xad
 9874 003d 55120000 		.4byte	.LASF672
 9875 0041 05       		.byte	0x5
ARM GAS  /tmp/ccFRKuha.s 			page 202


 9876 0042 AE01     		.uleb128 0xae
 9877 0044 B5260000 		.4byte	.LASF673
 9878 0048 05       		.byte	0x5
 9879 0049 AF01     		.uleb128 0xaf
 9880 004b EC500000 		.4byte	.LASF674
 9881 004f 05       		.byte	0x5
 9882 0050 B001     		.uleb128 0xb0
 9883 0052 59640000 		.4byte	.LASF675
 9884 0056 05       		.byte	0x5
 9885 0057 B101     		.uleb128 0xb1
 9886 0059 C71B0000 		.4byte	.LASF676
 9887 005d 05       		.byte	0x5
 9888 005e B201     		.uleb128 0xb2
 9889 0060 B9530000 		.4byte	.LASF677
 9890 0064 05       		.byte	0x5
 9891 0065 B301     		.uleb128 0xb3
 9892 0067 6C690000 		.4byte	.LASF678
 9893 006b 05       		.byte	0x5
 9894 006c B401     		.uleb128 0xb4
 9895 006e E4570000 		.4byte	.LASF679
 9896 0072 05       		.byte	0x5
 9897 0073 B501     		.uleb128 0xb5
 9898 0075 A45F0000 		.4byte	.LASF680
 9899 0079 05       		.byte	0x5
 9900 007a B601     		.uleb128 0xb6
 9901 007c 5F100000 		.4byte	.LASF681
 9902 0080 05       		.byte	0x5
 9903 0081 B701     		.uleb128 0xb7
 9904 0083 A6680000 		.4byte	.LASF682
 9905 0087 05       		.byte	0x5
 9906 0088 B801     		.uleb128 0xb8
 9907 008a 8E690000 		.4byte	.LASF683
 9908 008e 05       		.byte	0x5
 9909 008f B901     		.uleb128 0xb9
 9910 0091 426A0000 		.4byte	.LASF684
 9911 0095 05       		.byte	0x5
 9912 0096 BA01     		.uleb128 0xba
 9913 0098 03150000 		.4byte	.LASF685
 9914 009c 05       		.byte	0x5
 9915 009d C001     		.uleb128 0xc0
 9916 009f AE0B0000 		.4byte	.LASF686
 9917 00a3 05       		.byte	0x5
 9918 00a4 C101     		.uleb128 0xc1
 9919 00a6 FD6B0000 		.4byte	.LASF687
 9920 00aa 05       		.byte	0x5
 9921 00ab C201     		.uleb128 0xc2
 9922 00ad A5290000 		.4byte	.LASF688
 9923 00b1 05       		.byte	0x5
 9924 00b2 C301     		.uleb128 0xc3
 9925 00b4 EF320000 		.4byte	.LASF689
 9926 00b8 05       		.byte	0x5
 9927 00b9 C401     		.uleb128 0xc4
 9928 00bb 39200000 		.4byte	.LASF690
 9929 00bf 05       		.byte	0x5
 9930 00c0 C501     		.uleb128 0xc5
 9931 00c2 C5170000 		.4byte	.LASF691
 9932 00c6 05       		.byte	0x5
ARM GAS  /tmp/ccFRKuha.s 			page 203


 9933 00c7 C601     		.uleb128 0xc6
 9934 00c9 9F030000 		.4byte	.LASF692
 9935 00cd 05       		.byte	0x5
 9936 00ce C701     		.uleb128 0xc7
 9937 00d0 914A0000 		.4byte	.LASF693
 9938 00d4 05       		.byte	0x5
 9939 00d5 C801     		.uleb128 0xc8
 9940 00d7 E3050000 		.4byte	.LASF694
 9941 00db 05       		.byte	0x5
 9942 00dc C901     		.uleb128 0xc9
 9943 00de 12590000 		.4byte	.LASF695
 9944 00e2 05       		.byte	0x5
 9945 00e3 CA01     		.uleb128 0xca
 9946 00e5 0C4B0000 		.4byte	.LASF696
 9947 00e9 05       		.byte	0x5
 9948 00ea CB01     		.uleb128 0xcb
 9949 00ec A8240000 		.4byte	.LASF697
 9950 00f0 05       		.byte	0x5
 9951 00f1 CC01     		.uleb128 0xcc
 9952 00f3 4F470000 		.4byte	.LASF698
 9953 00f7 05       		.byte	0x5
 9954 00f8 CD01     		.uleb128 0xcd
 9955 00fa EC560000 		.4byte	.LASF699
 9956 00fe 05       		.byte	0x5
 9957 00ff CE01     		.uleb128 0xce
 9958 0101 8B720000 		.4byte	.LASF700
 9959 0105 05       		.byte	0x5
 9960 0106 CF01     		.uleb128 0xcf
 9961 0108 AE570000 		.4byte	.LASF701
 9962 010c 05       		.byte	0x5
 9963 010d D001     		.uleb128 0xd0
 9964 010f A4610000 		.4byte	.LASF702
 9965 0113 05       		.byte	0x5
 9966 0114 D101     		.uleb128 0xd1
 9967 0116 D74E0000 		.4byte	.LASF703
 9968 011a 05       		.byte	0x5
 9969 011b D201     		.uleb128 0xd2
 9970 011d 97410000 		.4byte	.LASF704
 9971 0121 05       		.byte	0x5
 9972 0122 D301     		.uleb128 0xd3
 9973 0124 A3270000 		.4byte	.LASF705
 9974 0128 05       		.byte	0x5
 9975 0129 D401     		.uleb128 0xd4
 9976 012b AC330000 		.4byte	.LASF706
 9977 012f 05       		.byte	0x5
 9978 0130 D501     		.uleb128 0xd5
 9979 0132 AF7C0000 		.4byte	.LASF707
 9980 0136 00       		.byte	0
 9981              		.section	.debug_macro,"G",%progbits,wm4.timer_11xx.h.33.c92f50a9325789ee6a8ffd6248980d70,comdat
 9982              	.Ldebug_macro18:
 9983 0000 0400     		.2byte	0x4
 9984 0002 00       		.byte	0
 9985 0003 05       		.byte	0x5
 9986 0004 21       		.uleb128 0x21
 9987 0005 4A720000 		.4byte	.LASF708
 9988 0009 05       		.byte	0x5
 9989 000a 40       		.uleb128 0x40
ARM GAS  /tmp/ccFRKuha.s 			page 204


 9990 000b 97590000 		.4byte	.LASF709
 9991 000f 05       		.byte	0x5
 9992 0010 43       		.uleb128 0x43
 9993 0011 84380000 		.4byte	.LASF710
 9994 0015 05       		.byte	0x5
 9995 0016 45       		.uleb128 0x45
 9996 0017 072F0000 		.4byte	.LASF711
 9997 001b 05       		.byte	0x5
 9998 001c 48       		.uleb128 0x48
 9999 001d 0D100000 		.4byte	.LASF712
 10000 0021 05       		.byte	0x5
 10001 0022 4A       		.uleb128 0x4a
 10002 0023 9D7D0000 		.4byte	.LASF713
 10003 0027 05       		.byte	0x5
 10004 0028 4D       		.uleb128 0x4d
 10005 0029 D4210000 		.4byte	.LASF714
 10006 002d 05       		.byte	0x5
 10007 002e 4F       		.uleb128 0x4f
 10008 002f 892D0000 		.4byte	.LASF715
 10009 0033 05       		.byte	0x5
 10010 0034 51       		.uleb128 0x51
 10011 0035 6A5D0000 		.4byte	.LASF716
 10012 0039 05       		.byte	0x5
 10013 003a 54       		.uleb128 0x54
 10014 003b 65470000 		.4byte	.LASF717
 10015 003f 05       		.byte	0x5
 10016 0040 56       		.uleb128 0x56
 10017 0041 28460000 		.4byte	.LASF718
 10018 0045 05       		.byte	0x5
 10019 0046 58       		.uleb128 0x58
 10020 0047 B07A0000 		.4byte	.LASF719
 10021 004b 00       		.byte	0
 10022              		.section	.debug_macro,"G",%progbits,wm4.ring_buffer.h.33.2f271415f1f27d60350fb4738c5cbee6,comdat
 10023              	.Ldebug_macro19:
 10024 0000 0400     		.2byte	0x4
 10025 0002 00       		.byte	0
 10026 0003 05       		.byte	0x5
 10027 0004 21       		.uleb128 0x21
 10028 0005 E9540000 		.4byte	.LASF721
 10029 0009 05       		.byte	0x5
 10030 000a 3A       		.uleb128 0x3a
 10031 000b 46760000 		.4byte	.LASF722
 10032 000f 05       		.byte	0x5
 10033 0010 41       		.uleb128 0x41
 10034 0011 17320000 		.4byte	.LASF723
 10035 0015 00       		.byte	0
 10036              		.section	.debug_macro,"G",%progbits,wm4.uart_11xx.h.98.fe68b709973730a4fba3f3ce60c5c312,comdat
 10037              	.Ldebug_macro20:
 10038 0000 0400     		.2byte	0x4
 10039 0002 00       		.byte	0
 10040 0003 05       		.byte	0x5
 10041 0004 62       		.uleb128 0x62
 10042 0005 50510000 		.4byte	.LASF724
 10043 0009 05       		.byte	0x5
 10044 000a 67       		.uleb128 0x67
 10045 000b 58560000 		.4byte	.LASF725
 10046 000f 05       		.byte	0x5
ARM GAS  /tmp/ccFRKuha.s 			page 205


 10047 0010 68       		.uleb128 0x68
 10048 0011 C7740000 		.4byte	.LASF726
 10049 0015 05       		.byte	0x5
 10050 0016 6D       		.uleb128 0x6d
 10051 0017 4F580000 		.4byte	.LASF727
 10052 001b 05       		.byte	0x5
 10053 001c 6E       		.uleb128 0x6e
 10054 001d 0F6C0000 		.4byte	.LASF728
 10055 0021 05       		.byte	0x5
 10056 0022 73       		.uleb128 0x73
 10057 0023 78580000 		.4byte	.LASF729
 10058 0027 05       		.byte	0x5
 10059 0028 74       		.uleb128 0x74
 10060 0029 174D0000 		.4byte	.LASF730
 10061 002d 05       		.byte	0x5
 10062 002e 75       		.uleb128 0x75
 10063 002f A8480000 		.4byte	.LASF731
 10064 0033 05       		.byte	0x5
 10065 0034 76       		.uleb128 0x76
 10066 0035 7D2F0000 		.4byte	.LASF732
 10067 0039 05       		.byte	0x5
 10068 003a 77       		.uleb128 0x77
 10069 003b 1D6B0000 		.4byte	.LASF733
 10070 003f 05       		.byte	0x5
 10071 0040 78       		.uleb128 0x78
 10072 0041 BA190000 		.4byte	.LASF734
 10073 0045 05       		.byte	0x5
 10074 0046 79       		.uleb128 0x79
 10075 0047 653F0000 		.4byte	.LASF735
 10076 004b 05       		.byte	0x5
 10077 004c 7A       		.uleb128 0x7a
 10078 004d 005E0000 		.4byte	.LASF736
 10079 0051 05       		.byte	0x5
 10080 0052 7B       		.uleb128 0x7b
 10081 0053 961A0000 		.4byte	.LASF737
 10082 0057 05       		.byte	0x5
 10083 0058 7C       		.uleb128 0x7c
 10084 0059 170A0000 		.4byte	.LASF738
 10085 005d 05       		.byte	0x5
 10086 005e 8101     		.uleb128 0x81
 10087 0060 41600000 		.4byte	.LASF739
 10088 0064 05       		.byte	0x5
 10089 0065 8201     		.uleb128 0x82
 10090 0067 92330000 		.4byte	.LASF740
 10091 006b 05       		.byte	0x5
 10092 006c 8301     		.uleb128 0x83
 10093 006e AE390000 		.4byte	.LASF741
 10094 0072 05       		.byte	0x5
 10095 0073 8401     		.uleb128 0x84
 10096 0075 127E0000 		.4byte	.LASF742
 10097 0079 05       		.byte	0x5
 10098 007a 8501     		.uleb128 0x85
 10099 007c 40280000 		.4byte	.LASF743
 10100 0080 05       		.byte	0x5
 10101 0081 8801     		.uleb128 0x88
 10102 0083 E07B0000 		.4byte	.LASF744
 10103 0087 05       		.byte	0x5
ARM GAS  /tmp/ccFRKuha.s 			page 206


 10104 0088 8901     		.uleb128 0x89
 10105 008a FB5F0000 		.4byte	.LASF745
 10106 008e 05       		.byte	0x5
 10107 008f 8A01     		.uleb128 0x8a
 10108 0091 6C190000 		.4byte	.LASF746
 10109 0095 05       		.byte	0x5
 10110 0096 8B01     		.uleb128 0x8b
 10111 0098 0C3C0000 		.4byte	.LASF747
 10112 009c 05       		.byte	0x5
 10113 009d 8C01     		.uleb128 0x8c
 10114 009f A8170000 		.4byte	.LASF748
 10115 00a3 05       		.byte	0x5
 10116 00a4 8D01     		.uleb128 0x8d
 10117 00a6 C00B0000 		.4byte	.LASF749
 10118 00aa 05       		.byte	0x5
 10119 00ab 9201     		.uleb128 0x92
 10120 00ad EC4B0000 		.4byte	.LASF750
 10121 00b1 05       		.byte	0x5
 10122 00b2 9301     		.uleb128 0x93
 10123 00b4 F66A0000 		.4byte	.LASF751
 10124 00b8 05       		.byte	0x5
 10125 00b9 9401     		.uleb128 0x94
 10126 00bb 70360000 		.4byte	.LASF752
 10127 00bf 05       		.byte	0x5
 10128 00c0 9501     		.uleb128 0x95
 10129 00c2 DE690000 		.4byte	.LASF753
 10130 00c6 05       		.byte	0x5
 10131 00c7 9601     		.uleb128 0x96
 10132 00c9 AF220000 		.4byte	.LASF754
 10133 00cd 05       		.byte	0x5
 10134 00ce 9801     		.uleb128 0x98
 10135 00d0 5E0E0000 		.4byte	.LASF755
 10136 00d4 05       		.byte	0x5
 10137 00d5 9B01     		.uleb128 0x9b
 10138 00d7 0C0C0000 		.4byte	.LASF756
 10139 00db 05       		.byte	0x5
 10140 00dc 9C01     		.uleb128 0x9c
 10141 00de 3C110000 		.4byte	.LASF757
 10142 00e2 05       		.byte	0x5
 10143 00e3 9D01     		.uleb128 0x9d
 10144 00e5 60680000 		.4byte	.LASF758
 10145 00e9 05       		.byte	0x5
 10146 00ea 9E01     		.uleb128 0x9e
 10147 00ec 003F0000 		.4byte	.LASF759
 10148 00f0 05       		.byte	0x5
 10149 00f1 A401     		.uleb128 0xa4
 10150 00f3 70290000 		.4byte	.LASF760
 10151 00f7 05       		.byte	0x5
 10152 00f8 A501     		.uleb128 0xa5
 10153 00fa 76640000 		.4byte	.LASF761
 10154 00fe 05       		.byte	0x5
 10155 00ff A601     		.uleb128 0xa6
 10156 0101 FE060000 		.4byte	.LASF762
 10157 0105 05       		.byte	0x5
 10158 0106 A701     		.uleb128 0xa7
 10159 0108 8F2B0000 		.4byte	.LASF763
 10160 010c 05       		.byte	0x5
ARM GAS  /tmp/ccFRKuha.s 			page 207


 10161 010d A801     		.uleb128 0xa8
 10162 010f 50340000 		.4byte	.LASF764
 10163 0113 05       		.byte	0x5
 10164 0114 AB01     		.uleb128 0xab
 10165 0116 B7230000 		.4byte	.LASF765
 10166 011a 05       		.byte	0x5
 10167 011b AC01     		.uleb128 0xac
 10168 011d BF7D0000 		.4byte	.LASF766
 10169 0121 05       		.byte	0x5
 10170 0122 AD01     		.uleb128 0xad
 10171 0124 823D0000 		.4byte	.LASF767
 10172 0128 05       		.byte	0x5
 10173 0129 B001     		.uleb128 0xb0
 10174 012b 360E0000 		.4byte	.LASF768
 10175 012f 05       		.byte	0x5
 10176 0130 B101     		.uleb128 0xb1
 10177 0132 B34F0000 		.4byte	.LASF769
 10178 0136 05       		.byte	0x5
 10179 0137 B201     		.uleb128 0xb2
 10180 0139 52480000 		.4byte	.LASF770
 10181 013d 05       		.byte	0x5
 10182 013e B301     		.uleb128 0xb3
 10183 0140 BD6B0000 		.4byte	.LASF771
 10184 0144 05       		.byte	0x5
 10185 0145 B401     		.uleb128 0xb4
 10186 0147 2E440000 		.4byte	.LASF772
 10187 014b 05       		.byte	0x5
 10188 014c B501     		.uleb128 0xb5
 10189 014e 6C200000 		.4byte	.LASF773
 10190 0152 05       		.byte	0x5
 10191 0153 B601     		.uleb128 0xb6
 10192 0155 4C030000 		.4byte	.LASF774
 10193 0159 05       		.byte	0x5
 10194 015a B701     		.uleb128 0xb7
 10195 015c 9B1D0000 		.4byte	.LASF775
 10196 0160 05       		.byte	0x5
 10197 0161 B801     		.uleb128 0xb8
 10198 0163 BD410000 		.4byte	.LASF776
 10199 0167 05       		.byte	0x5
 10200 0168 BD01     		.uleb128 0xbd
 10201 016a 1C050000 		.4byte	.LASF777
 10202 016e 05       		.byte	0x5
 10203 016f BE01     		.uleb128 0xbe
 10204 0171 C03A0000 		.4byte	.LASF778
 10205 0175 05       		.byte	0x5
 10206 0176 BF01     		.uleb128 0xbf
 10207 0178 AD180000 		.4byte	.LASF779
 10208 017c 05       		.byte	0x5
 10209 017d C001     		.uleb128 0xc0
 10210 017f 6A110000 		.4byte	.LASF780
 10211 0183 05       		.byte	0x5
 10212 0184 C101     		.uleb128 0xc1
 10213 0186 55040000 		.4byte	.LASF781
 10214 018a 05       		.byte	0x5
 10215 018b C201     		.uleb128 0xc2
 10216 018d 280B0000 		.4byte	.LASF782
 10217 0191 05       		.byte	0x5
ARM GAS  /tmp/ccFRKuha.s 			page 208


 10218 0192 C701     		.uleb128 0xc7
 10219 0194 D64B0000 		.4byte	.LASF783
 10220 0198 05       		.byte	0x5
 10221 0199 C801     		.uleb128 0xc8
 10222 019b CE750000 		.4byte	.LASF784
 10223 019f 05       		.byte	0x5
 10224 01a0 C901     		.uleb128 0xc9
 10225 01a2 161D0000 		.4byte	.LASF785
 10226 01a6 05       		.byte	0x5
 10227 01a7 CA01     		.uleb128 0xca
 10228 01a9 B5670000 		.4byte	.LASF786
 10229 01ad 05       		.byte	0x5
 10230 01ae CB01     		.uleb128 0xcb
 10231 01b0 A2230000 		.4byte	.LASF787
 10232 01b4 05       		.byte	0x5
 10233 01b5 CC01     		.uleb128 0xcc
 10234 01b7 02190000 		.4byte	.LASF788
 10235 01bb 05       		.byte	0x5
 10236 01bc CD01     		.uleb128 0xcd
 10237 01be CB470000 		.4byte	.LASF789
 10238 01c2 05       		.byte	0x5
 10239 01c3 CE01     		.uleb128 0xce
 10240 01c5 EC6E0000 		.4byte	.LASF790
 10241 01c9 05       		.byte	0x5
 10242 01ca CF01     		.uleb128 0xcf
 10243 01cc 87070000 		.4byte	.LASF791
 10244 01d0 05       		.byte	0x5
 10245 01d1 D001     		.uleb128 0xd0
 10246 01d3 540D0000 		.4byte	.LASF792
 10247 01d7 05       		.byte	0x5
 10248 01d8 D101     		.uleb128 0xd1
 10249 01da E63E0000 		.4byte	.LASF793
 10250 01de 05       		.byte	0x5
 10251 01df D601     		.uleb128 0xd6
 10252 01e1 33470000 		.4byte	.LASF794
 10253 01e5 05       		.byte	0x5
 10254 01e6 D701     		.uleb128 0xd7
 10255 01e8 B7720000 		.4byte	.LASF795
 10256 01ec 05       		.byte	0x5
 10257 01ed D801     		.uleb128 0xd8
 10258 01ef 3A040000 		.4byte	.LASF796
 10259 01f3 05       		.byte	0x5
 10260 01f4 D901     		.uleb128 0xd9
 10261 01f6 6A430000 		.4byte	.LASF797
 10262 01fa 05       		.byte	0x5
 10263 01fb DA01     		.uleb128 0xda
 10264 01fd 9D7E0000 		.4byte	.LASF798
 10265 0201 05       		.byte	0x5
 10266 0202 DB01     		.uleb128 0xdb
 10267 0204 81570000 		.4byte	.LASF799
 10268 0208 05       		.byte	0x5
 10269 0209 DC01     		.uleb128 0xdc
 10270 020b FB600000 		.4byte	.LASF800
 10271 020f 05       		.byte	0x5
 10272 0210 DD01     		.uleb128 0xdd
 10273 0212 E17C0000 		.4byte	.LASF801
 10274 0216 05       		.byte	0x5
ARM GAS  /tmp/ccFRKuha.s 			page 209


 10275 0217 DE01     		.uleb128 0xde
 10276 0219 36430000 		.4byte	.LASF802
 10277 021d 05       		.byte	0x5
 10278 021e E301     		.uleb128 0xe3
 10279 0220 AD310000 		.4byte	.LASF803
 10280 0224 05       		.byte	0x5
 10281 0225 E401     		.uleb128 0xe4
 10282 0227 17450000 		.4byte	.LASF804
 10283 022b 05       		.byte	0x5
 10284 022c E501     		.uleb128 0xe5
 10285 022e D7610000 		.4byte	.LASF805
 10286 0232 05       		.byte	0x5
 10287 0233 E601     		.uleb128 0xe6
 10288 0235 064C0000 		.4byte	.LASF806
 10289 0239 05       		.byte	0x5
 10290 023a E701     		.uleb128 0xe7
 10291 023c AD270000 		.4byte	.LASF807
 10292 0240 05       		.byte	0x5
 10293 0241 E801     		.uleb128 0xe8
 10294 0243 03050000 		.4byte	.LASF808
 10295 0247 05       		.byte	0x5
 10296 0248 ED01     		.uleb128 0xed
 10297 024a C0080000 		.4byte	.LASF809
 10298 024e 05       		.byte	0x5
 10299 024f EE01     		.uleb128 0xee
 10300 0251 C4110000 		.4byte	.LASF810
 10301 0255 05       		.byte	0x5
 10302 0256 EF01     		.uleb128 0xef
 10303 0258 217B0000 		.4byte	.LASF811
 10304 025c 05       		.byte	0x5
 10305 025d F001     		.uleb128 0xf0
 10306 025f 79180000 		.4byte	.LASF812
 10307 0263 05       		.byte	0x5
 10308 0264 F201     		.uleb128 0xf2
 10309 0266 564B0000 		.4byte	.LASF813
 10310 026a 05       		.byte	0x5
 10311 026b F301     		.uleb128 0xf3
 10312 026d F14F0000 		.4byte	.LASF814
 10313 0271 05       		.byte	0x5
 10314 0272 F601     		.uleb128 0xf6
 10315 0274 8C2A0000 		.4byte	.LASF815
 10316 0278 05       		.byte	0x5
 10317 0279 FB01     		.uleb128 0xfb
 10318 027b 061E0000 		.4byte	.LASF816
 10319 027f 05       		.byte	0x5
 10320 0280 FC01     		.uleb128 0xfc
 10321 0282 6C0D0000 		.4byte	.LASF817
 10322 0286 05       		.byte	0x5
 10323 0287 FD01     		.uleb128 0xfd
 10324 0289 C0780000 		.4byte	.LASF818
 10325 028d 05       		.byte	0x5
 10326 028e FE01     		.uleb128 0xfe
 10327 0290 EF1C0000 		.4byte	.LASF819
 10328 0294 05       		.byte	0x5
 10329 0295 FF01     		.uleb128 0xff
 10330 0297 EC0E0000 		.4byte	.LASF820
 10331 029b 05       		.byte	0x5
ARM GAS  /tmp/ccFRKuha.s 			page 210


 10332 029c 8402     		.uleb128 0x104
 10333 029e 7F3F0000 		.4byte	.LASF821
 10334 02a2 05       		.byte	0x5
 10335 02a3 8902     		.uleb128 0x109
 10336 02a5 86430000 		.4byte	.LASF822
 10337 02a9 05       		.byte	0x5
 10338 02aa 8A02     		.uleb128 0x10a
 10339 02ac FD730000 		.4byte	.LASF823
 10340 02b0 05       		.byte	0x5
 10341 02b1 8B02     		.uleb128 0x10b
 10342 02b3 C5310000 		.4byte	.LASF824
 10343 02b7 05       		.byte	0x5
 10344 02b8 8C02     		.uleb128 0x10c
 10345 02ba 47590000 		.4byte	.LASF825
 10346 02be 05       		.byte	0x5
 10347 02bf 8D02     		.uleb128 0x10d
 10348 02c1 69320000 		.4byte	.LASF826
 10349 02c5 05       		.byte	0x5
 10350 02c6 9202     		.uleb128 0x112
 10351 02c8 84520000 		.4byte	.LASF827
 10352 02cc 05       		.byte	0x5
 10353 02cd 9302     		.uleb128 0x113
 10354 02cf 78610000 		.4byte	.LASF828
 10355 02d3 05       		.byte	0x5
 10356 02d4 9402     		.uleb128 0x114
 10357 02d6 D8090000 		.4byte	.LASF829
 10358 02da 05       		.byte	0x5
 10359 02db 9902     		.uleb128 0x119
 10360 02dd B00F0000 		.4byte	.LASF830
 10361 02e1 05       		.byte	0x5
 10362 02e2 9A02     		.uleb128 0x11a
 10363 02e4 54190000 		.4byte	.LASF831
 10364 02e8 05       		.byte	0x5
 10365 02e9 9F02     		.uleb128 0x11f
 10366 02eb AC5E0000 		.4byte	.LASF832
 10367 02ef 05       		.byte	0x5
 10368 02f0 A002     		.uleb128 0x120
 10369 02f2 53390000 		.4byte	.LASF833
 10370 02f6 05       		.byte	0x5
 10371 02f7 A102     		.uleb128 0x121
 10372 02f9 D21F0000 		.4byte	.LASF834
 10373 02fd 05       		.byte	0x5
 10374 02fe A202     		.uleb128 0x122
 10375 0300 716A0000 		.4byte	.LASF835
 10376 0304 05       		.byte	0x5
 10377 0305 A302     		.uleb128 0x123
 10378 0307 B94B0000 		.4byte	.LASF836
 10379 030b 05       		.byte	0x5
 10380 030c A402     		.uleb128 0x124
 10381 030e 1C7A0000 		.4byte	.LASF837
 10382 0312 05       		.byte	0x5
 10383 0313 A502     		.uleb128 0x125
 10384 0315 A5770000 		.4byte	.LASF838
 10385 0319 00       		.byte	0
 10386              		.section	.debug_macro,"G",%progbits,wm4.wwdt_11xx.h.33.5768344983cb842df69cc91ea86cabb0,comdat
 10387              	.Ldebug_macro21:
 10388 0000 0400     		.2byte	0x4
ARM GAS  /tmp/ccFRKuha.s 			page 211


 10389 0002 00       		.byte	0
 10390 0003 05       		.byte	0x5
 10391 0004 21       		.uleb128 0x21
 10392 0005 9E100000 		.4byte	.LASF839
 10393 0009 05       		.byte	0x5
 10394 000a 4B       		.uleb128 0x4b
 10395 000b CA670000 		.4byte	.LASF840
 10396 000f 05       		.byte	0x5
 10397 0010 4D       		.uleb128 0x4d
 10398 0011 FB100000 		.4byte	.LASF841
 10399 0015 05       		.byte	0x5
 10400 0016 4F       		.uleb128 0x4f
 10401 0017 D0590000 		.4byte	.LASF842
 10402 001b 05       		.byte	0x5
 10403 001c 51       		.uleb128 0x51
 10404 001d 033E0000 		.4byte	.LASF843
 10405 0021 05       		.byte	0x5
 10406 0022 53       		.uleb128 0x53
 10407 0023 B5340000 		.4byte	.LASF844
 10408 0027 05       		.byte	0x5
 10409 0028 55       		.uleb128 0x55
 10410 0029 E0430000 		.4byte	.LASF845
 10411 002d 00       		.byte	0
 10412              		.section	.debug_macro,"G",%progbits,wm4.ssp_11xx.h.33.af054d3d65f4cb0c078be40bb872ec37,comdat
 10413              	.Ldebug_macro22:
 10414 0000 0400     		.2byte	0x4
 10415 0002 00       		.byte	0
 10416 0003 05       		.byte	0x5
 10417 0004 21       		.uleb128 0x21
 10418 0005 B92D0000 		.4byte	.LASF846
 10419 0009 05       		.byte	0x5
 10420 000a 40       		.uleb128 0x40
 10421 000b 294E0000 		.4byte	.LASF847
 10422 000f 05       		.byte	0x5
 10423 0010 42       		.uleb128 0x42
 10424 0011 61070000 		.4byte	.LASF848
 10425 0015 05       		.byte	0x5
 10426 0016 44       		.uleb128 0x44
 10427 0017 DC2A0000 		.4byte	.LASF849
 10428 001b 05       		.byte	0x5
 10429 001c 46       		.uleb128 0x46
 10430 001d 0B510000 		.4byte	.LASF850
 10431 0021 05       		.byte	0x5
 10432 0022 49       		.uleb128 0x49
 10433 0023 68410000 		.4byte	.LASF851
 10434 0027 05       		.byte	0x5
 10435 0028 4A       		.uleb128 0x4a
 10436 0029 69090000 		.4byte	.LASF852
 10437 002d 05       		.byte	0x5
 10438 002e 4D       		.uleb128 0x4d
 10439 002f 23140000 		.4byte	.LASF853
 10440 0033 05       		.byte	0x5
 10441 0034 4E       		.uleb128 0x4e
 10442 0035 20720000 		.4byte	.LASF854
 10443 0039 05       		.byte	0x5
 10444 003a 51       		.uleb128 0x51
 10445 003b 2C360000 		.4byte	.LASF855
ARM GAS  /tmp/ccFRKuha.s 			page 212


 10446 003f 05       		.byte	0x5
 10447 0040 53       		.uleb128 0x53
 10448 0041 FC110000 		.4byte	.LASF856
 10449 0045 05       		.byte	0x5
 10450 0046 55       		.uleb128 0x55
 10451 0047 FC110000 		.4byte	.LASF856
 10452 004b 05       		.byte	0x5
 10453 004c 58       		.uleb128 0x58
 10454 004d 2C360000 		.4byte	.LASF855
 10455 0051 05       		.byte	0x5
 10456 0052 5F       		.uleb128 0x5f
 10457 0053 69540000 		.4byte	.LASF857
 10458 0057 05       		.byte	0x5
 10459 0058 61       		.uleb128 0x61
 10460 0059 8D000000 		.4byte	.LASF858
 10461 005d 05       		.byte	0x5
 10462 005e 63       		.uleb128 0x63
 10463 005f 30250000 		.4byte	.LASF859
 10464 0063 05       		.byte	0x5
 10465 0064 64       		.uleb128 0x64
 10466 0065 81350000 		.4byte	.LASF860
 10467 0069 05       		.byte	0x5
 10468 006a 67       		.uleb128 0x67
 10469 006b 46710000 		.4byte	.LASF861
 10470 006f 05       		.byte	0x5
 10471 0070 69       		.uleb128 0x69
 10472 0071 FD7A0000 		.4byte	.LASF862
 10473 0075 05       		.byte	0x5
 10474 0076 6C       		.uleb128 0x6c
 10475 0077 BE790000 		.4byte	.LASF863
 10476 007b 05       		.byte	0x5
 10477 007c 72       		.uleb128 0x72
 10478 007d 4B200000 		.4byte	.LASF864
 10479 0081 05       		.byte	0x5
 10480 0082 79       		.uleb128 0x79
 10481 0083 61380000 		.4byte	.LASF865
 10482 0087 05       		.byte	0x5
 10483 0088 7C       		.uleb128 0x7c
 10484 0089 AE440000 		.4byte	.LASF866
 10485 008d 05       		.byte	0x5
 10486 008e C503     		.uleb128 0x1c5
 10487 0090 7B3E0000 		.4byte	.LASF867
 10488 0094 05       		.byte	0x5
 10489 0095 C603     		.uleb128 0x1c6
 10490 0097 F2330000 		.4byte	.LASF868
 10491 009b 05       		.byte	0x5
 10492 009c CF03     		.uleb128 0x1cf
 10493 009e 611A0000 		.4byte	.LASF869
 10494 00a2 05       		.byte	0x5
 10495 00a3 D003     		.uleb128 0x1d0
 10496 00a5 2B1D0000 		.4byte	.LASF870
 10497 00a9 05       		.byte	0x5
 10498 00aa D303     		.uleb128 0x1d3
 10499 00ac 4D7C0000 		.4byte	.LASF871
 10500 00b0 05       		.byte	0x5
 10501 00b1 D403     		.uleb128 0x1d4
 10502 00b3 580C0000 		.4byte	.LASF872
ARM GAS  /tmp/ccFRKuha.s 			page 213


 10503 00b7 00       		.byte	0
 10504              		.section	.debug_macro,"G",%progbits,wm4.error.h.38.ae74fe1dd9d19c80c505f1fda144fce8,comdat
 10505              	.Ldebug_macro23:
 10506 0000 0400     		.2byte	0x4
 10507 0002 00       		.byte	0
 10508 0003 05       		.byte	0x5
 10509 0004 26       		.uleb128 0x26
 10510 0005 EC530000 		.4byte	.LASF874
 10511 0009 05       		.byte	0x5
 10512 000a 8401     		.uleb128 0x84
 10513 000c 42080000 		.4byte	.LASF875
 10514 0010 00       		.byte	0
 10515              		.section	.debug_macro,"G",%progbits,wm4.adc_11xx.h.33.6ce7433ac6b30df70a6993d01dbd513f,comdat
 10516              	.Ldebug_macro24:
 10517 0000 0400     		.2byte	0x4
 10518 0002 00       		.byte	0
 10519 0003 05       		.byte	0x5
 10520 0004 21       		.uleb128 0x21
 10521 0005 6C1B0000 		.4byte	.LASF876
 10522 0009 05       		.byte	0x5
 10523 000a 2F       		.uleb128 0x2f
 10524 000b DC340000 		.4byte	.LASF877
 10525 000f 05       		.byte	0x5
 10526 0010 40       		.uleb128 0x40
 10527 0011 F85A0000 		.4byte	.LASF878
 10528 0015 05       		.byte	0x5
 10529 0016 41       		.uleb128 0x41
 10530 0017 4A4C0000 		.4byte	.LASF879
 10531 001b 05       		.byte	0x5
 10532 001c 43       		.uleb128 0x43
 10533 001d 694E0000 		.4byte	.LASF880
 10534 0021 05       		.byte	0x5
 10535 0022 44       		.uleb128 0x44
 10536 0023 9B420000 		.4byte	.LASF881
 10537 0027 05       		.byte	0x5
 10538 0028 45       		.uleb128 0x45
 10539 0029 533D0000 		.4byte	.LASF882
 10540 002d 05       		.byte	0x5
 10541 002e 46       		.uleb128 0x46
 10542 002f 767D0000 		.4byte	.LASF883
 10543 0033 05       		.byte	0x5
 10544 0034 47       		.uleb128 0x47
 10545 0035 21110000 		.4byte	.LASF884
 10546 0039 05       		.byte	0x5
 10547 003a 48       		.uleb128 0x48
 10548 003b 6C770000 		.4byte	.LASF885
 10549 003f 05       		.byte	0x5
 10550 0040 49       		.uleb128 0x49
 10551 0041 7C620000 		.4byte	.LASF886
 10552 0045 05       		.byte	0x5
 10553 0046 4A       		.uleb128 0x4a
 10554 0047 B01A0000 		.4byte	.LASF887
 10555 004b 05       		.byte	0x5
 10556 004c 4B       		.uleb128 0x4b
 10557 004d B5210000 		.4byte	.LASF888
 10558 0051 05       		.byte	0x5
 10559 0052 4C       		.uleb128 0x4c
ARM GAS  /tmp/ccFRKuha.s 			page 214


 10560 0053 AA450000 		.4byte	.LASF889
 10561 0057 05       		.byte	0x5
 10562 0058 4D       		.uleb128 0x4d
 10563 0059 FF160000 		.4byte	.LASF890
 10564 005d 05       		.byte	0x5
 10565 005e 4E       		.uleb128 0x4e
 10566 005f 652D0000 		.4byte	.LASF891
 10567 0063 05       		.byte	0x5
 10568 0064 4F       		.uleb128 0x4f
 10569 0065 2A3E0000 		.4byte	.LASF892
 10570 0069 05       		.byte	0x5
 10571 006a 50       		.uleb128 0x50
 10572 006b 5B620000 		.4byte	.LASF893
 10573 006f 05       		.byte	0x5
 10574 0070 51       		.uleb128 0x51
 10575 0071 25560000 		.4byte	.LASF894
 10576 0075 05       		.byte	0x5
 10577 0076 52       		.uleb128 0x52
 10578 0077 7A5C0000 		.4byte	.LASF895
 10579 007b 00       		.byte	0
 10580              		.section	.debug_macro,"G",%progbits,wm4.i2c_11xx.h.33.2b506d1350e00a8c26e8bf006a5f9390,comdat
 10581              	.Ldebug_macro25:
 10582 0000 0400     		.2byte	0x4
 10583 0002 00       		.byte	0
 10584 0003 05       		.byte	0x5
 10585 0004 21       		.uleb128 0x21
 10586 0005 DD6E0000 		.4byte	.LASF897
 10587 0009 05       		.byte	0x5
 10588 000a 46       		.uleb128 0x46
 10589 000b 170E0000 		.4byte	.LASF898
 10590 000f 05       		.byte	0x5
 10591 0010 47       		.uleb128 0x47
 10592 0011 5A090000 		.4byte	.LASF899
 10593 0015 05       		.byte	0x5
 10594 0016 48       		.uleb128 0x48
 10595 0017 221C0000 		.4byte	.LASF900
 10596 001b 05       		.byte	0x5
 10597 001c 49       		.uleb128 0x49
 10598 001d 276C0000 		.4byte	.LASF901
 10599 0021 05       		.byte	0x5
 10600 0022 4E       		.uleb128 0x4e
 10601 0023 A76B0000 		.4byte	.LASF902
 10602 0027 05       		.byte	0x5
 10603 0028 53       		.uleb128 0x53
 10604 0029 9C260000 		.4byte	.LASF903
 10605 002d 05       		.byte	0x5
 10606 002e 54       		.uleb128 0x54
 10607 002f FF0A0000 		.4byte	.LASF904
 10608 0033 05       		.byte	0x5
 10609 0034 55       		.uleb128 0x55
 10610 0035 00000000 		.4byte	.LASF905
 10611 0039 05       		.byte	0x5
 10612 003a 56       		.uleb128 0x56
 10613 003b 06300000 		.4byte	.LASF906
 10614 003f 05       		.byte	0x5
 10615 0040 57       		.uleb128 0x57
 10616 0041 B80E0000 		.4byte	.LASF907
ARM GAS  /tmp/ccFRKuha.s 			page 215


 10617 0045 05       		.byte	0x5
 10618 0046 5C       		.uleb128 0x5c
 10619 0047 D9480000 		.4byte	.LASF908
 10620 004b 05       		.byte	0x5
 10621 004c 5D       		.uleb128 0x5d
 10622 004d 220C0000 		.4byte	.LASF909
 10623 0051 05       		.byte	0x5
 10624 0052 5E       		.uleb128 0x5e
 10625 0053 D0550000 		.4byte	.LASF910
 10626 0057 05       		.byte	0x5
 10627 0058 5F       		.uleb128 0x5f
 10628 0059 940C0000 		.4byte	.LASF911
 10629 005d 05       		.byte	0x5
 10630 005e 60       		.uleb128 0x60
 10631 005f 65270000 		.4byte	.LASF912
 10632 0063 05       		.byte	0x5
 10633 0064 65       		.uleb128 0x65
 10634 0065 134E0000 		.4byte	.LASF913
 10635 0069 05       		.byte	0x5
 10636 006a 66       		.uleb128 0x66
 10637 006b A8550000 		.4byte	.LASF914
 10638 006f 05       		.byte	0x5
 10639 0070 67       		.uleb128 0x67
 10640 0071 E9420000 		.4byte	.LASF915
 10641 0075 05       		.byte	0x5
 10642 0076 68       		.uleb128 0x68
 10643 0077 77210000 		.4byte	.LASF916
 10644 007b 05       		.byte	0x5
 10645 007c 69       		.uleb128 0x69
 10646 007d 4C4F0000 		.4byte	.LASF917
 10647 0081 05       		.byte	0x5
 10648 0082 6E       		.uleb128 0x6e
 10649 0083 0A400000 		.4byte	.LASF918
 10650 0087 05       		.byte	0x5
 10651 0088 6F       		.uleb128 0x6f
 10652 0089 67520000 		.4byte	.LASF919
 10653 008d 05       		.byte	0x5
 10654 008e 74       		.uleb128 0x74
 10655 008f BD250000 		.4byte	.LASF920
 10656 0093 05       		.byte	0x5
 10657 0094 75       		.uleb128 0x75
 10658 0095 3C090000 		.4byte	.LASF921
 10659 0099 05       		.byte	0x5
 10660 009a 7A       		.uleb128 0x7a
 10661 009b F84C0000 		.4byte	.LASF922
 10662 009f 05       		.byte	0x5
 10663 00a0 7B       		.uleb128 0x7b
 10664 00a1 401A0000 		.4byte	.LASF923
 10665 00a5 05       		.byte	0x5
 10666 00a6 7C       		.uleb128 0x7c
 10667 00a7 D1260000 		.4byte	.LASF924
 10668 00ab 05       		.byte	0x5
 10669 00ac 7D       		.uleb128 0x7d
 10670 00ad 0B440000 		.4byte	.LASF925
 10671 00b1 05       		.byte	0x5
 10672 00b2 7E       		.uleb128 0x7e
 10673 00b3 52310000 		.4byte	.LASF926
ARM GAS  /tmp/ccFRKuha.s 			page 216


 10674 00b7 05       		.byte	0x5
 10675 00b8 7F       		.uleb128 0x7f
 10676 00b9 47540000 		.4byte	.LASF927
 10677 00bd 05       		.byte	0x5
 10678 00be 8001     		.uleb128 0x80
 10679 00c0 E61B0000 		.4byte	.LASF928
 10680 00c4 05       		.byte	0x5
 10681 00c5 8501     		.uleb128 0x85
 10682 00c7 7F020000 		.4byte	.LASF929
 10683 00cb 05       		.byte	0x5
 10684 00cc 8601     		.uleb128 0x86
 10685 00ce 52010000 		.4byte	.LASF930
 10686 00d2 05       		.byte	0x5
 10687 00d3 8701     		.uleb128 0x87
 10688 00d5 1F2E0000 		.4byte	.LASF931
 10689 00d9 05       		.byte	0x5
 10690 00da 8801     		.uleb128 0x88
 10691 00dc 37640000 		.4byte	.LASF932
 10692 00e0 05       		.byte	0x5
 10693 00e1 8901     		.uleb128 0x89
 10694 00e3 1B3F0000 		.4byte	.LASF933
 10695 00e7 05       		.byte	0x5
 10696 00e8 8A01     		.uleb128 0x8a
 10697 00ea EF0C0000 		.4byte	.LASF934
 10698 00ee 05       		.byte	0x5
 10699 00ef 8B01     		.uleb128 0x8b
 10700 00f1 AE100000 		.4byte	.LASF935
 10701 00f5 05       		.byte	0x5
 10702 00f6 9001     		.uleb128 0x90
 10703 00f8 952F0000 		.4byte	.LASF936
 10704 00fc 05       		.byte	0x5
 10705 00fd 9101     		.uleb128 0x91
 10706 00ff F1770000 		.4byte	.LASF937
 10707 0103 05       		.byte	0x5
 10708 0104 9301     		.uleb128 0x93
 10709 0106 44320000 		.4byte	.LASF938
 10710 010a 05       		.byte	0x5
 10711 010b 9401     		.uleb128 0x94
 10712 010d 90510000 		.4byte	.LASF939
 10713 0111 05       		.byte	0x5
 10714 0112 9601     		.uleb128 0x96
 10715 0114 BA620000 		.4byte	.LASF940
 10716 0118 05       		.byte	0x5
 10717 0119 9701     		.uleb128 0x97
 10718 011b C50C0000 		.4byte	.LASF941
 10719 011f 05       		.byte	0x5
 10720 0120 9801     		.uleb128 0x98
 10721 0122 E6130000 		.4byte	.LASF942
 10722 0126 05       		.byte	0x5
 10723 0127 9901     		.uleb128 0x99
 10724 0129 E2120000 		.4byte	.LASF943
 10725 012d 05       		.byte	0x5
 10726 012e 9A01     		.uleb128 0x9a
 10727 0130 38450000 		.4byte	.LASF944
 10728 0134 05       		.byte	0x5
 10729 0135 A001     		.uleb128 0xa0
 10730 0137 92790000 		.4byte	.LASF945
ARM GAS  /tmp/ccFRKuha.s 			page 217


 10731 013b 05       		.byte	0x5
 10732 013c A101     		.uleb128 0xa1
 10733 013e 68510000 		.4byte	.LASF946
 10734 0142 05       		.byte	0x5
 10735 0143 A301     		.uleb128 0xa3
 10736 0145 C8180000 		.4byte	.LASF947
 10737 0149 05       		.byte	0x5
 10738 014a A401     		.uleb128 0xa4
 10739 014c 68530000 		.4byte	.LASF948
 10740 0150 05       		.byte	0x5
 10741 0151 A501     		.uleb128 0xa5
 10742 0153 AA730000 		.4byte	.LASF949
 10743 0157 05       		.byte	0x5
 10744 0158 A601     		.uleb128 0xa6
 10745 015a 8D310000 		.4byte	.LASF950
 10746 015e 05       		.byte	0x5
 10747 015f AB01     		.uleb128 0xab
 10748 0161 35340000 		.4byte	.LASF951
 10749 0165 05       		.byte	0x5
 10750 0166 AC01     		.uleb128 0xac
 10751 0168 7C6E0000 		.4byte	.LASF952
 10752 016c 05       		.byte	0x5
 10753 016d B201     		.uleb128 0xb2
 10754 016f 45000000 		.4byte	.LASF953
 10755 0173 05       		.byte	0x5
 10756 0174 B301     		.uleb128 0xb3
 10757 0176 E3750000 		.4byte	.LASF954
 10758 017a 05       		.byte	0x5
 10759 017b B401     		.uleb128 0xb4
 10760 017d 06460000 		.4byte	.LASF955
 10761 0181 05       		.byte	0x5
 10762 0182 B501     		.uleb128 0xb5
 10763 0184 E92E0000 		.4byte	.LASF956
 10764 0188 05       		.byte	0x5
 10765 0189 BA01     		.uleb128 0xba
 10766 018b 47780000 		.4byte	.LASF957
 10767 018f 05       		.byte	0x5
 10768 0190 BF01     		.uleb128 0xbf
 10769 0192 D5680000 		.4byte	.LASF958
 10770 0196 05       		.byte	0x5
 10771 0197 C001     		.uleb128 0xc0
 10772 0199 EF3F0000 		.4byte	.LASF959
 10773 019d 05       		.byte	0x5
 10774 019e C501     		.uleb128 0xc5
 10775 01a0 165A0000 		.4byte	.LASF960
 10776 01a4 05       		.byte	0x5
 10777 01a5 CA01     		.uleb128 0xca
 10778 01a7 5B750000 		.4byte	.LASF961
 10779 01ab 05       		.byte	0x5
 10780 01ac CF01     		.uleb128 0xcf
 10781 01ae A2430000 		.4byte	.LASF962
 10782 01b2 05       		.byte	0x5
 10783 01b3 D401     		.uleb128 0xd4
 10784 01b5 AB5D0000 		.4byte	.LASF963
 10785 01b9 05       		.byte	0x5
 10786 01ba D501     		.uleb128 0xd5
 10787 01bc B37E0000 		.4byte	.LASF964
ARM GAS  /tmp/ccFRKuha.s 			page 218


 10788 01c0 05       		.byte	0x5
 10789 01c1 D601     		.uleb128 0xd6
 10790 01c3 00420000 		.4byte	.LASF965
 10791 01c7 05       		.byte	0x5
 10792 01c8 DB01     		.uleb128 0xdb
 10793 01ca 17570000 		.4byte	.LASF966
 10794 01ce 05       		.byte	0x5
 10795 01cf DC01     		.uleb128 0xdc
 10796 01d1 E15E0000 		.4byte	.LASF967
 10797 01d5 05       		.byte	0x5
 10798 01d6 DD01     		.uleb128 0xdd
 10799 01d8 3F010000 		.4byte	.LASF968
 10800 01dc 05       		.byte	0x5
 10801 01dd DE01     		.uleb128 0xde
 10802 01df DB3A0000 		.4byte	.LASF969
 10803 01e3 05       		.byte	0x5
 10804 01e4 DF01     		.uleb128 0xdf
 10805 01e6 995D0000 		.4byte	.LASF970
 10806 01ea 05       		.byte	0x5
 10807 01eb E001     		.uleb128 0xe0
 10808 01ed B7290000 		.4byte	.LASF971
 10809 01f1 05       		.byte	0x5
 10810 01f2 E101     		.uleb128 0xe1
 10811 01f4 A76B0000 		.4byte	.LASF902
 10812 01f8 05       		.byte	0x5
 10813 01f9 E301     		.uleb128 0xe3
 10814 01fb 676E0000 		.4byte	.LASF972
 10815 01ff 05       		.byte	0x5
 10816 0200 E401     		.uleb128 0xe4
 10817 0202 93160000 		.4byte	.LASF973
 10818 0206 05       		.byte	0x5
 10819 0207 E601     		.uleb128 0xe6
 10820 0209 29400000 		.4byte	.LASF974
 10821 020d 05       		.byte	0x5
 10822 020e EB01     		.uleb128 0xeb
 10823 0210 17540000 		.4byte	.LASF975
 10824 0214 05       		.byte	0x5
 10825 0215 EC01     		.uleb128 0xec
 10826 0217 13210000 		.4byte	.LASF976
 10827 021b 00       		.byte	0
 10828              		.section	.debug_macro,"G",%progbits,wm4.ccand_11xx.h.33.99627f4b529fecdc77b0877ab6fe5266,comdat
 10829              	.Ldebug_macro26:
 10830 0000 0400     		.2byte	0x4
 10831 0002 00       		.byte	0
 10832 0003 05       		.byte	0x5
 10833 0004 21       		.uleb128 0x21
 10834 0005 6B000000 		.4byte	.LASF977
 10835 0009 05       		.byte	0x5
 10836 000a 6E       		.uleb128 0x6e
 10837 000b 46570000 		.4byte	.LASF978
 10838 000f 05       		.byte	0x5
 10839 0010 6F       		.uleb128 0x6f
 10840 0011 80260000 		.4byte	.LASF979
 10841 0015 05       		.byte	0x5
 10842 0016 70       		.uleb128 0x70
 10843 0017 5A420000 		.4byte	.LASF980
 10844 001b 05       		.byte	0x5
ARM GAS  /tmp/ccFRKuha.s 			page 219


 10845 001c 71       		.uleb128 0x71
 10846 001d DC7A0000 		.4byte	.LASF981
 10847 0021 05       		.byte	0x5
 10848 0022 72       		.uleb128 0x72
 10849 0023 38190000 		.4byte	.LASF982
 10850 0027 05       		.byte	0x5
 10851 0028 73       		.uleb128 0x73
 10852 0029 490F0000 		.4byte	.LASF983
 10853 002d 05       		.byte	0x5
 10854 002e 74       		.uleb128 0x74
 10855 002f 6D7B0000 		.4byte	.LASF984
 10856 0033 05       		.byte	0x5
 10857 0034 75       		.uleb128 0x75
 10858 0035 20300000 		.4byte	.LASF985
 10859 0039 05       		.byte	0x5
 10860 003a 76       		.uleb128 0x76
 10861 003b 2F690000 		.4byte	.LASF986
 10862 003f 05       		.byte	0x5
 10863 0040 77       		.uleb128 0x77
 10864 0041 A1470000 		.4byte	.LASF987
 10865 0045 05       		.byte	0x5
 10866 0046 7C       		.uleb128 0x7c
 10867 0047 EF1A0000 		.4byte	.LASF988
 10868 004b 05       		.byte	0x5
 10869 004c 7D       		.uleb128 0x7d
 10870 004d 6C280000 		.4byte	.LASF989
 10871 0051 05       		.byte	0x5
 10872 0052 7E       		.uleb128 0x7e
 10873 0053 C2690000 		.4byte	.LASF990
 10874 0057 05       		.byte	0x5
 10875 0058 7F       		.uleb128 0x7f
 10876 0059 573B0000 		.4byte	.LASF991
 10877 005d 05       		.byte	0x5
 10878 005e 9101     		.uleb128 0x91
 10879 0060 9F250000 		.4byte	.LASF992
 10880 0064 05       		.byte	0x5
 10881 0065 9201     		.uleb128 0x92
 10882 0067 95720000 		.4byte	.LASF993
 10883 006b 05       		.byte	0x5
 10884 006c 9301     		.uleb128 0x93
 10885 006e 82040000 		.4byte	.LASF994
 10886 0072 05       		.byte	0x5
 10887 0073 9401     		.uleb128 0x94
 10888 0075 310D0000 		.4byte	.LASF995
 10889 0079 05       		.byte	0x5
 10890 007a 9501     		.uleb128 0x95
 10891 007c AF590000 		.4byte	.LASF996
 10892 0080 05       		.byte	0x5
 10893 0081 9601     		.uleb128 0x96
 10894 0083 CB270000 		.4byte	.LASF997
 10895 0087 05       		.byte	0x5
 10896 0088 9701     		.uleb128 0x97
 10897 008a 80780000 		.4byte	.LASF998
 10898 008e 05       		.byte	0x5
 10899 008f 9801     		.uleb128 0x98
 10900 0091 7D2C0000 		.4byte	.LASF999
 10901 0095 05       		.byte	0x5
ARM GAS  /tmp/ccFRKuha.s 			page 220


 10902 0096 9901     		.uleb128 0x99
 10903 0098 26590000 		.4byte	.LASF1000
 10904 009c 05       		.byte	0x5
 10905 009d 9A01     		.uleb128 0x9a
 10906 009f B4030000 		.4byte	.LASF1001
 10907 00a3 05       		.byte	0x5
 10908 00a4 9B01     		.uleb128 0x9b
 10909 00a6 0A360000 		.4byte	.LASF1002
 10910 00aa 05       		.byte	0x5
 10911 00ab 9C01     		.uleb128 0x9c
 10912 00ad AF1F0000 		.4byte	.LASF1003
 10913 00b1 05       		.byte	0x5
 10914 00b2 9D01     		.uleb128 0x9d
 10915 00b4 777A0000 		.4byte	.LASF1004
 10916 00b8 05       		.byte	0x5
 10917 00b9 9E01     		.uleb128 0x9e
 10918 00bb CC540000 		.4byte	.LASF1005
 10919 00bf 05       		.byte	0x5
 10920 00c0 9F01     		.uleb128 0x9f
 10921 00c2 19190000 		.4byte	.LASF1006
 10922 00c6 05       		.byte	0x5
 10923 00c7 A901     		.uleb128 0xa9
 10924 00c9 40620000 		.4byte	.LASF1007
 10925 00cd 05       		.byte	0x5
 10926 00ce AA01     		.uleb128 0xaa
 10927 00d0 9A140000 		.4byte	.LASF1008
 10928 00d4 05       		.byte	0x5
 10929 00d5 AB01     		.uleb128 0xab
 10930 00d7 58230000 		.4byte	.LASF1009
 10931 00db 05       		.byte	0x5
 10932 00dc AC01     		.uleb128 0xac
 10933 00de DB510000 		.4byte	.LASF1010
 10934 00e2 05       		.byte	0x5
 10935 00e3 AD01     		.uleb128 0xad
 10936 00e5 D73D0000 		.4byte	.LASF1011
 10937 00e9 05       		.byte	0x5
 10938 00ea AE01     		.uleb128 0xae
 10939 00ec 553C0000 		.4byte	.LASF1012
 10940 00f0 05       		.byte	0x5
 10941 00f1 AF01     		.uleb128 0xaf
 10942 00f3 BA4A0000 		.4byte	.LASF1013
 10943 00f7 05       		.byte	0x5
 10944 00f8 C401     		.uleb128 0xc4
 10945 00fa A2190000 		.4byte	.LASF1014
 10946 00fe 05       		.byte	0x5
 10947 00ff C501     		.uleb128 0xc5
 10948 0101 75670000 		.4byte	.LASF1015
 10949 0105 05       		.byte	0x5
 10950 0106 C601     		.uleb128 0xc6
 10951 0108 D75B0000 		.4byte	.LASF1016
 10952 010c 05       		.byte	0x5
 10953 010d C901     		.uleb128 0xc9
 10954 010f 77460000 		.4byte	.LASF1017
 10955 0113 05       		.byte	0x5
 10956 0114 CA01     		.uleb128 0xca
 10957 0116 87400000 		.4byte	.LASF1018
 10958 011a 05       		.byte	0x5
ARM GAS  /tmp/ccFRKuha.s 			page 221


 10959 011b CB01     		.uleb128 0xcb
 10960 011d 57110000 		.4byte	.LASF1019
 10961 0121 05       		.byte	0x5
 10962 0122 E501     		.uleb128 0xe5
 10963 0124 9D280000 		.4byte	.LASF1020
 10964 0128 00       		.byte	0
 10965              		.section	.debug_line,"",%progbits
 10966              	.Ldebug_line0:
 10967 0000 CC070000 		.section	.debug_str,"MS",%progbits,1
 10967      0200CD02 
 10967      00000201 
 10967      FB0E0D00 
 10967      01010101 
 10968              	.LASF905:
 10969 0000 4932435F 		.ascii	"I2C_I2CONSET_STO ((0x10))\000"
 10969      4932434F 
 10969      4E534554 
 10969      5F53544F 
 10969      20282830 
 10970              	.LASF456:
 10971 001a 57494E54 		.ascii	"WINT_MIN (__WINT_MIN__)\000"
 10971      5F4D494E 
 10971      20285F5F 
 10971      57494E54 
 10971      5F4D494E 
 10972              	.LASF159:
 10973 0032 5F5F4445 		.ascii	"__DECIMAL_DIG__ 17\000"
 10973      43494D41 
 10973      4C5F4449 
 10973      475F5F20 
 10973      313700
 10974              	.LASF953:
 10975 0045 4932435F 		.ascii	"I2C_I2MMCTRL_MM_ENA ((1 << 0))\000"
 10975      49324D4D 
 10975      4354524C 
 10975      5F4D4D5F 
 10975      454E4120 
 10976              	.LASF1239:
 10977 0064 77646174 		.ascii	"wdata8\000"
 10977      613800
 10978              	.LASF977:
 10979 006b 5F5F4343 		.ascii	"__CCAND_11XX_H_ \000"
 10979      414E445F 
 10979      31315858 
 10979      5F485F20 
 10979      00
 10980              	.LASF1121:
 10981 007c 53595343 		.ascii	"SYSCTL_CLOCK_SYS\000"
 10981      544C5F43 
 10981      4C4F434B 
 10981      5F535953 
 10981      00
 10982              	.LASF858:
 10983 008d 5353505F 		.ascii	"SSP_CR1_SSP_EN ((uint32_t) (1 << 1))\000"
 10983      4352315F 
 10983      5353505F 
 10983      454E2028 
ARM GAS  /tmp/ccFRKuha.s 			page 222


 10983      2875696E 
 10984              	.LASF475:
 10985 00b2 5F424954 		.ascii	"_BIT\000"
 10985      00
 10986              	.LASF112:
 10987 00b7 5F5F494E 		.ascii	"__INT_FAST32_MAX__ 2147483647\000"
 10987      545F4641 
 10987      53543332 
 10987      5F4D4158 
 10987      5F5F2032 
 10988              	.LASF602:
 10989 00d5 4C50435F 		.ascii	"LPC_IOCON_BASE 0x40044000\000"
 10989      494F434F 
 10989      4E5F4241 
 10989      53452030 
 10989      78343030 
 10990              	.LASF581:
 10991 00ef 4E564943 		.ascii	"NVIC_BASE (SCS_BASE + 0x0100UL)\000"
 10991      5F424153 
 10991      45202853 
 10991      43535F42 
 10991      41534520 
 10992              	.LASF312:
 10993 010f 5F5F4743 		.ascii	"__GCC_ATOMIC_WCHAR_T_LOCK_FREE 1\000"
 10993      435F4154 
 10993      4F4D4943 
 10993      5F574348 
 10993      41525F54 
 10994              	.LASF295:
 10995 0130 5F5F5441 		.ascii	"__TA_IBIT__ 64\000"
 10995      5F494249 
 10995      545F5F20 
 10995      363400
 10996              	.LASF968:
 10997 013f 4932435F 		.ascii	"I2C_BYTE_RECV 0x02\000"
 10997      42595445 
 10997      5F524543 
 10997      56203078 
 10997      303200
 10998              	.LASF930:
 10999 0152 4932435F 		.ascii	"I2C_I2STAT_M_RX_RESTART ((0x10))\000"
 10999      49325354 
 10999      41545F4D 
 10999      5F52585F 
 10999      52455354 
 11000              	.LASF1123:
 11001 0173 53595343 		.ascii	"SYSCTL_CLOCK_RAM\000"
 11001      544C5F43 
 11001      4C4F434B 
 11001      5F52414D 
 11001      00
 11002              	.LASF188:
 11003 0184 5F5F5346 		.ascii	"__SFRACT_FBIT__ 7\000"
 11003      52414354 
 11003      5F464249 
 11003      545F5F20 
 11003      3700
ARM GAS  /tmp/ccFRKuha.s 			page 223


 11004              	.LASF1043:
 11005 0196 73697A65 		.ascii	"sizetype\000"
 11005      74797065 
 11005      00
 11006              	.LASF73:
 11007 019f 5F5F4C4F 		.ascii	"__LONG_LONG_MAX__ 9223372036854775807LL\000"
 11007      4E475F4C 
 11007      4F4E475F 
 11007      4D41585F 
 11007      5F203932 
 11008              	.LASF590:
 11009 01c7 4C50435F 		.ascii	"LPC_WWDT_BASE 0x40004000\000"
 11009      57574454 
 11009      5F424153 
 11009      45203078 
 11009      34303030 
 11010              	.LASF1229:
 11011 01e0 636C6B5F 		.ascii	"clk_rate\000"
 11011      72617465 
 11011      00
 11012              	.LASF260:
 11013 01e9 5F5F4C4C 		.ascii	"__LLACCUM_MIN__ (-0X1P31LLK-0X1P31LLK)\000"
 11013      41434355 
 11013      4D5F4D49 
 11013      4E5F5F20 
 11013      282D3058 
 11014              	.LASF252:
 11015 0210 5F5F4C41 		.ascii	"__LACCUM_EPSILON__ 0x1P-31LK\000"
 11015      4343554D 
 11015      5F455053 
 11015      494C4F4E 
 11015      5F5F2030 
 11016              	.LASF638:
 11017 022d 53595343 		.ascii	"SYSCTL_RST_POR (1 << 0)\000"
 11017      544C5F52 
 11017      53545F50 
 11017      4F522028 
 11017      31203C3C 
 11018              	.LASF185:
 11019 0245 5F5F4445 		.ascii	"__DEC128_MAX__ 9.999999999999999999999999999999999E"
 11019      43313238 
 11019      5F4D4158 
 11019      5F5F2039 
 11019      2E393939 
 11020 0278 36313434 		.ascii	"6144DL\000"
 11020      444C00
 11021              	.LASF929:
 11022 027f 4932435F 		.ascii	"I2C_I2STAT_M_RX_START ((0x08))\000"
 11022      49325354 
 11022      41545F4D 
 11022      5F52585F 
 11022      53544152 
 11023              	.LASF81:
 11024 029e 5F5F494E 		.ascii	"__INTMAX_C(c) c ## LL\000"
 11024      544D4158 
 11024      5F432863 
 11024      29206320 
ARM GAS  /tmp/ccFRKuha.s 			page 224


 11024      2323204C 
 11025              	.LASF530:
 11026 02b4 5343425F 		.ascii	"SCB_ICSR_PENDSTCLR_Msk (1UL << SCB_ICSR_PENDSTCLR_P"
 11026      49435352 
 11026      5F50454E 
 11026      44535443 
 11026      4C525F4D 
 11027 02e7 6F732900 		.ascii	"os)\000"
 11028              	.LASF246:
 11029 02eb 5F5F5541 		.ascii	"__UACCUM_MAX__ 0XFFFFFFFFP-16UK\000"
 11029      4343554D 
 11029      5F4D4158 
 11029      5F5F2030 
 11029      58464646 
 11030              	.LASF173:
 11031 030b 5F5F4445 		.ascii	"__DEC32_SUBNORMAL_MIN__ 0.000001E-95DF\000"
 11031      4333325F 
 11031      5355424E 
 11031      4F524D41 
 11031      4C5F4D49 
 11032              	.LASF277:
 11033 0332 5F5F5451 		.ascii	"__TQ_IBIT__ 0\000"
 11033      5F494249 
 11033      545F5F20 
 11033      3000
 11034              	.LASF1186:
 11035 0340 5353505F 		.ascii	"SSP_BITS_12\000"
 11035      42495453 
 11035      5F313200 
 11036              	.LASF774:
 11037 034c 55415254 		.ascii	"UART_LCR_BREAK_EN (1 << 6)\000"
 11037      5F4C4352 
 11037      5F425245 
 11037      414B5F45 
 11037      4E202831 
 11038              	.LASF1213:
 11039 0367 52617749 		.ascii	"RawInt\000"
 11039      6E7400
 11040              	.LASF11:
 11041 036e 5F5F4154 		.ascii	"__ATOMIC_CONSUME 1\000"
 11041      4F4D4943 
 11041      5F434F4E 
 11041      53554D45 
 11041      203100
 11042              	.LASF210:
 11043 0381 5F5F4C46 		.ascii	"__LFRACT_MIN__ (-0.5LR-0.5LR)\000"
 11043      52414354 
 11043      5F4D494E 
 11043      5F5F2028 
 11043      2D302E35 
 11044              	.LASF692:
 11045 039f 4D445F41 		.ascii	"MD_ADMODE (0x0 << 7)\000"
 11045      444D4F44 
 11045      45202830 
 11045      7830203C 
 11045      3C203729 
 11046              	.LASF1001:
ARM GAS  /tmp/ccFRKuha.s 			page 225


 11047 03b4 53444F5F 		.ascii	"SDO_ABORT_TYPEMISMATCH 0x06070010UL\000"
 11047      41424F52 
 11047      545F5459 
 11047      50454D49 
 11047      534D4154 
 11048              	.LASF516:
 11049 03d8 5343425F 		.ascii	"SCB_CPUID_ARCHITECTURE_Msk (0xFUL << SCB_CPUID_ARCH"
 11049      43505549 
 11049      445F4152 
 11049      43484954 
 11049      45435455 
 11050 040b 49544543 		.ascii	"ITECTURE_Pos)\000"
 11050      54555245 
 11050      5F506F73 
 11050      2900
 11051              	.LASF240:
 11052 0419 5F5F4143 		.ascii	"__ACCUM_MIN__ (-0X1P15K-0X1P15K)\000"
 11052      43554D5F 
 11052      4D494E5F 
 11052      5F20282D 
 11052      30583150 
 11053              	.LASF796:
 11054 043a 55415254 		.ascii	"UART_MSR_LO2HI_RI (1 << 2)\000"
 11054      5F4D5352 
 11054      5F4C4F32 
 11054      48495F52 
 11054      49202831 
 11055              	.LASF781:
 11056 0455 55415254 		.ascii	"UART_MCR_AUTO_CTS_EN (1 << 7)\000"
 11056      5F4D4352 
 11056      5F415554 
 11056      4F5F4354 
 11056      535F454E 
 11057              	.LASF140:
 11058 0473 5F5F4442 		.ascii	"__DBL_DIG__ 15\000"
 11058      4C5F4449 
 11058      475F5F20 
 11058      313500
 11059              	.LASF994:
 11060 0482 53444F5F 		.ascii	"SDO_ABORT_UNKNOWN_COMMAND 0x05040001UL\000"
 11060      41424F52 
 11060      545F554E 
 11060      4B4E4F57 
 11060      4E5F434F 
 11061              	.LASF533:
 11062 04a9 5343425F 		.ascii	"SCB_ICSR_ISRPENDING_Pos 22\000"
 11062      49435352 
 11062      5F495352 
 11062      50454E44 
 11062      494E475F 
 11063              	.LASF1224:
 11064 04c4 43686970 		.ascii	"Chip_SSP_Disable\000"
 11064      5F535350 
 11064      5F446973 
 11064      61626C65 
 11064      00
 11065              	.LASF17:
ARM GAS  /tmp/ccFRKuha.s 			page 226


 11066 04d5 5F5F5349 		.ascii	"__SIZEOF_LONG_LONG__ 8\000"
 11066      5A454F46 
 11066      5F4C4F4E 
 11066      475F4C4F 
 11066      4E475F5F 
 11067              	.LASF144:
 11068 04ec 5F5F4442 		.ascii	"__DBL_MAX_10_EXP__ 308\000"
 11068      4C5F4D41 
 11068      585F3130 
 11068      5F455850 
 11068      5F5F2033 
 11069              	.LASF808:
 11070 0503 55415254 		.ascii	"UART_ACR_BITMASK (0x307)\000"
 11070      5F414352 
 11070      5F424954 
 11070      4D41534B 
 11070      20283078 
 11071              	.LASF777:
 11072 051c 55415254 		.ascii	"UART_MCR_DTR_CTRL (1 << 0)\000"
 11072      5F4D4352 
 11072      5F445452 
 11072      5F435452 
 11072      4C202831 
 11073              	.LASF200:
 11074 0537 5F5F4652 		.ascii	"__FRACT_MIN__ (-0.5R-0.5R)\000"
 11074      4143545F 
 11074      4D494E5F 
 11074      5F20282D 
 11074      302E3552 
 11075              	.LASF266:
 11076 0552 5F5F554C 		.ascii	"__ULLACCUM_MAX__ 0XFFFFFFFFFFFFFFFFP-32ULLK\000"
 11076      4C414343 
 11076      554D5F4D 
 11076      41585F5F 
 11076      20305846 
 11077              	.LASF564:
 11078 057e 53797354 		.ascii	"SysTick_CTRL_CLKSOURCE_Msk (1UL << SysTick_CTRL_CLK"
 11078      69636B5F 
 11078      4354524C 
 11078      5F434C4B 
 11078      534F5552 
 11079 05b1 534F5552 		.ascii	"SOURCE_Pos)\000"
 11079      43455F50 
 11079      6F732900 
 11080              	.LASF1171:
 11081 05bd 5353505F 		.ascii	"SSP_CLOCK_MODE2\000"
 11081      434C4F43 
 11081      4B5F4D4F 
 11081      44453200 
 11082              	.LASF170:
 11083 05cd 5F5F4445 		.ascii	"__DEC32_MIN__ 1E-95DF\000"
 11083      4333325F 
 11083      4D494E5F 
 11083      5F203145 
 11083      2D393544 
 11084              	.LASF694:
 11085 05e3 4D445F44 		.ascii	"MD_DISFIL (0x0 << 8)\000"
ARM GAS  /tmp/ccFRKuha.s 			page 227


 11085      49534649 
 11085      4C202830 
 11085      7830203C 
 11085      3C203829 
 11086              	.LASF337:
 11087 05f8 5F5F4152 		.ascii	"__ARM_NEON_FP 4\000"
 11087      4D5F4E45 
 11087      4F4E5F46 
 11087      50203400 
 11088              	.LASF595:
 11089 0608 4C50435F 		.ascii	"LPC_TIMER32_1_BASE 0x40018000\000"
 11089      54494D45 
 11089      5233325F 
 11089      315F4241 
 11089      53452030 
 11090              	.LASF273:
 11091 0626 5F5F5351 		.ascii	"__SQ_IBIT__ 0\000"
 11091      5F494249 
 11091      545F5F20 
 11091      3000
 11092              	.LASF27:
 11093 0634 5F5F4F52 		.ascii	"__ORDER_PDP_ENDIAN__ 3412\000"
 11093      4445525F 
 11093      5044505F 
 11093      454E4449 
 11093      414E5F5F 
 11094              	.LASF1140:
 11095 064e 43484950 		.ascii	"CHIP_SYSCTL_CLOCK_T\000"
 11095      5F535953 
 11095      43544C5F 
 11095      434C4F43 
 11095      4B5F5400 
 11096              	.LASF176:
 11097 0662 5F5F4445 		.ascii	"__DEC64_MAX_EXP__ 385\000"
 11097      4336345F 
 11097      4D41585F 
 11097      4558505F 
 11097      5F203338 
 11098              	.LASF1086:
 11099 0678 424F4443 		.ascii	"BODCTRL\000"
 11099      54524C00 
 11100              	.LASF558:
 11101 0680 5343425F 		.ascii	"SCB_CCR_UNALIGN_TRP_Msk (1UL << SCB_CCR_UNALIGN_TRP"
 11101      4343525F 
 11101      554E414C 
 11101      49474E5F 
 11101      5452505F 
 11102 06b3 5F506F73 		.ascii	"_Pos)\000"
 11102      2900
 11103              	.LASF136:
 11104 06b9 5F5F464C 		.ascii	"__FLT_HAS_DENORM__ 1\000"
 11104      545F4841 
 11104      535F4445 
 11104      4E4F524D 
 11104      5F5F2031 
 11105              	.LASF40:
 11106 06ce 5F5F494E 		.ascii	"__INT8_TYPE__ signed char\000"
ARM GAS  /tmp/ccFRKuha.s 			page 228


 11106      54385F54 
 11106      5950455F 
 11106      5F207369 
 11106      676E6564 
 11107              	.LASF326:
 11108 06e8 5F5F4152 		.ascii	"__ARM_ARCH_PROFILE 77\000"
 11108      4D5F4152 
 11108      43485F50 
 11108      524F4649 
 11108      4C452037 
 11109              	.LASF762:
 11110 06fe 55415254 		.ascii	"UART_LCR_WLEN6 (1 << 0)\000"
 11110      5F4C4352 
 11110      5F574C45 
 11110      4E362028 
 11110      31203C3C 
 11111              	.LASF528:
 11112 0716 5343425F 		.ascii	"SCB_ICSR_PENDSTSET_Msk (1UL << SCB_ICSR_PENDSTSET_P"
 11112      49435352 
 11112      5F50454E 
 11112      44535453 
 11112      45545F4D 
 11113 0749 6F732900 		.ascii	"os)\000"
 11114              	.LASF1129:
 11115 074d 53595343 		.ascii	"SYSCTL_CLOCK_CT16B1\000"
 11115      544C5F43 
 11115      4C4F434B 
 11115      5F435431 
 11115      36423100 
 11116              	.LASF848:
 11117 0761 5353505F 		.ascii	"SSP_CR0_FRF_SPI ((uint32_t) (0 << 4))\000"
 11117      4352305F 
 11117      4652465F 
 11117      53504920 
 11117      28287569 
 11118              	.LASF791:
 11119 0787 55415254 		.ascii	"UART_LSR_TXFE (1 << 8)\000"
 11119      5F4C5352 
 11119      5F545846 
 11119      45202831 
 11119      203C3C20 
 11120              	.LASF155:
 11121 079e 5F5F4C44 		.ascii	"__LDBL_MIN_EXP__ (-1021)\000"
 11121      424C5F4D 
 11121      494E5F45 
 11121      58505F5F 
 11121      20282D31 
 11122              	.LASF153:
 11123 07b7 5F5F4C44 		.ascii	"__LDBL_MANT_DIG__ 53\000"
 11123      424C5F4D 
 11123      414E545F 
 11123      4449475F 
 11123      5F203533 
 11124              	.LASF436:
 11125 07cc 494E545F 		.ascii	"INT_FAST16_MIN (-__INT_FAST16_MAX__ - 1)\000"
 11125      46415354 
 11125      31365F4D 
ARM GAS  /tmp/ccFRKuha.s 			page 229


 11125      494E2028 
 11125      2D5F5F49 
 11126              	.LASF324:
 11127 07f5 5F5F4152 		.ascii	"__ARM_SIZEOF_MINIMAL_ENUM 1\000"
 11127      4D5F5349 
 11127      5A454F46 
 11127      5F4D494E 
 11127      494D414C 
 11128              	.LASF103:
 11129 0811 5F5F5549 		.ascii	"__UINT8_C(c) c\000"
 11129      4E54385F 
 11129      43286329 
 11129      206300
 11130              	.LASF41:
 11131 0820 5F5F494E 		.ascii	"__INT16_TYPE__ short int\000"
 11131      5431365F 
 11131      54595045 
 11131      5F5F2073 
 11131      686F7274 
 11132              	.LASF370:
 11133 0839 756E7369 		.ascii	"unsigned\000"
 11133      676E6564 
 11133      00
 11134              	.LASF875:
 11135 0842 434F4D50 		.ascii	"COMPILE_TIME_ASSERT(pred) switch(0){case 0:case pre"
 11135      494C455F 
 11135      54494D45 
 11135      5F415353 
 11135      45525428 
 11136 0875 643A3B7D 		.ascii	"d:;}\000"
 11136      00
 11137              	.LASF251:
 11138 087a 5F5F4C41 		.ascii	"__LACCUM_MAX__ 0X7FFFFFFFFFFFFFFFP-31LK\000"
 11138      4343554D 
 11138      5F4D4158 
 11138      5F5F2030 
 11138      58374646 
 11139              	.LASF594:
 11140 08a2 4C50435F 		.ascii	"LPC_TIMER32_0_BASE 0x40014000\000"
 11140      54494D45 
 11140      5233325F 
 11140      305F4241 
 11140      53452030 
 11141              	.LASF809:
 11142 08c0 55415254 		.ascii	"UART_RS485CTRL_NMM_EN (1 << 0)\000"
 11142      5F525334 
 11142      38354354 
 11142      524C5F4E 
 11142      4D4D5F45 
 11143              	.LASF474:
 11144 08df 50415241 		.ascii	"PARAM_FUNCTIONALSTATE(State) ((State == DISABLE) ||"
 11144      4D5F4655 
 11144      4E435449 
 11144      4F4E414C 
 11144      53544154 
 11145 0912 20285374 		.ascii	" (State == ENABLE))\000"
 11145      61746520 
ARM GAS  /tmp/ccFRKuha.s 			page 230


 11145      3D3D2045 
 11145      4E41424C 
 11145      45292900 
 11146              	.LASF1173:
 11147 0926 43484950 		.ascii	"CHIP_SSP_FRAME_FORMAT\000"
 11147      5F535350 
 11147      5F465241 
 11147      4D455F46 
 11147      4F524D41 
 11148              	.LASF921:
 11149 093c 4932435F 		.ascii	"I2C_I2STAT_BUS_ERROR ((0x00))\000"
 11149      49325354 
 11149      41545F42 
 11149      55535F45 
 11149      52524F52 
 11150              	.LASF899:
 11151 095a 5245545F 		.ascii	"RET_SLAVE_RX 5\000"
 11151      534C4156 
 11151      455F5258 
 11151      203500
 11152              	.LASF852:
 11153 0969 5353505F 		.ascii	"SSP_CR0_CPOL_HI ((uint32_t) (1 << 6))\000"
 11153      4352305F 
 11153      43504F4C 
 11153      5F484920 
 11153      28287569 
 11154              	.LASF1111:
 11155 098f 52455345 		.ascii	"RESET_CAN0\000"
 11155      545F4341 
 11155      4E3000
 11156              	.LASF666:
 11157 099a 494F434F 		.ascii	"IOCON_FUNC1 0x1\000"
 11157      4E5F4655 
 11157      4E433120 
 11157      30783100 
 11158              	.LASF1241:
 11159 09aa 72646174 		.ascii	"rdata16\000"
 11159      61313600 
 11160              	.LASF419:
 11161 09b2 494E545F 		.ascii	"INT_LEAST16_MAX (__INT_LEAST16_MAX__)\000"
 11161      4C454153 
 11161      5431365F 
 11161      4D415820 
 11161      285F5F49 
 11162              	.LASF829:
 11163 09d8 55415254 		.ascii	"UART_FDR_BITMASK (0xFF)\000"
 11163      5F464452 
 11163      5F424954 
 11163      4D41534B 
 11163      20283078 
 11164              	.LASF1:
 11165 09f0 5F5F5354 		.ascii	"__STDC_HOSTED__ 1\000"
 11165      44435F48 
 11165      4F535445 
 11165      445F5F20 
 11165      3100
 11166              	.LASF223:
ARM GAS  /tmp/ccFRKuha.s 			page 231


 11167 0a02 5F5F554C 		.ascii	"__ULLFRACT_FBIT__ 64\000"
 11167      4C465241 
 11167      43545F46 
 11167      4249545F 
 11167      5F203634 
 11168              	.LASF738:
 11169 0a17 55415254 		.ascii	"UART2_IER_BITMASK (0x38F)\000"
 11169      325F4945 
 11169      525F4249 
 11169      544D4153 
 11169      4B202830 
 11170              	.LASF1074:
 11171 0a31 55534243 		.ascii	"USBCLKDIV\000"
 11171      4C4B4449 
 11171      5600
 11172              	.LASF437:
 11173 0a3b 494E545F 		.ascii	"INT_FAST16_MAX (__INT_FAST16_MAX__)\000"
 11173      46415354 
 11173      31365F4D 
 11173      41582028 
 11173      5F5F494E 
 11174              	.LASF59:
 11175 0a5f 5F5F494E 		.ascii	"__INT_FAST64_TYPE__ long long int\000"
 11175      545F4641 
 11175      53543634 
 11175      5F545950 
 11175      455F5F20 
 11176              	.LASF527:
 11177 0a81 5343425F 		.ascii	"SCB_ICSR_PENDSTSET_Pos 26\000"
 11177      49435352 
 11177      5F50454E 
 11177      44535453 
 11177      45545F50 
 11178              	.LASF410:
 11179 0a9b 494E5438 		.ascii	"INT8_MAX (__INT8_MAX__)\000"
 11179      5F4D4158 
 11179      20285F5F 
 11179      494E5438 
 11179      5F4D4158 
 11180              	.LASF659:
 11181 0ab3 53595343 		.ascii	"SYSCTL_POWERDOWN_SYSOSC_PD (1 << 5)\000"
 11181      544C5F50 
 11181      4F574552 
 11181      444F574E 
 11181      5F535953 
 11182              	.LASF374:
 11183 0ad7 7369676E 		.ascii	"signed +0\000"
 11183      6564202B 
 11183      3000
 11184              	.LASF451:
 11185 0ae1 50545244 		.ascii	"PTRDIFF_MAX (__PTRDIFF_MAX__)\000"
 11185      4946465F 
 11185      4D415820 
 11185      285F5F50 
 11185      54524449 
 11186              	.LASF904:
 11187 0aff 4932435F 		.ascii	"I2C_I2CONSET_SI ((0x08))\000"
ARM GAS  /tmp/ccFRKuha.s 			page 232


 11187      4932434F 
 11187      4E534554 
 11187      5F534920 
 11187      28283078 
 11188              	.LASF670:
 11189 0b18 494F434F 		.ascii	"IOCON_FUNC5 0x5\000"
 11189      4E5F4655 
 11189      4E433520 
 11189      30783500 
 11190              	.LASF782:
 11191 0b28 55415254 		.ascii	"UART_MCR_BITMASK (0xD3)\000"
 11191      5F4D4352 
 11191      5F424954 
 11191      4D41534B 
 11191      20283078 
 11192              	.LASF83:
 11193 0b40 5F5F5549 		.ascii	"__UINTMAX_C(c) c ## ULL\000"
 11193      4E544D41 
 11193      585F4328 
 11193      63292063 
 11193      20232320 
 11194              	.LASF485:
 11195 0b58 554E5553 		.ascii	"UNUSED(x) (void)(x)\000"
 11195      45442878 
 11195      29202876 
 11195      6F696429 
 11195      28782900 
 11196              	.LASF196:
 11197 0b6c 5F5F5553 		.ascii	"__USFRACT_MAX__ 0XFFP-8UHR\000"
 11197      46524143 
 11197      545F4D41 
 11197      585F5F20 
 11197      30584646 
 11198              	.LASF563:
 11199 0b87 53797354 		.ascii	"SysTick_CTRL_CLKSOURCE_Pos 2\000"
 11199      69636B5F 
 11199      4354524C 
 11199      5F434C4B 
 11199      534F5552 
 11200              	.LASF1143:
 11201 0ba4 4C50435F 		.ascii	"LPC_SSP_T\000"
 11201      5353505F 
 11201      5400
 11202              	.LASF686:
 11203 0bae 4D445F50 		.ascii	"MD_PLN (0x0 << 3)\000"
 11203      4C4E2028 
 11203      30783020 
 11203      3C3C2033 
 11203      2900
 11204              	.LASF749:
 11205 0bc0 55415254 		.ascii	"UART_IIR_INTID_MODEM (0 << 1)\000"
 11205      5F494952 
 11205      5F494E54 
 11205      49445F4D 
 11205      4F44454D 
 11206              	.LASF506:
 11207 0bde 5F5F434F 		.ascii	"__CORE_CMFUNC_H \000"
ARM GAS  /tmp/ccFRKuha.s 			page 233


 11207      52455F43 
 11207      4D46554E 
 11207      435F4820 
 11207      00
 11208              	.LASF541:
 11209 0bef 5343425F 		.ascii	"SCB_AIRCR_VECTKEYSTAT_Pos 16\000"
 11209      41495243 
 11209      525F5645 
 11209      43544B45 
 11209      59535441 
 11210              	.LASF756:
 11211 0c0c 55415254 		.ascii	"UART_FCR_TRG_LEV0 (0)\000"
 11211      5F464352 
 11211      5F545247 
 11211      5F4C4556 
 11211      30202830 
 11212              	.LASF909:
 11213 0c22 4932435F 		.ascii	"I2C_I2CONCLR_SIC ((1 << 3))\000"
 11213      4932434F 
 11213      4E434C52 
 11213      5F534943 
 11213      20282831 
 11214              	.LASF537:
 11215 0c3e 5343425F 		.ascii	"SCB_ICSR_VECTACTIVE_Pos 0\000"
 11215      49435352 
 11215      5F564543 
 11215      54414354 
 11215      4956455F 
 11216              	.LASF872:
 11217 0c58 5353505F 		.ascii	"SSP_MASTER_MODE SSP_CR1_MASTER_EN\000"
 11217      4D415354 
 11217      45525F4D 
 11217      4F444520 
 11217      5353505F 
 11218              	.LASF416:
 11219 0c7a 494E5431 		.ascii	"INT16_MAX (__INT16_MAX__)\000"
 11219      365F4D41 
 11219      5820285F 
 11219      5F494E54 
 11219      31365F4D 
 11220              	.LASF911:
 11221 0c94 4932435F 		.ascii	"I2C_I2CONCLR_STAC ((1 << 5))\000"
 11221      4932434F 
 11221      4E434C52 
 11221      5F535441 
 11221      43202828 
 11222              	.LASF213:
 11223 0cb1 5F5F554C 		.ascii	"__ULFRACT_FBIT__ 32\000"
 11223      46524143 
 11223      545F4642 
 11223      49545F5F 
 11223      20333200 
 11224              	.LASF941:
 11225 0cc5 4932435F 		.ascii	"I2C_I2STAT_S_RX_PRE_SLA_DAT_NACK ((0x88))\000"
 11225      49325354 
 11225      41545F53 
 11225      5F52585F 
ARM GAS  /tmp/ccFRKuha.s 			page 234


 11225      5052455F 
 11226              	.LASF934:
 11227 0cef 4932435F 		.ascii	"I2C_I2STAT_M_RX_DAT_ACK ((0x50))\000"
 11227      49325354 
 11227      41545F4D 
 11227      5F52585F 
 11227      4441545F 
 11228              	.LASF1196:
 11229 0d10 72785F64 		.ascii	"rx_data\000"
 11229      61746100 
 11230              	.LASF404:
 11231 0d18 5F5F696E 		.ascii	"__int_fast32_t_defined 1\000"
 11231      745F6661 
 11231      73743332 
 11231      5F745F64 
 11231      6566696E 
 11232              	.LASF995:
 11233 0d31 53444F5F 		.ascii	"SDO_ABORT_UNSUPPORTED 0x06010000UL\000"
 11233      41424F52 
 11233      545F554E 
 11233      53555050 
 11233      4F525445 
 11234              	.LASF792:
 11235 0d54 55415254 		.ascii	"UART_LSR_BITMASK (0xFF)\000"
 11235      5F4C5352 
 11235      5F424954 
 11235      4D41534B 
 11235      20283078 
 11236              	.LASF817:
 11237 0d6c 55415254 		.ascii	"UART_ICR_IRDAINV (1 << 1)\000"
 11237      5F494352 
 11237      5F495244 
 11237      41494E56 
 11237      20283120 
 11238              	.LASF192:
 11239 0d86 5F5F5346 		.ascii	"__SFRACT_EPSILON__ 0x1P-7HR\000"
 11239      52414354 
 11239      5F455053 
 11239      494C4F4E 
 11239      5F5F2030 
 11240              	.LASF99:
 11241 0da2 5F5F494E 		.ascii	"__INT32_C(c) c ## L\000"
 11241      5433325F 
 11241      43286329 
 11241      20632023 
 11241      23204C00 
 11242              	.LASF282:
 11243 0db6 5F5F5553 		.ascii	"__USQ_FBIT__ 32\000"
 11243      515F4642 
 11243      49545F5F 
 11243      20333200 
 11244              	.LASF26:
 11245 0dc6 5F5F4F52 		.ascii	"__ORDER_BIG_ENDIAN__ 4321\000"
 11245      4445525F 
 11245      4249475F 
 11245      454E4449 
 11245      414E5F5F 
ARM GAS  /tmp/ccFRKuha.s 			page 235


 11246              	.LASF1130:
 11247 0de0 53595343 		.ascii	"SYSCTL_CLOCK_CT32B0\000"
 11247      544C5F43 
 11247      4C4F434B 
 11247      5F435433 
 11247      32423000 
 11248              	.LASF1131:
 11249 0df4 53595343 		.ascii	"SYSCTL_CLOCK_CT32B1\000"
 11249      544C5F43 
 11249      4C4F434B 
 11249      5F435433 
 11249      32423100 
 11250              	.LASF272:
 11251 0e08 5F5F5351 		.ascii	"__SQ_FBIT__ 31\000"
 11251      5F464249 
 11251      545F5F20 
 11251      333100
 11252              	.LASF898:
 11253 0e17 5245545F 		.ascii	"RET_SLAVE_TX 6\000"
 11253      534C4156 
 11253      455F5458 
 11253      203600
 11254              	.LASF302:
 11255 0e26 5F5F5554 		.ascii	"__UTA_FBIT__ 64\000"
 11255      415F4642 
 11255      49545F5F 
 11255      20363400 
 11256              	.LASF768:
 11257 0e36 55415254 		.ascii	"UART_LCR_PARITY_EN (1 << 3)\000"
 11257      5F4C4352 
 11257      5F504152 
 11257      4954595F 
 11257      454E2028 
 11258              	.LASF1112:
 11259 0e52 52455345 		.ascii	"RESET_UART0\000"
 11259      545F5541 
 11259      52543000 
 11260              	.LASF755:
 11261 0e5e 55415254 		.ascii	"UART_TX_FIFO_SIZE (16)\000"
 11261      5F54585F 
 11261      4649464F 
 11261      5F53495A 
 11261      45202831 
 11262              	.LASF280:
 11263 0e75 5F5F5548 		.ascii	"__UHQ_FBIT__ 16\000"
 11263      515F4642 
 11263      49545F5F 
 11263      20313600 
 11264              	.LASF431:
 11265 0e85 494E545F 		.ascii	"INT_LEAST64_MAX (__INT_LEAST64_MAX__)\000"
 11265      4C454153 
 11265      5436345F 
 11265      4D415820 
 11265      285F5F49 
 11266              	.LASF1147:
 11267 0eab 5353505F 		.ascii	"SSP_STAT_TNF\000"
 11267      53544154 
ARM GAS  /tmp/ccFRKuha.s 			page 236


 11267      5F544E46 
 11267      00
 11268              	.LASF907:
 11269 0eb8 4932435F 		.ascii	"I2C_I2CONSET_I2EN ((0x40))\000"
 11269      4932434F 
 11269      4E534554 
 11269      5F493245 
 11269      4E202828 
 11270              	.LASF265:
 11271 0ed3 5F5F554C 		.ascii	"__ULLACCUM_MIN__ 0.0ULLK\000"
 11271      4C414343 
 11271      554D5F4D 
 11271      494E5F5F 
 11271      20302E30 
 11272              	.LASF820:
 11273 0eec 55415254 		.ascii	"UART_ICR_BITMASK (0x3F)\000"
 11273      5F494352 
 11273      5F424954 
 11273      4D41534B 
 11273      20283078 
 11274              	.LASF69:
 11275 0f04 5F5F5343 		.ascii	"__SCHAR_MAX__ 127\000"
 11275      4841525F 
 11275      4D41585F 
 11275      5F203132 
 11275      3700
 11276              	.LASF172:
 11277 0f16 5F5F4445 		.ascii	"__DEC32_EPSILON__ 1E-6DF\000"
 11277      4333325F 
 11277      45505349 
 11277      4C4F4E5F 
 11277      5F203145 
 11278              	.LASF454:
 11279 0f2f 57434841 		.ascii	"WCHAR_MAX (__WCHAR_MAX__)\000"
 11279      525F4D41 
 11279      5820285F 
 11279      5F574348 
 11279      41525F4D 
 11280              	.LASF983:
 11281 0f49 43414E5F 		.ascii	"CAN_ERROR_FORM 0x00000010UL\000"
 11281      4552524F 
 11281      525F464F 
 11281      524D2030 
 11281      78303030 
 11282              	.LASF1136:
 11283 0f65 53595343 		.ascii	"SYSCTL_CLOCK_WDT\000"
 11283      544C5F43 
 11283      4C4F434B 
 11283      5F574454 
 11283      00
 11284              	.LASF413:
 11285 0f76 494E545F 		.ascii	"INT_LEAST8_MAX (__INT_LEAST8_MAX__)\000"
 11285      4C454153 
 11285      54385F4D 
 11285      41582028 
 11285      5F5F494E 
 11286              	.LASF501:
ARM GAS  /tmp/ccFRKuha.s 			page 237


 11287 0f9a 5F5F4153 		.ascii	"__ASM __asm\000"
 11287      4D205F5F 
 11287      61736D00 
 11288              	.LASF1024:
 11289 0fa6 5F5F7569 		.ascii	"__uint8_t\000"
 11289      6E74385F 
 11289      7400
 11290              	.LASF830:
 11291 0fb0 55415254 		.ascii	"UART_TER1_TXEN (1 << 7)\000"
 11291      5F544552 
 11291      315F5458 
 11291      454E2028 
 11291      31203C3C 
 11292              	.LASF649:
 11293 0fc8 53595343 		.ascii	"SYSCTL_SLPWAKE_BOD_PD (1 << 3)\000"
 11293      544C5F53 
 11293      4C505741 
 11293      4B455F42 
 11293      4F445F50 
 11294              	.LASF1200:
 11295 0fe7 70535350 		.ascii	"pSSP\000"
 11295      00
 11296              	.LASF87:
 11297 0fec 5F5F494E 		.ascii	"__INT16_MAX__ 32767\000"
 11297      5431365F 
 11297      4D41585F 
 11297      5F203332 
 11297      37363700 
 11298              	.LASF1107:
 11299 1000 4C50435F 		.ascii	"LPC_SYSCTL_T\000"
 11299      53595343 
 11299      544C5F54 
 11299      00
 11300              	.LASF712:
 11301 100d 54494D45 		.ascii	"TIMER_ENABLE ((uint32_t) (1 << 0))\000"
 11301      525F454E 
 11301      41424C45 
 11301      20282875 
 11301      696E7433 
 11302              	.LASF1251:
 11303 1030 43686970 		.ascii	"Chip_SSP_SetBitRate\000"
 11303      5F535350 
 11303      5F536574 
 11303      42697452 
 11303      61746500 
 11304              	.LASF391:
 11305 1044 5F5F4C45 		.ascii	"__LEAST32 \"l\"\000"
 11305      41535433 
 11305      3220226C 
 11305      2200
 11306              	.LASF384:
 11307 1052 5F5F494E 		.ascii	"__INT64 \"ll\"\000"
 11307      54363420 
 11307      226C6C22 
 11307      00
 11308              	.LASF681:
 11309 105f 494F434F 		.ascii	"IOCON_SFI2C_EN (0x0 << 8)\000"
ARM GAS  /tmp/ccFRKuha.s 			page 238


 11309      4E5F5346 
 11309      4932435F 
 11309      454E2028 
 11309      30783020 
 11310              	.LASF80:
 11311 1079 5F5F494E 		.ascii	"__INTMAX_MAX__ 9223372036854775807LL\000"
 11311      544D4158 
 11311      5F4D4158 
 11311      5F5F2039 
 11311      32323333 
 11312              	.LASF839:
 11313 109e 5F5F5757 		.ascii	"__WWDT_11XX_H_ \000"
 11313      44545F31 
 11313      3158585F 
 11313      485F2000 
 11314              	.LASF935:
 11315 10ae 4932435F 		.ascii	"I2C_I2STAT_M_RX_DAT_NACK ((0x58))\000"
 11315      49325354 
 11315      41545F4D 
 11315      5F52585F 
 11315      4441545F 
 11316              	.LASF430:
 11317 10d0 494E545F 		.ascii	"INT_LEAST64_MIN (-__INT_LEAST64_MAX__ - 1)\000"
 11317      4C454153 
 11317      5436345F 
 11317      4D494E20 
 11317      282D5F5F 
 11318              	.LASF841:
 11319 10fb 57574454 		.ascii	"WWDT_WDMOD_WDEN ((uint32_t) (1 << 0))\000"
 11319      5F57444D 
 11319      4F445F57 
 11319      44454E20 
 11319      28287569 
 11320              	.LASF884:
 11321 1121 4144435F 		.ascii	"ADC_CR_BURST ((1UL << 16))\000"
 11321      43525F42 
 11321      55525354 
 11321      20282831 
 11321      554C203C 
 11322              	.LASF757:
 11323 113c 55415254 		.ascii	"UART_FCR_TRG_LEV1 (1 << 6)\000"
 11323      5F464352 
 11323      5F545247 
 11323      5F4C4556 
 11323      31202831 
 11324              	.LASF1019:
 11325 1157 43414E5F 		.ascii	"CAN_SDOSEG_CLOSE 2\000"
 11325      53444F53 
 11325      45475F43 
 11325      4C4F5345 
 11325      203200
 11326              	.LASF780:
 11327 116a 55415254 		.ascii	"UART_MCR_AUTO_RTS_EN (1 << 6)\000"
 11327      5F4D4352 
 11327      5F415554 
 11327      4F5F5254 
 11327      535F454E 
ARM GAS  /tmp/ccFRKuha.s 			page 239


 11328              	.LASF1091:
 11329 1188 50494E54 		.ascii	"PINTSEL\000"
 11329      53454C00 
 11330              	.LASF121:
 11331 1190 5F5F4743 		.ascii	"__GCC_IEC_559_COMPLEX 0\000"
 11331      435F4945 
 11331      435F3535 
 11331      395F434F 
 11331      4D504C45 
 11332              	.LASF171:
 11333 11a8 5F5F4445 		.ascii	"__DEC32_MAX__ 9.999999E96DF\000"
 11333      4333325F 
 11333      4D41585F 
 11333      5F20392E 
 11333      39393939 
 11334              	.LASF810:
 11335 11c4 55415254 		.ascii	"UART_RS485CTRL_RX_DIS (1 << 1)\000"
 11335      5F525334 
 11335      38354354 
 11335      524C5F52 
 11335      585F4449 
 11336              	.LASF166:
 11337 11e3 5F5F4C44 		.ascii	"__LDBL_HAS_QUIET_NAN__ 1\000"
 11337      424C5F48 
 11337      41535F51 
 11337      55494554 
 11337      5F4E414E 
 11338              	.LASF856:
 11339 11fc 5353505F 		.ascii	"SSP_CR0_BITMASK ((uint32_t) (0xFFFF))\000"
 11339      4352305F 
 11339      4249544D 
 11339      41534B20 
 11339      28287569 
 11340              	.LASF556:
 11341 1222 5343425F 		.ascii	"SCB_CCR_STKALIGN_Msk (1UL << SCB_CCR_STKALIGN_Pos)\000"
 11341      4343525F 
 11341      53544B41 
 11341      4C49474E 
 11341      5F4D736B 
 11342              	.LASF672:
 11343 1255 494F434F 		.ascii	"IOCON_FUNC7 0x7\000"
 11343      4E5F4655 
 11343      4E433720 
 11343      30783700 
 11344              	.LASF439:
 11345 1265 494E545F 		.ascii	"INT_FAST32_MIN (-__INT_FAST32_MAX__ - 1)\000"
 11345      46415354 
 11345      33325F4D 
 11345      494E2028 
 11345      2D5F5F49 
 11346              	.LASF565:
 11347 128e 53797354 		.ascii	"SysTick_CTRL_TICKINT_Pos 1\000"
 11347      69636B5F 
 11347      4354524C 
 11347      5F544943 
 11347      4B494E54 
 11348              	.LASF496:
ARM GAS  /tmp/ccFRKuha.s 			page 240


 11349 12a9 5F5F434F 		.ascii	"__CORE_CM0_H_GENERIC \000"
 11349      52455F43 
 11349      4D305F48 
 11349      5F47454E 
 11349      45524943 
 11350              	.LASF52:
 11351 12bf 5F5F5549 		.ascii	"__UINT_LEAST8_TYPE__ unsigned char\000"
 11351      4E545F4C 
 11351      45415354 
 11351      385F5459 
 11351      50455F5F 
 11352              	.LASF943:
 11353 12e2 4932435F 		.ascii	"I2C_I2STAT_S_RX_PRE_GENCALL_DAT_NACK ((0x98))\000"
 11353      49325354 
 11353      41545F53 
 11353      5F52585F 
 11353      5052455F 
 11354              	.LASF238:
 11355 1310 5F5F4143 		.ascii	"__ACCUM_FBIT__ 15\000"
 11355      43554D5F 
 11355      46424954 
 11355      5F5F2031 
 11355      3500
 11356              	.LASF353:
 11357 1322 5F5F474E 		.ascii	"__GNUC_PREREQ(maj,min) ((__GNUC__ << 16) + __GNUC_M"
 11357      55435F50 
 11357      52455245 
 11357      51286D61 
 11357      6A2C6D69 
 11358 1355 494E4F52 		.ascii	"INOR__ >= ((maj) << 16) + (min))\000"
 11358      5F5F203E 
 11358      3D202828 
 11358      6D616A29 
 11358      203C3C20 
 11359              	.LASF627:
 11360 1376 4C50435F 		.ascii	"LPC_CCAN ((LPC_CCAN_T *) LPC_CAN0_BASE)\000"
 11360      4343414E 
 11360      2028284C 
 11360      50435F43 
 11360      43414E5F 
 11361              	.LASF244:
 11362 139e 5F5F5541 		.ascii	"__UACCUM_IBIT__ 16\000"
 11362      4343554D 
 11362      5F494249 
 11362      545F5F20 
 11362      313600
 11363              	.LASF1027:
 11364 13b1 6C6F6E67 		.ascii	"long int\000"
 11364      20696E74 
 11364      00
 11365              	.LASF117:
 11366 13ba 5F5F5549 		.ascii	"__UINT_FAST64_MAX__ 18446744073709551615ULL\000"
 11366      4E545F46 
 11366      41535436 
 11366      345F4D41 
 11366      585F5F20 
 11367              	.LASF942:
ARM GAS  /tmp/ccFRKuha.s 			page 241


 11368 13e6 4932435F 		.ascii	"I2C_I2STAT_S_RX_PRE_GENCALL_DAT_ACK ((0x90))\000"
 11368      49325354 
 11368      41545F53 
 11368      5F52585F 
 11368      5052455F 
 11369              	.LASF1192:
 11370 1413 5353505F 		.ascii	"SSP_MODE_MASTER\000"
 11370      4D4F4445 
 11370      5F4D4153 
 11370      54455200 
 11371              	.LASF853:
 11372 1423 5353505F 		.ascii	"SSP_CR0_CPHA_FIRST ((uint32_t) (0))\000"
 11372      4352305F 
 11372      43504841 
 11372      5F464952 
 11372      53542028 
 11373              	.LASF147:
 11374 1447 5F5F4442 		.ascii	"__DBL_MIN__ ((double)2.2250738585072014e-308L)\000"
 11374      4C5F4D49 
 11374      4E5F5F20 
 11374      2828646F 
 11374      75626C65 
 11375              	.LASF440:
 11376 1476 494E545F 		.ascii	"INT_FAST32_MAX (__INT_FAST32_MAX__)\000"
 11376      46415354 
 11376      33325F4D 
 11376      41582028 
 11376      5F5F494E 
 11377              	.LASF1008:
 11378 149a 4F445F45 		.ascii	"OD_EXP_RO 0x10\000"
 11378      58505F52 
 11378      4F203078 
 11378      313000
 11379              	.LASF1084:
 11380 14a9 50494F50 		.ascii	"PIOPORCAP\000"
 11380      4F524341 
 11380      5000
 11381              	.LASF361:
 11382 14b3 5F5F5F69 		.ascii	"___int_least16_t_defined 1\000"
 11382      6E745F6C 
 11382      65617374 
 11382      31365F74 
 11382      5F646566 
 11383              	.LASF74:
 11384 14ce 5F5F5743 		.ascii	"__WCHAR_MAX__ 4294967295U\000"
 11384      4841525F 
 11384      4D41585F 
 11384      5F203432 
 11384      39343936 
 11385              	.LASF182:
 11386 14e8 5F5F4445 		.ascii	"__DEC128_MIN_EXP__ (-6142)\000"
 11386      43313238 
 11386      5F4D494E 
 11386      5F455850 
 11386      5F5F2028 
 11387              	.LASF685:
 11388 1503 494F434F 		.ascii	"IOCON_OPENDRAIN_EN (0x1 << 10)\000"
ARM GAS  /tmp/ccFRKuha.s 			page 242


 11388      4E5F4F50 
 11388      454E4452 
 11388      41494E5F 
 11388      454E2028 
 11389              	.LASF56:
 11390 1522 5F5F494E 		.ascii	"__INT_FAST8_TYPE__ int\000"
 11390      545F4641 
 11390      5354385F 
 11390      54595045 
 11390      5F5F2069 
 11391              	.LASF1057:
 11392 1539 53595350 		.ascii	"SYSPLLCLKSEL\000"
 11392      4C4C434C 
 11392      4B53454C 
 11392      00
 11393              	.LASF300:
 11394 1546 5F5F5544 		.ascii	"__UDA_FBIT__ 32\000"
 11394      415F4642 
 11394      49545F5F 
 11394      20333200 
 11395              	.LASF1077:
 11396 1556 57445443 		.ascii	"WDTCLKUEN\000"
 11396      4C4B5545 
 11396      4E00
 11397              	.LASF237:
 11398 1560 5F5F5553 		.ascii	"__USACCUM_EPSILON__ 0x1P-8UHK\000"
 11398      41434355 
 11398      4D5F4550 
 11398      53494C4F 
 11398      4E5F5F20 
 11399              	.LASF1209:
 11400 157e 43686970 		.ascii	"Chip_SSP_ClearIntPending\000"
 11400      5F535350 
 11400      5F436C65 
 11400      6172496E 
 11400      7450656E 
 11401              	.LASF30:
 11402 1597 5F5F5349 		.ascii	"__SIZEOF_POINTER__ 4\000"
 11402      5A454F46 
 11402      5F504F49 
 11402      4E544552 
 11402      5F5F2034 
 11403              	.LASF48:
 11404 15ac 5F5F494E 		.ascii	"__INT_LEAST8_TYPE__ signed char\000"
 11404      545F4C45 
 11404      41535438 
 11404      5F545950 
 11404      455F5F20 
 11405              	.LASF308:
 11406 15cc 5F5F4743 		.ascii	"__GCC_ATOMIC_BOOL_LOCK_FREE 1\000"
 11406      435F4154 
 11406      4F4D4943 
 11406      5F424F4F 
 11406      4C5F4C4F 
 11407              	.LASF598:
 11408 15ea 4C50435F 		.ascii	"LPC_ACMP_BASE 0x40028000\000"
 11408      41434D50 
ARM GAS  /tmp/ccFRKuha.s 			page 243


 11408      5F424153 
 11408      45203078 
 11408      34303032 
 11409              	.LASF408:
 11410 1603 55494E54 		.ascii	"UINTPTR_MAX (__UINTPTR_MAX__)\000"
 11410      5054525F 
 11410      4D415820 
 11410      285F5F55 
 11410      494E5450 
 11411              	.LASF111:
 11412 1621 5F5F494E 		.ascii	"__INT_FAST16_MAX__ 2147483647\000"
 11412      545F4641 
 11412      53543136 
 11412      5F4D4158 
 11412      5F5F2032 
 11413              	.LASF229:
 11414 163f 5F5F5341 		.ascii	"__SACCUM_IBIT__ 8\000"
 11414      4343554D 
 11414      5F494249 
 11414      545F5F20 
 11414      3800
 11415              	.LASF338:
 11416 1651 5F5F5448 		.ascii	"__THUMB_INTERWORK__ 1\000"
 11416      554D425F 
 11416      494E5445 
 11416      52574F52 
 11416      4B5F5F20 
 11417              	.LASF226:
 11418 1667 5F5F554C 		.ascii	"__ULLFRACT_MAX__ 0XFFFFFFFFFFFFFFFFP-64ULLR\000"
 11418      4C465241 
 11418      43545F4D 
 11418      41585F5F 
 11418      20305846 
 11419              	.LASF973:
 11420 1693 4932435F 		.ascii	"I2C_NAK_RECV (0x10000000 | 0x01)\000"
 11420      4E414B5F 
 11420      52454356 
 11420      20283078 
 11420      31303030 
 11421              	.LASF1258:
 11422 16b4 43686970 		.ascii	"Chip_SYSCTL_PeriphReset\000"
 11422      5F535953 
 11422      43544C5F 
 11422      50657269 
 11422      70685265 
 11423              	.LASF618:
 11424 16cc 4C50435F 		.ascii	"LPC_TIMER32_0 ((LPC_TIMER_T *) LPC_TIMER32_0_BASE)\000"
 11424      54494D45 
 11424      5233325F 
 11424      30202828 
 11424      4C50435F 
 11425              	.LASF890:
 11426 16ff 4144435F 		.ascii	"ADC_CR_START_CTOUT8 ((3UL << 24))\000"
 11426      43525F53 
 11426      54415254 
 11426      5F43544F 
 11426      55543820 
ARM GAS  /tmp/ccFRKuha.s 			page 244


 11427              	.LASF38:
 11428 1721 5F5F4348 		.ascii	"__CHAR32_TYPE__ long unsigned int\000"
 11428      41523332 
 11428      5F545950 
 11428      455F5F20 
 11428      6C6F6E67 
 11429              	.LASF473:
 11430 1743 50415241 		.ascii	"PARAM_SETSTATE(State) ((State == RESET) || (State ="
 11430      4D5F5345 
 11430      54535441 
 11430      54452853 
 11430      74617465 
 11431 1776 3D205345 		.ascii	"= SET))\000"
 11431      54292900 
 11432              	.LASF643:
 11433 177e 53595343 		.ascii	"SYSCTL_NMISRC_ENABLE ((uint32_t) 1 << 31)\000"
 11433      544C5F4E 
 11433      4D495352 
 11433      435F454E 
 11433      41424C45 
 11434              	.LASF748:
 11435 17a8 55415254 		.ascii	"UART_IIR_INTID_THRE (1 << 1)\000"
 11435      5F494952 
 11435      5F494E54 
 11435      49445F54 
 11435      48524520 
 11436              	.LASF691:
 11437 17c5 4D445F49 		.ascii	"MD_INV (0x1 << 6)\000"
 11437      4E562028 
 11437      30783120 
 11437      3C3C2036 
 11437      2900
 11438              	.LASF129:
 11439 17d7 5F5F464C 		.ascii	"__FLT_MAX_EXP__ 128\000"
 11439      545F4D41 
 11439      585F4558 
 11439      505F5F20 
 11439      31323800 
 11440              	.LASF16:
 11441 17eb 5F5F5349 		.ascii	"__SIZEOF_LONG__ 4\000"
 11441      5A454F46 
 11441      5F4C4F4E 
 11441      475F5F20 
 11441      3400
 11442              	.LASF362:
 11443 17fd 5F5F5F69 		.ascii	"___int_least32_t_defined 1\000"
 11443      6E745F6C 
 11443      65617374 
 11443      33325F74 
 11443      5F646566 
 11444              	.LASF1162:
 11445 1818 5353505F 		.ascii	"SSP_INT_CLEAR_BITMASK\000"
 11445      494E545F 
 11445      434C4541 
 11445      525F4249 
 11445      544D4153 
 11446              	.LASF1191:
ARM GAS  /tmp/ccFRKuha.s 			page 245


 11447 182e 43484950 		.ascii	"CHIP_SSP_MODE\000"
 11447      5F535350 
 11447      5F4D4F44 
 11447      4500
 11448              	.LASF352:
 11449 183c 5F5F4E45 		.ascii	"__NEWLIB_MINOR__ 2\000"
 11449      574C4942 
 11449      5F4D494E 
 11449      4F525F5F 
 11449      203200
 11450              	.LASF588:
 11451 184f 5F49505F 		.ascii	"_IP_IDX(IRQn) ( ((uint32_t)(IRQn) >> 2) )\000"
 11451      49445828 
 11451      4952516E 
 11451      29202820 
 11451      28287569 
 11452              	.LASF812:
 11453 1879 55415254 		.ascii	"UART_RS485CTRL_SEL_DTR (1 << 3)\000"
 11453      5F525334 
 11453      38354354 
 11453      524C5F53 
 11453      454C5F44 
 11454              	.LASF20:
 11455 1899 5F5F5349 		.ascii	"__SIZEOF_DOUBLE__ 8\000"
 11455      5A454F46 
 11455      5F444F55 
 11455      424C455F 
 11455      5F203800 
 11456              	.LASF779:
 11457 18ad 55415254 		.ascii	"UART_MCR_LOOPB_EN (1 << 4)\000"
 11457      5F4D4352 
 11457      5F4C4F4F 
 11457      50425F45 
 11457      4E202831 
 11458              	.LASF947:
 11459 18c8 4932435F 		.ascii	"I2C_I2STAT_S_TX_DAT_ACK ((0xB8))\000"
 11459      49325354 
 11459      41545F53 
 11459      5F54585F 
 11459      4441545F 
 11460              	.LASF1157:
 11461 18e9 5353505F 		.ascii	"SSP_RAW_INT_STAT_BITMASK\000"
 11461      5241575F 
 11461      494E545F 
 11461      53544154 
 11461      5F424954 
 11462              	.LASF788:
 11463 1902 55415254 		.ascii	"UART_LSR_THRE (1 << 5)\000"
 11463      5F4C5352 
 11463      5F544852 
 11463      45202831 
 11463      203C3C20 
 11464              	.LASF1006:
 11465 1919 53444F5F 		.ascii	"SDO_ABORT_DEVSTAT 0x08000022UL\000"
 11465      41424F52 
 11465      545F4445 
 11465      56535441 
ARM GAS  /tmp/ccFRKuha.s 			page 246


 11465      54203078 
 11466              	.LASF982:
 11467 1938 43414E5F 		.ascii	"CAN_ERROR_STUF 0x00000008UL\000"
 11467      4552524F 
 11467      525F5354 
 11467      55462030 
 11467      78303030 
 11468              	.LASF831:
 11469 1954 55415254 		.ascii	"UART_TER2_TXEN (1 << 0)\000"
 11469      5F544552 
 11469      325F5458 
 11469      454E2028 
 11469      31203C3C 
 11470              	.LASF746:
 11471 196c 55415254 		.ascii	"UART_IIR_INTID_RDA (2 << 1)\000"
 11471      5F494952 
 11471      5F494E54 
 11471      49445F52 
 11471      44412028 
 11472              	.LASF667:
 11473 1988 494F434F 		.ascii	"IOCON_FUNC2 0x2\000"
 11473      4E5F4655 
 11473      4E433220 
 11473      30783200 
 11474              	.LASF386:
 11475 1998 5F5F4641 		.ascii	"__FAST16 \000"
 11475      53543136 
 11475      2000
 11476              	.LASF1014:
 11477 19a2 43414E5F 		.ascii	"CAN_SDOREQ_NOTHANDLED 0\000"
 11477      53444F52 
 11477      45515F4E 
 11477      4F544841 
 11477      4E444C45 
 11478              	.LASF734:
 11479 19ba 55415254 		.ascii	"UART_IER_ABEOINT (1 << 8)\000"
 11479      5F494552 
 11479      5F414245 
 11479      4F494E54 
 11479      20283120 
 11480              	.LASF178:
 11481 19d4 5F5F4445 		.ascii	"__DEC64_MAX__ 9.999999999999999E384DD\000"
 11481      4336345F 
 11481      4D41585F 
 11481      5F20392E 
 11481      39393939 
 11482              	.LASF1194:
 11483 19fa 74785F64 		.ascii	"tx_data\000"
 11483      61746100 
 11484              	.LASF1104:
 11485 1a02 50445255 		.ascii	"PDRUNCFG\000"
 11485      4E434647 
 11485      00
 11486              	.LASF552:
 11487 1a0b 5343425F 		.ascii	"SCB_SCR_SLEEPDEEP_Msk (1UL << SCB_SCR_SLEEPDEEP_Pos"
 11487      5343525F 
 11487      534C4545 
ARM GAS  /tmp/ccFRKuha.s 			page 247


 11487      50444545 
 11487      505F4D73 
 11488 1a3e 2900     		.ascii	")\000"
 11489              	.LASF923:
 11490 1a40 4932435F 		.ascii	"I2C_I2STAT_M_TX_RESTART ((0x10))\000"
 11490      49325354 
 11490      41545F4D 
 11490      5F54585F 
 11490      52455354 
 11491              	.LASF869:
 11492 1a61 5353505F 		.ascii	"SSP_CPOL_HI SSP_CR0_CPOL_LO\000"
 11492      43504F4C 
 11492      5F484920 
 11492      5353505F 
 11492      4352305F 
 11493              	.LASF128:
 11494 1a7d 5F5F464C 		.ascii	"__FLT_MIN_10_EXP__ (-37)\000"
 11494      545F4D49 
 11494      4E5F3130 
 11494      5F455850 
 11494      5F5F2028 
 11495              	.LASF737:
 11496 1a96 55415254 		.ascii	"UART1_IER_BITMASK (0x30F)\000"
 11496      315F4945 
 11496      525F4249 
 11496      544D4153 
 11496      4B202830 
 11497              	.LASF887:
 11498 1ab0 4144435F 		.ascii	"ADC_CR_START_MODE_SEL(SEL) ((SEL << 24))\000"
 11498      43525F53 
 11498      54415254 
 11498      5F4D4F44 
 11498      455F5345 
 11499              	.LASF131:
 11500 1ad9 5F5F464C 		.ascii	"__FLT_DECIMAL_DIG__ 9\000"
 11500      545F4445 
 11500      43494D41 
 11500      4C5F4449 
 11500      475F5F20 
 11501              	.LASF988:
 11502 1aef 43414E5F 		.ascii	"CAN_MSGOBJ_STD 0x00000000UL\000"
 11502      4D53474F 
 11502      424A5F53 
 11502      54442030 
 11502      78303030 
 11503              	.LASF518:
 11504 1b0b 5343425F 		.ascii	"SCB_CPUID_PARTNO_Msk (0xFFFUL << SCB_CPUID_PARTNO_P"
 11504      43505549 
 11504      445F5041 
 11504      52544E4F 
 11504      5F4D736B 
 11505 1b3e 6F732900 		.ascii	"os)\000"
 11506              	.LASF1021:
 11507 1b42 7369676E 		.ascii	"signed char\000"
 11507      65642063 
 11507      68617200 
 11508              	.LASF1260:
ARM GAS  /tmp/ccFRKuha.s 			page 248


 11509 1b4e 43686970 		.ascii	"Chip_SYSCTL_AssertPeriphReset\000"
 11509      5F535953 
 11509      43544C5F 
 11509      41737365 
 11509      72745065 
 11510              	.LASF876:
 11511 1b6c 5F5F4144 		.ascii	"__ADC_11XX_H_ \000"
 11511      435F3131 
 11511      58585F48 
 11511      5F2000
 11512              	.LASF1033:
 11513 1b7b 75696E74 		.ascii	"uint8_t\000"
 11513      385F7400 
 11514              	.LASF656:
 11515 1b83 53595343 		.ascii	"SYSCTL_POWERDOWN_FLASH_PD (1 << 2)\000"
 11515      544C5F50 
 11515      4F574552 
 11515      444F574E 
 11515      5F464C41 
 11516              	.LASF1059:
 11517 1ba6 55534250 		.ascii	"USBPLLCLKSEL\000"
 11517      4C4C434C 
 11517      4B53454C 
 11517      00
 11518              	.LASF490:
 11519 1bb3 43484950 		.ascii	"CHIP_LPC11CXX \000"
 11519      5F4C5043 
 11519      31314358 
 11519      582000
 11520              	.LASF1142:
 11521 1bc2 494D5343 		.ascii	"IMSC\000"
 11521      00
 11522              	.LASF676:
 11523 1bc7 494F434F 		.ascii	"IOCON_MODE_REPEATER (0x3 << 3)\000"
 11523      4E5F4D4F 
 11523      44455F52 
 11523      45504541 
 11523      54455220 
 11524              	.LASF928:
 11525 1be6 4932435F 		.ascii	"I2C_I2STAT_M_TX_ARB_LOST ((0x38))\000"
 11525      49325354 
 11525      41545F4D 
 11525      5F54585F 
 11525      4152425F 
 11526              	.LASF453:
 11527 1c08 57434841 		.ascii	"WCHAR_MIN (__WCHAR_MIN__)\000"
 11527      525F4D49 
 11527      4E20285F 
 11527      5F574348 
 11527      41525F4D 
 11528              	.LASF900:
 11529 1c22 5245545F 		.ascii	"RET_SLAVE_IDLE 2\000"
 11529      534C4156 
 11529      455F4944 
 11529      4C452032 
 11529      00
 11530              	.LASF198:
ARM GAS  /tmp/ccFRKuha.s 			page 249


 11531 1c33 5F5F4652 		.ascii	"__FRACT_FBIT__ 15\000"
 11531      4143545F 
 11531      46424954 
 11531      5F5F2031 
 11531      3500
 11532              	.LASF1081:
 11533 1c45 434C4B4F 		.ascii	"CLKOUTUEN\000"
 11533      55545545 
 11533      4E00
 11534              	.LASF138:
 11535 1c4f 5F5F464C 		.ascii	"__FLT_HAS_QUIET_NAN__ 1\000"
 11535      545F4841 
 11535      535F5155 
 11535      4945545F 
 11535      4E414E5F 
 11536              	.LASF478:
 11537 1c67 5F534246 		.ascii	"_SBF(f,v) ((v) << (f))\000"
 11537      28662C76 
 11537      29202828 
 11537      7629203C 
 11537      3C202866 
 11538              	.LASF311:
 11539 1c7e 5F5F4743 		.ascii	"__GCC_ATOMIC_CHAR32_T_LOCK_FREE 1\000"
 11539      435F4154 
 11539      4F4D4943 
 11539      5F434841 
 11539      5233325F 
 11540              	.LASF544:
 11541 1ca0 5343425F 		.ascii	"SCB_AIRCR_ENDIANESS_Msk (1UL << SCB_AIRCR_ENDIANESS"
 11541      41495243 
 11541      525F454E 
 11541      4449414E 
 11541      4553535F 
 11542 1cd3 5F506F73 		.ascii	"_Pos)\000"
 11542      2900
 11543              	.LASF4:
 11544 1cd9 5F5F474E 		.ascii	"__GNUC_PATCHLEVEL__ 3\000"
 11544      55435F50 
 11544      41544348 
 11544      4C455645 
 11544      4C5F5F20 
 11545              	.LASF819:
 11546 1cef 55415254 		.ascii	"UART_ICR_PULSEDIV(n) ((n & 0x07) << 3)\000"
 11546      5F494352 
 11546      5F50554C 
 11546      53454449 
 11546      56286E29 
 11547              	.LASF785:
 11548 1d16 55415254 		.ascii	"UART_LSR_PE (1 << 2)\000"
 11548      5F4C5352 
 11548      5F504520 
 11548      2831203C 
 11548      3C203229 
 11549              	.LASF870:
 11550 1d2b 5353505F 		.ascii	"SSP_CPOL_LO SSP_CR0_CPOL_HI\000"
 11550      43504F4C 
 11550      5F4C4F20 
ARM GAS  /tmp/ccFRKuha.s 			page 250


 11550      5353505F 
 11550      4352305F 
 11551              	.LASF348:
 11552 1d47 5F535444 		.ascii	"_STDINT_H \000"
 11552      494E545F 
 11552      482000
 11553              	.LASF538:
 11554 1d52 5343425F 		.ascii	"SCB_ICSR_VECTACTIVE_Msk (0x1FFUL << SCB_ICSR_VECTAC"
 11554      49435352 
 11554      5F564543 
 11554      54414354 
 11554      4956455F 
 11555 1d85 54495645 		.ascii	"TIVE_Pos)\000"
 11555      5F506F73 
 11555      2900
 11556              	.LASF468:
 11557 1d8f 5F535444 		.ascii	"_STDBOOL_H \000"
 11557      424F4F4C 
 11557      5F482000 
 11558              	.LASF775:
 11559 1d9b 55415254 		.ascii	"UART_LCR_DLAB_EN (1 << 7)\000"
 11559      5F4C4352 
 11559      5F444C41 
 11559      425F454E 
 11559      20283120 
 11560              	.LASF505:
 11561 1db5 5F5F434F 		.ascii	"__CORE_CMINSTR_H \000"
 11561      52455F43 
 11561      4D494E53 
 11561      54525F48 
 11561      2000
 11562              	.LASF1222:
 11563 1dc7 6672616D 		.ascii	"frameFormat\000"
 11563      65466F72 
 11563      6D617400 
 11564              	.LASF619:
 11565 1dd3 4C50435F 		.ascii	"LPC_TIMER32_1 ((LPC_TIMER_T *) LPC_TIMER32_1_BASE)\000"
 11565      54494D45 
 11565      5233325F 
 11565      31202828 
 11565      4C50435F 
 11566              	.LASF816:
 11567 1e06 55415254 		.ascii	"UART_ICR_IRDAEN (1 << 0)\000"
 11567      5F494352 
 11567      5F495244 
 11567      41454E20 
 11567      2831203C 
 11568              	.LASF1050:
 11569 1e1f 52455345 		.ascii	"RESERVED1\000"
 11569      52564544 
 11569      3100
 11570              	.LASF1022:
 11571 1e29 756E7369 		.ascii	"unsigned char\000"
 11571      676E6564 
 11571      20636861 
 11571      7200
 11572              	.LASF1061:
ARM GAS  /tmp/ccFRKuha.s 			page 251


 11573 1e37 52455345 		.ascii	"RESERVED3\000"
 11573      52564544 
 11573      3300
 11574              	.LASF1065:
 11575 1e41 52455345 		.ascii	"RESERVED4\000"
 11575      52564544 
 11575      3400
 11576              	.LASF1067:
 11577 1e4b 52455345 		.ascii	"RESERVED5\000"
 11577      52564544 
 11577      3500
 11578              	.LASF1071:
 11579 1e55 52455345 		.ascii	"RESERVED6\000"
 11579      52564544 
 11579      3600
 11580              	.LASF1075:
 11581 1e5f 52455345 		.ascii	"RESERVED7\000"
 11581      52564544 
 11581      3700
 11582              	.LASF1079:
 11583 1e69 52455345 		.ascii	"RESERVED8\000"
 11583      52564544 
 11583      3800
 11584              	.LASF1265:
 11585 1e73 474E5520 		.ascii	"GNU C 4.9.3 20150529 (release) [ARM/embedded-4_9-br"
 11585      4320342E 
 11585      392E3320 
 11585      32303135 
 11585      30353239 
 11586 1ea6 616E6368 		.ascii	"anch revision 227977] -mcpu=cortex-m0 -mthumb -g -g"
 11586      20726576 
 11586      6973696F 
 11586      6E203232 
 11586      37393737 
 11587 1ed9 67646233 		.ascii	"gdb3 -Os -std=gnu90 -ffunction-sections -fdata-sect"
 11587      202D4F73 
 11587      202D7374 
 11587      643D676E 
 11587      75393020 
 11588 1f0c 696F6E73 		.ascii	"ions -fstack-usage\000"
 11588      202D6673 
 11588      7461636B 
 11588      2D757361 
 11588      676500
 11589              	.LASF183:
 11590 1f1f 5F5F4445 		.ascii	"__DEC128_MAX_EXP__ 6145\000"
 11590      43313238 
 11590      5F4D4158 
 11590      5F455850 
 11590      5F5F2036 
 11591              	.LASF120:
 11592 1f37 5F5F4743 		.ascii	"__GCC_IEC_559 0\000"
 11592      435F4945 
 11592      435F3535 
 11592      39203000 
 11593              	.LASF1062:
 11594 1f47 4D41494E 		.ascii	"MAINCLKSEL\000"
ARM GAS  /tmp/ccFRKuha.s 			page 252


 11594      434C4B53 
 11594      454C00
 11595              	.LASF1179:
 11596 1f52 5353505F 		.ascii	"SSP_BITS_5\000"
 11596      42495453 
 11596      5F3500
 11597              	.LASF499:
 11598 1f5d 5F5F434D 		.ascii	"__CM0_CMSIS_VERSION ((__CM0_CMSIS_VERSION_MAIN << 1"
 11598      305F434D 
 11598      5349535F 
 11598      56455253 
 11598      494F4E20 
 11599 1f90 3629207C 		.ascii	"6) | __CM0_CMSIS_VERSION_SUB )\000"
 11599      205F5F43 
 11599      4D305F43 
 11599      4D534953 
 11599      5F564552 
 11600              	.LASF1003:
 11601 1faf 53444F5F 		.ascii	"SDO_ABORT_VALUE_RANGE 0x06090030UL\000"
 11601      41424F52 
 11601      545F5641 
 11601      4C55455F 
 11601      52414E47 
 11602              	.LASF834:
 11603 1fd2 55415254 		.ascii	"UART_SYNCCTRL_FES (1 << 2)\000"
 11603      5F53594E 
 11603      43435452 
 11603      4C5F4645 
 11603      53202831 
 11604              	.LASF7:
 11605 1fed 5F5F4154 		.ascii	"__ATOMIC_SEQ_CST 5\000"
 11605      4F4D4943 
 11605      5F534551 
 11605      5F435354 
 11605      203500
 11606              	.LASF554:
 11607 2000 5343425F 		.ascii	"SCB_SCR_SLEEPONEXIT_Msk (1UL << SCB_SCR_SLEEPONEXIT"
 11607      5343525F 
 11607      534C4545 
 11607      504F4E45 
 11607      5849545F 
 11608 2033 5F506F73 		.ascii	"_Pos)\000"
 11608      2900
 11609              	.LASF690:
 11610 2039 4D445F48 		.ascii	"MD_HYS (0x1 << 5)\000"
 11610      59532028 
 11610      30783120 
 11610      3C3C2035 
 11610      2900
 11611              	.LASF864:
 11612 204b 5353505F 		.ascii	"SSP_DR_BITMASK(n) ((n) & 0xFFFF)\000"
 11612      44525F42 
 11612      49544D41 
 11612      534B286E 
 11612      29202828 
 11613              	.LASF773:
 11614 206c 55415254 		.ascii	"UART_LCR_PARITY_F_0 (3 << 4)\000"
ARM GAS  /tmp/ccFRKuha.s 			page 253


 11614      5F4C4352 
 11614      5F504152 
 11614      4954595F 
 11614      465F3020 
 11615              	.LASF620:
 11616 2089 4C50435F 		.ascii	"LPC_ADC ((LPC_ADC_T *) LPC_ADC_BASE)\000"
 11616      41444320 
 11616      28284C50 
 11616      435F4144 
 11616      435F5420 
 11617              	.LASF574:
 11618 20ae 53797354 		.ascii	"SysTick_CALIB_NOREF_Msk (1UL << SysTick_CALIB_NOREF"
 11618      69636B5F 
 11618      43414C49 
 11618      425F4E4F 
 11618      5245465F 
 11619 20e1 5F506F73 		.ascii	"_Pos)\000"
 11619      2900
 11620              	.LASF1154:
 11621 20e7 5353505F 		.ascii	"SSP_RTRIS\000"
 11621      52545249 
 11621      5300
 11622              	.LASF434:
 11623 20f1 494E545F 		.ascii	"INT_FAST8_MAX (__INT_FAST8_MAX__)\000"
 11623      46415354 
 11623      385F4D41 
 11623      5820285F 
 11623      5F494E54 
 11624              	.LASF976:
 11625 2113 4932435F 		.ascii	"I2C_MONITOR_CFG_MATCHALL I2C_I2MMCTRL_MATCH_ALL\000"
 11625      4D4F4E49 
 11625      544F525F 
 11625      4346475F 
 11625      4D415443 
 11626              	.LASF143:
 11627 2143 5F5F4442 		.ascii	"__DBL_MAX_EXP__ 1024\000"
 11627      4C5F4D41 
 11627      585F4558 
 11627      505F5F20 
 11627      31303234 
 11628              	.LASF114:
 11629 2158 5F5F5549 		.ascii	"__UINT_FAST8_MAX__ 4294967295U\000"
 11629      4E545F46 
 11629      41535438 
 11629      5F4D4158 
 11629      5F5F2034 
 11630              	.LASF916:
 11631 2177 4932435F 		.ascii	"I2C_CON_STA (1UL << 5)\000"
 11631      434F4E5F 
 11631      53544120 
 11631      2831554C 
 11631      203C3C20 
 11632              	.LASF276:
 11633 218e 5F5F5451 		.ascii	"__TQ_FBIT__ 127\000"
 11633      5F464249 
 11633      545F5F20 
 11633      31323700 
ARM GAS  /tmp/ccFRKuha.s 			page 254


 11634              	.LASF1225:
 11635 219e 78665F73 		.ascii	"xf_setup\000"
 11635      65747570 
 11635      00
 11636              	.LASF333:
 11637 21a7 5F5F5448 		.ascii	"__THUMBEL__ 1\000"
 11637      554D4245 
 11637      4C5F5F20 
 11637      3100
 11638              	.LASF888:
 11639 21b5 4144435F 		.ascii	"ADC_CR_START_NOW ((1UL << 24))\000"
 11639      43525F53 
 11639      54415254 
 11639      5F4E4F57 
 11639      20282831 
 11640              	.LASF714:
 11641 21d4 54494D45 		.ascii	"TIMER_INT_ON_MATCH(n) (_BIT(((n) * 3)))\000"
 11641      525F494E 
 11641      545F4F4E 
 11641      5F4D4154 
 11641      4348286E 
 11642              	.LASF1145:
 11643 21fc 5F535350 		.ascii	"_SSP_STATUS\000"
 11643      5F535441 
 11643      54555300 
 11644              	.LASF405:
 11645 2208 5F5F696E 		.ascii	"__int_fast64_t_defined 1\000"
 11645      745F6661 
 11645      73743634 
 11645      5F745F64 
 11645      6566696E 
 11646              	.LASF612:
 11647 2221 4C50435F 		.ascii	"LPC_ROM_API_BASE_LOC 0x1FFF1FF8\000"
 11647      524F4D5F 
 11647      4150495F 
 11647      42415345 
 11647      5F4C4F43 
 11648              	.LASF344:
 11649 2241 5F5F5553 		.ascii	"__USES_INITFINI__ 1\000"
 11649      45535F49 
 11649      4E495446 
 11649      494E495F 
 11649      5F203100 
 11650              	.LASF515:
 11651 2255 5343425F 		.ascii	"SCB_CPUID_ARCHITECTURE_Pos 16\000"
 11651      43505549 
 11651      445F4152 
 11651      43484954 
 11651      45435455 
 11652              	.LASF1159:
 11653 2273 5F535350 		.ascii	"_SSP_INTCLEAR\000"
 11653      5F494E54 
 11653      434C4541 
 11653      5200
 11654              	.LASF18:
 11655 2281 5F5F5349 		.ascii	"__SIZEOF_SHORT__ 2\000"
 11655      5A454F46 
ARM GAS  /tmp/ccFRKuha.s 			page 255


 11655      5F53484F 
 11655      52545F5F 
 11655      203200
 11656              	.LASF263:
 11657 2294 5F5F554C 		.ascii	"__ULLACCUM_FBIT__ 32\000"
 11657      4C414343 
 11657      554D5F46 
 11657      4249545F 
 11657      5F203332 
 11658              	.LASF1042:
 11659 22a9 5F426F6F 		.ascii	"_Bool\000"
 11659      6C00
 11660              	.LASF754:
 11661 22af 55415254 		.ascii	"UART_FCR_BITMASK (0xCF)\000"
 11661      5F464352 
 11661      5F424954 
 11661      4D41534B 
 11661      20283078 
 11662              	.LASF582:
 11663 22c7 5343425F 		.ascii	"SCB_BASE (SCS_BASE + 0x0D00UL)\000"
 11663      42415345 
 11663      20285343 
 11663      535F4241 
 11663      5345202B 
 11664              	.LASF629:
 11665 22e6 4C50435F 		.ascii	"LPC_GPIO ((LPC_GPIO_T *) LPC_GPIO_PORT0_BASE)\000"
 11665      4750494F 
 11665      2028284C 
 11665      50435F47 
 11665      50494F5F 
 11666              	.LASF347:
 11667 2314 5F5F4C50 		.ascii	"__LPC_TYPES_H_ \000"
 11667      435F5459 
 11667      5045535F 
 11667      485F2000 
 11668              	.LASF487:
 11669 2324 4D494E28 		.ascii	"MIN(a,b) (((a) < (b)) ? (a) : (b))\000"
 11669      612C6229 
 11669      20282828 
 11669      6129203C 
 11669      20286229 
 11670              	.LASF350:
 11671 2347 5F535953 		.ascii	"_SYS_FEATURES_H \000"
 11671      5F464541 
 11671      54555245 
 11671      535F4820 
 11671      00
 11672              	.LASF1009:
 11673 2358 4F445F45 		.ascii	"OD_EXP_WO 0x20\000"
 11673      58505F57 
 11673      4F203078 
 11673      323000
 11674              	.LASF483:
 11675 2367 53544154 		.ascii	"STATIC static\000"
 11675      49432073 
 11675      74617469 
 11675      6300
ARM GAS  /tmp/ccFRKuha.s 			page 256


 11676              	.LASF1056:
 11677 2375 52455345 		.ascii	"RESERVED2\000"
 11677      52564544 
 11677      3200
 11678              	.LASF1155:
 11679 237f 5353505F 		.ascii	"SSP_RXRIS\000"
 11679      52585249 
 11679      5300
 11680              	.LASF21:
 11681 2389 5F5F5349 		.ascii	"__SIZEOF_LONG_DOUBLE__ 8\000"
 11681      5A454F46 
 11681      5F4C4F4E 
 11681      475F444F 
 11681      55424C45 
 11682              	.LASF787:
 11683 23a2 55415254 		.ascii	"UART_LSR_BI (1 << 4)\000"
 11683      5F4C5352 
 11683      5F424920 
 11683      2831203C 
 11683      3C203429 
 11684              	.LASF765:
 11685 23b7 55415254 		.ascii	"UART_LCR_SBS_MASK (1 << 2)\000"
 11685      5F4C4352 
 11685      5F534253 
 11685      5F4D4153 
 11685      4B202831 
 11686              	.LASF320:
 11687 23d2 5F5F5052 		.ascii	"__PRAGMA_REDEFINE_EXTNAME 1\000"
 11687      41474D41 
 11687      5F524544 
 11687      4546494E 
 11687      455F4558 
 11688              	.LASF33:
 11689 23ee 5F5F5743 		.ascii	"__WCHAR_TYPE__ unsigned int\000"
 11689      4841525F 
 11689      54595045 
 11689      5F5F2075 
 11689      6E736967 
 11690              	.LASF583:
 11691 240a 53434220 		.ascii	"SCB ((SCB_Type *) SCB_BASE )\000"
 11691      28285343 
 11691      425F5479 
 11691      7065202A 
 11691      29205343 
 11692              	.LASF371:
 11693 2427 63686172 		.ascii	"char\000"
 11693      00
 11694              	.LASF299:
 11695 242c 5F5F5553 		.ascii	"__USA_IBIT__ 16\000"
 11695      415F4942 
 11695      49545F5F 
 11695      20313600 
 11696              	.LASF617:
 11697 243c 4C50435F 		.ascii	"LPC_TIMER16_1 ((LPC_TIMER_T *) LPC_TIMER16_1_BASE)\000"
 11697      54494D45 
 11697      5231365F 
 11697      31202828 
ARM GAS  /tmp/ccFRKuha.s 			page 257


 11697      4C50435F 
 11698              	.LASF465:
 11699 246f 494E544D 		.ascii	"INTMAX_C(x) __INTMAX_C(x)\000"
 11699      41585F43 
 11699      28782920 
 11699      5F5F494E 
 11699      544D4158 
 11700              	.LASF452:
 11701 2489 50545244 		.ascii	"PTRDIFF_MIN (-PTRDIFF_MAX - 1)\000"
 11701      4946465F 
 11701      4D494E20 
 11701      282D5054 
 11701      52444946 
 11702              	.LASF697:
 11703 24a8 4D445F53 		.ascii	"MD_STDI2C (0x1 << 8)\000"
 11703      54444932 
 11703      43202830 
 11703      7831203C 
 11703      3C203829 
 11704              	.LASF1069:
 11705 24bd 55534152 		.ascii	"USARTCLKDIV\000"
 11705      54434C4B 
 11705      44495600 
 11706              	.LASF68:
 11707 24c9 5F5F4758 		.ascii	"__GXX_ABI_VERSION 1002\000"
 11707      585F4142 
 11707      495F5645 
 11707      5253494F 
 11707      4E203130 
 11708              	.LASF63:
 11709 24e0 5F5F5549 		.ascii	"__UINT_FAST64_TYPE__ long long unsigned int\000"
 11709      4E545F46 
 11709      41535436 
 11709      345F5459 
 11709      50455F5F 
 11710              	.LASF1132:
 11711 250c 53595343 		.ascii	"SYSCTL_CLOCK_SSP0\000"
 11711      544C5F43 
 11711      4C4F434B 
 11711      5F535350 
 11711      3000
 11712              	.LASF1139:
 11713 251e 53595343 		.ascii	"SYSCTL_CLOCK_SSP1\000"
 11713      544C5F43 
 11713      4C4F434B 
 11713      5F535350 
 11713      3100
 11714              	.LASF859:
 11715 2530 5353505F 		.ascii	"SSP_CR1_SLAVE_EN ((uint32_t) (1 << 2))\000"
 11715      4352315F 
 11715      534C4156 
 11715      455F454E 
 11715      20282875 
 11716              	.LASF133:
 11717 2557 5F5F464C 		.ascii	"__FLT_MIN__ 1.1754943508222875e-38F\000"
 11717      545F4D49 
 11717      4E5F5F20 
ARM GAS  /tmp/ccFRKuha.s 			page 258


 11717      312E3137 
 11717      35343934 
 11718              	.LASF1249:
 11719 257b 43686970 		.ascii	"Chip_SSP_GetPCLKkRate\000"
 11719      5F535350 
 11719      5F476574 
 11719      50434C4B 
 11719      6B526174 
 11720              	.LASF288:
 11721 2591 5F5F4841 		.ascii	"__HA_FBIT__ 7\000"
 11721      5F464249 
 11721      545F5F20 
 11721      3700
 11722              	.LASF992:
 11723 259f 53444F5F 		.ascii	"SDO_ABORT_TOGGLE 0x05030000UL\000"
 11723      41424F52 
 11723      545F544F 
 11723      47474C45 
 11723      20307830 
 11724              	.LASF920:
 11725 25bd 4932435F 		.ascii	"I2C_I2STAT_NO_INF ((0xF8))\000"
 11725      49325354 
 11725      41545F4E 
 11725      4F5F494E 
 11725      46202828 
 11726              	.LASF625:
 11727 25d8 4C50435F 		.ascii	"LPC_SYSCTL ((LPC_SYSCTL_T *) LPC_SYSCTL_BASE)\000"
 11727      53595343 
 11727      544C2028 
 11727      284C5043 
 11727      5F535953 
 11728              	.LASF132:
 11729 2606 5F5F464C 		.ascii	"__FLT_MAX__ 3.4028234663852886e+38F\000"
 11729      545F4D41 
 11729      585F5F20 
 11729      332E3430 
 11729      32383233 
 11730              	.LASF316:
 11731 262a 5F5F4743 		.ascii	"__GCC_ATOMIC_LLONG_LOCK_FREE 1\000"
 11731      435F4154 
 11731      4F4D4943 
 11731      5F4C4C4F 
 11731      4E475F4C 
 11732              	.LASF450:
 11733 2649 5349475F 		.ascii	"SIG_ATOMIC_MAX (__STDINT_EXP(INT_MAX))\000"
 11733      41544F4D 
 11733      49435F4D 
 11733      41582028 
 11733      5F5F5354 
 11734              	.LASF720:
 11735 2670 5F5F5541 		.ascii	"__UART_11XX_H_ \000"
 11735      52545F31 
 11735      3158585F 
 11735      485F2000 
 11736              	.LASF979:
 11737 2680 43414E5F 		.ascii	"CAN_ERROR_PASS 0x00000001UL\000"
 11737      4552524F 
ARM GAS  /tmp/ccFRKuha.s 			page 259


 11737      525F5041 
 11737      53532030 
 11737      78303030 
 11738              	.LASF903:
 11739 269c 4932435F 		.ascii	"I2C_I2CONSET_AA ((0x04))\000"
 11739      4932434F 
 11739      4E534554 
 11739      5F414120 
 11739      28283078 
 11740              	.LASF673:
 11741 26b5 494F434F 		.ascii	"IOCON_MODE_INACT (0x0 << 3)\000"
 11741      4E5F4D4F 
 11741      44455F49 
 11741      4E414354 
 11741      20283078 
 11742              	.LASF924:
 11743 26d1 4932435F 		.ascii	"I2C_I2STAT_M_TX_SLAW_ACK ((0x18))\000"
 11743      49325354 
 11743      41545F4D 
 11743      5F54585F 
 11743      534C4157 
 11744              	.LASF168:
 11745 26f3 5F5F4445 		.ascii	"__DEC32_MIN_EXP__ (-94)\000"
 11745      4333325F 
 11745      4D494E5F 
 11745      4558505F 
 11745      5F20282D 
 11746              	.LASF194:
 11747 270b 5F5F5553 		.ascii	"__USFRACT_IBIT__ 0\000"
 11747      46524143 
 11747      545F4942 
 11747      49545F5F 
 11747      203000
 11748              	.LASF476:
 11749 271e 5F424954 		.ascii	"_BIT(n) (1 << (n))\000"
 11749      286E2920 
 11749      2831203C 
 11749      3C20286E 
 11749      292900
 11750              	.LASF1025:
 11751 2731 5F5F7569 		.ascii	"__uint16_t\000"
 11751      6E743136 
 11751      5F7400
 11752              	.LASF162:
 11753 273c 5F5F4C44 		.ascii	"__LDBL_EPSILON__ 2.2204460492503131e-16L\000"
 11753      424C5F45 
 11753      5053494C 
 11753      4F4E5F5F 
 11753      20322E32 
 11754              	.LASF912:
 11755 2765 4932435F 		.ascii	"I2C_I2CONCLR_I2ENC ((1 << 6))\000"
 11755      4932434F 
 11755      4E434C52 
 11755      5F493245 
 11755      4E432028 
 11756              	.LASF1210:
 11757 2783 496E7443 		.ascii	"IntClear\000"
ARM GAS  /tmp/ccFRKuha.s 			page 260


 11757      6C656172 
 11757      00
 11758              	.LASF195:
 11759 278c 5F5F5553 		.ascii	"__USFRACT_MIN__ 0.0UHR\000"
 11759      46524143 
 11759      545F4D49 
 11759      4E5F5F20 
 11759      302E3055 
 11760              	.LASF705:
 11761 27a3 46554E43 		.ascii	"FUNC5 0x5\000"
 11761      35203078 
 11761      3500
 11762              	.LASF807:
 11763 27ad 55415254 		.ascii	"UART_ACR_ABTOINT_CLR (1 << 9)\000"
 11763      5F414352 
 11763      5F414254 
 11763      4F494E54 
 11763      5F434C52 
 11764              	.LASF997:
 11765 27cb 53444F5F 		.ascii	"SDO_ABORT_READONLY 0x06010002UL\000"
 11765      41424F52 
 11765      545F5245 
 11765      41444F4E 
 11765      4C592030 
 11766              	.LASF357:
 11767 27eb 5F5F5F69 		.ascii	"___int16_t_defined 1\000"
 11767      6E743136 
 11767      5F745F64 
 11767      6566696E 
 11767      65642031 
 11768              	.LASF157:
 11769 2800 5F5F4C44 		.ascii	"__LDBL_MAX_EXP__ 1024\000"
 11769      424C5F4D 
 11769      41585F45 
 11769      58505F5F 
 11769      20313032 
 11770              	.LASF671:
 11771 2816 494F434F 		.ascii	"IOCON_FUNC6 0x6\000"
 11771      4E5F4655 
 11771      4E433620 
 11771      30783600 
 11772              	.LASF553:
 11773 2826 5343425F 		.ascii	"SCB_SCR_SLEEPONEXIT_Pos 1\000"
 11773      5343525F 
 11773      534C4545 
 11773      504F4E45 
 11773      5849545F 
 11774              	.LASF743:
 11775 2840 55415254 		.ascii	"UART_IIR_BITMASK (0x3CF)\000"
 11775      5F494952 
 11775      5F424954 
 11775      4D41534B 
 11775      20283078 
 11776              	.LASF394:
 11777 2859 5F5F696E 		.ascii	"__int8_t_defined 1\000"
 11777      74385F74 
 11777      5F646566 
ARM GAS  /tmp/ccFRKuha.s 			page 261


 11777      696E6564 
 11777      203100
 11778              	.LASF989:
 11779 286c 43414E5F 		.ascii	"CAN_MSGOBJ_EXT 0x20000000UL\000"
 11779      4D53474F 
 11779      424A5F45 
 11779      58542030 
 11779      78323030 
 11780              	.LASF150:
 11781 2888 5F5F4442 		.ascii	"__DBL_HAS_DENORM__ 1\000"
 11781      4C5F4841 
 11781      535F4445 
 11781      4E4F524D 
 11781      5F5F2031 
 11782              	.LASF1020:
 11783 289d 4C50435F 		.ascii	"LPC_CCAN_API ((CCAN_API_T *) (LPC_ROM_API->candApiB"
 11783      4343414E 
 11783      5F415049 
 11783      20282843 
 11783      43414E5F 
 11784 28d0 61736529 		.ascii	"ase))\000"
 11784      2900
 11785              	.LASF1264:
 11786 28d6 43686970 		.ascii	"Chip_SSP_DeInit\000"
 11786      5F535350 
 11786      5F446549 
 11786      6E697400 
 11787              	.LASF644:
 11788 28e6 53595343 		.ascii	"SYSCTL_DEEPSLP_BOD_PD (1 << 3)\000"
 11788      544C5F44 
 11788      45455053 
 11788      4C505F42 
 11788      4F445F50 
 11789              	.LASF567:
 11790 2905 53797354 		.ascii	"SysTick_CTRL_ENABLE_Pos 0\000"
 11790      69636B5F 
 11790      4354524C 
 11790      5F454E41 
 11790      424C455F 
 11791              	.LASF1205:
 11792 291f 43686970 		.ascii	"Chip_Clock_SetSSP0ClockDiv\000"
 11792      5F436C6F 
 11792      636B5F53 
 11792      65745353 
 11792      5030436C 
 11793              	.LASF445:
 11794 293a 494E544D 		.ascii	"INTMAX_MAX (__INTMAX_MAX__)\000"
 11794      41585F4D 
 11794      41582028 
 11794      5F5F494E 
 11794      544D4158 
 11795              	.LASF422:
 11796 2956 494E5433 		.ascii	"INT32_MAX (__INT32_MAX__)\000"
 11796      325F4D41 
 11796      5820285F 
 11796      5F494E54 
 11796      33325F4D 
ARM GAS  /tmp/ccFRKuha.s 			page 262


 11797              	.LASF760:
 11798 2970 55415254 		.ascii	"UART_LCR_WLEN_MASK (3 << 0)\000"
 11798      5F4C4352 
 11798      5F574C45 
 11798      4E5F4D41 
 11798      534B2028 
 11799              	.LASF1083:
 11800 298c 52455345 		.ascii	"RESERVED9\000"
 11800      52564544 
 11800      3900
 11801              	.LASF292:
 11802 2996 5F5F4441 		.ascii	"__DA_FBIT__ 31\000"
 11802      5F464249 
 11802      545F5F20 
 11802      333100
 11803              	.LASF688:
 11804 29a5 4D445F50 		.ascii	"MD_PUP (0x2 << 3)\000"
 11804      55502028 
 11804      30783220 
 11804      3C3C2033 
 11804      2900
 11805              	.LASF971:
 11806 29b7 4932435F 		.ascii	"I2C_RECV_END 0x10\000"
 11806      52454356 
 11806      5F454E44 
 11806      20307831 
 11806      3000
 11807              	.LASF551:
 11808 29c9 5343425F 		.ascii	"SCB_SCR_SLEEPDEEP_Pos 2\000"
 11808      5343525F 
 11808      534C4545 
 11808      50444545 
 11808      505F506F 
 11809              	.LASF526:
 11810 29e1 5343425F 		.ascii	"SCB_ICSR_PENDSVCLR_Msk (1UL << SCB_ICSR_PENDSVCLR_P"
 11810      49435352 
 11810      5F50454E 
 11810      44535643 
 11810      4C525F4D 
 11811 2a14 6F732900 		.ascii	"os)\000"
 11812              	.LASF135:
 11813 2a18 5F5F464C 		.ascii	"__FLT_DENORM_MIN__ 1.4012984643248171e-45F\000"
 11813      545F4445 
 11813      4E4F524D 
 11813      5F4D494E 
 11813      5F5F2031 
 11814              	.LASF389:
 11815 2a43 5F5F4C45 		.ascii	"__LEAST8 \"hh\"\000"
 11815      41535438 
 11815      20226868 
 11815      2200
 11816              	.LASF96:
 11817 2a51 5F5F494E 		.ascii	"__INT_LEAST16_MAX__ 32767\000"
 11817      545F4C45 
 11817      41535431 
 11817      365F4D41 
 11817      585F5F20 
ARM GAS  /tmp/ccFRKuha.s 			page 263


 11818              	.LASF267:
 11819 2a6b 5F5F554C 		.ascii	"__ULLACCUM_EPSILON__ 0x1P-32ULLK\000"
 11819      4C414343 
 11819      554D5F45 
 11819      5053494C 
 11819      4F4E5F5F 
 11820              	.LASF815:
 11821 2a8c 55415254 		.ascii	"UART_RS485CTRL_BITMASK (0x3F)\000"
 11821      5F525334 
 11821      38354354 
 11821      524C5F42 
 11821      49544D41 
 11822              	.LASF67:
 11823 2aaa 5F5F6861 		.ascii	"__has_include_next(STR) __has_include_next__(STR)\000"
 11823      735F696E 
 11823      636C7564 
 11823      655F6E65 
 11823      78742853 
 11824              	.LASF849:
 11825 2adc 5353505F 		.ascii	"SSP_CR0_FRF_TI ((uint32_t) (1 << 4))\000"
 11825      4352305F 
 11825      4652465F 
 11825      54492028 
 11825      2875696E 
 11826              	.LASF420:
 11827 2b01 55494E54 		.ascii	"UINT_LEAST16_MAX (__UINT_LEAST16_MAX__)\000"
 11827      5F4C4541 
 11827      53543136 
 11827      5F4D4158 
 11827      20285F5F 
 11828              	.LASF107:
 11829 2b29 5F5F5549 		.ascii	"__UINT32_C(c) c ## UL\000"
 11829      4E543332 
 11829      5F432863 
 11829      29206320 
 11829      23232055 
 11830              	.LASF517:
 11831 2b3f 5343425F 		.ascii	"SCB_CPUID_PARTNO_Pos 4\000"
 11831      43505549 
 11831      445F5041 
 11831      52544E4F 
 11831      5F506F73 
 11832              	.LASF522:
 11833 2b56 5343425F 		.ascii	"SCB_ICSR_NMIPENDSET_Msk (1UL << SCB_ICSR_NMIPENDSET"
 11833      49435352 
 11833      5F4E4D49 
 11833      50454E44 
 11833      5345545F 
 11834 2b89 5F506F73 		.ascii	"_Pos)\000"
 11834      2900
 11835              	.LASF763:
 11836 2b8f 55415254 		.ascii	"UART_LCR_WLEN7 (2 << 0)\000"
 11836      5F4C4352 
 11836      5F574C45 
 11836      4E372028 
 11836      32203C3C 
 11837              	.LASF477:
ARM GAS  /tmp/ccFRKuha.s 			page 264


 11838 2ba7 5F534246 		.ascii	"_SBF\000"
 11838      00
 11839              	.LASF89:
 11840 2bac 5F5F494E 		.ascii	"__INT64_MAX__ 9223372036854775807LL\000"
 11840      5436345F 
 11840      4D41585F 
 11840      5F203932 
 11840      32333337 
 11841              	.LASF134:
 11842 2bd0 5F5F464C 		.ascii	"__FLT_EPSILON__ 1.1920928955078125e-7F\000"
 11842      545F4550 
 11842      53494C4F 
 11842      4E5F5F20 
 11842      312E3139 
 11843              	.LASF589:
 11844 2bf7 4C50435F 		.ascii	"LPC_I2C_BASE 0x40000000\000"
 11844      4932435F 
 11844      42415345 
 11844      20307834 
 11844      30303030 
 11845              	.LASF613:
 11846 2c0f 4C50435F 		.ascii	"LPC_I2C ((LPC_I2C_T *) LPC_I2C_BASE)\000"
 11846      49324320 
 11846      28284C50 
 11846      435F4932 
 11846      435F5420 
 11847              	.LASF1164:
 11848 2c34 43484950 		.ascii	"CHIP_SSP_CLOCK_FORMAT\000"
 11848      5F535350 
 11848      5F434C4F 
 11848      434B5F46 
 11848      4F524D41 
 11849              	.LASF32:
 11850 2c4a 5F5F5054 		.ascii	"__PTRDIFF_TYPE__ int\000"
 11850      52444946 
 11850      465F5459 
 11850      50455F5F 
 11850      20696E74 
 11851              	.LASF559:
 11852 2c5f 5343425F 		.ascii	"SCB_SHCSR_SVCALLPENDED_Pos 15\000"
 11852      53484353 
 11852      525F5356 
 11852      43414C4C 
 11852      50454E44 
 11853              	.LASF999:
 11854 2c7d 53444F5F 		.ascii	"SDO_ABORT_PARAINCOMP 0x06040043UL\000"
 11854      41424F52 
 11854      545F5041 
 11854      5241494E 
 11854      434F4D50 
 11855              	.LASF561:
 11856 2c9f 53797354 		.ascii	"SysTick_CTRL_COUNTFLAG_Pos 16\000"
 11856      69636B5F 
 11856      4354524C 
 11856      5F434F55 
 11856      4E54464C 
 11857              	.LASF399:
ARM GAS  /tmp/ccFRKuha.s 			page 265


 11858 2cbd 5F5F696E 		.ascii	"__int_least16_t_defined 1\000"
 11858      745F6C65 
 11858      61737431 
 11858      365F745F 
 11858      64656669 
 11859              	.LASF247:
 11860 2cd7 5F5F5541 		.ascii	"__UACCUM_EPSILON__ 0x1P-16UK\000"
 11860      4343554D 
 11860      5F455053 
 11860      494C4F4E 
 11860      5F5F2030 
 11861              	.LASF335:
 11862 2cf4 5F5F5646 		.ascii	"__VFP_FP__ 1\000"
 11862      505F4650 
 11862      5F5F2031 
 11862      00
 11863              	.LASF425:
 11864 2d01 494E545F 		.ascii	"INT_LEAST32_MAX (__INT_LEAST32_MAX__)\000"
 11864      4C454153 
 11864      5433325F 
 11864      4D415820 
 11864      285F5F49 
 11865              	.LASF1216:
 11866 2d27 43686970 		.ascii	"Chip_SSP_GetClockIndex\000"
 11866      5F535350 
 11866      5F476574 
 11866      436C6F63 
 11866      6B496E64 
 11867              	.LASF313:
 11868 2d3e 5F5F4743 		.ascii	"__GCC_ATOMIC_SHORT_LOCK_FREE 1\000"
 11868      435F4154 
 11868      4F4D4943 
 11868      5F53484F 
 11868      52545F4C 
 11869              	.LASF471:
 11870 2d5d 66616C73 		.ascii	"false 0\000"
 11870      65203000 
 11871              	.LASF891:
 11872 2d65 4144435F 		.ascii	"ADC_CR_START_ADCTRIG0 ((4UL << 24))\000"
 11872      43525F53 
 11872      54415254 
 11872      5F414443 
 11872      54524947 
 11873              	.LASF715:
 11874 2d89 54494D45 		.ascii	"TIMER_RESET_ON_MATCH(n) (_BIT((((n) * 3) + 1)))\000"
 11874      525F5245 
 11874      5345545F 
 11874      4F4E5F4D 
 11874      41544348 
 11875              	.LASF846:
 11876 2db9 5F5F5353 		.ascii	"__SSP_11XX_H_ \000"
 11876      505F3131 
 11876      58585F48 
 11876      5F2000
 11877              	.LASF271:
 11878 2dc8 5F5F4851 		.ascii	"__HQ_IBIT__ 0\000"
 11878      5F494249 
ARM GAS  /tmp/ccFRKuha.s 			page 266


 11878      545F5F20 
 11878      3000
 11879              	.LASF500:
 11880 2dd6 5F5F434F 		.ascii	"__CORTEX_M (0x00)\000"
 11880      52544558 
 11880      5F4D2028 
 11880      30783030 
 11880      2900
 11881              	.LASF233:
 11882 2de8 5F5F5553 		.ascii	"__USACCUM_FBIT__ 8\000"
 11882      41434355 
 11882      4D5F4642 
 11882      49545F5F 
 11882      203800
 11883              	.LASF317:
 11884 2dfb 5F5F4743 		.ascii	"__GCC_ATOMIC_TEST_AND_SET_TRUEVAL 1\000"
 11884      435F4154 
 11884      4F4D4943 
 11884      5F544553 
 11884      545F414E 
 11885              	.LASF931:
 11886 2e1f 4932435F 		.ascii	"I2C_I2STAT_M_RX_ARB_LOST ((0x38))\000"
 11886      49325354 
 11886      41545F4D 
 11886      5F52585F 
 11886      4152425F 
 11887              	.LASF536:
 11888 2e41 5343425F 		.ascii	"SCB_ICSR_VECTPENDING_Msk (0x1FFUL << SCB_ICSR_VECTP"
 11888      49435352 
 11888      5F564543 
 11888      5450454E 
 11888      44494E47 
 11889 2e74 454E4449 		.ascii	"ENDING_Pos)\000"
 11889      4E475F50 
 11889      6F732900 
 11890              	.LASF1165:
 11891 2e80 5353505F 		.ascii	"SSP_CLOCK_CPHA0_CPOL0\000"
 11891      434C4F43 
 11891      4B5F4350 
 11891      4841305F 
 11891      43504F4C 
 11892              	.LASF1166:
 11893 2e96 5353505F 		.ascii	"SSP_CLOCK_CPHA0_CPOL1\000"
 11893      434C4F43 
 11893      4B5F4350 
 11893      4841305F 
 11893      43504F4C 
 11894              	.LASF248:
 11895 2eac 5F5F4C41 		.ascii	"__LACCUM_FBIT__ 31\000"
 11895      4343554D 
 11895      5F464249 
 11895      545F5F20 
 11895      333100
 11896              	.LASF664:
 11897 2ebf 5F5F494F 		.ascii	"__IOCON_11XX_H_ \000"
 11897      434F4E5F 
 11897      31315858 
ARM GAS  /tmp/ccFRKuha.s 			page 267


 11897      5F485F20 
 11897      00
 11898              	.LASF1175:
 11899 2ed0 43484950 		.ascii	"CHIP_SSP_FRAME_FORMAT_TI\000"
 11899      5F535350 
 11899      5F465241 
 11899      4D455F46 
 11899      4F524D41 
 11900              	.LASF956:
 11901 2ee9 4932435F 		.ascii	"I2C_I2MMCTRL_BITMASK ((0x07))\000"
 11901      49324D4D 
 11901      4354524C 
 11901      5F424954 
 11901      4D41534B 
 11902              	.LASF711:
 11903 2f07 54494D45 		.ascii	"TIMER_CAP_INT(n) (_BIT((((n) & 0x0F) + 4)))\000"
 11903      525F4341 
 11903      505F494E 
 11903      54286E29 
 11903      20285F42 
 11904              	.LASF1169:
 11905 2f33 5353505F 		.ascii	"SSP_CLOCK_MODE0\000"
 11905      434C4F43 
 11905      4B5F4D4F 
 11905      44453000 
 11906              	.LASF1170:
 11907 2f43 5353505F 		.ascii	"SSP_CLOCK_MODE1\000"
 11907      434C4F43 
 11907      4B5F4D4F 
 11907      44453100 
 11908              	.LASF1046:
 11909 2f53 53595350 		.ascii	"SYSPLLCTRL\000"
 11909      4C4C4354 
 11909      524C00
 11910              	.LASF1172:
 11911 2f5e 5353505F 		.ascii	"SSP_CLOCK_MODE3\000"
 11911      434C4F43 
 11911      4B5F4D4F 
 11911      44453300 
 11912              	.LASF294:
 11913 2f6e 5F5F5441 		.ascii	"__TA_FBIT__ 63\000"
 11913      5F464249 
 11913      545F5F20 
 11913      363300
 11914              	.LASF732:
 11915 2f7d 55415254 		.ascii	"UART_IER_MSINT (1 << 3)\000"
 11915      5F494552 
 11915      5F4D5349 
 11915      4E542028 
 11915      31203C3C 
 11916              	.LASF936:
 11917 2f95 4932435F 		.ascii	"I2C_I2STAT_S_RX_SLAW_ACK ((0x60))\000"
 11917      49325354 
 11917      41545F53 
 11917      5F52585F 
 11917      534C4157 
 11918              	.LASF406:
ARM GAS  /tmp/ccFRKuha.s 			page 268


 11919 2fb7 494E5450 		.ascii	"INTPTR_MIN (-__INTPTR_MAX__ - 1)\000"
 11919      54525F4D 
 11919      494E2028 
 11919      2D5F5F49 
 11919      4E545054 
 11920              	.LASF1044:
 11921 2fd8 5359534D 		.ascii	"SYSMEMREMAP\000"
 11921      454D5245 
 11921      4D415000 
 11922              	.LASF1118:
 11923 2fe4 52455345 		.ascii	"RESET_DAC0\000"
 11923      545F4441 
 11923      433000
 11924              	.LASF340:
 11925 2fef 5F5F4152 		.ascii	"__ARM_PCS 1\000"
 11925      4D5F5043 
 11925      53203100 
 11926              	.LASF469:
 11927 2ffb 626F6F6C 		.ascii	"bool _Bool\000"
 11927      205F426F 
 11927      6F6C00
 11928              	.LASF906:
 11929 3006 4932435F 		.ascii	"I2C_I2CONSET_STA ((0x20))\000"
 11929      4932434F 
 11929      4E534554 
 11929      5F535441 
 11929      20282830 
 11930              	.LASF985:
 11931 3020 43414E5F 		.ascii	"CAN_ERROR_BIT1 0x00000040UL\000"
 11931      4552524F 
 11931      525F4249 
 11931      54312030 
 11931      78303030 
 11932              	.LASF640:
 11933 303c 53595343 		.ascii	"SYSCTL_RST_WDT (1 << 2)\000"
 11933      544C5F52 
 11933      53545F57 
 11933      44542028 
 11933      31203C3C 
 11934              	.LASF603:
 11935 3054 4C50435F 		.ascii	"LPC_SYSCTL_BASE 0x40048000\000"
 11935      53595343 
 11935      544C5F42 
 11935      41534520 
 11935      30783430 
 11936              	.LASF85:
 11937 306f 5F5F5349 		.ascii	"__SIG_ATOMIC_MIN__ (-__SIG_ATOMIC_MAX__ - 1)\000"
 11937      475F4154 
 11937      4F4D4943 
 11937      5F4D494E 
 11937      5F5F2028 
 11938              	.LASF245:
 11939 309c 5F5F5541 		.ascii	"__UACCUM_MIN__ 0.0UK\000"
 11939      4343554D 
 11939      5F4D494E 
 11939      5F5F2030 
 11939      2E30554B 
ARM GAS  /tmp/ccFRKuha.s 			page 269


 11940              	.LASF523:
 11941 30b1 5343425F 		.ascii	"SCB_ICSR_PENDSVSET_Pos 28\000"
 11941      49435352 
 11941      5F50454E 
 11941      44535653 
 11941      45545F50 
 11942              	.LASF1235:
 11943 30cb 62756666 		.ascii	"buffer\000"
 11943      657200
 11944              	.LASF545:
 11945 30d2 5343425F 		.ascii	"SCB_AIRCR_SYSRESETREQ_Pos 2\000"
 11945      41495243 
 11945      525F5359 
 11945      53524553 
 11945      45545245 
 11946              	.LASF509:
 11947 30ee 5F5F4F20 		.ascii	"__O volatile\000"
 11947      766F6C61 
 11947      74696C65 
 11947      00
 11948              	.LASF624:
 11949 30fb 4C50435F 		.ascii	"LPC_IOCON ((LPC_IOCON_T *) LPC_IOCON_BASE)\000"
 11949      494F434F 
 11949      4E202828 
 11949      4C50435F 
 11949      494F434F 
 11950              	.LASF449:
 11951 3126 5349475F 		.ascii	"SIG_ATOMIC_MIN (-__STDINT_EXP(INT_MAX) - 1)\000"
 11951      41544F4D 
 11951      49435F4D 
 11951      494E2028 
 11951      2D5F5F53 
 11952              	.LASF926:
 11953 3152 4932435F 		.ascii	"I2C_I2STAT_M_TX_DAT_ACK ((0x28))\000"
 11953      49325354 
 11953      41545F4D 
 11953      5F54585F 
 11953      4441545F 
 11954              	.LASF1231:
 11955 3173 5353505F 		.ascii	"SSP_Write2BFifo\000"
 11955      57726974 
 11955      65324246 
 11955      69666F00 
 11956              	.LASF1073:
 11957 3183 55534243 		.ascii	"USBCLKUEN\000"
 11957      4C4B5545 
 11957      4E00
 11958              	.LASF950:
 11959 318d 4932435F 		.ascii	"I2C_SLAVE_TIME_OUT 0x10000000UL\000"
 11959      534C4156 
 11959      455F5449 
 11959      4D455F4F 
 11959      55542030 
 11960              	.LASF803:
 11961 31ad 55415254 		.ascii	"UART_ACR_START (1 << 0)\000"
 11961      5F414352 
 11961      5F535441 
ARM GAS  /tmp/ccFRKuha.s 			page 270


 11961      52542028 
 11961      31203C3C 
 11962              	.LASF824:
 11963 31c5 55415254 		.ascii	"UART_SCICTRL_PROTSEL_T1 (1 << 2)\000"
 11963      5F534349 
 11963      4354524C 
 11963      5F50524F 
 11963      5453454C 
 11964              	.LASF401:
 11965 31e6 5F5F696E 		.ascii	"__int_least64_t_defined 1\000"
 11965      745F6C65 
 11965      61737436 
 11965      345F745F 
 11965      64656669 
 11966              	.LASF1244:
 11967 3200 43686970 		.ascii	"Chip_SSP_Int_FlushData\000"
 11967      5F535350 
 11967      5F496E74 
 11967      5F466C75 
 11967      73684461 
 11968              	.LASF723:
 11969 3217 52425F56 		.ascii	"RB_VTAIL(rb) ((volatile uint32_t)(rb->tail))\000"
 11969      5441494C 
 11969      28726229 
 11969      20282876 
 11969      6F6C6174 
 11970              	.LASF938:
 11971 3244 4932435F 		.ascii	"I2C_I2STAT_S_RX_GENCALL_ACK ((0x70))\000"
 11971      49325354 
 11971      41545F53 
 11971      5F52585F 
 11971      47454E43 
 11972              	.LASF826:
 11973 3269 55415254 		.ascii	"UART_SCICTRL_GUARDTIME(n) ((n & 0xFF) << 8)\000"
 11973      5F534349 
 11973      4354524C 
 11973      5F475541 
 11973      52445449 
 11974              	.LASF1092:
 11975 3295 55534243 		.ascii	"USBCLKCTRL\000"
 11975      4C4B4354 
 11975      524C00
 11976              	.LASF180:
 11977 32a0 5F5F4445 		.ascii	"__DEC64_SUBNORMAL_MIN__ 0.000000000000001E-383DD\000"
 11977      4336345F 
 11977      5355424E 
 11977      4F524D41 
 11977      4C5F4D49 
 11978              	.LASF197:
 11979 32d1 5F5F5553 		.ascii	"__USFRACT_EPSILON__ 0x1P-8UHR\000"
 11979      46524143 
 11979      545F4550 
 11979      53494C4F 
 11979      4E5F5F20 
 11980              	.LASF689:
 11981 32ef 4D445F42 		.ascii	"MD_BUK (0x3 << 3)\000"
 11981      554B2028 
ARM GAS  /tmp/ccFRKuha.s 			page 271


 11981      30783320 
 11981      3C3C2033 
 11981      2900
 11982              	.LASF479:
 11983 3301 5F424954 		.ascii	"_BITMASK\000"
 11983      4D41534B 
 11983      00
 11984              	.LASF113:
 11985 330a 5F5F494E 		.ascii	"__INT_FAST64_MAX__ 9223372036854775807LL\000"
 11985      545F4641 
 11985      53543634 
 11985      5F4D4158 
 11985      5F5F2039 
 11986              	.LASF623:
 11987 3333 4C50435F 		.ascii	"LPC_SSP0 ((LPC_SSP_T *) LPC_SSP0_BASE)\000"
 11987      53535030 
 11987      2028284C 
 11987      50435F53 
 11987      53505F54 
 11988              	.LASF1262:
 11989 335a 43686970 		.ascii	"Chip_SSP_Init\000"
 11989      5F535350 
 11989      5F496E69 
 11989      7400
 11990              	.LASF261:
 11991 3368 5F5F4C4C 		.ascii	"__LLACCUM_MAX__ 0X7FFFFFFFFFFFFFFFP-31LLK\000"
 11991      41434355 
 11991      4D5F4D41 
 11991      585F5F20 
 11991      30583746 
 11992              	.LASF740:
 11993 3392 55415254 		.ascii	"UART_IIR_FIFO_EN (3 << 6)\000"
 11993      5F494952 
 11993      5F464946 
 11993      4F5F454E 
 11993      20283320 
 11994              	.LASF706:
 11995 33ac 46554E43 		.ascii	"FUNC6 0x6\000"
 11995      36203078 
 11995      3600
 11996              	.LASF1236:
 11997 33b6 62756666 		.ascii	"buffer_len\000"
 11997      65725F6C 
 11997      656E00
 11998              	.LASF400:
 11999 33c1 5F5F696E 		.ascii	"__int_least32_t_defined 1\000"
 11999      745F6C65 
 11999      61737433 
 11999      325F745F 
 11999      64656669 
 12000              	.LASF305:
 12001 33db 5F5F5553 		.ascii	"__USER_LABEL_PREFIX__ \000"
 12001      45525F4C 
 12001      4142454C 
 12001      5F505245 
 12001      4649585F 
 12002              	.LASF868:
ARM GAS  /tmp/ccFRKuha.s 			page 272


 12003 33f2 5353505F 		.ascii	"SSP_CPHA_SECOND SSP_CR0_CPHA_SECOND\000"
 12003      43504841 
 12003      5F534543 
 12003      4F4E4420 
 12003      5353505F 
 12004              	.LASF610:
 12005 3416 4C50435F 		.ascii	"LPC_GPIO_PORT3_BASE 0x50030000\000"
 12005      4750494F 
 12005      5F504F52 
 12005      54335F42 
 12005      41534520 
 12006              	.LASF951:
 12007 3435 4932435F 		.ascii	"I2C_I2DAT_BITMASK ((0xFF))\000"
 12007      49324441 
 12007      545F4249 
 12007      544D4153 
 12007      4B202828 
 12008              	.LASF764:
 12009 3450 55415254 		.ascii	"UART_LCR_WLEN8 (3 << 0)\000"
 12009      5F4C4352 
 12009      5F574C45 
 12009      4E382028 
 12009      33203C3C 
 12010              	.LASF1125:
 12011 3468 53595343 		.ascii	"SYSCTL_CLOCK_FLASHARRAY\000"
 12011      544C5F43 
 12011      4C4F434B 
 12011      5F464C41 
 12011      53484152 
 12012              	.LASF463:
 12013 3480 494E5436 		.ascii	"INT64_C(x) __INT64_C(x)\000"
 12013      345F4328 
 12013      7829205F 
 12013      5F494E54 
 12013      36345F43 
 12014              	.LASF409:
 12015 3498 494E5438 		.ascii	"INT8_MIN (-__INT8_MAX__ - 1)\000"
 12015      5F4D494E 
 12015      20282D5F 
 12015      5F494E54 
 12015      385F4D41 
 12016              	.LASF844:
 12017 34b5 57574454 		.ascii	"WWDT_WDMOD_WDINT ((uint32_t) (1 << 3))\000"
 12017      5F57444D 
 12017      4F445F57 
 12017      44494E54 
 12017      20282875 
 12018              	.LASF877:
 12019 34dc 4144435F 		.ascii	"ADC_MAX_SAMPLE_RATE 400000\000"
 12019      4D41585F 
 12019      53414D50 
 12019      4C455F52 
 12019      41544520 
 12020              	.LASF1127:
 12021 34f7 53595343 		.ascii	"SYSCTL_CLOCK_GPIO\000"
 12021      544C5F43 
 12021      4C4F434B 
ARM GAS  /tmp/ccFRKuha.s 			page 273


 12021      5F475049 
 12021      4F00
 12022              	.LASF1089:
 12023 3509 4952514C 		.ascii	"IRQLATENCY\000"
 12023      4154454E 
 12023      435900
 12024              	.LASF8:
 12025 3514 5F5F4154 		.ascii	"__ATOMIC_ACQUIRE 2\000"
 12025      4F4D4943 
 12025      5F414351 
 12025      55495245 
 12025      203200
 12026              	.LASF1246:
 12027 3527 43686970 		.ascii	"Chip_SSP_Int_RWFrames16Bits\000"
 12027      5F535350 
 12027      5F496E74 
 12027      5F525746 
 12027      72616D65 
 12028              	.LASF1263:
 12029 3543 43686970 		.ascii	"Chip_Clock_DisablePeriphClock\000"
 12029      5F436C6F 
 12029      636B5F44 
 12029      69736162 
 12029      6C655065 
 12030              	.LASF633:
 12031 3561 504D555F 		.ascii	"PMU_PCON_PM_DEEPPOWERDOWN (0x2)\000"
 12031      50434F4E 
 12031      5F504D5F 
 12031      44454550 
 12031      504F5745 
 12032              	.LASF860:
 12033 3581 5353505F 		.ascii	"SSP_CR1_MASTER_EN ((uint32_t) (0))\000"
 12033      4352315F 
 12033      4D415354 
 12033      45525F45 
 12033      4E202828 
 12034              	.LASF1049:
 12035 35a4 55534250 		.ascii	"USBPLLSTAT\000"
 12035      4C4C5354 
 12035      415400
 12036              	.LASF325:
 12037 35af 5F5F4152 		.ascii	"__ARM_SIZEOF_WCHAR_T 4\000"
 12037      4D5F5349 
 12037      5A454F46 
 12037      5F574348 
 12037      41525F54 
 12038              	.LASF417:
 12039 35c6 55494E54 		.ascii	"UINT16_MAX (__UINT16_MAX__)\000"
 12039      31365F4D 
 12039      41582028 
 12039      5F5F5549 
 12039      4E543136 
 12040              	.LASF66:
 12041 35e2 5F5F6861 		.ascii	"__has_include(STR) __has_include__(STR)\000"
 12041      735F696E 
 12041      636C7564 
 12041      65285354 
ARM GAS  /tmp/ccFRKuha.s 			page 274


 12041      5229205F 
 12042              	.LASF1002:
 12043 360a 53444F5F 		.ascii	"SDO_ABORT_UNKNOWNSUB 0x06090011UL\000"
 12043      41424F52 
 12043      545F554E 
 12043      4B4E4F57 
 12043      4E535542 
 12044              	.LASF855:
 12045 362c 5353505F 		.ascii	"SSP_CR0_SCR(n) ((uint32_t) ((n & 0xFF) << 8))\000"
 12045      4352305F 
 12045      53435228 
 12045      6E292028 
 12045      2875696E 
 12046              	.LASF1243:
 12047 365a 43686970 		.ascii	"Chip_SSP_SetClockRate\000"
 12047      5F535350 
 12047      5F536574 
 12047      436C6F63 
 12047      6B526174 
 12048              	.LASF752:
 12049 3670 55415254 		.ascii	"UART_FCR_TX_RS (1 << 2)\000"
 12049      5F464352 
 12049      5F54585F 
 12049      52532028 
 12049      31203C3C 
 12050              	.LASF1211:
 12051 3688 43686970 		.ascii	"Chip_SSP_GetDataSize\000"
 12051      5F535350 
 12051      5F476574 
 12051      44617461 
 12051      53697A65 
 12052              	.LASF148:
 12053 369d 5F5F4442 		.ascii	"__DBL_EPSILON__ ((double)2.2204460492503131e-16L)\000"
 12053      4C5F4550 
 12053      53494C4F 
 12053      4E5F5F20 
 12053      2828646F 
 12054              	.LASF1253:
 12055 36cf 7373705F 		.ascii	"ssp_clk\000"
 12055      636C6B00 
 12056              	.LASF137:
 12057 36d7 5F5F464C 		.ascii	"__FLT_HAS_INFINITY__ 1\000"
 12057      545F4841 
 12057      535F494E 
 12057      46494E49 
 12057      54595F5F 
 12058              	.LASF1114:
 12059 36ee 52455345 		.ascii	"RESET_TIMER1_16\000"
 12059      545F5449 
 12059      4D455231 
 12059      5F313600 
 12060              	.LASF241:
 12061 36fe 5F5F4143 		.ascii	"__ACCUM_MAX__ 0X7FFFFFFFP-15K\000"
 12061      43554D5F 
 12061      4D41585F 
 12061      5F203058 
 12061      37464646 
ARM GAS  /tmp/ccFRKuha.s 			page 275


 12062              	.LASF534:
 12063 371c 5343425F 		.ascii	"SCB_ICSR_ISRPENDING_Msk (1UL << SCB_ICSR_ISRPENDING"
 12063      49435352 
 12063      5F495352 
 12063      50454E44 
 12063      494E475F 
 12064 374f 5F506F73 		.ascii	"_Pos)\000"
 12064      2900
 12065              	.LASF156:
 12066 3755 5F5F4C44 		.ascii	"__LDBL_MIN_10_EXP__ (-307)\000"
 12066      424C5F4D 
 12066      494E5F31 
 12066      305F4558 
 12066      505F5F20 
 12067              	.LASF1207:
 12068 3770 43686970 		.ascii	"Chip_Clock_GetSSP0ClockDiv\000"
 12068      5F436C6F 
 12068      636B5F47 
 12068      65745353 
 12068      5030436C 
 12069              	.LASF616:
 12070 378b 4C50435F 		.ascii	"LPC_TIMER16_0 ((LPC_TIMER_T *) LPC_TIMER16_0_BASE)\000"
 12070      54494D45 
 12070      5231365F 
 12070      30202828 
 12070      4C50435F 
 12071              	.LASF319:
 12072 37be 5F5F4743 		.ascii	"__GCC_HAVE_DWARF2_CFI_ASM 1\000"
 12072      435F4841 
 12072      56455F44 
 12072      57415246 
 12072      325F4346 
 12073              	.LASF356:
 12074 37da 5F5F5F69 		.ascii	"___int8_t_defined 1\000"
 12074      6E74385F 
 12074      745F6465 
 12074      66696E65 
 12074      64203100 
 12075              	.LASF190:
 12076 37ee 5F5F5346 		.ascii	"__SFRACT_MIN__ (-0.5HR-0.5HR)\000"
 12076      52414354 
 12076      5F4D494E 
 12076      5F5F2028 
 12076      2D302E35 
 12077              	.LASF1029:
 12078 380c 6C6F6E67 		.ascii	"long unsigned int\000"
 12078      20756E73 
 12078      69676E65 
 12078      6420696E 
 12078      7400
 12079              	.LASF291:
 12080 381e 5F5F5341 		.ascii	"__SA_IBIT__ 16\000"
 12080      5F494249 
 12080      545F5F20 
 12080      313600
 12081              	.LASF61:
 12082 382d 5F5F5549 		.ascii	"__UINT_FAST16_TYPE__ unsigned int\000"
ARM GAS  /tmp/ccFRKuha.s 			page 276


 12082      4E545F46 
 12082      41535431 
 12082      365F5459 
 12082      50455F5F 
 12083              	.LASF369:
 12084 384f 7369676E 		.ascii	"signed\000"
 12084      656400
 12085              	.LASF2:
 12086 3856 5F5F474E 		.ascii	"__GNUC__ 4\000"
 12086      55435F5F 
 12086      203400
 12087              	.LASF865:
 12088 3861 5353505F 		.ascii	"SSP_SR_BITMASK ((uint32_t) (0x1F))\000"
 12088      53525F42 
 12088      49544D41 
 12088      534B2028 
 12088      2875696E 
 12089              	.LASF710:
 12090 3884 54494D45 		.ascii	"TIMER_MATCH_INT(n) (_BIT((n) & 0x0F))\000"
 12090      525F4D41 
 12090      5443485F 
 12090      494E5428 
 12090      6E292028 
 12091              	.LASF45:
 12092 38aa 5F5F5549 		.ascii	"__UINT16_TYPE__ short unsigned int\000"
 12092      4E543136 
 12092      5F545950 
 12092      455F5F20 
 12092      73686F72 
 12093              	.LASF65:
 12094 38cd 5F5F5549 		.ascii	"__UINTPTR_TYPE__ unsigned int\000"
 12094      4E545054 
 12094      525F5459 
 12094      50455F5F 
 12094      20756E73 
 12095              	.LASF334:
 12096 38eb 5F5F534F 		.ascii	"__SOFTFP__ 1\000"
 12096      46544650 
 12096      5F5F2031 
 12096      00
 12097              	.LASF396:
 12098 38f8 5F5F696E 		.ascii	"__int32_t_defined 1\000"
 12098      7433325F 
 12098      745F6465 
 12098      66696E65 
 12098      64203100 
 12099              	.LASF448:
 12100 390c 53495A45 		.ascii	"SIZE_MAX (__SIZE_MAX__)\000"
 12100      5F4D4158 
 12100      20285F5F 
 12100      53495A45 
 12100      5F4D4158 
 12101              	.LASF169:
 12102 3924 5F5F4445 		.ascii	"__DEC32_MAX_EXP__ 97\000"
 12102      4333325F 
 12102      4D41585F 
 12102      4558505F 
ARM GAS  /tmp/ccFRKuha.s 			page 277


 12102      5F203937 
 12103              	.LASF577:
 12104 3939 53797354 		.ascii	"SysTick_CALIB_TENMS_Pos 0\000"
 12104      69636B5F 
 12104      43414C49 
 12104      425F5445 
 12104      4E4D535F 
 12105              	.LASF833:
 12106 3953 55415254 		.ascii	"UART_SYNCCTRL_CSRC_MASTER (1 << 1)\000"
 12106      5F53594E 
 12106      43435452 
 12106      4C5F4353 
 12106      52435F4D 
 12107              	.LASF1232:
 12108 3976 5353505F 		.ascii	"SSP_Write1BFifo\000"
 12108      57726974 
 12108      65314246 
 12108      69666F00 
 12109              	.LASF648:
 12110 3986 53595343 		.ascii	"SYSCTL_SLPWAKE_FLASH_PD (1 << 2)\000"
 12110      544C5F53 
 12110      4C505741 
 12110      4B455F46 
 12110      4C415348 
 12111              	.LASF378:
 12112 39a7 696E7420 		.ascii	"int +2\000"
 12112      2B3200
 12113              	.LASF741:
 12114 39ae 55415254 		.ascii	"UART_IIR_ABEO_INT (1 << 8)\000"
 12114      5F494952 
 12114      5F414245 
 12114      4F5F494E 
 12114      54202831 
 12115              	.LASF1151:
 12116 39c9 5353505F 		.ascii	"SSP_STATUS_T\000"
 12116      53544154 
 12116      55535F54 
 12116      00
 12117              	.LASF457:
 12118 39d6 494E5438 		.ascii	"INT8_C(x) __INT8_C(x)\000"
 12118      5F432878 
 12118      29205F5F 
 12118      494E5438 
 12118      5F432878 
 12119              	.LASF60:
 12120 39ec 5F5F5549 		.ascii	"__UINT_FAST8_TYPE__ unsigned int\000"
 12120      4E545F46 
 12120      41535438 
 12120      5F545950 
 12120      455F5F20 
 12121              	.LASF259:
 12122 3a0d 5F5F4C4C 		.ascii	"__LLACCUM_IBIT__ 32\000"
 12122      41434355 
 12122      4D5F4942 
 12122      49545F5F 
 12122      20333200 
 12123              	.LASF546:
ARM GAS  /tmp/ccFRKuha.s 			page 278


 12124 3a21 5343425F 		.ascii	"SCB_AIRCR_SYSRESETREQ_Msk (1UL << SCB_AIRCR_SYSRESE"
 12124      41495243 
 12124      525F5359 
 12124      53524553 
 12124      45545245 
 12125 3a54 54524551 		.ascii	"TREQ_Pos)\000"
 12125      5F506F73 
 12125      2900
 12126              	.LASF202:
 12127 3a5e 5F5F4652 		.ascii	"__FRACT_EPSILON__ 0x1P-15R\000"
 12127      4143545F 
 12127      45505349 
 12127      4C4F4E5F 
 12127      5F203078 
 12128              	.LASF484:
 12129 3a79 45585445 		.ascii	"EXTERN extern\000"
 12129      524E2065 
 12129      78746572 
 12129      6E00
 12130              	.LASF532:
 12131 3a87 5343425F 		.ascii	"SCB_ICSR_ISRPREEMPT_Msk (1UL << SCB_ICSR_ISRPREEMPT"
 12131      49435352 
 12131      5F495352 
 12131      50524545 
 12131      4D50545F 
 12132 3aba 5F506F73 		.ascii	"_Pos)\000"
 12132      2900
 12133              	.LASF778:
 12134 3ac0 55415254 		.ascii	"UART_MCR_RTS_CTRL (1 << 1)\000"
 12134      5F4D4352 
 12134      5F525453 
 12134      5F435452 
 12134      4C202831 
 12135              	.LASF969:
 12136 3adb 4932435F 		.ascii	"I2C_LAST_BYTE_RECV 0x04\000"
 12136      4C415354 
 12136      5F425954 
 12136      455F5245 
 12136      43562030 
 12137              	.LASF342:
 12138 3af3 5F5F4758 		.ascii	"__GXX_TYPEINFO_EQUALITY_INLINE 0\000"
 12138      585F5459 
 12138      5045494E 
 12138      464F5F45 
 12138      5155414C 
 12139              	.LASF493:
 12140 3b14 5F5F4D50 		.ascii	"__MPU_PRESENT 0\000"
 12140      555F5052 
 12140      4553454E 
 12140      54203000 
 12141              	.LASF39:
 12142 3b24 5F5F5349 		.ascii	"__SIG_ATOMIC_TYPE__ int\000"
 12142      475F4154 
 12142      4F4D4943 
 12142      5F545950 
 12142      455F5F20 
 12143              	.LASF1119:
ARM GAS  /tmp/ccFRKuha.s 			page 279


 12144 3b3c 52455345 		.ascii	"RESET_ADC0\000"
 12144      545F4144 
 12144      433000
 12145              	.LASF393:
 12146 3b47 5F535953 		.ascii	"_SYS__STDINT_H \000"
 12146      5F5F5354 
 12146      44494E54 
 12146      5F482000 
 12147              	.LASF991:
 12148 3b57 43414E5F 		.ascii	"CAN_MSGOBJ_RTR 0x40000000UL\000"
 12148      4D53474F 
 12148      424A5F52 
 12148      54522030 
 12148      78343030 
 12149              	.LASF540:
 12150 3b73 5343425F 		.ascii	"SCB_AIRCR_VECTKEY_Msk (0xFFFFUL << SCB_AIRCR_VECTKE"
 12150      41495243 
 12150      525F5645 
 12150      43544B45 
 12150      595F4D73 
 12151 3ba6 595F506F 		.ascii	"Y_Pos)\000"
 12151      732900
 12152              	.LASF71:
 12153 3bad 5F5F494E 		.ascii	"__INT_MAX__ 2147483647\000"
 12153      545F4D41 
 12153      585F5F20 
 12153      32313437 
 12153      34383336 
 12154              	.LASF55:
 12155 3bc4 5F5F5549 		.ascii	"__UINT_LEAST64_TYPE__ long long unsigned int\000"
 12155      4E545F4C 
 12155      45415354 
 12155      36345F54 
 12155      5950455F 
 12156              	.LASF186:
 12157 3bf1 5F5F4445 		.ascii	"__DEC128_EPSILON__ 1E-33DL\000"
 12157      43313238 
 12157      5F455053 
 12157      494C4F4E 
 12157      5F5F2031 
 12158              	.LASF747:
 12159 3c0c 55415254 		.ascii	"UART_IIR_INTID_CTI (6 << 1)\000"
 12159      5F494952 
 12159      5F494E54 
 12159      49445F43 
 12159      54492028 
 12160              	.LASF193:
 12161 3c28 5F5F5553 		.ascii	"__USFRACT_FBIT__ 8\000"
 12161      46524143 
 12161      545F4642 
 12161      49545F5F 
 12161      203800
 12162              	.LASF88:
 12163 3c3b 5F5F494E 		.ascii	"__INT32_MAX__ 2147483647L\000"
 12163      5433325F 
 12163      4D41585F 
 12163      5F203231 
ARM GAS  /tmp/ccFRKuha.s 			page 280


 12163      34373438 
 12164              	.LASF1012:
 12165 3c55 4F445F53 		.ascii	"OD_SEG_WO 0x50\000"
 12165      45475F57 
 12165      4F203078 
 12165      353000
 12166              	.LASF1149:
 12167 3c64 5353505F 		.ascii	"SSP_STAT_RFF\000"
 12167      53544154 
 12167      5F524646 
 12167      00
 12168              	.LASF310:
 12169 3c71 5F5F4743 		.ascii	"__GCC_ATOMIC_CHAR16_T_LOCK_FREE 1\000"
 12169      435F4154 
 12169      4F4D4943 
 12169      5F434841 
 12169      5231365F 
 12170              	.LASF388:
 12171 3c93 5F5F4641 		.ascii	"__FAST64 \"ll\"\000"
 12171      53543634 
 12171      20226C6C 
 12171      2200
 12172              	.LASF9:
 12173 3ca1 5F5F4154 		.ascii	"__ATOMIC_RELEASE 3\000"
 12173      4F4D4943 
 12173      5F52454C 
 12173      45415345 
 12173      203300
 12174              	.LASF375:
 12175 3cb4 756E7369 		.ascii	"unsigned +0\000"
 12175      676E6564 
 12175      202B3000 
 12176              	.LASF125:
 12177 3cc0 5F5F464C 		.ascii	"__FLT_MANT_DIG__ 24\000"
 12177      545F4D41 
 12177      4E545F44 
 12177      49475F5F 
 12177      20323400 
 12178              	.LASF1144:
 12179 3cd4 43484950 		.ascii	"CHIP_SYSCTL_CLOCK\000"
 12179      5F535953 
 12179      43544C5F 
 12179      434C4F43 
 12179      4B00
 12180              	.LASF1039:
 12181 3ce6 4552524F 		.ascii	"ERROR\000"
 12181      5200
 12182              	.LASF58:
 12183 3cec 5F5F494E 		.ascii	"__INT_FAST32_TYPE__ int\000"
 12183      545F4641 
 12183      53543332 
 12183      5F545950 
 12183      455F5F20 
 12184              	.LASF1137:
 12185 3d04 53595343 		.ascii	"SYSCTL_CLOCK_IOCON\000"
 12185      544C5F43 
 12185      4C4F434B 
ARM GAS  /tmp/ccFRKuha.s 			page 281


 12185      5F494F43 
 12185      4F4E00
 12186              	.LASF50:
 12187 3d17 5F5F494E 		.ascii	"__INT_LEAST32_TYPE__ long int\000"
 12187      545F4C45 
 12187      41535433 
 12187      325F5459 
 12187      50455F5F 
 12188              	.LASF447:
 12189 3d35 55494E54 		.ascii	"UINTMAX_MAX (__UINTMAX_MAX__)\000"
 12189      4D41585F 
 12189      4D415820 
 12189      285F5F55 
 12189      494E544D 
 12190              	.LASF882:
 12191 3d53 4144435F 		.ascii	"ADC_CR_CH_SEL(n) ((1UL << (n)))\000"
 12191      43525F43 
 12191      485F5345 
 12191      4C286E29 
 12191      20282831 
 12192              	.LASF13:
 12193 3d73 5F5F4F50 		.ascii	"__OPTIMIZE__ 1\000"
 12193      54494D49 
 12193      5A455F5F 
 12193      203100
 12194              	.LASF767:
 12195 3d82 55415254 		.ascii	"UART_LCR_SBS_2BIT (1 << 2)\000"
 12195      5F4C4352 
 12195      5F534253 
 12195      5F324249 
 12195      54202831 
 12196              	.LASF630:
 12197 3d9d 4C50435F 		.ascii	"LPC_ROM_API (*((LPC_ROM_API_T * *) LPC_ROM_API_BASE"
 12197      524F4D5F 
 12197      41504920 
 12197      282A2828 
 12197      4C50435F 
 12198 3dd0 5F4C4F43 		.ascii	"_LOC))\000"
 12198      292900
 12199              	.LASF1011:
 12200 3dd7 4F445F53 		.ascii	"OD_SEG_RO 0x40\000"
 12200      45475F52 
 12200      4F203078 
 12200      343000
 12201              	.LASF387:
 12202 3de6 5F5F4641 		.ascii	"__FAST32 \000"
 12202      53543332 
 12202      2000
 12203              	.LASF508:
 12204 3df0 5F5F4920 		.ascii	"__I volatile const\000"
 12204      766F6C61 
 12204      74696C65 
 12204      20636F6E 
 12204      737400
 12205              	.LASF843:
 12206 3e03 57574454 		.ascii	"WWDT_WDMOD_WDTOF ((uint32_t) (1 << 2))\000"
 12206      5F57444D 
ARM GAS  /tmp/ccFRKuha.s 			page 282


 12206      4F445F57 
 12206      44544F46 
 12206      20282875 
 12207              	.LASF892:
 12208 3e2a 4144435F 		.ascii	"ADC_CR_START_ADCTRIG1 ((5UL << 24))\000"
 12208      43525F53 
 12208      54415254 
 12208      5F414443 
 12208      54524947 
 12209              	.LASF163:
 12210 3e4e 5F5F4C44 		.ascii	"__LDBL_DENORM_MIN__ 4.9406564584124654e-324L\000"
 12210      424C5F44 
 12210      454E4F52 
 12210      4D5F4D49 
 12210      4E5F5F20 
 12211              	.LASF867:
 12212 3e7b 5353505F 		.ascii	"SSP_CPHA_FIRST SSP_CR0_CPHA_FIRST\000"
 12212      43504841 
 12212      5F464952 
 12212      53542053 
 12212      53505F43 
 12213              	.LASF395:
 12214 3e9d 5F5F696E 		.ascii	"__int16_t_defined 1\000"
 12214      7431365F 
 12214      745F6465 
 12214      66696E65 
 12214      64203100 
 12215              	.LASF224:
 12216 3eb1 5F5F554C 		.ascii	"__ULLFRACT_IBIT__ 0\000"
 12216      4C465241 
 12216      43545F49 
 12216      4249545F 
 12216      5F203000 
 12217              	.LASF1122:
 12218 3ec5 53595343 		.ascii	"SYSCTL_CLOCK_ROM\000"
 12218      544C5F43 
 12218      4C4F434B 
 12218      5F524F4D 
 12218      00
 12219              	.LASF1116:
 12220 3ed6 52455345 		.ascii	"RESET_TIMER1_32\000"
 12220      545F5449 
 12220      4D455231 
 12220      5F333200 
 12221              	.LASF793:
 12222 3ee6 55415254 		.ascii	"UART1_LSR_BITMASK (0x1FF)\000"
 12222      315F4C53 
 12222      525F4249 
 12222      544D4153 
 12222      4B202830 
 12223              	.LASF759:
 12224 3f00 55415254 		.ascii	"UART_FCR_TRG_LEV3 (3 << 6)\000"
 12224      5F464352 
 12224      5F545247 
 12224      5F4C4556 
 12224      33202833 
 12225              	.LASF933:
ARM GAS  /tmp/ccFRKuha.s 			page 283


 12226 3f1b 4932435F 		.ascii	"I2C_I2STAT_M_RX_SLAR_NACK ((0x48))\000"
 12226      49325354 
 12226      41545F4D 
 12226      5F52585F 
 12226      534C4152 
 12227              	.LASF626:
 12228 3f3e 4C50435F 		.ascii	"LPC_SSP1 ((LPC_SSP_T *) LPC_SSP1_BASE)\000"
 12228      53535031 
 12228      2028284C 
 12228      50435F53 
 12228      53505F54 
 12229              	.LASF735:
 12230 3f65 55415254 		.ascii	"UART_IER_ABTOINT (1 << 9)\000"
 12230      5F494552 
 12230      5F414254 
 12230      4F494E54 
 12230      20283120 
 12231              	.LASF821:
 12232 3f7f 55415254 		.ascii	"UART_HDEN_HDEN ((1 << 0))\000"
 12232      5F484445 
 12232      4E5F4844 
 12232      454E2028 
 12232      2831203C 
 12233              	.LASF519:
 12234 3f99 5343425F 		.ascii	"SCB_CPUID_REVISION_Pos 0\000"
 12234      43505549 
 12234      445F5245 
 12234      56495349 
 12234      4F4E5F50 
 12235              	.LASF503:
 12236 3fb2 5F5F5354 		.ascii	"__STATIC_INLINE static inline\000"
 12236      41544943 
 12236      5F494E4C 
 12236      494E4520 
 12236      73746174 
 12237              	.LASF1218:
 12238 3fd0 636C6B53 		.ascii	"clkSSP\000"
 12238      535000
 12239              	.LASF599:
 12240 3fd7 4C50435F 		.ascii	"LPC_PMU_BASE 0x40038000\000"
 12240      504D555F 
 12240      42415345 
 12240      20307834 
 12240      30303338 
 12241              	.LASF959:
 12242 3fef 4932435F 		.ascii	"I2C_I2ADR_BITMASK ((0xFF))\000"
 12242      49324144 
 12242      525F4249 
 12242      544D4153 
 12242      4B202828 
 12243              	.LASF918:
 12244 400a 4932435F 		.ascii	"I2C_STAT_CODE_BITMASK ((0xF8))\000"
 12244      53544154 
 12244      5F434F44 
 12244      455F4249 
 12244      544D4153 
 12245              	.LASF974:
ARM GAS  /tmp/ccFRKuha.s 			page 284


 12246 4029 4932435F 		.ascii	"I2C_CheckError(ErrorCode) (ErrorCode & 0x10000000)\000"
 12246      43686563 
 12246      6B457272 
 12246      6F722845 
 12246      72726F72 
 12247              	.LASF1041:
 12248 405c 53746174 		.ascii	"Status\000"
 12248      757300
 12249              	.LASF662:
 12250 4063 5F5F434C 		.ascii	"__CLOCK_11XX_H_ \000"
 12250      4F434B5F 
 12250      31315858 
 12250      5F485F20 
 12250      00
 12251              	.LASF243:
 12252 4074 5F5F5541 		.ascii	"__UACCUM_FBIT__ 16\000"
 12252      4343554D 
 12252      5F464249 
 12252      545F5F20 
 12252      313600
 12253              	.LASF1018:
 12254 4087 43414E5F 		.ascii	"CAN_SDOSEG_OPEN 1\000"
 12254      53444F53 
 12254      45475F4F 
 12254      50454E20 
 12254      3100
 12255              	.LASF207:
 12256 4099 5F5F5546 		.ascii	"__UFRACT_EPSILON__ 0x1P-16UR\000"
 12256      52414354 
 12256      5F455053 
 12256      494C4F4E 
 12256      5F5F2030 
 12257              	.LASF75:
 12258 40b6 5F5F5743 		.ascii	"__WCHAR_MIN__ 0U\000"
 12258      4841525F 
 12258      4D494E5F 
 12258      5F203055 
 12258      00
 12259              	.LASF92:
 12260 40c7 5F5F5549 		.ascii	"__UINT32_MAX__ 4294967295UL\000"
 12260      4E543332 
 12260      5F4D4158 
 12260      5F5F2034 
 12260      32393439 
 12261              	.LASF279:
 12262 40e3 5F5F5551 		.ascii	"__UQQ_IBIT__ 0\000"
 12262      515F4942 
 12262      49545F5F 
 12262      203000
 12263              	.LASF315:
 12264 40f2 5F5F4743 		.ascii	"__GCC_ATOMIC_LONG_LOCK_FREE 1\000"
 12264      435F4154 
 12264      4F4D4943 
 12264      5F4C4F4E 
 12264      475F4C4F 
 12265              	.LASF255:
 12266 4110 5F5F554C 		.ascii	"__ULACCUM_MIN__ 0.0ULK\000"
ARM GAS  /tmp/ccFRKuha.s 			page 285


 12266      41434355 
 12266      4D5F4D49 
 12266      4E5F5F20 
 12266      302E3055 
 12267              	.LASF1028:
 12268 4127 5F5F7569 		.ascii	"__uint32_t\000"
 12268      6E743332 
 12268      5F7400
 12269              	.LASF160:
 12270 4132 5F5F4C44 		.ascii	"__LDBL_MAX__ 1.7976931348623157e+308L\000"
 12270      424C5F4D 
 12270      41585F5F 
 12270      20312E37 
 12270      39373639 
 12271              	.LASF124:
 12272 4158 5F5F464C 		.ascii	"__FLT_RADIX__ 2\000"
 12272      545F5241 
 12272      4449585F 
 12272      5F203200 
 12273              	.LASF851:
 12274 4168 5353505F 		.ascii	"SSP_CR0_CPOL_LO ((uint32_t) (0))\000"
 12274      4352305F 
 12274      43504F4C 
 12274      5F4C4F20 
 12274      28287569 
 12275              	.LASF1030:
 12276 4189 6C6F6E67 		.ascii	"long long int\000"
 12276      206C6F6E 
 12276      6720696E 
 12276      7400
 12277              	.LASF704:
 12278 4197 46554E43 		.ascii	"FUNC4 0x4\000"
 12278      34203078 
 12278      3400
 12279              	.LASF423:
 12280 41a1 55494E54 		.ascii	"UINT32_MAX (__UINT32_MAX__)\000"
 12280      33325F4D 
 12280      41582028 
 12280      5F5F5549 
 12280      4E543332 
 12281              	.LASF776:
 12282 41bd 55415254 		.ascii	"UART_LCR_BITMASK (0xFF)\000"
 12282      5F4C4352 
 12282      5F424954 
 12282      4D41534B 
 12282      20283078 
 12283              	.LASF76:
 12284 41d5 5F5F5749 		.ascii	"__WINT_MAX__ 4294967295U\000"
 12284      4E545F4D 
 12284      41585F5F 
 12284      20343239 
 12284      34393637 
 12285              	.LASF873:
 12286 41ee 5F5F524F 		.ascii	"__ROMAPI_11XX_H_ \000"
 12286      4D415049 
 12286      5F313158 
 12286      585F485F 
ARM GAS  /tmp/ccFRKuha.s 			page 286


 12286      2000
 12287              	.LASF965:
 12288 4200 4932435F 		.ascii	"I2C_SETUP_STATUS_DONE (1 << 10)\000"
 12288      53455455 
 12288      505F5354 
 12288      41545553 
 12288      5F444F4E 
 12289              	.LASF651:
 12290 4220 53595343 		.ascii	"SYSCTL_SLPWAKE_SYSOSC_PD (1 << 5)\000"
 12290      544C5F53 
 12290      4C505741 
 12290      4B455F53 
 12290      59534F53 
 12291              	.LASF455:
 12292 4242 57494E54 		.ascii	"WINT_MAX (__WINT_MAX__)\000"
 12292      5F4D4158 
 12292      20285F5F 
 12292      57494E54 
 12292      5F4D4158 
 12293              	.LASF980:
 12294 425a 43414E5F 		.ascii	"CAN_ERROR_WARN 0x00000002UL\000"
 12294      4552524F 
 12294      525F5741 
 12294      524E2030 
 12294      78303030 
 12295              	.LASF621:
 12296 4276 4C50435F 		.ascii	"LPC_PMU ((LPC_PMU_T *) LPC_PMU_BASE)\000"
 12296      504D5520 
 12296      28284C50 
 12296      435F504D 
 12296      555F5420 
 12297              	.LASF881:
 12298 429b 4144435F 		.ascii	"ADC_DR_OVERRUN(n) ((((n) >> 30) & (1UL)))\000"
 12298      44525F4F 
 12298      56455252 
 12298      554E286E 
 12298      29202828 
 12299              	.LASF289:
 12300 42c5 5F5F4841 		.ascii	"__HA_IBIT__ 8\000"
 12300      5F494249 
 12300      545F5F20 
 12300      3800
 12301              	.LASF306:
 12302 42d3 5F5F474E 		.ascii	"__GNUC_GNU_INLINE__ 1\000"
 12302      55435F47 
 12302      4E555F49 
 12302      4E4C494E 
 12302      455F5F20 
 12303              	.LASF915:
 12304 42e9 4932435F 		.ascii	"I2C_CON_STO (1UL << 4)\000"
 12304      434F4E5F 
 12304      53544F20 
 12304      2831554C 
 12304      203C3C20 
 12305              	.LASF586:
 12306 4300 5F424954 		.ascii	"_BIT_SHIFT(IRQn) ( (((uint32_t)(IRQn) ) & 0x03) * 8"
 12306      5F534849 
ARM GAS  /tmp/ccFRKuha.s 			page 287


 12306      46542849 
 12306      52516E29 
 12306      20282028 
 12307 4333 202900   		.ascii	" )\000"
 12308              	.LASF802:
 12309 4336 55415254 		.ascii	"UART_MSR_BITMASK (0xFF)\000"
 12309      5F4D5352 
 12309      5F424954 
 12309      4D41534B 
 12309      20283078 
 12310              	.LASF1269:
 12311 434e 43686970 		.ascii	"Chip_Clock_GetMainClockRate\000"
 12311      5F436C6F 
 12311      636B5F47 
 12311      65744D61 
 12311      696E436C 
 12312              	.LASF797:
 12313 436a 55415254 		.ascii	"UART_MSR_DELTA_DCD (1 << 3)\000"
 12313      5F4D5352 
 12313      5F44454C 
 12313      54415F44 
 12313      43442028 
 12314              	.LASF822:
 12315 4386 55415254 		.ascii	"UART_SCICTRL_SCIEN (1 << 0)\000"
 12315      5F534349 
 12315      4354524C 
 12315      5F534349 
 12315      454E2028 
 12316              	.LASF962:
 12317 43a2 4932435F 		.ascii	"I2C_I2SCLL_BITMASK ((0xFFFF))\000"
 12317      49325343 
 12317      4C4C5F42 
 12317      49544D41 
 12317      534B2028 
 12318              	.LASF1055:
 12319 43c0 53595352 		.ascii	"SYSRSTSTAT\000"
 12319      53545354 
 12319      415400
 12320              	.LASF358:
 12321 43cb 5F5F5F69 		.ascii	"___int32_t_defined 1\000"
 12321      6E743332 
 12321      5F745F64 
 12321      6566696E 
 12321      65642031 
 12322              	.LASF845:
 12323 43e0 57574454 		.ascii	"WWDT_WDMOD_WDPROTECT ((uint32_t) (1 << 4))\000"
 12323      5F57444D 
 12323      4F445F57 
 12323      4450524F 
 12323      54454354 
 12324              	.LASF925:
 12325 440b 4932435F 		.ascii	"I2C_I2STAT_M_TX_SLAW_NACK ((0x20))\000"
 12325      49325354 
 12325      41545F4D 
 12325      5F54585F 
 12325      534C4157 
 12326              	.LASF772:
ARM GAS  /tmp/ccFRKuha.s 			page 288


 12327 442e 55415254 		.ascii	"UART_LCR_PARITY_F_1 (2 << 4)\000"
 12327      5F4C4352 
 12327      5F504152 
 12327      4954595F 
 12327      465F3120 
 12328              	.LASF1197:
 12329 444b 72785F63 		.ascii	"rx_cnt\000"
 12329      6E7400
 12330              	.LASF43:
 12331 4452 5F5F494E 		.ascii	"__INT64_TYPE__ long long int\000"
 12331      5436345F 
 12331      54595045 
 12331      5F5F206C 
 12331      6F6E6720 
 12332              	.LASF1206:
 12333 446f 43686970 		.ascii	"Chip_Clock_SetSSP1ClockDiv\000"
 12333      5F436C6F 
 12333      636B5F53 
 12333      65745353 
 12333      5031436C 
 12334              	.LASF23:
 12335 448a 5F5F4348 		.ascii	"__CHAR_BIT__ 8\000"
 12335      41525F42 
 12335      49545F5F 
 12335      203800
 12336              	.LASF321:
 12337 4499 5F5F5349 		.ascii	"__SIZEOF_WCHAR_T__ 4\000"
 12337      5A454F46 
 12337      5F574348 
 12337      41525F54 
 12337      5F5F2034 
 12338              	.LASF866:
 12339 44ae 5353505F 		.ascii	"SSP_ICR_BITMASK ((uint32_t) (0x03))\000"
 12339      4943525F 
 12339      4249544D 
 12339      41534B20 
 12339      28287569 
 12340              	.LASF600:
 12341 44d2 4C50435F 		.ascii	"LPC_FLASH_BASE 0x4003C000\000"
 12341      464C4153 
 12341      485F4241 
 12341      53452030 
 12341      78343030 
 12342              	.LASF418:
 12343 44ec 494E545F 		.ascii	"INT_LEAST16_MIN (-__INT_LEAST16_MAX__ - 1)\000"
 12343      4C454153 
 12343      5431365F 
 12343      4D494E20 
 12343      282D5F5F 
 12344              	.LASF804:
 12345 4517 55415254 		.ascii	"UART_ACR_MODE (1 << 1)\000"
 12345      5F414352 
 12345      5F4D4F44 
 12345      45202831 
 12345      203C3C20 
 12346              	.LASF1160:
 12347 452e 5353505F 		.ascii	"SSP_RORIC\000"
ARM GAS  /tmp/ccFRKuha.s 			page 289


 12347      524F5249 
 12347      4300
 12348              	.LASF944:
 12349 4538 4932435F 		.ascii	"I2C_I2STAT_S_RX_STA_STO_SLVREC_SLVTRX ((0xA0))\000"
 12349      49325354 
 12349      41545F53 
 12349      5F52585F 
 12349      5354415F 
 12350              	.LASF28:
 12351 4567 5F5F4259 		.ascii	"__BYTE_ORDER__ __ORDER_LITTLE_ENDIAN__\000"
 12351      54455F4F 
 12351      52444552 
 12351      5F5F205F 
 12351      5F4F5244 
 12352              	.LASF535:
 12353 458e 5343425F 		.ascii	"SCB_ICSR_VECTPENDING_Pos 12\000"
 12353      49435352 
 12353      5F564543 
 12353      5450454E 
 12353      44494E47 
 12354              	.LASF889:
 12355 45aa 4144435F 		.ascii	"ADC_CR_START_CTOUT15 ((2UL << 24))\000"
 12355      43525F53 
 12355      54415254 
 12355      5F43544F 
 12355      55543135 
 12356              	.LASF206:
 12357 45cd 5F5F5546 		.ascii	"__UFRACT_MAX__ 0XFFFFP-16UR\000"
 12357      52414354 
 12357      5F4D4158 
 12357      5F5F2030 
 12357      58464646 
 12358              	.LASF1240:
 12359 45e9 43686970 		.ascii	"Chip_SSP_ReadFrames_Blocking\000"
 12359      5F535350 
 12359      5F526561 
 12359      64467261 
 12359      6D65735F 
 12360              	.LASF955:
 12361 4606 4932435F 		.ascii	"I2C_I2MMCTRL_MATCH_ALL ((1 << 2))\000"
 12361      49324D4D 
 12361      4354524C 
 12361      5F4D4154 
 12361      43485F41 
 12362              	.LASF718:
 12363 4628 54494D45 		.ascii	"TIMER_CAP_FALLING(n) (_BIT((((n) * 3) + 1)))\000"
 12363      525F4341 
 12363      505F4641 
 12363      4C4C494E 
 12363      47286E29 
 12364              	.LASF296:
 12365 4655 5F5F5548 		.ascii	"__UHA_FBIT__ 8\000"
 12365      415F4642 
 12365      49545F5F 
 12365      203800
 12366              	.LASF1220:
 12367 4664 43686970 		.ascii	"Chip_SSP_SetFormat\000"
ARM GAS  /tmp/ccFRKuha.s 			page 290


 12367      5F535350 
 12367      5F536574 
 12367      466F726D 
 12367      617400
 12368              	.LASF1017:
 12369 4677 43414E5F 		.ascii	"CAN_SDOSEG_SEGMENT 0\000"
 12369      53444F53 
 12369      45475F53 
 12369      45474D45 
 12369      4E542030 
 12370              	.LASF441:
 12371 468c 55494E54 		.ascii	"UINT_FAST32_MAX (__UINT_FAST32_MAX__)\000"
 12371      5F464153 
 12371      5433325F 
 12371      4D415820 
 12371      285F5F55 
 12372              	.LASF366:
 12373 46b2 5F5F5354 		.ascii	"__STDINT_EXP(x) __ ##x ##__\000"
 12373      44494E54 
 12373      5F455850 
 12373      28782920 
 12373      5F5F2023 
 12374              	.LASF355:
 12375 46ce 5F5F4558 		.ascii	"__EXP(x) __ ##x ##__\000"
 12375      50287829 
 12375      205F5F20 
 12375      23237820 
 12375      23235F5F 
 12376              	.LASF12:
 12377 46e3 5F5F4F50 		.ascii	"__OPTIMIZE_SIZE__ 1\000"
 12377      54494D49 
 12377      5A455F53 
 12377      495A455F 
 12377      5F203100 
 12378              	.LASF609:
 12379 46f7 4C50435F 		.ascii	"LPC_GPIO_PORT2_BASE 0x50020000\000"
 12379      4750494F 
 12379      5F504F52 
 12379      54325F42 
 12379      41534520 
 12380              	.LASF236:
 12381 4716 5F5F5553 		.ascii	"__USACCUM_MAX__ 0XFFFFP-8UHK\000"
 12381      41434355 
 12381      4D5F4D41 
 12381      585F5F20 
 12381      30584646 
 12382              	.LASF794:
 12383 4733 55415254 		.ascii	"UART_MSR_DELTA_CTS (1 << 0)\000"
 12383      5F4D5352 
 12383      5F44454C 
 12383      54415F43 
 12383      54532028 
 12384              	.LASF698:
 12385 474f 4D445F46 		.ascii	"MD_FASTI2C (0x2 << 8)\000"
 12385      41535449 
 12385      32432028 
 12385      30783220 
ARM GAS  /tmp/ccFRKuha.s 			page 291


 12385      3C3C2038 
 12386              	.LASF717:
 12387 4765 54494D45 		.ascii	"TIMER_CAP_RISING(n) (_BIT(((n) * 3)))\000"
 12387      525F4341 
 12387      505F5249 
 12387      53494E47 
 12387      286E2920 
 12388              	.LASF1201:
 12389 478b 43686970 		.ascii	"Chip_SSP_ReceiveFrame\000"
 12389      5F535350 
 12389      5F526563 
 12389      65697665 
 12389      4672616D 
 12390              	.LASF987:
 12391 47a1 43414E5F 		.ascii	"CAN_ERROR_CRC 0x00000100UL\000"
 12391      4552524F 
 12391      525F4352 
 12391      43203078 
 12391      30303030 
 12392              	.LASF1227:
 12393 47bc 5353505F 		.ascii	"SSP_Read2BFifo\000"
 12393      52656164 
 12393      32424669 
 12393      666F00
 12394              	.LASF789:
 12395 47cb 55415254 		.ascii	"UART_LSR_TEMT (1 << 6)\000"
 12395      5F4C5352 
 12395      5F54454D 
 12395      54202831 
 12395      203C3C20 
 12396              	.LASF657:
 12397 47e2 53595343 		.ascii	"SYSCTL_POWERDOWN_BOD_PD (1 << 3)\000"
 12397      544C5F50 
 12397      4F574552 
 12397      444F574E 
 12397      5F424F44 
 12398              	.LASF482:
 12399 4803 4E454C45 		.ascii	"NELEMENTS(array) (sizeof(array) / sizeof(array[0]))"
 12399      4D454E54 
 12399      53286172 
 12399      72617929 
 12399      20287369 
 12400 4836 00       		.ascii	"\000"
 12401              	.LASF34:
 12402 4837 5F5F5749 		.ascii	"__WINT_TYPE__ unsigned int\000"
 12402      4E545F54 
 12402      5950455F 
 12402      5F20756E 
 12402      7369676E 
 12403              	.LASF770:
 12404 4852 55415254 		.ascii	"UART_LCR_PARITY_ODD (0 << 4)\000"
 12404      5F4C4352 
 12404      5F504152 
 12404      4954595F 
 12404      4F444420 
 12405              	.LASF284:
 12406 486f 5F5F5544 		.ascii	"__UDQ_FBIT__ 64\000"
ARM GAS  /tmp/ccFRKuha.s 			page 292


 12406      515F4642 
 12406      49545F5F 
 12406      20363400 
 12407              	.LASF502:
 12408 487f 5F5F494E 		.ascii	"__INLINE inline\000"
 12408      4C494E45 
 12408      20696E6C 
 12408      696E6500 
 12409              	.LASF403:
 12410 488f 5F5F696E 		.ascii	"__int_fast16_t_defined 1\000"
 12410      745F6661 
 12410      73743136 
 12410      5F745F64 
 12410      6566696E 
 12411              	.LASF731:
 12412 48a8 55415254 		.ascii	"UART_IER_RLSINT (1 << 2)\000"
 12412      5F494552 
 12412      5F524C53 
 12412      494E5420 
 12412      2831203C 
 12413              	.LASF158:
 12414 48c1 5F5F4C44 		.ascii	"__LDBL_MAX_10_EXP__ 308\000"
 12414      424C5F4D 
 12414      41585F31 
 12414      305F4558 
 12414      505F5F20 
 12415              	.LASF908:
 12416 48d9 4932435F 		.ascii	"I2C_I2CONCLR_AAC ((1 << 2))\000"
 12416      4932434F 
 12416      4E434C52 
 12416      5F414143 
 12416      20282831 
 12417              	.LASF585:
 12418 48f5 4E564943 		.ascii	"NVIC ((NVIC_Type *) NVIC_BASE )\000"
 12418      2028284E 
 12418      5649435F 
 12418      54797065 
 12418      202A2920 
 12419              	.LASF428:
 12420 4915 494E5436 		.ascii	"INT64_MAX (__INT64_MAX__)\000"
 12420      345F4D41 
 12420      5820285F 
 12420      5F494E54 
 12420      36345F4D 
 12421              	.LASF1120:
 12422 492f 43484950 		.ascii	"CHIP_SYSCTL_PERIPH_RESET_T\000"
 12422      5F535953 
 12422      43544C5F 
 12422      50455249 
 12422      50485F52 
 12423              	.LASF660:
 12424 494a 53595343 		.ascii	"SYSCTL_POWERDOWN_WDTOSC_PD (1 << 6)\000"
 12424      544C5F50 
 12424      4F574552 
 12424      444F574E 
 12424      5F574454 
 12425              	.LASF165:
ARM GAS  /tmp/ccFRKuha.s 			page 293


 12426 496e 5F5F4C44 		.ascii	"__LDBL_HAS_INFINITY__ 1\000"
 12426      424C5F48 
 12426      41535F49 
 12426      4E46494E 
 12426      4954595F 
 12427              	.LASF529:
 12428 4986 5343425F 		.ascii	"SCB_ICSR_PENDSTCLR_Pos 25\000"
 12428      49435352 
 12428      5F50454E 
 12428      44535443 
 12428      4C525F50 
 12429              	.LASF1032:
 12430 49a0 756E7369 		.ascii	"unsigned int\000"
 12430      676E6564 
 12430      20696E74 
 12430      00
 12431              	.LASF1245:
 12432 49ad 43686970 		.ascii	"Chip_SSP_Int_RWFrames8Bits\000"
 12432      5F535350 
 12432      5F496E74 
 12432      5F525746 
 12432      72616D65 
 12433              	.LASF201:
 12434 49c8 5F5F4652 		.ascii	"__FRACT_MAX__ 0X7FFFP-15R\000"
 12434      4143545F 
 12434      4D41585F 
 12434      5F203058 
 12434      37464646 
 12435              	.LASF1058:
 12436 49e2 53595350 		.ascii	"SYSPLLCLKUEN\000"
 12436      4C4C434C 
 12436      4B55454E 
 12436      00
 12437              	.LASF127:
 12438 49ef 5F5F464C 		.ascii	"__FLT_MIN_EXP__ (-125)\000"
 12438      545F4D49 
 12438      4E5F4558 
 12438      505F5F20 
 12438      282D3132 
 12439              	.LASF123:
 12440 4a06 5F5F4445 		.ascii	"__DEC_EVAL_METHOD__ 2\000"
 12440      435F4556 
 12440      414C5F4D 
 12440      4554484F 
 12440      445F5F20 
 12441              	.LASF462:
 12442 4a1c 55494E54 		.ascii	"UINT32_C(x) __UINT32_C(x)\000"
 12442      33325F43 
 12442      28782920 
 12442      5F5F5549 
 12442      4E543332 
 12443              	.LASF514:
 12444 4a36 5343425F 		.ascii	"SCB_CPUID_VARIANT_Msk (0xFUL << SCB_CPUID_VARIANT_P"
 12444      43505549 
 12444      445F5641 
 12444      5249414E 
 12444      545F4D73 
ARM GAS  /tmp/ccFRKuha.s 			page 294


 12445 4a69 6F732900 		.ascii	"os)\000"
 12446              	.LASF654:
 12447 4a6d 53595343 		.ascii	"SYSCTL_POWERDOWN_IRCOUT_PD (1 << 0)\000"
 12447      544C5F50 
 12447      4F574552 
 12447      444F574E 
 12447      5F495243 
 12448              	.LASF693:
 12449 4a91 4D445F44 		.ascii	"MD_DIGMODE (0x1 << 7)\000"
 12449      49474D4F 
 12449      44452028 
 12449      30783120 
 12449      3C3C2037 
 12450              	.LASF234:
 12451 4aa7 5F5F5553 		.ascii	"__USACCUM_IBIT__ 8\000"
 12451      41434355 
 12451      4D5F4942 
 12451      49545F5F 
 12451      203800
 12452              	.LASF1013:
 12453 4aba 4F445F53 		.ascii	"OD_SEG_RW 0x60\000"
 12453      45475F52 
 12453      57203078 
 12453      363000
 12454              	.LASF433:
 12455 4ac9 494E545F 		.ascii	"INT_FAST8_MIN (-__INT_FAST8_MAX__ - 1)\000"
 12455      46415354 
 12455      385F4D49 
 12455      4E20282D 
 12455      5F5F494E 
 12456              	.LASF119:
 12457 4af0 5F5F5549 		.ascii	"__UINTPTR_MAX__ 4294967295U\000"
 12457      4E545054 
 12457      525F4D41 
 12457      585F5F20 
 12457      34323934 
 12458              	.LASF696:
 12459 4b0c 4D445F53 		.ascii	"MD_SFI2C (0x0 << 8)\000"
 12459      46493243 
 12459      20283078 
 12459      30203C3C 
 12459      20382900 
 12460              	.LASF126:
 12461 4b20 5F5F464C 		.ascii	"__FLT_DIG__ 6\000"
 12461      545F4449 
 12461      475F5F20 
 12461      3600
 12462              	.LASF36:
 12463 4b2e 5F5F5549 		.ascii	"__UINTMAX_TYPE__ long long unsigned int\000"
 12463      4E544D41 
 12463      585F5459 
 12463      50455F5F 
 12463      206C6F6E 
 12464              	.LASF813:
 12465 4b56 55415254 		.ascii	"UART_RS485CTRL_DCTRL_EN (1 << 4)\000"
 12465      5F525334 
 12465      38354354 
ARM GAS  /tmp/ccFRKuha.s 			page 295


 12465      524C5F44 
 12465      4354524C 
 12466              	.LASF1167:
 12467 4b77 5353505F 		.ascii	"SSP_CLOCK_CPHA1_CPOL0\000"
 12467      434C4F43 
 12467      4B5F4350 
 12467      4841315F 
 12467      43504F4C 
 12468              	.LASF1168:
 12469 4b8d 5353505F 		.ascii	"SSP_CLOCK_CPHA1_CPOL1\000"
 12469      434C4F43 
 12469      4B5F4350 
 12469      4841315F 
 12469      43504F4C 
 12470              	.LASF122:
 12471 4ba3 5F5F464C 		.ascii	"__FLT_EVAL_METHOD__ 0\000"
 12471      545F4556 
 12471      414C5F4D 
 12471      4554484F 
 12471      445F5F20 
 12472              	.LASF836:
 12473 4bb9 55415254 		.ascii	"UART_SYNCCTRL_CSCEN (1 << 4)\000"
 12473      5F53594E 
 12473      43435452 
 12473      4C5F4353 
 12473      43454E20 
 12474              	.LASF783:
 12475 4bd6 55415254 		.ascii	"UART_LSR_RDR (1 << 0)\000"
 12475      5F4C5352 
 12475      5F524452 
 12475      20283120 
 12475      3C3C2030 
 12476              	.LASF750:
 12477 4bec 55415254 		.ascii	"UART_FCR_FIFO_EN (1 << 0)\000"
 12477      5F464352 
 12477      5F464946 
 12477      4F5F454E 
 12477      20283120 
 12478              	.LASF806:
 12479 4c06 55415254 		.ascii	"UART_ACR_ABEOINT_CLR (1 << 8)\000"
 12479      5F414352 
 12479      5F414245 
 12479      4F494E54 
 12479      5F434C52 
 12480              	.LASF382:
 12481 4c24 5F5F494E 		.ascii	"__INT16 \"h\"\000"
 12481      54313620 
 12481      22682200 
 12482              	.LASF118:
 12483 4c30 5F5F494E 		.ascii	"__INTPTR_MAX__ 2147483647\000"
 12483      54505452 
 12483      5F4D4158 
 12483      5F5F2032 
 12483      31343734 
 12484              	.LASF879:
 12485 4c4a 4144435F 		.ascii	"ADC_CR_BITACC(n) ((((n) & 0x7) << 17))\000"
 12485      43525F42 
ARM GAS  /tmp/ccFRKuha.s 			page 296


 12485      49544143 
 12485      43286E29 
 12485      20282828 
 12486              	.LASF1117:
 12487 4c71 52455345 		.ascii	"RESET_ACMP\000"
 12487      545F4143 
 12487      4D5000
 12488              	.LASF278:
 12489 4c7c 5F5F5551 		.ascii	"__UQQ_FBIT__ 8\000"
 12489      515F4642 
 12489      49545F5F 
 12489      203800
 12490              	.LASF572:
 12491 4c8b 53797354 		.ascii	"SysTick_VAL_CURRENT_Msk (0xFFFFFFUL << SysTick_VAL_"
 12491      69636B5F 
 12491      56414C5F 
 12491      43555252 
 12491      454E545F 
 12492 4cbe 43555252 		.ascii	"CURRENT_Pos)\000"
 12492      454E545F 
 12492      506F7329 
 12492      00
 12493              	.LASF1261:
 12494 4ccb 43686970 		.ascii	"Chip_SYSCTL_DeassertPeriphReset\000"
 12494      5F535953 
 12494      43544C5F 
 12494      44656173 
 12494      73657274 
 12495              	.LASF1064:
 12496 4ceb 53595341 		.ascii	"SYSAHBCLKDIV\000"
 12496      4842434C 
 12496      4B444956 
 12496      00
 12497              	.LASF922:
 12498 4cf8 4932435F 		.ascii	"I2C_I2STAT_M_TX_START ((0x08))\000"
 12498      49325354 
 12498      41545F4D 
 12498      5F54585F 
 12498      53544152 
 12499              	.LASF730:
 12500 4d17 55415254 		.ascii	"UART_IER_THREINT (1 << 1)\000"
 12500      5F494552 
 12500      5F544852 
 12500      45494E54 
 12500      20283120 
 12501              	.LASF376:
 12502 4d31 63686172 		.ascii	"char +0\000"
 12502      202B3000 
 12503              	.LASF211:
 12504 4d39 5F5F4C46 		.ascii	"__LFRACT_MAX__ 0X7FFFFFFFP-31LR\000"
 12504      52414354 
 12504      5F4D4158 
 12504      5F5F2030 
 12504      58374646 
 12505              	.LASF323:
 12506 4d59 5F5F5349 		.ascii	"__SIZEOF_PTRDIFF_T__ 4\000"
 12506      5A454F46 
ARM GAS  /tmp/ccFRKuha.s 			page 297


 12506      5F505452 
 12506      44494646 
 12506      5F545F5F 
 12507              	.LASF1221:
 12508 4d70 62697473 		.ascii	"bits\000"
 12508      00
 12509              	.LASF0:
 12510 4d75 5F5F5354 		.ascii	"__STDC__ 1\000"
 12510      44435F5F 
 12510      203100
 12511              	.LASF1102:
 12512 4d80 5044534C 		.ascii	"PDSLEEPCFG\000"
 12512      45455043 
 12512      464700
 12513              	.LASF360:
 12514 4d8b 5F5F5F69 		.ascii	"___int_least8_t_defined 1\000"
 12514      6E745F6C 
 12514      65617374 
 12514      385F745F 
 12514      64656669 
 12515              	.LASF29:
 12516 4da5 5F5F464C 		.ascii	"__FLOAT_WORD_ORDER__ __ORDER_LITTLE_ENDIAN__\000"
 12516      4F41545F 
 12516      574F5244 
 12516      5F4F5244 
 12516      45525F5F 
 12517              	.LASF1248:
 12518 4dd2 6D617374 		.ascii	"master\000"
 12518      657200
 12519              	.LASF446:
 12520 4dd9 494E544D 		.ascii	"INTMAX_MIN (-INTMAX_MAX - 1)\000"
 12520      41585F4D 
 12520      494E2028 
 12520      2D494E54 
 12520      4D41585F 
 12521              	.LASF44:
 12522 4df6 5F5F5549 		.ascii	"__UINT8_TYPE__ unsigned char\000"
 12522      4E54385F 
 12522      54595045 
 12522      5F5F2075 
 12522      6E736967 
 12523              	.LASF913:
 12524 4e13 4932435F 		.ascii	"I2C_CON_AA (1UL << 2)\000"
 12524      434F4E5F 
 12524      41412028 
 12524      31554C20 
 12524      3C3C2032 
 12525              	.LASF847:
 12526 4e29 5353505F 		.ascii	"SSP_CR0_DSS(n) ((uint32_t) ((n) & 0xF))\000"
 12526      4352305F 
 12526      44535328 
 12526      6E292028 
 12526      2875696E 
 12527              	.LASF402:
 12528 4e51 5F5F696E 		.ascii	"__int_fast8_t_defined 1\000"
 12528      745F6661 
 12528      7374385F 
ARM GAS  /tmp/ccFRKuha.s 			page 298


 12528      745F6465 
 12528      66696E65 
 12529              	.LASF880:
 12530 4e69 4144435F 		.ascii	"ADC_DR_DONE(n) (((n) >> 31))\000"
 12530      44525F44 
 12530      4F4E4528 
 12530      6E292028 
 12530      28286E29 
 12531              	.LASF5:
 12532 4e86 5F5F5645 		.ascii	"__VERSION__ \"4.9.3 20150529 (release) [ARM/embedde"
 12532      5253494F 
 12532      4E5F5F20 
 12532      22342E39 
 12532      2E332032 
 12533 4eb8 642D345F 		.ascii	"d-4_9-branch revision 227977]\"\000"
 12533      392D6272 
 12533      616E6368 
 12533      20726576 
 12533      6973696F 
 12534              	.LASF703:
 12535 4ed7 46554E43 		.ascii	"FUNC3 0x3\000"
 12535      33203078 
 12535      3300
 12536              	.LASF1242:
 12537 4ee1 72646174 		.ascii	"rdata8\000"
 12537      613800
 12538              	.LASF661:
 12539 4ee8 53595343 		.ascii	"SYSCTL_POWERDOWN_SYSPLL_PD (1 << 7)\000"
 12539      544C5F50 
 12539      4F574552 
 12539      444F574E 
 12539      5F535953 
 12540              	.LASF1095:
 12541 4f0c 53544152 		.ascii	"STARTAPRP0\000"
 12541      54415052 
 12541      503000
 12542              	.LASF181:
 12543 4f17 5F5F4445 		.ascii	"__DEC128_MANT_DIG__ 34\000"
 12543      43313238 
 12543      5F4D414E 
 12543      545F4449 
 12543      475F5F20 
 12544              	.LASF84:
 12545 4f2e 5F5F5349 		.ascii	"__SIG_ATOMIC_MAX__ 2147483647\000"
 12545      475F4154 
 12545      4F4D4943 
 12545      5F4D4158 
 12545      5F5F2032 
 12546              	.LASF917:
 12547 4f4c 4932435F 		.ascii	"I2C_CON_I2EN (1UL << 6)\000"
 12547      434F4E5F 
 12547      4932454E 
 12547      20283155 
 12547      4C203C3C 
 12548              	.LASF470:
 12549 4f64 74727565 		.ascii	"true 1\000"
 12549      203100
ARM GAS  /tmp/ccFRKuha.s 			page 299


 12550              	.LASF669:
 12551 4f6b 494F434F 		.ascii	"IOCON_FUNC4 0x4\000"
 12551      4E5F4655 
 12551      4E433420 
 12551      30783400 
 12552              	.LASF298:
 12553 4f7b 5F5F5553 		.ascii	"__USA_FBIT__ 16\000"
 12553      415F4642 
 12553      49545F5F 
 12553      20313600 
 12554              	.LASF1203:
 12555 4f8b 53746174 		.ascii	"Stat\000"
 12555      00
 12556              	.LASF580:
 12557 4f90 53797354 		.ascii	"SysTick_BASE (SCS_BASE + 0x0010UL)\000"
 12557      69636B5F 
 12557      42415345 
 12557      20285343 
 12557      535F4241 
 12558              	.LASF769:
 12559 4fb3 55415254 		.ascii	"UART_LCR_PARITY_DIS (0 << 3)\000"
 12559      5F4C4352 
 12559      5F504152 
 12559      4954595F 
 12559      44495320 
 12560              	.LASF655:
 12561 4fd0 53595343 		.ascii	"SYSCTL_POWERDOWN_IRC_PD (1 << 1)\000"
 12561      544C5F50 
 12561      4F574552 
 12561      444F574E 
 12561      5F495243 
 12562              	.LASF814:
 12563 4ff1 55415254 		.ascii	"UART_RS485CTRL_OINV_1 (1 << 5)\000"
 12563      5F525334 
 12563      38354354 
 12563      524C5F4F 
 12563      494E565F 
 12564              	.LASF309:
 12565 5010 5F5F4743 		.ascii	"__GCC_ATOMIC_CHAR_LOCK_FREE 1\000"
 12565      435F4154 
 12565      4F4D4943 
 12565      5F434841 
 12565      525F4C4F 
 12566              	.LASF1060:
 12567 502e 55534250 		.ascii	"USBPLLCLKUEN\000"
 12567      4C4C434C 
 12567      4B55454E 
 12567      00
 12568              	.LASF631:
 12569 503b 5F5F504D 		.ascii	"__PMU_11XX_H_ \000"
 12569      555F3131 
 12569      58585F48 
 12569      5F2000
 12570              	.LASF212:
 12571 504a 5F5F4C46 		.ascii	"__LFRACT_EPSILON__ 0x1P-31LR\000"
 12571      52414354 
 12571      5F455053 
ARM GAS  /tmp/ccFRKuha.s 			page 300


 12571      494C4F4E 
 12571      5F5F2030 
 12572              	.LASF557:
 12573 5067 5343425F 		.ascii	"SCB_CCR_UNALIGN_TRP_Pos 3\000"
 12573      4343525F 
 12573      554E414C 
 12573      49474E5F 
 12573      5452505F 
 12574              	.LASF1153:
 12575 5081 5353505F 		.ascii	"SSP_RORRIS\000"
 12575      524F5252 
 12575      495300
 12576              	.LASF94:
 12577 508c 5F5F494E 		.ascii	"__INT_LEAST8_MAX__ 127\000"
 12577      545F4C45 
 12577      41535438 
 12577      5F4D4158 
 12577      5F5F2031 
 12578              	.LASF560:
 12579 50a3 5343425F 		.ascii	"SCB_SHCSR_SVCALLPENDED_Msk (1UL << SCB_SHCSR_SVCALL"
 12579      53484353 
 12579      525F5356 
 12579      43414C4C 
 12579      50454E44 
 12580 50d6 50454E44 		.ascii	"PENDED_Pos)\000"
 12580      45445F50 
 12580      6F732900 
 12581              	.LASF327:
 12582 50e2 5F5F6172 		.ascii	"__arm__ 1\000"
 12582      6D5F5F20 
 12582      3100
 12583              	.LASF674:
 12584 50ec 494F434F 		.ascii	"IOCON_MODE_PULLDOWN (0x1 << 3)\000"
 12584      4E5F4D4F 
 12584      44455F50 
 12584      554C4C44 
 12584      4F574E20 
 12585              	.LASF850:
 12586 510b 5353505F 		.ascii	"SSP_CR0_FRF_MICROWIRE ((uint32_t) (2 << 4))\000"
 12586      4352305F 
 12586      4652465F 
 12586      4D494352 
 12586      4F574952 
 12587              	.LASF601:
 12588 5137 4C50435F 		.ascii	"LPC_SSP0_BASE 0x40040000\000"
 12588      53535030 
 12588      5F424153 
 12588      45203078 
 12588      34303034 
 12589              	.LASF724:
 12590 5150 55415254 		.ascii	"UART_RBR_MASKBIT (0xFF)\000"
 12590      5F524252 
 12590      5F4D4153 
 12590      4B424954 
 12590      20283078 
 12591              	.LASF946:
 12592 5168 4932435F 		.ascii	"I2C_I2STAT_S_TX_ARB_LOST_M_SLA ((0xB0))\000"
ARM GAS  /tmp/ccFRKuha.s 			page 301


 12592      49325354 
 12592      41545F53 
 12592      5F54585F 
 12592      4152425F 
 12593              	.LASF939:
 12594 5190 4932435F 		.ascii	"I2C_I2STAT_S_RX_ARB_LOST_M_GENCALL ((0x78))\000"
 12594      49325354 
 12594      41545F53 
 12594      5F52585F 
 12594      4152425F 
 12595              	.LASF491:
 12596 51bc 5F5F434D 		.ascii	"__CMSIS_H_ \000"
 12596      5349535F 
 12596      485F2000 
 12597              	.LASF1204:
 12598 51c8 43686970 		.ascii	"Chip_SSP_SendFrame\000"
 12598      5F535350 
 12598      5F53656E 
 12598      64467261 
 12598      6D6500
 12599              	.LASF1010:
 12600 51db 4F445F45 		.ascii	"OD_EXP_RW 0x30\000"
 12600      58505F52 
 12600      57203078 
 12600      333000
 12601              	.LASF415:
 12602 51ea 494E5431 		.ascii	"INT16_MIN (-__INT16_MAX__ - 1)\000"
 12602      365F4D49 
 12602      4E20282D 
 12602      5F5F494E 
 12602      5431365F 
 12603              	.LASF628:
 12604 5209 4C50435F 		.ascii	"LPC_USB ((LPC_USB_T *) LPC_USB0_BASE)\000"
 12604      55534220 
 12604      28284C50 
 12604      435F5553 
 12604      425F5420 
 12605              	.LASF608:
 12606 522f 4C50435F 		.ascii	"LPC_GPIO_PORT1_BASE 0x50010000\000"
 12606      4750494F 
 12606      5F504F52 
 12606      54315F42 
 12606      41534520 
 12607              	.LASF606:
 12608 524e 4C50435F 		.ascii	"LPC_SSP1_BASE 0x40058000\000"
 12608      53535031 
 12608      5F424153 
 12608      45203078 
 12608      34303035 
 12609              	.LASF919:
 12610 5267 4932435F 		.ascii	"I2C_STAT_CODE_ERROR ((0xFF))\000"
 12610      53544154 
 12610      5F434F44 
 12610      455F4552 
 12610      524F5220 
 12611              	.LASF827:
 12612 5284 55415254 		.ascii	"UART_FDR_DIVADDVAL(n) (n & 0x0F)\000"
ARM GAS  /tmp/ccFRKuha.s 			page 302


 12612      5F464452 
 12612      5F444956 
 12612      41444456 
 12612      414C286E 
 12613              	.LASF1212:
 12614 52a5 43686970 		.ascii	"Chip_SSP_GetRawIntStatus\000"
 12614      5F535350 
 12614      5F476574 
 12614      52617749 
 12614      6E745374 
 12615              	.LASF167:
 12616 52be 5F5F4445 		.ascii	"__DEC32_MANT_DIG__ 7\000"
 12616      4333325F 
 12616      4D414E54 
 12616      5F444947 
 12616      5F5F2037 
 12617              	.LASF442:
 12618 52d3 494E545F 		.ascii	"INT_FAST64_MIN (-__INT_FAST64_MAX__ - 1)\000"
 12618      46415354 
 12618      36345F4D 
 12618      494E2028 
 12618      2D5F5F49 
 12619              	.LASF1266:
 12620 52fc 2E2E2F2E 		.ascii	"../../lpc11cx4-library/lpc_chip_11cxx_lib/src/ssp_1"
 12620      2E2F6C70 
 12620      63313163 
 12620      78342D6C 
 12620      69627261 
 12621 532f 3178782E 		.ascii	"1xx.c\000"
 12621      6300
 12622              	.LASF349:
 12623 5335 5F4D4143 		.ascii	"_MACHINE__DEFAULT_TYPES_H \000"
 12623      48494E45 
 12623      5F5F4445 
 12623      4641554C 
 12623      545F5459 
 12624              	.LASF24:
 12625 5350 5F5F4249 		.ascii	"__BIGGEST_ALIGNMENT__ 8\000"
 12625      47474553 
 12625      545F414C 
 12625      49474E4D 
 12625      454E545F 
 12626              	.LASF948:
 12627 5368 4932435F 		.ascii	"I2C_I2STAT_S_TX_DAT_NACK ((0xC0))\000"
 12627      49325354 
 12627      41545F53 
 12627      5F54585F 
 12627      4441545F 
 12628              	.LASF235:
 12629 538a 5F5F5553 		.ascii	"__USACCUM_MIN__ 0.0UHK\000"
 12629      41434355 
 12629      4D5F4D49 
 12629      4E5F5F20 
 12629      302E3055 
 12630              	.LASF549:
 12631 53a1 5343425F 		.ascii	"SCB_SCR_SEVONPEND_Pos 4\000"
 12631      5343525F 
ARM GAS  /tmp/ccFRKuha.s 			page 303


 12631      5345564F 
 12631      4E50454E 
 12631      445F506F 
 12632              	.LASF677:
 12633 53b9 494F434F 		.ascii	"IOCON_HYS_EN (0x1 << 5)\000"
 12633      4E5F4859 
 12633      535F454E 
 12633      20283078 
 12633      31203C3C 
 12634              	.LASF1208:
 12635 53d1 43686970 		.ascii	"Chip_Clock_GetSSP1ClockDiv\000"
 12635      5F436C6F 
 12635      636B5F47 
 12635      65745353 
 12635      5031436C 
 12636              	.LASF874:
 12637 53ec 5F5F4C50 		.ascii	"__LPC_ERROR_H__ \000"
 12637      435F4552 
 12637      524F525F 
 12637      485F5F20 
 12637      00
 12638              	.LASF392:
 12639 53fd 5F5F4C45 		.ascii	"__LEAST64 \"ll\"\000"
 12639      41535436 
 12639      3420226C 
 12639      6C2200
 12640              	.LASF1063:
 12641 540c 4D41494E 		.ascii	"MAINCLKUEN\000"
 12641      434C4B55 
 12641      454E00
 12642              	.LASF975:
 12643 5417 4932435F 		.ascii	"I2C_MONITOR_CFG_SCL_OUTPUT I2C_I2MMCTRL_ENA_SCL\000"
 12643      4D4F4E49 
 12643      544F525F 
 12643      4346475F 
 12643      53434C5F 
 12644              	.LASF927:
 12645 5447 4932435F 		.ascii	"I2C_I2STAT_M_TX_DAT_NACK ((0x30))\000"
 12645      49325354 
 12645      41545F4D 
 12645      5F54585F 
 12645      4441545F 
 12646              	.LASF857:
 12647 5469 5353505F 		.ascii	"SSP_CR1_LBM_EN ((uint32_t) (1 << 0))\000"
 12647      4352315F 
 12647      4C424D5F 
 12647      454E2028 
 12647      2875696E 
 12648              	.LASF531:
 12649 548e 5343425F 		.ascii	"SCB_ICSR_ISRPREEMPT_Pos 23\000"
 12649      49435352 
 12649      5F495352 
 12649      50524545 
 12649      4D50545F 
 12650              	.LASF1238:
 12651 54a9 77646174 		.ascii	"wdata16\000"
 12651      61313600 
ARM GAS  /tmp/ccFRKuha.s 			page 304


 12652              	.LASF521:
 12653 54b1 5343425F 		.ascii	"SCB_ICSR_NMIPENDSET_Pos 31\000"
 12653      49435352 
 12653      5F4E4D49 
 12653      50454E44 
 12653      5345545F 
 12654              	.LASF1005:
 12655 54cc 53444F5F 		.ascii	"SDO_ABORT_LOCAL 0x08000021UL\000"
 12655      41424F52 
 12655      545F4C4F 
 12655      43414C20 
 12655      30783038 
 12656              	.LASF721:
 12657 54e9 5F5F5249 		.ascii	"__RING_BUFFER_H_ \000"
 12657      4E475F42 
 12657      55464645 
 12657      525F485F 
 12657      2000
 12658              	.LASF331:
 12659 54fb 5F5F4152 		.ascii	"__ARM_ARCH_ISA_THUMB 1\000"
 12659      4D5F4152 
 12659      43485F49 
 12659      53415F54 
 12659      48554D42 
 12660              	.LASF108:
 12661 5512 5F5F5549 		.ascii	"__UINT_LEAST64_MAX__ 18446744073709551615ULL\000"
 12661      4E545F4C 
 12661      45415354 
 12661      36345F4D 
 12661      41585F5F 
 12662              	.LASF497:
 12663 553f 5F5F434D 		.ascii	"__CM0_CMSIS_VERSION_MAIN (0x03)\000"
 12663      305F434D 
 12663      5349535F 
 12663      56455253 
 12663      494F4E5F 
 12664              	.LASF110:
 12665 555f 5F5F494E 		.ascii	"__INT_FAST8_MAX__ 2147483647\000"
 12665      545F4641 
 12665      5354385F 
 12665      4D41585F 
 12665      5F203231 
 12666              	.LASF373:
 12667 557c 6C6F6E67 		.ascii	"long\000"
 12667      00
 12668              	.LASF1051:
 12669 5581 5359534F 		.ascii	"SYSOSCCTRL\000"
 12669      53434354 
 12669      524C00
 12670              	.LASF372:
 12671 558c 73686F72 		.ascii	"short\000"
 12671      7400
 12672              	.LASF1199:
 12673 5592 43686970 		.ascii	"Chip_SSP_DATA_SETUP_T\000"
 12673      5F535350 
 12673      5F444154 
 12673      415F5345 
ARM GAS  /tmp/ccFRKuha.s 			page 305


 12673      5455505F 
 12674              	.LASF914:
 12675 55a8 4932435F 		.ascii	"I2C_CON_SI (1UL << 3)\000"
 12675      434F4E5F 
 12675      53492028 
 12675      31554C20 
 12675      3C3C2033 
 12676              	.LASF204:
 12677 55be 5F5F5546 		.ascii	"__UFRACT_IBIT__ 0\000"
 12677      52414354 
 12677      5F494249 
 12677      545F5F20 
 12677      3000
 12678              	.LASF910:
 12679 55d0 4932435F 		.ascii	"I2C_I2CONCLR_STOC ((1 << 4))\000"
 12679      4932434F 
 12679      4E434C52 
 12679      5F53544F 
 12679      43202828 
 12680              	.LASF579:
 12681 55ed 5343535F 		.ascii	"SCS_BASE (0xE000E000UL)\000"
 12681      42415345 
 12681      20283078 
 12681      45303030 
 12681      45303030 
 12682              	.LASF95:
 12683 5605 5F5F494E 		.ascii	"__INT8_C(c) c\000"
 12683      54385F43 
 12683      28632920 
 12683      6300
 12684              	.LASF209:
 12685 5613 5F5F4C46 		.ascii	"__LFRACT_IBIT__ 0\000"
 12685      52414354 
 12685      5F494249 
 12685      545F5F20 
 12685      3000
 12686              	.LASF894:
 12687 5625 4144435F 		.ascii	"ADC_CR_EDGE ((1UL << 27))\000"
 12687      43525F45 
 12687      44474520 
 12687      28283155 
 12687      4C203C3C 
 12688              	.LASF495:
 12689 563f 5F5F5665 		.ascii	"__Vendor_SysTickConfig 0\000"
 12689      6E646F72 
 12689      5F537973 
 12689      5469636B 
 12689      436F6E66 
 12690              	.LASF725:
 12691 5658 55415254 		.ascii	"UART_LOAD_DLL(div) ((div) & 0xFF)\000"
 12691      5F4C4F41 
 12691      445F444C 
 12691      4C286469 
 12691      76292028 
 12692              	.LASF520:
 12693 567a 5343425F 		.ascii	"SCB_CPUID_REVISION_Msk (0xFUL << SCB_CPUID_REVISION"
 12693      43505549 
ARM GAS  /tmp/ccFRKuha.s 			page 306


 12693      445F5245 
 12693      56495349 
 12693      4F4E5F4D 
 12694 56ad 5F506F73 		.ascii	"_Pos)\000"
 12694      2900
 12695              	.LASF318:
 12696 56b3 5F5F4743 		.ascii	"__GCC_ATOMIC_POINTER_LOCK_FREE 1\000"
 12696      435F4154 
 12696      4F4D4943 
 12696      5F504F49 
 12696      4E544552 
 12697              	.LASF141:
 12698 56d4 5F5F4442 		.ascii	"__DBL_MIN_EXP__ (-1021)\000"
 12698      4C5F4D49 
 12698      4E5F4558 
 12698      505F5F20 
 12698      282D3130 
 12699              	.LASF699:
 12700 56ec 4D445F4F 		.ascii	"MD_OPENDRAIN (0x1 << 10)\000"
 12700      50454E44 
 12700      5241494E 
 12700      20283078 
 12700      31203C3C 
 12701              	.LASF481:
 12702 5705 4E554C4C 		.ascii	"NULL ((void *) 0)\000"
 12702      20282876 
 12702      6F696420 
 12702      2A292030 
 12702      2900
 12703              	.LASF966:
 12704 5717 4932435F 		.ascii	"I2C_OK 0x00\000"
 12704      4F4B2030 
 12704      78303000 
 12705              	.LASF174:
 12706 5723 5F5F4445 		.ascii	"__DEC64_MANT_DIG__ 16\000"
 12706      4336345F 
 12706      4D414E54 
 12706      5F444947 
 12706      5F5F2031 
 12707              	.LASF1150:
 12708 5739 5353505F 		.ascii	"SSP_STAT_BSY\000"
 12708      53544154 
 12708      5F425359 
 12708      00
 12709              	.LASF978:
 12710 5746 43414E5F 		.ascii	"CAN_ERROR_NONE 0x00000000UL\000"
 12710      4552524F 
 12710      525F4E4F 
 12710      4E452030 
 12710      78303030 
 12711              	.LASF1124:
 12712 5762 53595343 		.ascii	"SYSCTL_CLOCK_FLASHREG\000"
 12712      544C5F43 
 12712      4C4F434B 
 12712      5F464C41 
 12712      53485245 
 12713              	.LASF377:
ARM GAS  /tmp/ccFRKuha.s 			page 307


 12714 5778 73686F72 		.ascii	"short +1\000"
 12714      74202B31 
 12714      00
 12715              	.LASF799:
 12716 5781 55415254 		.ascii	"UART_MSR_DSR (1 << 5)\000"
 12716      5F4D5352 
 12716      5F445352 
 12716      20283120 
 12716      3C3C2035 
 12717              	.LASF177:
 12718 5797 5F5F4445 		.ascii	"__DEC64_MIN__ 1E-383DD\000"
 12718      4336345F 
 12718      4D494E5F 
 12718      5F203145 
 12718      2D333833 
 12719              	.LASF701:
 12720 57ae 46554E43 		.ascii	"FUNC1 0x1\000"
 12720      31203078 
 12720      3100
 12721              	.LASF466:
 12722 57b8 55494E54 		.ascii	"UINTMAX_C(x) __UINTMAX_C(x)\000"
 12722      4D41585F 
 12722      43287829 
 12722      205F5F55 
 12722      494E544D 
 12723              	.LASF1268:
 12724 57d4 4F736352 		.ascii	"OscRateIn\000"
 12724      61746549 
 12724      6E00
 12725              	.LASF364:
 12726 57de 5F5F4558 		.ascii	"__EXP\000"
 12726      5000
 12727              	.LASF679:
 12728 57e4 494F434F 		.ascii	"IOCON_ADMODE_EN (0x0 << 7)\000"
 12728      4E5F4144 
 12728      4D4F4445 
 12728      5F454E20 
 12728      28307830 
 12729              	.LASF359:
 12730 57ff 5F5F5F69 		.ascii	"___int64_t_defined 1\000"
 12730      6E743634 
 12730      5F745F64 
 12730      6566696E 
 12730      65642031 
 12731              	.LASF164:
 12732 5814 5F5F4C44 		.ascii	"__LDBL_HAS_DENORM__ 1\000"
 12732      424C5F48 
 12732      41535F44 
 12732      454E4F52 
 12732      4D5F5F20 
 12733              	.LASF228:
 12734 582a 5F5F5341 		.ascii	"__SACCUM_FBIT__ 7\000"
 12734      4343554D 
 12734      5F464249 
 12734      545F5F20 
 12734      3700
 12735              	.LASF1158:
ARM GAS  /tmp/ccFRKuha.s 			page 308


 12736 583c 5353505F 		.ascii	"SSP_RAWINTSTATUS_T\000"
 12736      52415749 
 12736      4E545354 
 12736      41545553 
 12736      5F5400
 12737              	.LASF727:
 12738 584f 55415254 		.ascii	"UART_LOAD_DLM(div) (((div) >> 8) & 0xFF)\000"
 12738      5F4C4F41 
 12738      445F444C 
 12738      4D286469 
 12738      76292028 
 12739              	.LASF729:
 12740 5878 55415254 		.ascii	"UART_IER_RBRINT (1 << 0)\000"
 12740      5F494552 
 12740      5F524252 
 12740      494E5420 
 12740      2831203C 
 12741              	.LASF109:
 12742 5891 5F5F5549 		.ascii	"__UINT64_C(c) c ## ULL\000"
 12742      4E543634 
 12742      5F432863 
 12742      29206320 
 12742      23232055 
 12743              	.LASF578:
 12744 58a8 53797354 		.ascii	"SysTick_CALIB_TENMS_Msk (0xFFFFFFUL << SysTick_VAL_"
 12744      69636B5F 
 12744      43414C49 
 12744      425F5445 
 12744      4E4D535F 
 12745 58db 43555252 		.ascii	"CURRENT_Pos)\000"
 12745      454E545F 
 12745      506F7329 
 12745      00
 12746              	.LASF605:
 12747 58e8 4C50435F 		.ascii	"LPC_CAN0_BASE 0x40050000\000"
 12747      43414E30 
 12747      5F424153 
 12747      45203078 
 12747      34303035 
 12748              	.LASF1134:
 12749 5901 53595343 		.ascii	"SYSCTL_CLOCK_ADC\000"
 12749      544C5F43 
 12749      4C4F434B 
 12749      5F414443 
 12749      00
 12750              	.LASF695:
 12751 5912 4D445F45 		.ascii	"MD_ENFIL (0x1 << 8)\000"
 12751      4E46494C 
 12751      20283078 
 12751      31203C3C 
 12751      20382900 
 12752              	.LASF1000:
 12753 5926 53444F5F 		.ascii	"SDO_ABORT_ACCINCOMP 0x06040047UL\000"
 12753      41424F52 
 12753      545F4143 
 12753      43494E43 
 12753      4F4D5020 
ARM GAS  /tmp/ccFRKuha.s 			page 309


 12754              	.LASF825:
 12755 5947 55415254 		.ascii	"UART_SCICTRL_TXRETRY(n) ((n & 0x07) << 5)\000"
 12755      5F534349 
 12755      4354524C 
 12755      5F545852 
 12755      45545259 
 12756              	.LASF199:
 12757 5971 5F5F4652 		.ascii	"__FRACT_IBIT__ 0\000"
 12757      4143545F 
 12757      49424954 
 12757      5F5F2030 
 12757      00
 12758              	.LASF91:
 12759 5982 5F5F5549 		.ascii	"__UINT16_MAX__ 65535\000"
 12759      4E543136 
 12759      5F4D4158 
 12759      5F5F2036 
 12759      35353335 
 12760              	.LASF709:
 12761 5997 54494D45 		.ascii	"TIMER_IR_CLR(n) _BIT(n)\000"
 12761      525F4952 
 12761      5F434C52 
 12761      286E2920 
 12761      5F424954 
 12762              	.LASF996:
 12763 59af 53444F5F 		.ascii	"SDO_ABORT_WRITEONLY 0x06010001UL\000"
 12763      41424F52 
 12763      545F5752 
 12763      4954454F 
 12763      4E4C5920 
 12764              	.LASF842:
 12765 59d0 57574454 		.ascii	"WWDT_WDMOD_WDRESET ((uint32_t) (1 << 1))\000"
 12765      5F57444D 
 12765      4F445F57 
 12765      44524553 
 12765      45542028 
 12766              	.LASF25:
 12767 59f9 5F5F4F52 		.ascii	"__ORDER_LITTLE_ENDIAN__ 1234\000"
 12767      4445525F 
 12767      4C495454 
 12767      4C455F45 
 12767      4E444941 
 12768              	.LASF960:
 12769 5a16 4932435F 		.ascii	"I2C_I2MASK_MASK(n) ((n & 0xFE))\000"
 12769      49324D41 
 12769      534B5F4D 
 12769      41534B28 
 12769      6E292028 
 12770              	.LASF1031:
 12771 5a36 6C6F6E67 		.ascii	"long long unsigned int\000"
 12771      206C6F6E 
 12771      6720756E 
 12771      7369676E 
 12771      65642069 
 12772              	.LASF432:
 12773 5a4d 55494E54 		.ascii	"UINT_LEAST64_MAX (__UINT_LEAST64_MAX__)\000"
 12773      5F4C4541 
ARM GAS  /tmp/ccFRKuha.s 			page 310


 12773      53543634 
 12773      5F4D4158 
 12773      20285F5F 
 12774              	.LASF254:
 12775 5a75 5F5F554C 		.ascii	"__ULACCUM_IBIT__ 32\000"
 12775      41434355 
 12775      4D5F4942 
 12775      49545F5F 
 12775      20333200 
 12776              	.LASF435:
 12777 5a89 55494E54 		.ascii	"UINT_FAST8_MAX (__UINT_FAST8_MAX__)\000"
 12777      5F464153 
 12777      54385F4D 
 12777      41582028 
 12777      5F5F5549 
 12778              	.LASF1135:
 12779 5aad 53595343 		.ascii	"SYSCTL_CLOCK_RESERVED14\000"
 12779      544C5F43 
 12779      4C4F434B 
 12779      5F524553 
 12779      45525645 
 12780              	.LASF1254:
 12781 5ac5 6372305F 		.ascii	"cr0_div\000"
 12781      64697600 
 12782              	.LASF329:
 12783 5acd 5F5F4150 		.ascii	"__APCS_32__ 1\000"
 12783      43535F33 
 12783      325F5F20 
 12783      3100
 12784              	.LASF1256:
 12785 5adb 43686970 		.ascii	"Chip_Clock_EnablePeriphClock\000"
 12785      5F436C6F 
 12785      636B5F45 
 12785      6E61626C 
 12785      65506572 
 12786              	.LASF878:
 12787 5af8 4144435F 		.ascii	"ADC_DR_RESULT(n) ((((n) >> 6) & 0x3FF))\000"
 12787      44525F52 
 12787      4553554C 
 12787      54286E29 
 12787      20282828 
 12788              	.LASF1198:
 12789 5b20 6C656E67 		.ascii	"length\000"
 12789      746800
 12790              	.LASF1034:
 12791 5b27 75696E74 		.ascii	"uint16_t\000"
 12791      31365F74 
 12791      00
 12792              	.LASF274:
 12793 5b30 5F5F4451 		.ascii	"__DQ_FBIT__ 63\000"
 12793      5F464249 
 12793      545F5F20 
 12793      363300
 12794              	.LASF1133:
 12795 5b3f 53595343 		.ascii	"SYSCTL_CLOCK_UART0\000"
 12795      544C5F43 
 12795      4C4F434B 
ARM GAS  /tmp/ccFRKuha.s 			page 311


 12795      5F554152 
 12795      543000
 12796              	.LASF1126:
 12797 5b52 53595343 		.ascii	"SYSCTL_CLOCK_I2C\000"
 12797      544C5F43 
 12797      4C4F434B 
 12797      5F493243 
 12797      00
 12798              	.LASF62:
 12799 5b63 5F5F5549 		.ascii	"__UINT_FAST32_TYPE__ unsigned int\000"
 12799      4E545F46 
 12799      41535433 
 12799      325F5459 
 12799      50455F5F 
 12800              	.LASF57:
 12801 5b85 5F5F494E 		.ascii	"__INT_FAST16_TYPE__ int\000"
 12801      545F4641 
 12801      53543136 
 12801      5F545950 
 12801      455F5F20 
 12802              	.LASF650:
 12803 5b9d 53595343 		.ascii	"SYSCTL_SLPWAKE_ADC_PD (1 << 4)\000"
 12803      544C5F53 
 12803      4C505741 
 12803      4B455F41 
 12803      44435F50 
 12804              	.LASF639:
 12805 5bbc 53595343 		.ascii	"SYSCTL_RST_EXTRST (1 << 1)\000"
 12805      544C5F52 
 12805      53545F45 
 12805      58545253 
 12805      54202831 
 12806              	.LASF1016:
 12807 5bd7 43414E5F 		.ascii	"CAN_SDOREQ_HANDLED_NOSEND 2\000"
 12807      53444F52 
 12807      45515F48 
 12807      414E444C 
 12807      45445F4E 
 12808              	.LASF230:
 12809 5bf3 5F5F5341 		.ascii	"__SACCUM_MIN__ (-0X1P7HK-0X1P7HK)\000"
 12809      4343554D 
 12809      5F4D494E 
 12809      5F5F2028 
 12809      2D305831 
 12810              	.LASF216:
 12811 5c15 5F5F554C 		.ascii	"__ULFRACT_MAX__ 0XFFFFFFFFP-32ULR\000"
 12811      46524143 
 12811      545F4D41 
 12811      585F5F20 
 12811      30584646 
 12812              	.LASF571:
 12813 5c37 53797354 		.ascii	"SysTick_VAL_CURRENT_Pos 0\000"
 12813      69636B5F 
 12813      56414C5F 
 12813      43555252 
 12813      454E545F 
 12814              	.LASF53:
ARM GAS  /tmp/ccFRKuha.s 			page 312


 12815 5c51 5F5F5549 		.ascii	"__UINT_LEAST16_TYPE__ short unsigned int\000"
 12815      4E545F4C 
 12815      45415354 
 12815      31365F54 
 12815      5950455F 
 12816              	.LASF895:
 12817 5c7a 4144435F 		.ascii	"ADC_SAMPLE_RATE_CONFIG_MASK (ADC_CR_CLKDIV(0xFF) | "
 12817      53414D50 
 12817      4C455F52 
 12817      4154455F 
 12817      434F4E46 
 12818 5cad 4144435F 		.ascii	"ADC_CR_BITACC(0x07))\000"
 12818      43525F42 
 12818      49544143 
 12818      43283078 
 12818      30372929 
 12819              	.LASF1085:
 12820 5cc2 52455345 		.ascii	"RESERVED10\000"
 12820      52564544 
 12820      313000
 12821              	.LASF1088:
 12822 5ccd 52455345 		.ascii	"RESERVED11\000"
 12822      52564544 
 12822      313100
 12823              	.LASF1094:
 12824 5cd8 52455345 		.ascii	"RESERVED12\000"
 12824      52564544 
 12824      313200
 12825              	.LASF1099:
 12826 5ce3 52455345 		.ascii	"RESERVED13\000"
 12826      52564544 
 12826      313300
 12827              	.LASF1101:
 12828 5cee 52455345 		.ascii	"RESERVED14\000"
 12828      52564544 
 12828      313400
 12829              	.LASF1105:
 12830 5cf9 52455345 		.ascii	"RESERVED15\000"
 12830      52564544 
 12830      313500
 12831              	.LASF1247:
 12832 5d04 43686970 		.ascii	"Chip_SSP_SetMaster\000"
 12832      5F535350 
 12832      5F536574 
 12832      4D617374 
 12832      657200
 12833              	.LASF1148:
 12834 5d17 5353505F 		.ascii	"SSP_STAT_RNE\000"
 12834      53544154 
 12834      5F524E45 
 12834      00
 12835              	.LASF104:
 12836 5d24 5F5F5549 		.ascii	"__UINT_LEAST16_MAX__ 65535\000"
 12836      4E545F4C 
 12836      45415354 
 12836      31365F4D 
 12836      41585F5F 
ARM GAS  /tmp/ccFRKuha.s 			page 313


 12837              	.LASF286:
 12838 5d3f 5F5F5554 		.ascii	"__UTQ_FBIT__ 128\000"
 12838      515F4642 
 12838      49545F5F 
 12838      20313238 
 12838      00
 12839              	.LASF575:
 12840 5d50 53797354 		.ascii	"SysTick_CALIB_SKEW_Pos 30\000"
 12840      69636B5F 
 12840      43414C49 
 12840      425F534B 
 12840      45575F50 
 12841              	.LASF716:
 12842 5d6a 54494D45 		.ascii	"TIMER_STOP_ON_MATCH(n) (_BIT((((n) * 3) + 2)))\000"
 12842      525F5354 
 12842      4F505F4F 
 12842      4E5F4D41 
 12842      54434828 
 12843              	.LASF970:
 12844 5d99 4932435F 		.ascii	"I2C_SEND_END 0x08\000"
 12844      53454E44 
 12844      5F454E44 
 12844      20307830 
 12844      3800
 12845              	.LASF963:
 12846 5dab 4932435F 		.ascii	"I2C_SETUP_STATUS_ARBF (1 << 8)\000"
 12846      53455455 
 12846      505F5354 
 12846      41545553 
 12846      5F415242 
 12847              	.LASF262:
 12848 5dca 5F5F4C4C 		.ascii	"__LLACCUM_EPSILON__ 0x1P-31LLK\000"
 12848      41434355 
 12848      4D5F4550 
 12848      53494C4F 
 12848      4E5F5F20 
 12849              	.LASF14:
 12850 5de9 5F5F4649 		.ascii	"__FINITE_MATH_ONLY__ 0\000"
 12850      4E495445 
 12850      5F4D4154 
 12850      485F4F4E 
 12850      4C595F5F 
 12851              	.LASF736:
 12852 5e00 55415254 		.ascii	"UART_IER_BITMASK (0x307)\000"
 12852      5F494552 
 12852      5F424954 
 12852      4D41534B 
 12852      20283078 
 12853              	.LASF367:
 12854 5e19 5F5F6861 		.ascii	"__have_longlong64 1\000"
 12854      76655F6C 
 12854      6F6E676C 
 12854      6F6E6736 
 12854      34203100 
 12855              	.LASF511:
 12856 5e2d 5343425F 		.ascii	"SCB_CPUID_IMPLEMENTER_Pos 24\000"
 12856      43505549 
ARM GAS  /tmp/ccFRKuha.s 			page 314


 12856      445F494D 
 12856      504C454D 
 12856      454E5445 
 12857              	.LASF1174:
 12858 5e4a 5353505F 		.ascii	"SSP_FRAMEFORMAT_SPI\000"
 12858      4652414D 
 12858      45464F52 
 12858      4D41545F 
 12858      53504900 
 12859              	.LASF1066:
 12860 5e5e 53595341 		.ascii	"SYSAHBCLKCTRL\000"
 12860      4842434C 
 12860      4B435452 
 12860      4C00
 12861              	.LASF489:
 12862 5e6c 5F5F5359 		.ascii	"__SYS_CONFIG_H_ \000"
 12862      535F434F 
 12862      4E464947 
 12862      5F485F20 
 12862      00
 12863              	.LASF622:
 12864 5e7d 4C50435F 		.ascii	"LPC_FMC ((LPC_FMC_T *) LPC_FLASH_BASE)\000"
 12864      464D4320 
 12864      28284C50 
 12864      435F464D 
 12864      435F5420 
 12865              	.LASF1053:
 12866 5ea4 49524343 		.ascii	"IRCCTRL\000"
 12866      54524C00 
 12867              	.LASF832:
 12868 5eac 55415254 		.ascii	"UART_SYNCCTRL_SYNC (1 << 0)\000"
 12868      5F53594E 
 12868      43435452 
 12868      4C5F5359 
 12868      4E432028 
 12869              	.LASF328:
 12870 5ec8 5F5F4152 		.ascii	"__ARM_ARCH 6\000"
 12870      4D5F4152 
 12870      43482036 
 12870      00
 12871              	.LASF381:
 12872 5ed5 5F5F494E 		.ascii	"__INT8 \"hh\"\000"
 12872      54382022 
 12872      68682200 
 12873              	.LASF967:
 12874 5ee1 4932435F 		.ascii	"I2C_BYTE_SENT 0x01\000"
 12874      42595445 
 12874      5F53454E 
 12874      54203078 
 12874      303100
 12875              	.LASF256:
 12876 5ef4 5F5F554C 		.ascii	"__ULACCUM_MAX__ 0XFFFFFFFFFFFFFFFFP-32ULK\000"
 12876      41434355 
 12876      4D5F4D41 
 12876      585F5F20 
 12876      30584646 
 12877              	.LASF1040:
ARM GAS  /tmp/ccFRKuha.s 			page 315


 12878 5f1e 53554343 		.ascii	"SUCCESS\000"
 12878      45535300 
 12879              	.LASF604:
 12880 5f26 4C50435F 		.ascii	"LPC_USB0_BASE 0x40080000\000"
 12880      55534230 
 12880      5F424153 
 12880      45203078 
 12880      34303038 
 12881              	.LASF215:
 12882 5f3f 5F5F554C 		.ascii	"__ULFRACT_MIN__ 0.0ULR\000"
 12882      46524143 
 12882      545F4D49 
 12882      4E5F5F20 
 12882      302E3055 
 12883              	.LASF1103:
 12884 5f56 50445741 		.ascii	"PDWAKECFG\000"
 12884      4B454346 
 12884      4700
 12885              	.LASF275:
 12886 5f60 5F5F4451 		.ascii	"__DQ_IBIT__ 0\000"
 12886      5F494249 
 12886      545F5F20 
 12886      3000
 12887              	.LASF1093:
 12888 5f6e 55534243 		.ascii	"USBCLKST\000"
 12888      4C4B5354 
 12888      00
 12889              	.LASF1045:
 12890 5f77 50524553 		.ascii	"PRESETCTRL\000"
 12890      45544354 
 12890      524C00
 12891              	.LASF653:
 12892 5f82 53595343 		.ascii	"SYSCTL_SLPWAKE_SYSPLL_PD (1 << 7)\000"
 12892      544C5F53 
 12892      4C505741 
 12892      4B455F53 
 12892      5953504C 
 12893              	.LASF680:
 12894 5fa4 494F434F 		.ascii	"IOCON_DIGMODE_EN (0x1 << 7)\000"
 12894      4E5F4449 
 12894      474D4F44 
 12894      455F454E 
 12894      20283078 
 12895              	.LASF513:
 12896 5fc0 5343425F 		.ascii	"SCB_CPUID_VARIANT_Pos 20\000"
 12896      43505549 
 12896      445F5641 
 12896      5249414E 
 12896      545F506F 
 12897              	.LASF645:
 12898 5fd9 53595343 		.ascii	"SYSCTL_DEEPSLP_WDTOSC_PD (1 << 6)\000"
 12898      544C5F44 
 12898      45455053 
 12898      4C505F57 
 12898      44544F53 
 12899              	.LASF745:
 12900 5ffb 55415254 		.ascii	"UART_IIR_INTID_RLS (3 << 1)\000"
ARM GAS  /tmp/ccFRKuha.s 			page 316


 12900      5F494952 
 12900      5F494E54 
 12900      49445F52 
 12900      4C532028 
 12901              	.LASF100:
 12902 6017 5F5F494E 		.ascii	"__INT_LEAST64_MAX__ 9223372036854775807LL\000"
 12902      545F4C45 
 12902      41535436 
 12902      345F4D41 
 12902      585F5F20 
 12903              	.LASF739:
 12904 6041 55415254 		.ascii	"UART_IIR_INTSTAT_PEND (1 << 0)\000"
 12904      5F494952 
 12904      5F494E54 
 12904      53544154 
 12904      5F50454E 
 12905              	.LASF587:
 12906 6060 5F534850 		.ascii	"_SHP_IDX(IRQn) ( ((((uint32_t)(IRQn) & 0x0F)-8) >> "
 12906      5F494458 
 12906      28495251 
 12906      6E292028 
 12906      20282828 
 12907 6093 32292029 		.ascii	"2) )\000"
 12907      00
 12908              	.LASF614:
 12909 6098 4C50435F 		.ascii	"LPC_WWDT ((LPC_WWDT_T *) LPC_WWDT_BASE)\000"
 12909      57574454 
 12909      2028284C 
 12909      50435F57 
 12909      5744545F 
 12910              	.LASF566:
 12911 60c0 53797354 		.ascii	"SysTick_CTRL_TICKINT_Msk (1UL << SysTick_CTRL_TICKI"
 12911      69636B5F 
 12911      4354524C 
 12911      5F544943 
 12911      4B494E54 
 12912 60f3 4E545F50 		.ascii	"NT_Pos)\000"
 12912      6F732900 
 12913              	.LASF800:
 12914 60fb 55415254 		.ascii	"UART_MSR_RI (1 << 6)\000"
 12914      5F4D5352 
 12914      5F524920 
 12914      2831203C 
 12914      3C203629 
 12915              	.LASF336:
 12916 6110 5F5F4152 		.ascii	"__ARM_FP 12\000"
 12916      4D5F4650 
 12916      20313200 
 12917              	.LASF79:
 12918 611c 5F5F5349 		.ascii	"__SIZE_MAX__ 4294967295U\000"
 12918      5A455F4D 
 12918      41585F5F 
 12918      20343239 
 12918      34393637 
 12919              	.LASF1036:
 12920 6135 52455345 		.ascii	"RESET\000"
 12920      5400
ARM GAS  /tmp/ccFRKuha.s 			page 317


 12921              	.LASF287:
 12922 613b 5F5F5554 		.ascii	"__UTQ_IBIT__ 0\000"
 12922      515F4942 
 12922      49545F5F 
 12922      203000
 12923              	.LASF290:
 12924 614a 5F5F5341 		.ascii	"__SA_FBIT__ 15\000"
 12924      5F464249 
 12924      545F5F20 
 12924      313500
 12925              	.LASF222:
 12926 6159 5F5F4C4C 		.ascii	"__LLFRACT_EPSILON__ 0x1P-63LLR\000"
 12926      46524143 
 12926      545F4550 
 12926      53494C4F 
 12926      4E5F5F20 
 12927              	.LASF828:
 12928 6178 55415254 		.ascii	"UART_FDR_MULVAL(n) ((n << 4) & 0xF0)\000"
 12928      5F464452 
 12928      5F4D554C 
 12928      56414C28 
 12928      6E292028 
 12929              	.LASF1195:
 12930 619d 74785F63 		.ascii	"tx_cnt\000"
 12930      6E7400
 12931              	.LASF702:
 12932 61a4 46554E43 		.ascii	"FUNC2 0x2\000"
 12932      32203078 
 12932      3200
 12933              	.LASF1076:
 12934 61ae 57445443 		.ascii	"WDTCLKSEL\000"
 12934      4C4B5345 
 12934      4C00
 12935              	.LASF607:
 12936 61b8 4C50435F 		.ascii	"LPC_GPIO_PORT0_BASE 0x50000000\000"
 12936      4750494F 
 12936      5F504F52 
 12936      54305F42 
 12936      41534520 
 12937              	.LASF805:
 12938 61d7 55415254 		.ascii	"UART_ACR_AUTO_RESTART (1 << 2)\000"
 12938      5F414352 
 12938      5F415554 
 12938      4F5F5245 
 12938      53544152 
 12939              	.LASF343:
 12940 61f6 5F5F454C 		.ascii	"__ELF__ 1\000"
 12940      465F5F20 
 12940      3100
 12941              	.LASF421:
 12942 6200 494E5433 		.ascii	"INT32_MIN (-__INT32_MAX__ - 1)\000"
 12942      325F4D49 
 12942      4E20282D 
 12942      5F5F494E 
 12942      5433325F 
 12943              	.LASF86:
 12944 621f 5F5F494E 		.ascii	"__INT8_MAX__ 127\000"
ARM GAS  /tmp/ccFRKuha.s 			page 318


 12944      54385F4D 
 12944      41585F5F 
 12944      20313237 
 12944      00
 12945              	.LASF668:
 12946 6230 494F434F 		.ascii	"IOCON_FUNC3 0x3\000"
 12946      4E5F4655 
 12946      4E433320 
 12946      30783300 
 12947              	.LASF1007:
 12948 6240 4F445F4E 		.ascii	"OD_NONE 0x00\000"
 12948      4F4E4520 
 12948      30783030 
 12948      00
 12949              	.LASF269:
 12950 624d 5F5F5151 		.ascii	"__QQ_IBIT__ 0\000"
 12950      5F494249 
 12950      545F5F20 
 12950      3000
 12951              	.LASF893:
 12952 625b 4144435F 		.ascii	"ADC_CR_START_MCOA2 ((6UL << 24))\000"
 12952      43525F53 
 12952      54415254 
 12952      5F4D434F 
 12952      41322028 
 12953              	.LASF886:
 12954 627c 4144435F 		.ascii	"ADC_CR_START_MASK ((7UL << 24))\000"
 12954      43525F53 
 12954      54415254 
 12954      5F4D4153 
 12954      4B202828 
 12955              	.LASF592:
 12956 629c 4C50435F 		.ascii	"LPC_TIMER16_0_BASE 0x4000C000\000"
 12956      54494D45 
 12956      5231365F 
 12956      305F4241 
 12956      53452030 
 12957              	.LASF940:
 12958 62ba 4932435F 		.ascii	"I2C_I2STAT_S_RX_PRE_SLA_DAT_ACK ((0x80))\000"
 12958      49325354 
 12958      41545F53 
 12958      5F52585F 
 12958      5052455F 
 12959              	.LASF464:
 12960 62e3 55494E54 		.ascii	"UINT64_C(x) __UINT64_C(x)\000"
 12960      36345F43 
 12960      28782920 
 12960      5F5F5549 
 12960      4E543634 
 12961              	.LASF258:
 12962 62fd 5F5F4C4C 		.ascii	"__LLACCUM_FBIT__ 31\000"
 12962      41434355 
 12962      4D5F4642 
 12962      49545F5F 
 12962      20333100 
 12963              	.LASF82:
 12964 6311 5F5F5549 		.ascii	"__UINTMAX_MAX__ 18446744073709551615ULL\000"
ARM GAS  /tmp/ccFRKuha.s 			page 319


 12964      4E544D41 
 12964      585F4D41 
 12964      585F5F20 
 12964      31383434 
 12965              	.LASF130:
 12966 6339 5F5F464C 		.ascii	"__FLT_MAX_10_EXP__ 38\000"
 12966      545F4D41 
 12966      585F3130 
 12966      5F455850 
 12966      5F5F2033 
 12967              	.LASF414:
 12968 634f 55494E54 		.ascii	"UINT_LEAST8_MAX (__UINT_LEAST8_MAX__)\000"
 12968      5F4C4541 
 12968      5354385F 
 12968      4D415820 
 12968      285F5F55 
 12969              	.LASF283:
 12970 6375 5F5F5553 		.ascii	"__USQ_IBIT__ 0\000"
 12970      515F4942 
 12970      49545F5F 
 12970      203000
 12971              	.LASF54:
 12972 6384 5F5F5549 		.ascii	"__UINT_LEAST32_TYPE__ long unsigned int\000"
 12972      4E545F4C 
 12972      45415354 
 12972      33325F54 
 12972      5950455F 
 12973              	.LASF281:
 12974 63ac 5F5F5548 		.ascii	"__UHQ_IBIT__ 0\000"
 12974      515F4942 
 12974      49545F5F 
 12974      203000
 12975              	.LASF3:
 12976 63bb 5F5F474E 		.ascii	"__GNUC_MINOR__ 9\000"
 12976      55435F4D 
 12976      494E4F52 
 12976      5F5F2039 
 12976      00
 12977              	.LASF1037:
 12978 63cc 466C6167 		.ascii	"FlagStatus\000"
 12978      53746174 
 12978      757300
 12979              	.LASF314:
 12980 63d7 5F5F4743 		.ascii	"__GCC_ATOMIC_INT_LOCK_FREE 1\000"
 12980      435F4154 
 12980      4F4D4943 
 12980      5F494E54 
 12980      5F4C4F43 
 12981              	.LASF98:
 12982 63f4 5F5F494E 		.ascii	"__INT_LEAST32_MAX__ 2147483647L\000"
 12982      545F4C45 
 12982      41535433 
 12982      325F4D41 
 12982      585F5F20 
 12983              	.LASF307:
 12984 6414 5F5F4348 		.ascii	"__CHAR_UNSIGNED__ 1\000"
 12984      41525F55 
ARM GAS  /tmp/ccFRKuha.s 			page 320


 12984      4E534947 
 12984      4E45445F 
 12984      5F203100 
 12985              	.LASF1252:
 12986 6428 62697452 		.ascii	"bitRate\000"
 12986      61746500 
 12987              	.LASF1259:
 12988 6430 70657269 		.ascii	"periph\000"
 12988      706800
 12989              	.LASF932:
 12990 6437 4932435F 		.ascii	"I2C_I2STAT_M_RX_SLAR_ACK ((0x40))\000"
 12990      49325354 
 12990      41545F4D 
 12990      5F52585F 
 12990      534C4152 
 12991              	.LASF675:
 12992 6459 494F434F 		.ascii	"IOCON_MODE_PULLUP (0x2 << 3)\000"
 12992      4E5F4D4F 
 12992      44455F50 
 12992      554C4C55 
 12992      50202830 
 12993              	.LASF761:
 12994 6476 55415254 		.ascii	"UART_LCR_WLEN5 (0 << 0)\000"
 12994      5F4C4352 
 12994      5F574C45 
 12994      4E352028 
 12994      30203C3C 
 12995              	.LASF1184:
 12996 648e 5353505F 		.ascii	"SSP_BITS_10\000"
 12996      42495453 
 12996      5F313000 
 12997              	.LASF1185:
 12998 649a 5353505F 		.ascii	"SSP_BITS_11\000"
 12998      42495453 
 12998      5F313100 
 12999              	.LASF1176:
 13000 64a6 5353505F 		.ascii	"SSP_FRAMEFORMAT_MICROWIRE\000"
 13000      4652414D 
 13000      45464F52 
 13000      4D41545F 
 13000      4D494352 
 13001              	.LASF1187:
 13002 64c0 5353505F 		.ascii	"SSP_BITS_13\000"
 13002      42495453 
 13002      5F313300 
 13003              	.LASF1188:
 13004 64cc 5353505F 		.ascii	"SSP_BITS_14\000"
 13004      42495453 
 13004      5F313400 
 13005              	.LASF1189:
 13006 64d8 5353505F 		.ascii	"SSP_BITS_15\000"
 13006      42495453 
 13006      5F313500 
 13007              	.LASF1190:
 13008 64e4 5353505F 		.ascii	"SSP_BITS_16\000"
 13008      42495453 
 13008      5F313600 
ARM GAS  /tmp/ccFRKuha.s 			page 321


 13009              	.LASF461:
 13010 64f0 494E5433 		.ascii	"INT32_C(x) __INT32_C(x)\000"
 13010      325F4328 
 13010      7829205F 
 13010      5F494E54 
 13010      33325F43 
 13011              	.LASF438:
 13012 6508 55494E54 		.ascii	"UINT_FAST16_MAX (__UINT_FAST16_MAX__)\000"
 13012      5F464153 
 13012      5431365F 
 13012      4D415820 
 13012      285F5F55 
 13013              	.LASF221:
 13014 652e 5F5F4C4C 		.ascii	"__LLFRACT_MAX__ 0X7FFFFFFFFFFFFFFFP-63LLR\000"
 13014      46524143 
 13014      545F4D41 
 13014      585F5F20 
 13014      30583746 
 13015              	.LASF570:
 13016 6558 53797354 		.ascii	"SysTick_LOAD_RELOAD_Msk (0xFFFFFFUL << SysTick_LOAD"
 13016      69636B5F 
 13016      4C4F4144 
 13016      5F52454C 
 13016      4F41445F 
 13017 658b 5F52454C 		.ascii	"_RELOAD_Pos)\000"
 13017      4F41445F 
 13017      506F7329 
 13017      00
 13018              	.LASF426:
 13019 6598 55494E54 		.ascii	"UINT_LEAST32_MAX (__UINT_LEAST32_MAX__)\000"
 13019      5F4C4541 
 13019      53543332 
 13019      5F4D4158 
 13019      20285F5F 
 13020              	.LASF1141:
 13021 65c0 43505352 		.ascii	"CPSR\000"
 13021      00
 13022              	.LASF663:
 13023 65c5 53595343 		.ascii	"SYSCTL_IRC_FREQ (12000000)\000"
 13023      544C5F49 
 13023      52435F46 
 13023      52455120 
 13023      28313230 
 13024              	.LASF78:
 13025 65e0 5F5F5054 		.ascii	"__PTRDIFF_MAX__ 2147483647\000"
 13025      52444946 
 13025      465F4D41 
 13025      585F5F20 
 13025      32313437 
 13026              	.LASF524:
 13027 65fb 5343425F 		.ascii	"SCB_ICSR_PENDSVSET_Msk (1UL << SCB_ICSR_PENDSVSET_P"
 13027      49435352 
 13027      5F50454E 
 13027      44535653 
 13027      45545F4D 
 13028 662e 6F732900 		.ascii	"os)\000"
 13029              	.LASF573:
ARM GAS  /tmp/ccFRKuha.s 			page 322


 13030 6632 53797354 		.ascii	"SysTick_CALIB_NOREF_Pos 31\000"
 13030      69636B5F 
 13030      43414C49 
 13030      425F4E4F 
 13030      5245465F 
 13031              	.LASF231:
 13032 664d 5F5F5341 		.ascii	"__SACCUM_MAX__ 0X7FFFP-7HK\000"
 13032      4343554D 
 13032      5F4D4158 
 13032      5F5F2030 
 13032      58374646 
 13033              	.LASF64:
 13034 6668 5F5F494E 		.ascii	"__INTPTR_TYPE__ int\000"
 13034      54505452 
 13034      5F545950 
 13034      455F5F20 
 13034      696E7400 
 13035              	.LASF37:
 13036 667c 5F5F4348 		.ascii	"__CHAR16_TYPE__ short unsigned int\000"
 13036      41523136 
 13036      5F545950 
 13036      455F5F20 
 13036      73686F72 
 13037              	.LASF1257:
 13038 669f 43686970 		.ascii	"Chip_SSP_SetSSPClkDivider\000"
 13038      5F535350 
 13038      5F536574 
 13038      53535043 
 13038      6C6B4469 
 13039              	.LASF568:
 13040 66b9 53797354 		.ascii	"SysTick_CTRL_ENABLE_Msk (1UL << SysTick_CTRL_ENABLE"
 13040      69636B5F 
 13040      4354524C 
 13040      5F454E41 
 13040      424C455F 
 13041 66ec 5F506F73 		.ascii	"_Pos)\000"
 13041      2900
 13042              	.LASF304:
 13043 66f2 5F5F5245 		.ascii	"__REGISTER_PREFIX__ \000"
 13043      47495354 
 13043      45525F50 
 13043      52454649 
 13043      585F5F20 
 13044              	.LASF187:
 13045 6707 5F5F4445 		.ascii	"__DEC128_SUBNORMAL_MIN__ 0.000000000000000000000000"
 13045      43313238 
 13045      5F535542 
 13045      4E4F524D 
 13045      414C5F4D 
 13046 673a 30303030 		.ascii	"000000001E-6143DL\000"
 13046      30303030 
 13046      31452D36 
 13046      31343344 
 13046      4C00
 13047              	.LASF1054:
 13048 674c 4C464F53 		.ascii	"LFOSCCTRL\000"
 13048      43435452 
ARM GAS  /tmp/ccFRKuha.s 			page 323


 13048      4C00
 13049              	.LASF217:
 13050 6756 5F5F554C 		.ascii	"__ULFRACT_EPSILON__ 0x1P-32ULR\000"
 13050      46524143 
 13050      545F4550 
 13050      53494C4F 
 13050      4E5F5F20 
 13051              	.LASF1015:
 13052 6775 43414E5F 		.ascii	"CAN_SDOREQ_HANDLED_SEND 1\000"
 13052      53444F52 
 13052      45515F48 
 13052      414E444C 
 13052      45445F53 
 13053              	.LASF339:
 13054 678f 5F5F4152 		.ascii	"__ARM_ARCH_6M__ 1\000"
 13054      4D5F4152 
 13054      43485F36 
 13054      4D5F5F20 
 13054      3100
 13055              	.LASF22:
 13056 67a1 5F5F5349 		.ascii	"__SIZEOF_SIZE_T__ 4\000"
 13056      5A454F46 
 13056      5F53495A 
 13056      455F545F 
 13056      5F203400 
 13057              	.LASF786:
 13058 67b5 55415254 		.ascii	"UART_LSR_FE (1 << 3)\000"
 13058      5F4C5352 
 13058      5F464520 
 13058      2831203C 
 13058      3C203329 
 13059              	.LASF840:
 13060 67ca 57574454 		.ascii	"WWDT_WDMOD_BITMASK ((uint32_t) 0x1F)\000"
 13060      5F57444D 
 13060      4F445F42 
 13060      49544D41 
 13060      534B2028 
 13061              	.LASF47:
 13062 67ef 5F5F5549 		.ascii	"__UINT64_TYPE__ long long unsigned int\000"
 13062      4E543634 
 13062      5F545950 
 13062      455F5F20 
 13062      6C6F6E67 
 13063              	.LASF184:
 13064 6816 5F5F4445 		.ascii	"__DEC128_MIN__ 1E-6143DL\000"
 13064      43313238 
 13064      5F4D494E 
 13064      5F5F2031 
 13064      452D3631 
 13065              	.LASF101:
 13066 682f 5F5F494E 		.ascii	"__INT64_C(c) c ## LL\000"
 13066      5436345F 
 13066      43286329 
 13066      20632023 
 13066      23204C4C 
 13067              	.LASF249:
 13068 6844 5F5F4C41 		.ascii	"__LACCUM_IBIT__ 32\000"
ARM GAS  /tmp/ccFRKuha.s 			page 324


 13068      4343554D 
 13068      5F494249 
 13068      545F5F20 
 13068      333200
 13069              	.LASF1106:
 13070 6857 44455649 		.ascii	"DEVICEID\000"
 13070      43454944 
 13070      00
 13071              	.LASF758:
 13072 6860 55415254 		.ascii	"UART_FCR_TRG_LEV2 (2 << 6)\000"
 13072      5F464352 
 13072      5F545247 
 13072      5F4C4556 
 13072      32202832 
 13073              	.LASF424:
 13074 687b 494E545F 		.ascii	"INT_LEAST32_MIN (-__INT_LEAST32_MAX__ - 1)\000"
 13074      4C454153 
 13074      5433325F 
 13074      4D494E20 
 13074      282D5F5F 
 13075              	.LASF682:
 13076 68a6 494F434F 		.ascii	"IOCON_STDI2C_EN (0x1 << 8)\000"
 13076      4E5F5354 
 13076      44493243 
 13076      5F454E20 
 13076      28307831 
 13077              	.LASF467:
 13078 68c1 5F474343 		.ascii	"_GCC_WRAP_STDINT_H \000"
 13078      5F575241 
 13078      505F5354 
 13078      44494E54 
 13078      5F482000 
 13079              	.LASF958:
 13080 68d5 4932435F 		.ascii	"I2C_I2ADR_GC ((1 << 0))\000"
 13080      49324144 
 13080      525F4743 
 13080      20282831 
 13080      203C3C20 
 13081              	.LASF1080:
 13082 68ed 434C4B4F 		.ascii	"CLKOUTSEL\000"
 13082      55545345 
 13082      4C00
 13083              	.LASF161:
 13084 68f7 5F5F4C44 		.ascii	"__LDBL_MIN__ 2.2250738585072014e-308L\000"
 13084      424C5F4D 
 13084      494E5F5F 
 13084      20322E32 
 13084      32353037 
 13085              	.LASF239:
 13086 691d 5F5F4143 		.ascii	"__ACCUM_IBIT__ 16\000"
 13086      43554D5F 
 13086      49424954 
 13086      5F5F2031 
 13086      3600
 13087              	.LASF986:
 13088 692f 43414E5F 		.ascii	"CAN_ERROR_BIT0 0x00000080UL\000"
 13088      4552524F 
ARM GAS  /tmp/ccFRKuha.s 			page 325


 13088      525F4249 
 13088      54302030 
 13088      78303030 
 13089              	.LASF896:
 13090 694b 5F5F4750 		.ascii	"__GPIO_11XX_2_H_ \000"
 13090      494F5F31 
 13090      3158585F 
 13090      325F485F 
 13090      2000
 13091              	.LASF1228:
 13092 695d 5353505F 		.ascii	"SSP_Read1BFifo\000"
 13092      52656164 
 13092      31424669 
 13092      666F00
 13093              	.LASF678:
 13094 696c 494F434F 		.ascii	"IOCON_INV_EN (0x1 << 6)\000"
 13094      4E5F494E 
 13094      565F454E 
 13094      20283078 
 13094      31203C3C 
 13095              	.LASF1023:
 13096 6984 73686F72 		.ascii	"short int\000"
 13096      7420696E 
 13096      7400
 13097              	.LASF683:
 13098 698e 494F434F 		.ascii	"IOCON_FASTI2C_EN (0x2 << 8)\000"
 13098      4E5F4641 
 13098      53544932 
 13098      435F454E 
 13098      20283078 
 13099              	.LASF459:
 13100 69aa 494E5431 		.ascii	"INT16_C(x) __INT16_C(x)\000"
 13100      365F4328 
 13100      7829205F 
 13100      5F494E54 
 13100      31365F43 
 13101              	.LASF990:
 13102 69c2 43414E5F 		.ascii	"CAN_MSGOBJ_DAT 0x00000000UL\000"
 13102      4D53474F 
 13102      424A5F44 
 13102      41542030 
 13102      78303030 
 13103              	.LASF753:
 13104 69de 55415254 		.ascii	"UART_FCR_DMAMODE_SEL (1 << 3)\000"
 13104      5F464352 
 13104      5F444D41 
 13104      4D4F4445 
 13104      5F53454C 
 13105              	.LASF203:
 13106 69fc 5F5F5546 		.ascii	"__UFRACT_FBIT__ 16\000"
 13106      52414354 
 13106      5F464249 
 13106      545F5F20 
 13106      313600
 13107              	.LASF105:
 13108 6a0f 5F5F5549 		.ascii	"__UINT16_C(c) c\000"
 13108      4E543136 
ARM GAS  /tmp/ccFRKuha.s 			page 326


 13108      5F432863 
 13108      29206300 
 13109              	.LASF486:
 13110 6a1f 4D415828 		.ascii	"MAX(a,b) (((a) > (b)) ? (a) : (b))\000"
 13110      612C6229 
 13110      20282828 
 13110      6129203E 
 13110      20286229 
 13111              	.LASF684:
 13112 6a42 494F434F 		.ascii	"IOCON_FILT_DIS (0x1 << 8)\000"
 13112      4E5F4649 
 13112      4C545F44 
 13112      49532028 
 13112      30783120 
 13113              	.LASF301:
 13114 6a5c 5F5F5544 		.ascii	"__UDA_IBIT__ 32\000"
 13114      415F4942 
 13114      49545F5F 
 13114      20333200 
 13115              	.LASF1215:
 13116 6a6c 6D6F6465 		.ascii	"mode\000"
 13116      00
 13117              	.LASF835:
 13118 6a71 55415254 		.ascii	"UART_SYNCCTRL_TSBYPASS (1 << 3)\000"
 13118      5F53594E 
 13118      43435452 
 13118      4C5F5453 
 13118      42595041 
 13119              	.LASF407:
 13120 6a91 494E5450 		.ascii	"INTPTR_MAX (__INTPTR_MAX__)\000"
 13120      54525F4D 
 13120      41582028 
 13120      5F5F494E 
 13120      54505452 
 13121              	.LASF351:
 13122 6aad 5F5F4E45 		.ascii	"__NEWLIB__ 2\000"
 13122      574C4942 
 13122      5F5F2032 
 13122      00
 13123              	.LASF1072:
 13124 6aba 55534243 		.ascii	"USBCLKSEL\000"
 13124      4C4B5345 
 13124      4C00
 13125              	.LASF427:
 13126 6ac4 494E5436 		.ascii	"INT64_MIN (-__INT64_MAX__ - 1)\000"
 13126      345F4D49 
 13126      4E20282D 
 13126      5F5F494E 
 13126      5436345F 
 13127              	.LASF6:
 13128 6ae3 5F5F4154 		.ascii	"__ATOMIC_RELAXED 0\000"
 13128      4F4D4943 
 13128      5F52454C 
 13128      41584544 
 13128      203000
 13129              	.LASF751:
 13130 6af6 55415254 		.ascii	"UART_FCR_RX_RS (1 << 1)\000"
ARM GAS  /tmp/ccFRKuha.s 			page 327


 13130      5F464352 
 13130      5F52585F 
 13130      52532028 
 13130      31203C3C 
 13131              	.LASF636:
 13132 6b0e 5F5F464D 		.ascii	"__FMC_11XX_H_ \000"
 13132      435F3131 
 13132      58585F48 
 13132      5F2000
 13133              	.LASF733:
 13134 6b1d 55415254 		.ascii	"UART_IER_CTSINT (1 << 7)\000"
 13134      5F494552 
 13134      5F435453 
 13134      494E5420 
 13134      2831203C 
 13135              	.LASF151:
 13136 6b36 5F5F4442 		.ascii	"__DBL_HAS_INFINITY__ 1\000"
 13136      4C5F4841 
 13136      535F494E 
 13136      46494E49 
 13136      54595F5F 
 13137              	.LASF632:
 13138 6b4d 504D555F 		.ascii	"PMU_PCON_PM_SLEEP (0x0)\000"
 13138      50434F4E 
 13138      5F504D5F 
 13138      534C4545 
 13138      50202830 
 13139              	.LASF444:
 13140 6b65 55494E54 		.ascii	"UINT_FAST64_MAX (__UINT_FAST64_MAX__)\000"
 13140      5F464153 
 13140      5436345F 
 13140      4D415820 
 13140      285F5F55 
 13141              	.LASF429:
 13142 6b8b 55494E54 		.ascii	"UINT64_MAX (__UINT64_MAX__)\000"
 13142      36345F4D 
 13142      41582028 
 13142      5F5F5549 
 13142      4E543634 
 13143              	.LASF902:
 13144 6ba7 4932435F 		.ascii	"I2C_STA_STO_RECV 0x20\000"
 13144      5354415F 
 13144      53544F5F 
 13144      52454356 
 13144      20307832 
 13145              	.LASF771:
 13146 6bbd 55415254 		.ascii	"UART_LCR_PARITY_EVEN (1 << 4)\000"
 13146      5F4C4352 
 13146      5F504152 
 13146      4954595F 
 13146      4556454E 
 13147              	.LASF1096:
 13148 6bdb 53544152 		.ascii	"STARTERP0\000"
 13148      54455250 
 13148      3000
 13149              	.LASF1100:
 13150 6be5 53544152 		.ascii	"STARTERP1\000"
ARM GAS  /tmp/ccFRKuha.s 			page 328


 13150      54455250 
 13150      3100
 13151              	.LASF510:
 13152 6bef 5F5F494F 		.ascii	"__IO volatile\000"
 13152      20766F6C 
 13152      6174696C 
 13152      6500
 13153              	.LASF687:
 13154 6bfd 4D445F50 		.ascii	"MD_PDN (0x1 << 3)\000"
 13154      444E2028 
 13154      30783120 
 13154      3C3C2033 
 13154      2900
 13155              	.LASF728:
 13156 6c0f 55415254 		.ascii	"UART_DLM_MASKBIT (0xFF)\000"
 13156      5F444C4D 
 13156      5F4D4153 
 13156      4B424954 
 13156      20283078 
 13157              	.LASF901:
 13158 6c27 5245545F 		.ascii	"RET_SLAVE_BUSY 0\000"
 13158      534C4156 
 13158      455F4255 
 13158      53592030 
 13158      00
 13159              	.LASF19:
 13160 6c38 5F5F5349 		.ascii	"__SIZEOF_FLOAT__ 4\000"
 13160      5A454F46 
 13160      5F464C4F 
 13160      41545F5F 
 13160      203400
 13161              	.LASF458:
 13162 6c4b 55494E54 		.ascii	"UINT8_C(x) __UINT8_C(x)\000"
 13162      385F4328 
 13162      7829205F 
 13162      5F55494E 
 13162      54385F43 
 13163              	.LASF70:
 13164 6c63 5F5F5348 		.ascii	"__SHRT_MAX__ 32767\000"
 13164      52545F4D 
 13164      41585F5F 
 13164      20333237 
 13164      363700
 13165              	.LASF584:
 13166 6c76 53797354 		.ascii	"SysTick ((SysTick_Type *) SysTick_BASE )\000"
 13166      69636B20 
 13166      28285379 
 13166      73546963 
 13166      6B5F5479 
 13167              	.LASF145:
 13168 6c9f 5F5F4442 		.ascii	"__DBL_DECIMAL_DIG__ 17\000"
 13168      4C5F4445 
 13168      43494D41 
 13168      4C5F4449 
 13168      475F5F20 
 13169              	.LASF525:
 13170 6cb6 5343425F 		.ascii	"SCB_ICSR_PENDSVCLR_Pos 27\000"
ARM GAS  /tmp/ccFRKuha.s 			page 329


 13170      49435352 
 13170      5F50454E 
 13170      44535643 
 13170      4C525F50 
 13171              	.LASF368:
 13172 6cd0 5F5F6861 		.ascii	"__have_long32 1\000"
 13172      76655F6C 
 13172      6F6E6733 
 13172      32203100 
 13173              	.LASF412:
 13174 6ce0 494E545F 		.ascii	"INT_LEAST8_MIN (-__INT_LEAST8_MAX__ - 1)\000"
 13174      4C454153 
 13174      54385F4D 
 13174      494E2028 
 13174      2D5F5F49 
 13175              	.LASF106:
 13176 6d09 5F5F5549 		.ascii	"__UINT_LEAST32_MAX__ 4294967295UL\000"
 13176      4E545F4C 
 13176      45415354 
 13176      33325F4D 
 13176      41585F5F 
 13177              	.LASF253:
 13178 6d2b 5F5F554C 		.ascii	"__ULACCUM_FBIT__ 32\000"
 13178      41434355 
 13178      4D5F4642 
 13178      49545F5F 
 13178      20333200 
 13179              	.LASF543:
 13180 6d3f 5343425F 		.ascii	"SCB_AIRCR_ENDIANESS_Pos 15\000"
 13180      41495243 
 13180      525F454E 
 13180      4449414E 
 13180      4553535F 
 13181              	.LASF652:
 13182 6d5a 53595343 		.ascii	"SYSCTL_SLPWAKE_WDTOSC_PD (1 << 6)\000"
 13182      544C5F53 
 13182      4C505741 
 13182      4B455F57 
 13182      44544F53 
 13183              	.LASF548:
 13184 6d7c 5343425F 		.ascii	"SCB_AIRCR_VECTCLRACTIVE_Msk (1UL << SCB_AIRCR_VECTC"
 13184      41495243 
 13184      525F5645 
 13184      4354434C 
 13184      52414354 
 13185 6daf 4C524143 		.ascii	"LRACTIVE_Pos)\000"
 13185      54495645 
 13185      5F506F73 
 13185      2900
 13186              	.LASF658:
 13187 6dbd 53595343 		.ascii	"SYSCTL_POWERDOWN_ADC_PD (1 << 4)\000"
 13187      544C5F50 
 13187      4F574552 
 13187      444F574E 
 13187      5F414443 
 13188              	.LASF397:
 13189 6dde 5F5F696E 		.ascii	"__int64_t_defined 1\000"
ARM GAS  /tmp/ccFRKuha.s 			page 330


 13189      7436345F 
 13189      745F6465 
 13189      66696E65 
 13189      64203100 
 13190              	.LASF569:
 13191 6df2 53797354 		.ascii	"SysTick_LOAD_RELOAD_Pos 0\000"
 13191      69636B5F 
 13191      4C4F4144 
 13191      5F52454C 
 13191      4F41445F 
 13192              	.LASF332:
 13193 6e0c 5F5F4152 		.ascii	"__ARMEL__ 1\000"
 13193      4D454C5F 
 13193      5F203100 
 13194              	.LASF1109:
 13195 6e18 52455345 		.ascii	"RESET_I2C0\000"
 13195      545F4932 
 13195      433000
 13196              	.LASF1146:
 13197 6e23 5353505F 		.ascii	"SSP_STAT_TFE\000"
 13197      53544154 
 13197      5F544645 
 13197      00
 13198              	.LASF385:
 13199 6e30 5F5F4641 		.ascii	"__FAST8 \000"
 13199      53543820 
 13199      00
 13200              	.LASF1090:
 13201 6e39 4E4D4953 		.ascii	"NMISRC\000"
 13201      524300
 13202              	.LASF72:
 13203 6e40 5F5F4C4F 		.ascii	"__LONG_MAX__ 2147483647L\000"
 13203      4E475F4D 
 13203      41585F5F 
 13203      20323134 
 13203      37343833 
 13204              	.LASF268:
 13205 6e59 5F5F5151 		.ascii	"__QQ_FBIT__ 7\000"
 13205      5F464249 
 13205      545F5F20 
 13205      3700
 13206              	.LASF972:
 13207 6e67 4932435F 		.ascii	"I2C_ERR (0x10000000)\000"
 13207      45525220 
 13207      28307831 
 13207      30303030 
 13207      30303029 
 13208              	.LASF952:
 13209 6e7c 4932435F 		.ascii	"I2C_I2DAT_IDLE_CHAR (0xFF)\000"
 13209      49324441 
 13209      545F4944 
 13209      4C455F43 
 13209      48415220 
 13210              	.LASF227:
 13211 6e97 5F5F554C 		.ascii	"__ULLFRACT_EPSILON__ 0x1P-64ULLR\000"
 13211      4C465241 
 13211      43545F45 
ARM GAS  /tmp/ccFRKuha.s 			page 331


 13211      5053494C 
 13211      4F4E5F5F 
 13212              	.LASF488:
 13213 6eb8 494E4C49 		.ascii	"INLINE inline\000"
 13213      4E452069 
 13213      6E6C696E 
 13213      6500
 13214              	.LASF555:
 13215 6ec6 5343425F 		.ascii	"SCB_CCR_STKALIGN_Pos 9\000"
 13215      4343525F 
 13215      53544B41 
 13215      4C49474E 
 13215      5F506F73 
 13216              	.LASF897:
 13217 6edd 5F5F4932 		.ascii	"__I2C_11XX_H_ \000"
 13217      435F3131 
 13217      58585F48 
 13217      5F2000
 13218              	.LASF790:
 13219 6eec 55415254 		.ascii	"UART_LSR_RXFE (1 << 7)\000"
 13219      5F4C5352 
 13219      5F525846 
 13219      45202831 
 13219      203C3C20 
 13220              	.LASF354:
 13221 6f03 5F5F474E 		.ascii	"__GNUC_PREREQ__(ma,mi) __GNUC_PREREQ(ma, mi)\000"
 13221      55435F50 
 13221      52455245 
 13221      515F5F28 
 13221      6D612C6D 
 13222              	.LASF591:
 13223 6f30 4C50435F 		.ascii	"LPC_USART_BASE 0x40008000\000"
 13223      55534152 
 13223      545F4241 
 13223      53452030 
 13223      78343030 
 13224              	.LASF303:
 13225 6f4a 5F5F5554 		.ascii	"__UTA_IBIT__ 64\000"
 13225      415F4942 
 13225      49545F5F 
 13225      20363400 
 13226              	.LASF264:
 13227 6f5a 5F5F554C 		.ascii	"__ULLACCUM_IBIT__ 32\000"
 13227      4C414343 
 13227      554D5F49 
 13227      4249545F 
 13227      5F203332 
 13228              	.LASF504:
 13229 6f6f 5F5F4650 		.ascii	"__FPU_USED 0\000"
 13229      555F5553 
 13229      45442030 
 13229      00
 13230              	.LASF208:
 13231 6f7c 5F5F4C46 		.ascii	"__LFRACT_FBIT__ 31\000"
 13231      52414354 
 13231      5F464249 
 13231      545F5F20 
ARM GAS  /tmp/ccFRKuha.s 			page 332


 13231      333100
 13232              	.LASF1161:
 13233 6f8f 5353505F 		.ascii	"SSP_RTIC\000"
 13233      52544943 
 13233      00
 13234              	.LASF1078:
 13235 6f98 57445443 		.ascii	"WDTCLKDIV\000"
 13235      4C4B4449 
 13235      5600
 13236              	.LASF498:
 13237 6fa2 5F5F434D 		.ascii	"__CM0_CMSIS_VERSION_SUB (0x01)\000"
 13237      305F434D 
 13237      5349535F 
 13237      56455253 
 13237      494F4E5F 
 13238              	.LASF322:
 13239 6fc1 5F5F5349 		.ascii	"__SIZEOF_WINT_T__ 4\000"
 13239      5A454F46 
 13239      5F57494E 
 13239      545F545F 
 13239      5F203400 
 13240              	.LASF635:
 13241 6fd5 504D555F 		.ascii	"PMU_PCON_DPDFLAG (1 << 11)\000"
 13241      50434F4E 
 13241      5F445044 
 13241      464C4147 
 13241      20283120 
 13242              	.LASF562:
 13243 6ff0 53797354 		.ascii	"SysTick_CTRL_COUNTFLAG_Msk (1UL << SysTick_CTRL_COU"
 13243      69636B5F 
 13243      4354524C 
 13243      5F434F55 
 13243      4E54464C 
 13244 7023 4E54464C 		.ascii	"NTFLAG_Pos)\000"
 13244      41475F50 
 13244      6F732900 
 13245              	.LASF220:
 13246 702f 5F5F4C4C 		.ascii	"__LLFRACT_MIN__ (-0.5LLR-0.5LLR)\000"
 13246      46524143 
 13246      545F4D49 
 13246      4E5F5F20 
 13246      282D302E 
 13247              	.LASF1048:
 13248 7050 55534250 		.ascii	"USBPLLCTRL\000"
 13248      4C4C4354 
 13248      524C00
 13249              	.LASF1097:
 13250 705b 53544152 		.ascii	"STARTRSRP0CLR\000"
 13250      54525352 
 13250      5030434C 
 13250      5200
 13251              	.LASF1047:
 13252 7069 53595350 		.ascii	"SYSPLLSTAT\000"
 13252      4C4C5354 
 13252      415400
 13253              	.LASF250:
 13254 7074 5F5F4C41 		.ascii	"__LACCUM_MIN__ (-0X1P31LK-0X1P31LK)\000"
ARM GAS  /tmp/ccFRKuha.s 			page 333


 13254      4343554D 
 13254      5F4D494E 
 13254      5F5F2028 
 13254      2D305831 
 13255              	.LASF611:
 13256 7098 4941505F 		.ascii	"IAP_ENTRY_LOCATION 0X1FFF1FF1\000"
 13256      454E5452 
 13256      595F4C4F 
 13256      43415449 
 13256      4F4E2030 
 13257              	.LASF341:
 13258 70b6 5F5F4152 		.ascii	"__ARM_EABI__ 1\000"
 13258      4D5F4541 
 13258      42495F5F 
 13258      203100
 13259              	.LASF1038:
 13260 70c5 496E7453 		.ascii	"IntStatus\000"
 13260      74617475 
 13260      7300
 13261              	.LASF149:
 13262 70cf 5F5F4442 		.ascii	"__DBL_DENORM_MIN__ ((double)4.9406564584124654e-324"
 13262      4C5F4445 
 13262      4E4F524D 
 13262      5F4D494E 
 13262      5F5F2028 
 13263 7102 4C2900   		.ascii	"L)\000"
 13264              	.LASF1068:
 13265 7105 53535030 		.ascii	"SSP0CLKDIV\000"
 13265      434C4B44 
 13265      495600
 13266              	.LASF1214:
 13267 7110 43686970 		.ascii	"Chip_SSP_Set_Mode\000"
 13267      5F535350 
 13267      5F536574 
 13267      5F4D6F64 
 13267      6500
 13268              	.LASF597:
 13269 7122 4C50435F 		.ascii	"LPC_DAC_BASE 0x40024000\000"
 13269      4441435F 
 13269      42415345 
 13269      20307834 
 13269      30303234 
 13270              	.LASF383:
 13271 713a 5F5F494E 		.ascii	"__INT32 \"l\"\000"
 13271      54333220 
 13271      226C2200 
 13272              	.LASF861:
 13273 7146 5353505F 		.ascii	"SSP_CR1_SO_DISABLE ((uint32_t) (1 << 3))\000"
 13273      4352315F 
 13273      534F5F44 
 13273      49534142 
 13273      4C452028 
 13274              	.LASF539:
 13275 716f 5343425F 		.ascii	"SCB_AIRCR_VECTKEY_Pos 16\000"
 13275      41495243 
 13275      525F5645 
 13275      43544B45 
ARM GAS  /tmp/ccFRKuha.s 			page 334


 13275      595F506F 
 13276              	.LASF480:
 13277 7188 5F424954 		.ascii	"_BITMASK(field_width) ( _BIT(field_width) - 1)\000"
 13277      4D41534B 
 13277      28666965 
 13277      6C645F77 
 13277      69647468 
 13278              	.LASF641:
 13279 71b7 53595343 		.ascii	"SYSCTL_RST_BOD (1 << 3)\000"
 13279      544C5F52 
 13279      53545F42 
 13279      4F442028 
 13279      31203C3C 
 13280              	.LASF1202:
 13281 71cf 43686970 		.ascii	"Chip_SSP_GetStatus\000"
 13281      5F535350 
 13281      5F476574 
 13281      53746174 
 13281      757300
 13282              	.LASF46:
 13283 71e2 5F5F5549 		.ascii	"__UINT32_TYPE__ long unsigned int\000"
 13283      4E543332 
 13283      5F545950 
 13283      455F5F20 
 13283      6C6F6E67 
 13284              	.LASF637:
 13285 7204 5F5F5359 		.ascii	"__SYSCTL_11XX_H_ \000"
 13285      5343544C 
 13285      5F313158 
 13285      585F485F 
 13285      2000
 13286              	.LASF345:
 13287 7216 434F5245 		.ascii	"CORE_M0 1\000"
 13287      5F4D3020 
 13287      3100
 13288              	.LASF854:
 13289 7220 5353505F 		.ascii	"SSP_CR0_CPHA_SECOND ((uint32_t) (1 << 7))\000"
 13289      4352305F 
 13289      43504841 
 13289      5F534543 
 13289      4F4E4420 
 13290              	.LASF708:
 13291 724a 5F5F5449 		.ascii	"__TIMER_11XX_H_ \000"
 13291      4D45525F 
 13291      31315858 
 13291      5F485F20 
 13291      00
 13292              	.LASF596:
 13293 725b 4C50435F 		.ascii	"LPC_ADC_BASE 0x4001C000\000"
 13293      4144435F 
 13293      42415345 
 13293      20307834 
 13293      30303143 
 13294              	.LASF152:
 13295 7273 5F5F4442 		.ascii	"__DBL_HAS_QUIET_NAN__ 1\000"
 13295      4C5F4841 
 13295      535F5155 
ARM GAS  /tmp/ccFRKuha.s 			page 335


 13295      4945545F 
 13295      4E414E5F 
 13296              	.LASF700:
 13297 728b 46554E43 		.ascii	"FUNC0 0x0\000"
 13297      30203078 
 13297      3000
 13298              	.LASF993:
 13299 7295 53444F5F 		.ascii	"SDO_ABORT_SDOTIMEOUT 0x05040000UL\000"
 13299      41424F52 
 13299      545F5344 
 13299      4F54494D 
 13299      454F5554 
 13300              	.LASF795:
 13301 72b7 55415254 		.ascii	"UART_MSR_DELTA_DSR (1 << 1)\000"
 13301      5F4D5352 
 13301      5F44454C 
 13301      54415F44 
 13301      53522028 
 13302              	.LASF225:
 13303 72d3 5F5F554C 		.ascii	"__ULLFRACT_MIN__ 0.0ULLR\000"
 13303      4C465241 
 13303      43545F4D 
 13303      494E5F5F 
 13303      20302E30 
 13304              	.LASF1219:
 13305 72ec 72657365 		.ascii	"resetSSP\000"
 13305      74535350 
 13305      00
 13306              	.LASF642:
 13307 72f5 53595343 		.ascii	"SYSCTL_RST_SYSRST (1 << 4)\000"
 13307      544C5F52 
 13307      53545F53 
 13307      59535253 
 13307      54202831 
 13308              	.LASF646:
 13309 7310 53595343 		.ascii	"SYSCTL_SLPWAKE_IRCOUT_PD (1 << 0)\000"
 13309      544C5F53 
 13309      4C505741 
 13309      4B455F49 
 13309      52434F55 
 13310              	.LASF615:
 13311 7332 4C50435F 		.ascii	"LPC_USART ((LPC_USART_T *) LPC_USART_BASE)\000"
 13311      55534152 
 13311      54202828 
 13311      4C50435F 
 13311      55534152 
 13312              	.LASF285:
 13313 735d 5F5F5544 		.ascii	"__UDQ_IBIT__ 0\000"
 13313      515F4942 
 13313      49545F5F 
 13313      203000
 13314              	.LASF15:
 13315 736c 5F5F5349 		.ascii	"__SIZEOF_INT__ 4\000"
 13315      5A454F46 
 13315      5F494E54 
 13315      5F5F2034 
 13315      00
ARM GAS  /tmp/ccFRKuha.s 			page 336


 13316              	.LASF219:
 13317 737d 5F5F4C4C 		.ascii	"__LLFRACT_IBIT__ 0\000"
 13317      46524143 
 13317      545F4942 
 13317      49545F5F 
 13317      203000
 13318              	.LASF460:
 13319 7390 55494E54 		.ascii	"UINT16_C(x) __UINT16_C(x)\000"
 13319      31365F43 
 13319      28782920 
 13319      5F5F5549 
 13319      4E543136 
 13320              	.LASF949:
 13321 73aa 4932435F 		.ascii	"I2C_I2STAT_S_TX_LAST_DAT_ACK ((0xC8))\000"
 13321      49325354 
 13321      41545F53 
 13321      5F54585F 
 13321      4C415354 
 13322              	.LASF1128:
 13323 73d0 53595343 		.ascii	"SYSCTL_CLOCK_CT16B0\000"
 13323      544C5F43 
 13323      4C4F434B 
 13323      5F435431 
 13323      36423000 
 13324              	.LASF1035:
 13325 73e4 75696E74 		.ascii	"uint32_t\000"
 13325      33325F74 
 13325      00
 13326              	.LASF1113:
 13327 73ed 52455345 		.ascii	"RESET_TIMER0_16\000"
 13327      545F5449 
 13327      4D455230 
 13327      5F313600 
 13328              	.LASF823:
 13329 73fd 55415254 		.ascii	"UART_SCICTRL_NACKDIS (1 << 1)\000"
 13329      5F534349 
 13329      4354524C 
 13329      5F4E4143 
 13329      4B444953 
 13330              	.LASF365:
 13331 741b 5F535953 		.ascii	"_SYS__INTSUP_H \000"
 13331      5F5F494E 
 13331      54535550 
 13331      5F482000 
 13332              	.LASF1098:
 13333 742b 53544152 		.ascii	"STARTSRP0\000"
 13333      54535250 
 13333      3000
 13334              	.LASF232:
 13335 7435 5F5F5341 		.ascii	"__SACCUM_EPSILON__ 0x1P-7HK\000"
 13335      4343554D 
 13335      5F455053 
 13335      494C4F4E 
 13335      5F5F2030 
 13336              	.LASF634:
 13337 7451 504D555F 		.ascii	"PMU_PCON_SLEEPFLAG (1 << 8)\000"
 13337      50434F4E 
ARM GAS  /tmp/ccFRKuha.s 			page 337


 13337      5F534C45 
 13337      4550464C 
 13337      41472028 
 13338              	.LASF363:
 13339 746d 5F5F5F69 		.ascii	"___int_least64_t_defined 1\000"
 13339      6E745F6C 
 13339      65617374 
 13339      36345F74 
 13339      5F646566 
 13340              	.LASF443:
 13341 7488 494E545F 		.ascii	"INT_FAST64_MAX (__INT_FAST64_MAX__)\000"
 13341      46415354 
 13341      36345F4D 
 13341      41582028 
 13341      5F5F494E 
 13342              	.LASF1233:
 13343 74ac 43686970 		.ascii	"Chip_SSP_RWFrames_Blocking\000"
 13343      5F535350 
 13343      5F525746 
 13343      72616D65 
 13343      735F426C 
 13344              	.LASF726:
 13345 74c7 55415254 		.ascii	"UART_DLL_MASKBIT (0xFF)\000"
 13345      5F444C4C 
 13345      5F4D4153 
 13345      4B424954 
 13345      20283078 
 13346              	.LASF1226:
 13347 74df 72446174 		.ascii	"rDat\000"
 13347      00
 13348              	.LASF494:
 13349 74e4 5F5F4E56 		.ascii	"__NVIC_PRIO_BITS 2\000"
 13349      49435F50 
 13349      52494F5F 
 13349      42495453 
 13349      203200
 13350              	.LASF1250:
 13351 74f7 73737043 		.ascii	"sspCLK\000"
 13351      4C4B00
 13352              	.LASF1217:
 13353 74fe 43686970 		.ascii	"Chip_SSP_GetResetIndex\000"
 13353      5F535350 
 13353      5F476574 
 13353      52657365 
 13353      74496E64 
 13354              	.LASF576:
 13355 7515 53797354 		.ascii	"SysTick_CALIB_SKEW_Msk (1UL << SysTick_CALIB_SKEW_P"
 13355      69636B5F 
 13355      43414C49 
 13355      425F534B 
 13355      45575F4D 
 13356 7548 6F732900 		.ascii	"os)\000"
 13357              	.LASF297:
 13358 754c 5F5F5548 		.ascii	"__UHA_IBIT__ 8\000"
 13358      415F4942 
 13358      49545F5F 
 13358      203800
ARM GAS  /tmp/ccFRKuha.s 			page 338


 13359              	.LASF961:
 13360 755b 4932435F 		.ascii	"I2C_I2SCLH_BITMASK ((0xFFFF))\000"
 13360      49325343 
 13360      4C485F42 
 13360      49544D41 
 13360      534B2028 
 13361              	.LASF242:
 13362 7579 5F5F4143 		.ascii	"__ACCUM_EPSILON__ 0x1P-15K\000"
 13362      43554D5F 
 13362      45505349 
 13362      4C4F4E5F 
 13362      5F203078 
 13363              	.LASF257:
 13364 7594 5F5F554C 		.ascii	"__ULACCUM_EPSILON__ 0x1P-32ULK\000"
 13364      41434355 
 13364      4D5F4550 
 13364      53494C4F 
 13364      4E5F5F20 
 13365              	.LASF154:
 13366 75b3 5F5F4C44 		.ascii	"__LDBL_DIG__ 15\000"
 13366      424C5F44 
 13366      49475F5F 
 13366      20313500 
 13367              	.LASF1052:
 13368 75c3 5744544F 		.ascii	"WDTOSCCTRL\000"
 13368      53434354 
 13368      524C00
 13369              	.LASF784:
 13370 75ce 55415254 		.ascii	"UART_LSR_OE (1 << 1)\000"
 13370      5F4C5352 
 13370      5F4F4520 
 13370      2831203C 
 13370      3C203129 
 13371              	.LASF954:
 13372 75e3 4932435F 		.ascii	"I2C_I2MMCTRL_ENA_SCL ((1 << 1))\000"
 13372      49324D4D 
 13372      4354524C 
 13372      5F454E41 
 13372      5F53434C 
 13373              	.LASF1082:
 13374 7603 434C4B4F 		.ascii	"CLKOUTDIV\000"
 13374      55544449 
 13374      5600
 13375              	.LASF77:
 13376 760d 5F5F5749 		.ascii	"__WINT_MIN__ 0U\000"
 13376      4E545F4D 
 13376      494E5F5F 
 13376      20305500 
 13377              	.LASF1163:
 13378 761d 5353505F 		.ascii	"SSP_INTCLEAR_T\000"
 13378      494E5443 
 13378      4C454152 
 13378      5F5400
 13379              	.LASF179:
 13380 762c 5F5F4445 		.ascii	"__DEC64_EPSILON__ 1E-15DD\000"
 13380      4336345F 
 13380      45505349 
ARM GAS  /tmp/ccFRKuha.s 			page 339


 13380      4C4F4E5F 
 13380      5F203145 
 13381              	.LASF722:
 13382 7646 52425F56 		.ascii	"RB_VHEAD(rb) ((volatile uint32_t)(rb->head))\000"
 13382      48454144 
 13382      28726229 
 13382      20282876 
 13382      6F6C6174 
 13383              	.LASF390:
 13384 7673 5F5F4C45 		.ascii	"__LEAST16 \"h\"\000"
 13384      41535431 
 13384      36202268 
 13384      2200
 13385              	.LASF49:
 13386 7681 5F5F494E 		.ascii	"__INT_LEAST16_TYPE__ short int\000"
 13386      545F4C45 
 13386      41535431 
 13386      365F5459 
 13386      50455F5F 
 13387              	.LASF1070:
 13388 76a0 53535031 		.ascii	"SSP1CLKDIV\000"
 13388      434C4B44 
 13388      495600
 13389              	.LASF647:
 13390 76ab 53595343 		.ascii	"SYSCTL_SLPWAKE_IRC_PD (1 << 1)\000"
 13390      544C5F53 
 13390      4C505741 
 13390      4B455F49 
 13390      52435F50 
 13391              	.LASF146:
 13392 76ca 5F5F4442 		.ascii	"__DBL_MAX__ ((double)1.7976931348623157e+308L)\000"
 13392      4C5F4D41 
 13392      585F5F20 
 13392      2828646F 
 13392      75626C65 
 13393              	.LASF1026:
 13394 76f9 73686F72 		.ascii	"short unsigned int\000"
 13394      7420756E 
 13394      7369676E 
 13394      65642069 
 13394      6E7400
 13395              	.LASF218:
 13396 770c 5F5F4C4C 		.ascii	"__LLFRACT_FBIT__ 63\000"
 13396      46524143 
 13396      545F4642 
 13396      49545F5F 
 13396      20363300 
 13397              	.LASF512:
 13398 7720 5343425F 		.ascii	"SCB_CPUID_IMPLEMENTER_Msk (0xFFUL << SCB_CPUID_IMPL"
 13398      43505549 
 13398      445F494D 
 13398      504C454D 
 13398      454E5445 
 13399 7753 454D454E 		.ascii	"EMENTER_Pos)\000"
 13399      5445525F 
 13399      506F7329 
 13399      00
ARM GAS  /tmp/ccFRKuha.s 			page 340


 13400              	.LASF330:
 13401 7760 5F5F7468 		.ascii	"__thumb__ 1\000"
 13401      756D625F 
 13401      5F203100 
 13402              	.LASF885:
 13403 776c 4144435F 		.ascii	"ADC_CR_PDN ((1UL << 21))\000"
 13403      43525F50 
 13403      444E2028 
 13403      2831554C 
 13403      203C3C20 
 13404              	.LASF115:
 13405 7785 5F5F5549 		.ascii	"__UINT_FAST16_MAX__ 4294967295U\000"
 13405      4E545F46 
 13405      41535431 
 13405      365F4D41 
 13405      585F5F20 
 13406              	.LASF838:
 13407 77a5 55415254 		.ascii	"UART_SYNCCTRL_CCCLR (1 << 6)\000"
 13407      5F53594E 
 13407      43435452 
 13407      4C5F4343 
 13407      434C5220 
 13408              	.LASF270:
 13409 77c2 5F5F4851 		.ascii	"__HQ_FBIT__ 15\000"
 13409      5F464249 
 13409      545F5F20 
 13409      313500
 13410              	.LASF472:
 13411 77d1 5F5F626F 		.ascii	"__bool_true_false_are_defined 1\000"
 13411      6F6C5F74 
 13411      7275655F 
 13411      66616C73 
 13411      655F6172 
 13412              	.LASF937:
 13413 77f1 4932435F 		.ascii	"I2C_I2STAT_S_RX_ARB_LOST_M_SLA ((0x68))\000"
 13413      49325354 
 13413      41545F53 
 13413      5F52585F 
 13413      4152425F 
 13414              	.LASF380:
 13415 7819 5F494E54 		.ascii	"_INT32_EQ_LONG \000"
 13415      33325F45 
 13415      515F4C4F 
 13415      4E472000 
 13416              	.LASF547:
 13417 7829 5343425F 		.ascii	"SCB_AIRCR_VECTCLRACTIVE_Pos 1\000"
 13417      41495243 
 13417      525F5645 
 13417      4354434C 
 13417      52414354 
 13418              	.LASF957:
 13419 7847 49324441 		.ascii	"I2DATA_BUFFER_BITMASK ((0xFF))\000"
 13419      54415F42 
 13419      55464645 
 13419      525F4249 
 13419      544D4153 
 13420              	.LASF1255:
ARM GAS  /tmp/ccFRKuha.s 			page 341


 13421 7866 636D705F 		.ascii	"cmp_clk\000"
 13421      636C6B00 
 13422              	.LASF492:
 13423 786e 5F5F434D 		.ascii	"__CMSIS_11CXX_H_ \000"
 13423      5349535F 
 13423      31314358 
 13423      585F485F 
 13423      2000
 13424              	.LASF998:
 13425 7880 53444F5F 		.ascii	"SDO_ABORT_NOT_EXISTS 0x06020000UL\000"
 13425      41424F52 
 13425      545F4E4F 
 13425      545F4558 
 13425      49535453 
 13426              	.LASF1234:
 13427 78a2 43686970 		.ascii	"Chip_SSP_WriteFrames_Blocking\000"
 13427      5F535350 
 13427      5F577269 
 13427      74654672 
 13427      616D6573 
 13428              	.LASF818:
 13429 78c0 55415254 		.ascii	"UART_ICR_FIXPULSE_EN (1 << 2)\000"
 13429      5F494352 
 13429      5F464958 
 13429      50554C53 
 13429      455F454E 
 13430              	.LASF411:
 13431 78de 55494E54 		.ascii	"UINT8_MAX (__UINT8_MAX__)\000"
 13431      385F4D41 
 13431      5820285F 
 13431      5F55494E 
 13431      54385F4D 
 13432              	.LASF189:
 13433 78f8 5F5F5346 		.ascii	"__SFRACT_IBIT__ 0\000"
 13433      52414354 
 13433      5F494249 
 13433      545F5F20 
 13433      3000
 13434              	.LASF507:
 13435 790a 5F5F434F 		.ascii	"__CORE_CM0_H_DEPENDANT \000"
 13435      52455F43 
 13435      4D305F48 
 13435      5F444550 
 13435      454E4441 
 13436              	.LASF398:
 13437 7922 5F5F696E 		.ascii	"__int_least8_t_defined 1\000"
 13437      745F6C65 
 13437      61737438 
 13437      5F745F64 
 13437      6566696E 
 13438              	.LASF1177:
 13439 793b 43484950 		.ascii	"CHIP_SSP_BITS\000"
 13439      5F535350 
 13439      5F424954 
 13439      5300
 13440              	.LASF665:
 13441 7949 494F434F 		.ascii	"IOCON_FUNC0 0x0\000"
ARM GAS  /tmp/ccFRKuha.s 			page 342


 13441      4E5F4655 
 13441      4E433020 
 13441      30783000 
 13442              	.LASF379:
 13443 7959 6C6F6E67 		.ascii	"long +4\000"
 13443      202B3400 
 13444              	.LASF1156:
 13445 7961 5353505F 		.ascii	"SSP_TXRIS\000"
 13445      54585249 
 13445      5300
 13446              	.LASF593:
 13447 796b 4C50435F 		.ascii	"LPC_TIMER16_1_BASE 0x40010000\000"
 13447      54494D45 
 13447      5231365F 
 13447      315F4241 
 13447      53452030 
 13448              	.LASF1230:
 13449 7989 70726573 		.ascii	"prescale\000"
 13449      63616C65 
 13449      00
 13450              	.LASF945:
 13451 7992 4932435F 		.ascii	"I2C_I2STAT_S_TX_SLAR_ACK ((0xA8))\000"
 13451      49325354 
 13451      41545F53 
 13451      5F54585F 
 13451      534C4152 
 13452              	.LASF1087:
 13453 79b4 53595354 		.ascii	"SYSTCKCAL\000"
 13453      434B4341 
 13453      4C00
 13454              	.LASF863:
 13455 79be 5353505F 		.ascii	"SSP_CPSR_BITMASK ((uint32_t) (0xFF))\000"
 13455      43505352 
 13455      5F424954 
 13455      4D41534B 
 13455      20282875 
 13456              	.LASF31:
 13457 79e3 5F5F5349 		.ascii	"__SIZE_TYPE__ unsigned int\000"
 13457      5A455F54 
 13457      5950455F 
 13457      5F20756E 
 13457      7369676E 
 13458              	.LASF35:
 13459 79fe 5F5F494E 		.ascii	"__INTMAX_TYPE__ long long int\000"
 13459      544D4158 
 13459      5F545950 
 13459      455F5F20 
 13459      6C6F6E67 
 13460              	.LASF837:
 13461 7a1c 55415254 		.ascii	"UART_SYNCCTRL_STARTSTOPDISABLE (1 << 5)\000"
 13461      5F53594E 
 13461      43435452 
 13461      4C5F5354 
 13461      41525453 
 13462              	.LASF1267:
 13463 7a44 2F686F6D 		.ascii	"/home/evt/opel_EE/opel_velocity_interface/firmware\000"
 13463      652F6576 
ARM GAS  /tmp/ccFRKuha.s 			page 343


 13463      742F6F70 
 13463      656C5F45 
 13463      452F6F70 
 13464              	.LASF1004:
 13465 7a77 53444F5F 		.ascii	"SDO_ABORT_TRANSFER 0x08000020UL\000"
 13465      41424F52 
 13465      545F5452 
 13465      414E5346 
 13465      45522030 
 13466              	.LASF191:
 13467 7a97 5F5F5346 		.ascii	"__SFRACT_MAX__ 0X7FP-7HR\000"
 13467      52414354 
 13467      5F4D4158 
 13467      5F5F2030 
 13467      58374650 
 13468              	.LASF719:
 13469 7ab0 54494D45 		.ascii	"TIMER_INT_ON_CAP(n) (_BIT((((n) * 3) + 2)))\000"
 13469      525F494E 
 13469      545F4F4E 
 13469      5F434150 
 13469      286E2920 
 13470              	.LASF981:
 13471 7adc 43414E5F 		.ascii	"CAN_ERROR_BOFF 0x00000004UL\000"
 13471      4552524F 
 13471      525F424F 
 13471      46462030 
 13471      78303030 
 13472              	.LASF1237:
 13473 7af8 74656D70 		.ascii	"temp\000"
 13473      00
 13474              	.LASF862:
 13475 7afd 5353505F 		.ascii	"SSP_CR1_BITMASK ((uint32_t) (0x0F))\000"
 13475      4352315F 
 13475      4249544D 
 13475      41534B20 
 13475      28287569 
 13476              	.LASF811:
 13477 7b21 55415254 		.ascii	"UART_RS485CTRL_AADEN (1 << 2)\000"
 13477      5F525334 
 13477      38354354 
 13477      524C5F41 
 13477      4144454E 
 13478              	.LASF97:
 13479 7b3f 5F5F494E 		.ascii	"__INT16_C(c) c\000"
 13479      5431365F 
 13479      43286329 
 13479      206300
 13480              	.LASF1115:
 13481 7b4e 52455345 		.ascii	"RESET_TIMER0_32\000"
 13481      545F5449 
 13481      4D455230 
 13481      5F333200 
 13482              	.LASF293:
 13483 7b5e 5F5F4441 		.ascii	"__DA_IBIT__ 32\000"
 13483      5F494249 
 13483      545F5F20 
 13483      333200
ARM GAS  /tmp/ccFRKuha.s 			page 344


 13484              	.LASF984:
 13485 7b6d 43414E5F 		.ascii	"CAN_ERROR_ACK 0x00000020UL\000"
 13485      4552524F 
 13485      525F4143 
 13485      4B203078 
 13485      30303030 
 13486              	.LASF1223:
 13487 7b88 636C6F63 		.ascii	"clockMode\000"
 13487      6B4D6F64 
 13487      6500
 13488              	.LASF175:
 13489 7b92 5F5F4445 		.ascii	"__DEC64_MIN_EXP__ (-382)\000"
 13489      4336345F 
 13489      4D494E5F 
 13489      4558505F 
 13489      5F20282D 
 13490              	.LASF550:
 13491 7bab 5343425F 		.ascii	"SCB_SCR_SEVONPEND_Msk (1UL << SCB_SCR_SEVONPEND_Pos"
 13491      5343525F 
 13491      5345564F 
 13491      4E50454E 
 13491      445F4D73 
 13492 7bde 2900     		.ascii	")\000"
 13493              	.LASF744:
 13494 7be0 55415254 		.ascii	"UART_IIR_INTID_MASK (7 << 1)\000"
 13494      5F494952 
 13494      5F494E54 
 13494      49445F4D 
 13494      41534B20 
 13495              	.LASF10:
 13496 7bfd 5F5F4154 		.ascii	"__ATOMIC_ACQ_REL 4\000"
 13496      4F4D4943 
 13496      5F414351 
 13496      5F52454C 
 13496      203400
 13497              	.LASF42:
 13498 7c10 5F5F494E 		.ascii	"__INT32_TYPE__ long int\000"
 13498      5433325F 
 13498      54595045 
 13498      5F5F206C 
 13498      6F6E6720 
 13499              	.LASF346:
 13500 7c28 5F5F4348 		.ascii	"__CHIP_H_ \000"
 13500      49505F48 
 13500      5F2000
 13501              	.LASF142:
 13502 7c33 5F5F4442 		.ascii	"__DBL_MIN_10_EXP__ (-307)\000"
 13502      4C5F4D49 
 13502      4E5F3130 
 13502      5F455850 
 13502      5F5F2028 
 13503              	.LASF871:
 13504 7c4d 5353505F 		.ascii	"SSP_SLAVE_MODE SSP_CR1_SLAVE_EN\000"
 13504      534C4156 
 13504      455F4D4F 
 13504      44452053 
 13504      53505F43 
ARM GAS  /tmp/ccFRKuha.s 			page 345


 13505              	.LASF542:
 13506 7c6d 5343425F 		.ascii	"SCB_AIRCR_VECTKEYSTAT_Msk (0xFFFFUL << SCB_AIRCR_VE"
 13506      41495243 
 13506      525F5645 
 13506      43544B45 
 13506      59535441 
 13507 7ca0 43544B45 		.ascii	"CTKEYSTAT_Pos)\000"
 13507      59535441 
 13507      545F506F 
 13507      732900
 13508              	.LASF707:
 13509 7caf 46554E43 		.ascii	"FUNC7 0x7\000"
 13509      37203078 
 13509      3700
 13510              	.LASF1108:
 13511 7cb9 52455345 		.ascii	"RESET_SSP0\000"
 13511      545F5353 
 13511      503000
 13512              	.LASF1110:
 13513 7cc4 52455345 		.ascii	"RESET_SSP1\000"
 13513      545F5353 
 13513      503100
 13514              	.LASF90:
 13515 7ccf 5F5F5549 		.ascii	"__UINT8_MAX__ 255\000"
 13515      4E54385F 
 13515      4D41585F 
 13515      5F203235 
 13515      3500
 13516              	.LASF801:
 13517 7ce1 55415254 		.ascii	"UART_MSR_DCD (1 << 7)\000"
 13517      5F4D5352 
 13517      5F444344 
 13517      20283120 
 13517      3C3C2037 
 13518              	.LASF116:
 13519 7cf7 5F5F5549 		.ascii	"__UINT_FAST32_MAX__ 4294967295U\000"
 13519      4E545F46 
 13519      41535433 
 13519      325F4D41 
 13519      585F5F20 
 13520              	.LASF102:
 13521 7d17 5F5F5549 		.ascii	"__UINT_LEAST8_MAX__ 255\000"
 13521      4E545F4C 
 13521      45415354 
 13521      385F4D41 
 13521      585F5F20 
 13522              	.LASF1138:
 13523 7d2f 53595343 		.ascii	"SYSCTL_CLOCK_CAN\000"
 13523      544C5F43 
 13523      4C4F434B 
 13523      5F43414E 
 13523      00
 13524              	.LASF139:
 13525 7d40 5F5F4442 		.ascii	"__DBL_MANT_DIG__ 53\000"
 13525      4C5F4D41 
 13525      4E545F44 
 13525      49475F5F 
ARM GAS  /tmp/ccFRKuha.s 			page 346


 13525      20353300 
 13526              	.LASF214:
 13527 7d54 5F5F554C 		.ascii	"__ULFRACT_IBIT__ 0\000"
 13527      46524143 
 13527      545F4942 
 13527      49545F5F 
 13527      203000
 13528              	.LASF1193:
 13529 7d67 5353505F 		.ascii	"SSP_MODE_SLAVE\000"
 13529      4D4F4445 
 13529      5F534C41 
 13529      564500
 13530              	.LASF883:
 13531 7d76 4144435F 		.ascii	"ADC_CR_CLKDIV(n) ((((n) & 0xFF) << 8))\000"
 13531      43525F43 
 13531      4C4B4449 
 13531      56286E29 
 13531      20282828 
 13532              	.LASF713:
 13533 7d9d 54494D45 		.ascii	"TIMER_RESET ((uint32_t) (1 << 1))\000"
 13533      525F5245 
 13533      53455420 
 13533      28287569 
 13533      6E743332 
 13534              	.LASF766:
 13535 7dbf 55415254 		.ascii	"UART_LCR_SBS_1BIT (0 << 2)\000"
 13535      5F4C4352 
 13535      5F534253 
 13535      5F314249 
 13535      54202830 
 13536              	.LASF205:
 13537 7dda 5F5F5546 		.ascii	"__UFRACT_MIN__ 0.0UR\000"
 13537      52414354 
 13537      5F4D494E 
 13537      5F5F2030 
 13537      2E305552 
 13538              	.LASF51:
 13539 7def 5F5F494E 		.ascii	"__INT_LEAST64_TYPE__ long long int\000"
 13539      545F4C45 
 13539      41535436 
 13539      345F5459 
 13539      50455F5F 
 13540              	.LASF742:
 13541 7e12 55415254 		.ascii	"UART_IIR_ABTO_INT (1 << 9)\000"
 13541      5F494952 
 13541      5F414254 
 13541      4F5F494E 
 13541      54202831 
 13542              	.LASF1178:
 13543 7e2d 5353505F 		.ascii	"SSP_BITS_4\000"
 13543      42495453 
 13543      5F3400
 13544              	.LASF1152:
 13545 7e38 5F535350 		.ascii	"_SSP_RAWINTSTATUS\000"
 13545      5F524157 
 13545      494E5453 
 13545      54415455 
ARM GAS  /tmp/ccFRKuha.s 			page 347


 13545      5300
 13546              	.LASF1180:
 13547 7e4a 5353505F 		.ascii	"SSP_BITS_6\000"
 13547      42495453 
 13547      5F3600
 13548              	.LASF1181:
 13549 7e55 5353505F 		.ascii	"SSP_BITS_7\000"
 13549      42495453 
 13549      5F3700
 13550              	.LASF1182:
 13551 7e60 5353505F 		.ascii	"SSP_BITS_8\000"
 13551      42495453 
 13551      5F3800
 13552              	.LASF1183:
 13553 7e6b 5353505F 		.ascii	"SSP_BITS_9\000"
 13553      42495453 
 13553      5F3900
 13554              	.LASF93:
 13555 7e76 5F5F5549 		.ascii	"__UINT64_MAX__ 18446744073709551615ULL\000"
 13555      4E543634 
 13555      5F4D4158 
 13555      5F5F2031 
 13555      38343436 
 13556              	.LASF798:
 13557 7e9d 55415254 		.ascii	"UART_MSR_CTS (1 << 4)\000"
 13557      5F4D5352 
 13557      5F435453 
 13557      20283120 
 13557      3C3C2034 
 13558              	.LASF964:
 13559 7eb3 4932435F 		.ascii	"I2C_SETUP_STATUS_NOACKF (1 << 9)\000"
 13559      53455455 
 13559      505F5354 
 13559      41545553 
 13559      5F4E4F41 
 13560              		.ident	"GCC: (GNU Tools for ARM Embedded Processors) 4.9.3 20150529 (release) [ARM/embedded-4_9-br
ARM GAS  /tmp/ccFRKuha.s 			page 348


DEFINED SYMBOLS
                            *ABS*:00000000 ssp_11xx.c
     /tmp/ccFRKuha.s:67     .text.SSP_Read2BFifo:00000000 $t
     /tmp/ccFRKuha.s:71     .text.SSP_Read2BFifo:00000000 SSP_Read2BFifo
     /tmp/ccFRKuha.s:133    .text.SSP_Read1BFifo:00000000 $t
     /tmp/ccFRKuha.s:137    .text.SSP_Read1BFifo:00000000 SSP_Read1BFifo
     /tmp/ccFRKuha.s:192    .text.Chip_SSP_SetClockRate:00000000 $t
     /tmp/ccFRKuha.s:197    .text.Chip_SSP_SetClockRate:00000000 Chip_SSP_SetClockRate
     /tmp/ccFRKuha.s:229    .text.Chip_SSP_SetClockRate:00000014 $d
     /tmp/ccFRKuha.s:234    .text.Chip_SSP_RWFrames_Blocking:00000000 $t
     /tmp/ccFRKuha.s:239    .text.Chip_SSP_RWFrames_Blocking:00000000 Chip_SSP_RWFrames_Blocking
     /tmp/ccFRKuha.s:484    .text.Chip_SSP_RWFrames_Blocking:000000b0 $d
     /tmp/ccFRKuha.s:489    .text.Chip_SSP_WriteFrames_Blocking:00000000 $t
     /tmp/ccFRKuha.s:494    .text.Chip_SSP_WriteFrames_Blocking:00000000 Chip_SSP_WriteFrames_Blocking
     /tmp/ccFRKuha.s:733    .text.Chip_SSP_ReadFrames_Blocking:00000000 $t
     /tmp/ccFRKuha.s:738    .text.Chip_SSP_ReadFrames_Blocking:00000000 Chip_SSP_ReadFrames_Blocking
     /tmp/ccFRKuha.s:1016   .text.Chip_SSP_ReadFrames_Blocking:000000bc $d
     /tmp/ccFRKuha.s:1021   .text.Chip_SSP_Int_FlushData:00000000 $t
     /tmp/ccFRKuha.s:1026   .text.Chip_SSP_Int_FlushData:00000000 Chip_SSP_Int_FlushData
     /tmp/ccFRKuha.s:1082   .text.Chip_SSP_Int_RWFrames8Bits:00000000 $t
     /tmp/ccFRKuha.s:1087   .text.Chip_SSP_Int_RWFrames8Bits:00000000 Chip_SSP_Int_RWFrames8Bits
     /tmp/ccFRKuha.s:1202   .text.Chip_SSP_Int_RWFrames16Bits:00000000 $t
     /tmp/ccFRKuha.s:1207   .text.Chip_SSP_Int_RWFrames16Bits:00000000 Chip_SSP_Int_RWFrames16Bits
     /tmp/ccFRKuha.s:1321   .text.Chip_SSP_Int_RWFrames16Bits:00000054 $d
     /tmp/ccFRKuha.s:1326   .text.Chip_SSP_SetMaster:00000000 $t
     /tmp/ccFRKuha.s:1331   .text.Chip_SSP_SetMaster:00000000 Chip_SSP_SetMaster
     /tmp/ccFRKuha.s:1365   .text.Chip_SSP_SetBitRate:00000000 $t
     /tmp/ccFRKuha.s:1370   .text.Chip_SSP_SetBitRate:00000000 Chip_SSP_SetBitRate
     /tmp/ccFRKuha.s:1481   .text.Chip_SSP_SetBitRate:00000058 $d
     /tmp/ccFRKuha.s:1488   .text.Chip_SSP_Init:00000000 $t
     /tmp/ccFRKuha.s:1493   .text.Chip_SSP_Init:00000000 Chip_SSP_Init
     /tmp/ccFRKuha.s:1655   .text.Chip_SSP_Init:0000005c $d
     /tmp/ccFRKuha.s:1665   .text.Chip_SSP_DeInit:00000000 $t
     /tmp/ccFRKuha.s:1670   .text.Chip_SSP_DeInit:00000000 Chip_SSP_DeInit
     /tmp/ccFRKuha.s:1765   .text.Chip_SSP_DeInit:00000030 $d
                     .debug_frame:00000010 $d
                           .group:00000000 wm4.0.d60539c8b2f01ca1b851fc35675107cd
                           .group:00000000 wm4.features.h.22.2e382148a0560adabf236cddd4e880f4
                           .group:00000000 wm4._default_types.h.15.933e8edd27a65e0b69af4a865eb623d2
                           .group:00000000 wm4._intsup.h.10.35a45952db64d30146faa63a55c20c1c
                           .group:00000000 wm4._stdint.h.10.f76354baea1c7088202064e6f3d4f5e3
                           .group:00000000 wm4.stdint.h.23.373a9d32a9e4c2e88fd347156532d281
                           .group:00000000 wm4.stdbool.h.29.1c9ee6859ce8145f7838a4f2549ccec2
                           .group:00000000 wm4.lpc_types.h.63.860ba57581a002825766a7c2ac00d549
                           .group:00000000 wm4.sys_config.h.31.9f234e9c90333d233c7e647ebe63e928
                           .group:00000000 wm4.cmsis_11cxx.h.33.407e9bbb5d170cd1552d3f7dc3fd5c42
                           .group:00000000 wm4.core_cm0.h.32.192d13cfa8b31e63c86621de62eb153f
                           .group:00000000 wm4.core_cm0.h.120.f4257ea7d0bce0cbabffe223e23b2fd4
                           .group:00000000 wm4.chip.h.116.857da603c399e979152c31968de4baae
                           .group:00000000 wm4.pmu_11xx.h.33.1d6b708881441cb98d19b8bab3caa180
                           .group:00000000 wm4.sysctl_11xx.h.33.ae61a1181e608f8409883008e291930c
                           .group:00000000 wm4.clock_11xx.h.33.23290a9e2ed919e3a6958d25130bc848
                           .group:00000000 wm4.iocon_11xx.h.33.25e2b3cde122df23fb07b984cb4f3a93
                           .group:00000000 wm4.timer_11xx.h.33.c92f50a9325789ee6a8ffd6248980d70
                           .group:00000000 wm4.ring_buffer.h.33.2f271415f1f27d60350fb4738c5cbee6
                           .group:00000000 wm4.uart_11xx.h.98.fe68b709973730a4fba3f3ce60c5c312
                           .group:00000000 wm4.wwdt_11xx.h.33.5768344983cb842df69cc91ea86cabb0
ARM GAS  /tmp/ccFRKuha.s 			page 349


                           .group:00000000 wm4.ssp_11xx.h.33.af054d3d65f4cb0c078be40bb872ec37
                           .group:00000000 wm4.error.h.38.ae74fe1dd9d19c80c505f1fda144fce8
                           .group:00000000 wm4.adc_11xx.h.33.6ce7433ac6b30df70a6993d01dbd513f
                           .group:00000000 wm4.i2c_11xx.h.33.2b506d1350e00a8c26e8bf006a5f9390
                           .group:00000000 wm4.ccand_11xx.h.33.99627f4b529fecdc77b0877ab6fe5266

UNDEFINED SYMBOLS
__aeabi_uidiv
Chip_Clock_GetMainClockRate
