ARM GAS  /var/folders/f9/8bk2lnw15zn4cbgn6wrnb4lm0000gn/T//ccdAmBzx.s 			page 1


   1              		.cpu cortex-m0
   2              		.fpu softvfp
   3              		.eabi_attribute 20, 1	@ Tag_ABI_FP_denormal
   4              		.eabi_attribute 21, 1	@ Tag_ABI_FP_exceptions
   5              		.eabi_attribute 23, 3	@ Tag_ABI_FP_number_model
   6              		.eabi_attribute 24, 1	@ Tag_ABI_align8_needed
   7              		.eabi_attribute 25, 1	@ Tag_ABI_align8_preserved
   8              		.eabi_attribute 26, 1	@ Tag_ABI_enum_size
   9              		.eabi_attribute 30, 4	@ Tag_ABI_optimization_goals
  10              		.eabi_attribute 34, 0	@ Tag_CPU_unaligned_access
  11              		.eabi_attribute 18, 4	@ Tag_ABI_PCS_wchar_t
  12              		.file	"ssp_11xx.c"
  13              	@ GNU C (GNU Tools for ARM Embedded Processors) version 4.8.4 20140725 (release) [ARM/embedded-4_8-
  14              	@	compiled by GNU C version 4.2.1 (Based on Apple Inc. build 5658) (LLVM build 2336.9.00), GMP vers
  15              	@ GGC heuristics: --param ggc-min-expand=100 --param ggc-min-heapsize=131072
  16              	@ options passed:  -I . -I ../../lpc11cx4-library/lpc_chip_11cxx_lib/inc
  17              	@ -I ../../lpc11cx4-library/evt_lib/inc -I inc -imultilib armv6-m
  18              	@ -iprefix /usr/local/Cellar/gcc-arm-none-eabi/20140805/bin/../lib/gcc/arm-none-eabi/4.8.4/
  19              	@ -isysroot /usr/local/Cellar/gcc-arm-none-eabi/20140805/bin/../arm-none-eabi
  20              	@ -MD bin/ssp_11xx.d -MF bin/ssp_11xx.d -MP -MQ bin/ssp_11xx.o
  21              	@ -D__USES_INITFINI__ -D CORE_M0
  22              	@ ../../lpc11cx4-library/lpc_chip_11cxx_lib/src/ssp_11xx.c -mcpu=cortex-m0
  23              	@ -mthumb -auxbase-strip bin/ssp_11xx.o -g -ggdb3 -Os -Wall
  24              	@ -Wstrict-prototypes -Wextra -std=gnu90 -ffunction-sections
  25              	@ -fdata-sections -fverbose-asm -fstack-usage
  26              	@ options enabled:  -faggressive-loop-optimizations -fauto-inc-dec
  27              	@ -fbranch-count-reg -fcaller-saves -fcombine-stack-adjustments -fcommon
  28              	@ -fcompare-elim -fcprop-registers -fcrossjumping -fcse-follow-jumps
  29              	@ -fdata-sections -fdefer-pop -fdelete-null-pointer-checks -fdevirtualize
  30              	@ -fdwarf2-cfi-asm -fearly-inlining -feliminate-unused-debug-types
  31              	@ -fexpensive-optimizations -fforward-propagate -ffunction-cse
  32              	@ -ffunction-sections -fgcse -fgcse-lm -fgnu-runtime -fgnu-unique
  33              	@ -fguess-branch-probability -fhoist-adjacent-loads -fident -fif-conversion
  34              	@ -fif-conversion2 -findirect-inlining -finline -finline-atomics
  35              	@ -finline-functions -finline-functions-called-once
  36              	@ -finline-small-functions -fipa-cp -fipa-profile -fipa-pure-const
  37              	@ -fipa-reference -fipa-sra -fira-hoist-pressure -fira-share-save-slots
  38              	@ -fira-share-spill-slots -fivopts -fkeep-static-consts
  39              	@ -fleading-underscore -fmath-errno -fmerge-constants -fmerge-debug-strings
  40              	@ -fomit-frame-pointer -foptimize-register-move -foptimize-sibling-calls
  41              	@ -fpartial-inlining -fpeephole -fpeephole2 -fprefetch-loop-arrays
  42              	@ -freg-struct-return -fregmove -freorder-blocks -freorder-functions
  43              	@ -frerun-cse-after-loop -fsched-critical-path-heuristic
  44              	@ -fsched-dep-count-heuristic -fsched-group-heuristic -fsched-interblock
  45              	@ -fsched-last-insn-heuristic -fsched-pressure -fsched-rank-heuristic
  46              	@ -fsched-spec -fsched-spec-insn-heuristic -fsched-stalled-insns-dep
  47              	@ -fschedule-insns2 -fsection-anchors -fshow-column -fshrink-wrap
  48              	@ -fsigned-zeros -fsplit-ivs-in-unroller -fsplit-wide-types
  49              	@ -fstrict-aliasing -fstrict-overflow -fstrict-volatile-bitfields
  50              	@ -fsync-libcalls -fthread-jumps -ftoplevel-reorder -ftrapping-math
  51              	@ -ftree-bit-ccp -ftree-builtin-call-dce -ftree-ccp -ftree-ch
  52              	@ -ftree-coalesce-vars -ftree-copy-prop -ftree-copyrename -ftree-cselim
  53              	@ -ftree-dce -ftree-dominator-opts -ftree-dse -ftree-forwprop -ftree-fre
  54              	@ -ftree-loop-if-convert -ftree-loop-im -ftree-loop-ivcanon
  55              	@ -ftree-loop-optimize -ftree-parallelize-loops= -ftree-phiprop -ftree-pre
  56              	@ -ftree-pta -ftree-reassoc -ftree-scev-cprop -ftree-sink
  57              	@ -ftree-slp-vectorize -ftree-slsr -ftree-sra -ftree-switch-conversion
ARM GAS  /var/folders/f9/8bk2lnw15zn4cbgn6wrnb4lm0000gn/T//ccdAmBzx.s 			page 2


  58              	@ -ftree-tail-merge -ftree-ter -ftree-vect-loop-version -ftree-vrp
  59              	@ -funit-at-a-time -fvar-tracking -fvar-tracking-assignments -fverbose-asm
  60              	@ -fzero-initialized-in-bss -mlittle-endian -mpic-data-is-text-relative
  61              	@ -msched-prolog -mthumb -mvectorize-with-neon-quad
  62              	
  63              		.text
  64              	.Ltext0:
  65              		.cfi_sections	.debug_frame
  66              		.section	.text.SSP_Read2BFifo,"ax",%progbits
  67              		.align	1
  68              		.code	16
  69              		.thumb_func
  70              		.type	SSP_Read2BFifo, %function
  71              	SSP_Read2BFifo:
  72              	.LFB200:
  73              		.file 1 "../../lpc11cx4-library/lpc_chip_11cxx_lib/src/ssp_11xx.c"
   1:../../lpc11cx4-library/lpc_chip_11cxx_lib/src/ssp_11xx.c **** /*
   2:../../lpc11cx4-library/lpc_chip_11cxx_lib/src/ssp_11xx.c ****  * @brief LPC11xx SSP Registers and control functions
   3:../../lpc11cx4-library/lpc_chip_11cxx_lib/src/ssp_11xx.c ****  *
   4:../../lpc11cx4-library/lpc_chip_11cxx_lib/src/ssp_11xx.c ****  * @note
   5:../../lpc11cx4-library/lpc_chip_11cxx_lib/src/ssp_11xx.c ****  * Copyright(C) NXP Semiconductors, 2012
   6:../../lpc11cx4-library/lpc_chip_11cxx_lib/src/ssp_11xx.c ****  * All rights reserved.
   7:../../lpc11cx4-library/lpc_chip_11cxx_lib/src/ssp_11xx.c ****  *
   8:../../lpc11cx4-library/lpc_chip_11cxx_lib/src/ssp_11xx.c ****  * @par
   9:../../lpc11cx4-library/lpc_chip_11cxx_lib/src/ssp_11xx.c ****  * Software that is described herein is for illustrative purposes only
  10:../../lpc11cx4-library/lpc_chip_11cxx_lib/src/ssp_11xx.c ****  * which provides customers with programming information regarding the
  11:../../lpc11cx4-library/lpc_chip_11cxx_lib/src/ssp_11xx.c ****  * LPC products.  This software is supplied "AS IS" without any warranties of
  12:../../lpc11cx4-library/lpc_chip_11cxx_lib/src/ssp_11xx.c ****  * any kind, and NXP Semiconductors and its licensor disclaim any and
  13:../../lpc11cx4-library/lpc_chip_11cxx_lib/src/ssp_11xx.c ****  * all warranties, express or implied, including all implied warranties of
  14:../../lpc11cx4-library/lpc_chip_11cxx_lib/src/ssp_11xx.c ****  * merchantability, fitness for a particular purpose and non-infringement of
  15:../../lpc11cx4-library/lpc_chip_11cxx_lib/src/ssp_11xx.c ****  * intellectual property rights.  NXP Semiconductors assumes no responsibility
  16:../../lpc11cx4-library/lpc_chip_11cxx_lib/src/ssp_11xx.c ****  * or liability for the use of the software, conveys no license or rights under any
  17:../../lpc11cx4-library/lpc_chip_11cxx_lib/src/ssp_11xx.c ****  * patent, copyright, mask work right, or any other intellectual property rights in
  18:../../lpc11cx4-library/lpc_chip_11cxx_lib/src/ssp_11xx.c ****  * or to any products. NXP Semiconductors reserves the right to make changes
  19:../../lpc11cx4-library/lpc_chip_11cxx_lib/src/ssp_11xx.c ****  * in the software without notification. NXP Semiconductors also makes no
  20:../../lpc11cx4-library/lpc_chip_11cxx_lib/src/ssp_11xx.c ****  * representation or warranty that such application will be suitable for the
  21:../../lpc11cx4-library/lpc_chip_11cxx_lib/src/ssp_11xx.c ****  * specified use without further testing or modification.
  22:../../lpc11cx4-library/lpc_chip_11cxx_lib/src/ssp_11xx.c ****  *
  23:../../lpc11cx4-library/lpc_chip_11cxx_lib/src/ssp_11xx.c ****  * @par
  24:../../lpc11cx4-library/lpc_chip_11cxx_lib/src/ssp_11xx.c ****  * Permission to use, copy, modify, and distribute this software and its
  25:../../lpc11cx4-library/lpc_chip_11cxx_lib/src/ssp_11xx.c ****  * documentation is hereby granted, under NXP Semiconductors' and its
  26:../../lpc11cx4-library/lpc_chip_11cxx_lib/src/ssp_11xx.c ****  * licensor's relevant copyrights in the software, without fee, provided that it
  27:../../lpc11cx4-library/lpc_chip_11cxx_lib/src/ssp_11xx.c ****  * is used in conjunction with NXP Semiconductors microcontrollers.  This
  28:../../lpc11cx4-library/lpc_chip_11cxx_lib/src/ssp_11xx.c ****  * copyright, permission, and disclaimer notice must appear in all copies of
  29:../../lpc11cx4-library/lpc_chip_11cxx_lib/src/ssp_11xx.c ****  * this code.
  30:../../lpc11cx4-library/lpc_chip_11cxx_lib/src/ssp_11xx.c ****  */
  31:../../lpc11cx4-library/lpc_chip_11cxx_lib/src/ssp_11xx.c **** 
  32:../../lpc11cx4-library/lpc_chip_11cxx_lib/src/ssp_11xx.c **** #include "chip.h"
  33:../../lpc11cx4-library/lpc_chip_11cxx_lib/src/ssp_11xx.c **** 
  34:../../lpc11cx4-library/lpc_chip_11cxx_lib/src/ssp_11xx.c **** /*****************************************************************************
  35:../../lpc11cx4-library/lpc_chip_11cxx_lib/src/ssp_11xx.c ****  * Private types/enumerations/variables
  36:../../lpc11cx4-library/lpc_chip_11cxx_lib/src/ssp_11xx.c ****  ****************************************************************************/
  37:../../lpc11cx4-library/lpc_chip_11cxx_lib/src/ssp_11xx.c **** 
  38:../../lpc11cx4-library/lpc_chip_11cxx_lib/src/ssp_11xx.c **** /*****************************************************************************
  39:../../lpc11cx4-library/lpc_chip_11cxx_lib/src/ssp_11xx.c ****  * Public types/enumerations/variables
  40:../../lpc11cx4-library/lpc_chip_11cxx_lib/src/ssp_11xx.c ****  ****************************************************************************/
  41:../../lpc11cx4-library/lpc_chip_11cxx_lib/src/ssp_11xx.c **** 
ARM GAS  /var/folders/f9/8bk2lnw15zn4cbgn6wrnb4lm0000gn/T//ccdAmBzx.s 			page 3


  42:../../lpc11cx4-library/lpc_chip_11cxx_lib/src/ssp_11xx.c **** /*****************************************************************************
  43:../../lpc11cx4-library/lpc_chip_11cxx_lib/src/ssp_11xx.c ****  * Private functions
  44:../../lpc11cx4-library/lpc_chip_11cxx_lib/src/ssp_11xx.c ****  ****************************************************************************/
  45:../../lpc11cx4-library/lpc_chip_11cxx_lib/src/ssp_11xx.c **** 
  46:../../lpc11cx4-library/lpc_chip_11cxx_lib/src/ssp_11xx.c **** STATIC void SSP_Write2BFifo(LPC_SSP_T *pSSP, Chip_SSP_DATA_SETUP_T *xf_setup)
  47:../../lpc11cx4-library/lpc_chip_11cxx_lib/src/ssp_11xx.c **** {
  48:../../lpc11cx4-library/lpc_chip_11cxx_lib/src/ssp_11xx.c **** 	if (xf_setup->tx_data) {
  49:../../lpc11cx4-library/lpc_chip_11cxx_lib/src/ssp_11xx.c **** 		Chip_SSP_SendFrame(pSSP, (*(uint16_t *) ((uint32_t) xf_setup->tx_data +
  50:../../lpc11cx4-library/lpc_chip_11cxx_lib/src/ssp_11xx.c **** 												 xf_setup->tx_cnt)));
  51:../../lpc11cx4-library/lpc_chip_11cxx_lib/src/ssp_11xx.c **** 	}
  52:../../lpc11cx4-library/lpc_chip_11cxx_lib/src/ssp_11xx.c **** 	else {
  53:../../lpc11cx4-library/lpc_chip_11cxx_lib/src/ssp_11xx.c **** 		Chip_SSP_SendFrame(pSSP, 0xFFFF);
  54:../../lpc11cx4-library/lpc_chip_11cxx_lib/src/ssp_11xx.c **** 	}
  55:../../lpc11cx4-library/lpc_chip_11cxx_lib/src/ssp_11xx.c **** 
  56:../../lpc11cx4-library/lpc_chip_11cxx_lib/src/ssp_11xx.c **** 	xf_setup->tx_cnt += 2;
  57:../../lpc11cx4-library/lpc_chip_11cxx_lib/src/ssp_11xx.c **** }
  58:../../lpc11cx4-library/lpc_chip_11cxx_lib/src/ssp_11xx.c **** 
  59:../../lpc11cx4-library/lpc_chip_11cxx_lib/src/ssp_11xx.c **** /** SSP macro: write 1 bytes to FIFO buffer */
  60:../../lpc11cx4-library/lpc_chip_11cxx_lib/src/ssp_11xx.c **** STATIC void SSP_Write1BFifo(LPC_SSP_T *pSSP, Chip_SSP_DATA_SETUP_T *xf_setup)
  61:../../lpc11cx4-library/lpc_chip_11cxx_lib/src/ssp_11xx.c **** {
  62:../../lpc11cx4-library/lpc_chip_11cxx_lib/src/ssp_11xx.c **** 	if (xf_setup->tx_data) {
  63:../../lpc11cx4-library/lpc_chip_11cxx_lib/src/ssp_11xx.c **** 		Chip_SSP_SendFrame(pSSP, (*(uint8_t *) ((uint32_t) xf_setup->tx_data + xf_setup->tx_cnt)));
  64:../../lpc11cx4-library/lpc_chip_11cxx_lib/src/ssp_11xx.c **** 	}
  65:../../lpc11cx4-library/lpc_chip_11cxx_lib/src/ssp_11xx.c **** 	else {
  66:../../lpc11cx4-library/lpc_chip_11cxx_lib/src/ssp_11xx.c **** 		Chip_SSP_SendFrame(pSSP, 0xFF);
  67:../../lpc11cx4-library/lpc_chip_11cxx_lib/src/ssp_11xx.c **** 	}
  68:../../lpc11cx4-library/lpc_chip_11cxx_lib/src/ssp_11xx.c **** 
  69:../../lpc11cx4-library/lpc_chip_11cxx_lib/src/ssp_11xx.c **** 	xf_setup->tx_cnt++;
  70:../../lpc11cx4-library/lpc_chip_11cxx_lib/src/ssp_11xx.c **** }
  71:../../lpc11cx4-library/lpc_chip_11cxx_lib/src/ssp_11xx.c **** 
  72:../../lpc11cx4-library/lpc_chip_11cxx_lib/src/ssp_11xx.c **** /** SSP macro: read 1 bytes from FIFO buffer */
  73:../../lpc11cx4-library/lpc_chip_11cxx_lib/src/ssp_11xx.c **** STATIC void SSP_Read2BFifo(LPC_SSP_T *pSSP, Chip_SSP_DATA_SETUP_T *xf_setup)
  74:../../lpc11cx4-library/lpc_chip_11cxx_lib/src/ssp_11xx.c **** {
  74              		.loc 1 74 0
  75              		.cfi_startproc
  76              	.LVL0:
  77 0000 10B5     		push	{r4, lr}	@
  78              		.cfi_def_cfa_offset 8
  79              		.cfi_offset 4, -8
  80              		.cfi_offset 14, -4
  81              	.L2:
  82              	.LVL1:
  83              	.LBB140:
  84              	.LBB141:
  85              		.file 2 "../../lpc11cx4-library/lpc_chip_11cxx_lib/inc/ssp_11xx.h"
   1:../../lpc11cx4-library/lpc_chip_11cxx_lib/inc/ssp_11xx.h **** /*
   2:../../lpc11cx4-library/lpc_chip_11cxx_lib/inc/ssp_11xx.h ****  * @brief LPC11xx SSP Registers and control functions
   3:../../lpc11cx4-library/lpc_chip_11cxx_lib/inc/ssp_11xx.h ****  *
   4:../../lpc11cx4-library/lpc_chip_11cxx_lib/inc/ssp_11xx.h ****  * @note
   5:../../lpc11cx4-library/lpc_chip_11cxx_lib/inc/ssp_11xx.h ****  * Copyright(C) NXP Semiconductors, 2012
   6:../../lpc11cx4-library/lpc_chip_11cxx_lib/inc/ssp_11xx.h ****  * All rights reserved.
   7:../../lpc11cx4-library/lpc_chip_11cxx_lib/inc/ssp_11xx.h ****  *
   8:../../lpc11cx4-library/lpc_chip_11cxx_lib/inc/ssp_11xx.h ****  * @par
   9:../../lpc11cx4-library/lpc_chip_11cxx_lib/inc/ssp_11xx.h ****  * Software that is described herein is for illustrative purposes only
  10:../../lpc11cx4-library/lpc_chip_11cxx_lib/inc/ssp_11xx.h ****  * which provides customers with programming information regarding the
  11:../../lpc11cx4-library/lpc_chip_11cxx_lib/inc/ssp_11xx.h ****  * LPC products.  This software is supplied "AS IS" without any warranties of
  12:../../lpc11cx4-library/lpc_chip_11cxx_lib/inc/ssp_11xx.h ****  * any kind, and NXP Semiconductors and its licensor disclaim any and
ARM GAS  /var/folders/f9/8bk2lnw15zn4cbgn6wrnb4lm0000gn/T//ccdAmBzx.s 			page 4


  13:../../lpc11cx4-library/lpc_chip_11cxx_lib/inc/ssp_11xx.h ****  * all warranties, express or implied, including all implied warranties of
  14:../../lpc11cx4-library/lpc_chip_11cxx_lib/inc/ssp_11xx.h ****  * merchantability, fitness for a particular purpose and non-infringement of
  15:../../lpc11cx4-library/lpc_chip_11cxx_lib/inc/ssp_11xx.h ****  * intellectual property rights.  NXP Semiconductors assumes no responsibility
  16:../../lpc11cx4-library/lpc_chip_11cxx_lib/inc/ssp_11xx.h ****  * or liability for the use of the software, conveys no license or rights under any
  17:../../lpc11cx4-library/lpc_chip_11cxx_lib/inc/ssp_11xx.h ****  * patent, copyright, mask work right, or any other intellectual property rights in
  18:../../lpc11cx4-library/lpc_chip_11cxx_lib/inc/ssp_11xx.h ****  * or to any products. NXP Semiconductors reserves the right to make changes
  19:../../lpc11cx4-library/lpc_chip_11cxx_lib/inc/ssp_11xx.h ****  * in the software without notification. NXP Semiconductors also makes no
  20:../../lpc11cx4-library/lpc_chip_11cxx_lib/inc/ssp_11xx.h ****  * representation or warranty that such application will be suitable for the
  21:../../lpc11cx4-library/lpc_chip_11cxx_lib/inc/ssp_11xx.h ****  * specified use without further testing or modification.
  22:../../lpc11cx4-library/lpc_chip_11cxx_lib/inc/ssp_11xx.h ****  *
  23:../../lpc11cx4-library/lpc_chip_11cxx_lib/inc/ssp_11xx.h ****  * @par
  24:../../lpc11cx4-library/lpc_chip_11cxx_lib/inc/ssp_11xx.h ****  * Permission to use, copy, modify, and distribute this software and its
  25:../../lpc11cx4-library/lpc_chip_11cxx_lib/inc/ssp_11xx.h ****  * documentation is hereby granted, under NXP Semiconductors' and its
  26:../../lpc11cx4-library/lpc_chip_11cxx_lib/inc/ssp_11xx.h ****  * licensor's relevant copyrights in the software, without fee, provided that it
  27:../../lpc11cx4-library/lpc_chip_11cxx_lib/inc/ssp_11xx.h ****  * is used in conjunction with NXP Semiconductors microcontrollers.  This
  28:../../lpc11cx4-library/lpc_chip_11cxx_lib/inc/ssp_11xx.h ****  * copyright, permission, and disclaimer notice must appear in all copies of
  29:../../lpc11cx4-library/lpc_chip_11cxx_lib/inc/ssp_11xx.h ****  * this code.
  30:../../lpc11cx4-library/lpc_chip_11cxx_lib/inc/ssp_11xx.h ****  */
  31:../../lpc11cx4-library/lpc_chip_11cxx_lib/inc/ssp_11xx.h **** 
  32:../../lpc11cx4-library/lpc_chip_11cxx_lib/inc/ssp_11xx.h **** #ifndef __SSP_11XX_H_
  33:../../lpc11cx4-library/lpc_chip_11cxx_lib/inc/ssp_11xx.h **** #define __SSP_11XX_H_
  34:../../lpc11cx4-library/lpc_chip_11cxx_lib/inc/ssp_11xx.h **** 
  35:../../lpc11cx4-library/lpc_chip_11cxx_lib/inc/ssp_11xx.h **** #ifdef __cplusplus
  36:../../lpc11cx4-library/lpc_chip_11cxx_lib/inc/ssp_11xx.h **** extern "C" {
  37:../../lpc11cx4-library/lpc_chip_11cxx_lib/inc/ssp_11xx.h **** #endif
  38:../../lpc11cx4-library/lpc_chip_11cxx_lib/inc/ssp_11xx.h **** 
  39:../../lpc11cx4-library/lpc_chip_11cxx_lib/inc/ssp_11xx.h **** /** @defgroup SSP_11XX CHIP: LPC11xx SSP register block and driver
  40:../../lpc11cx4-library/lpc_chip_11cxx_lib/inc/ssp_11xx.h ****  * @ingroup CHIP_11XX_Drivers
  41:../../lpc11cx4-library/lpc_chip_11cxx_lib/inc/ssp_11xx.h ****  * @{
  42:../../lpc11cx4-library/lpc_chip_11cxx_lib/inc/ssp_11xx.h ****  */
  43:../../lpc11cx4-library/lpc_chip_11cxx_lib/inc/ssp_11xx.h **** 
  44:../../lpc11cx4-library/lpc_chip_11cxx_lib/inc/ssp_11xx.h **** /**
  45:../../lpc11cx4-library/lpc_chip_11cxx_lib/inc/ssp_11xx.h ****  * @brief SSP register block structure
  46:../../lpc11cx4-library/lpc_chip_11cxx_lib/inc/ssp_11xx.h ****  */
  47:../../lpc11cx4-library/lpc_chip_11cxx_lib/inc/ssp_11xx.h **** typedef struct {			/*!< SSPn Structure         */
  48:../../lpc11cx4-library/lpc_chip_11cxx_lib/inc/ssp_11xx.h **** 	__IO uint32_t CR0;		/*!< Control Register 0. Selects the serial clock rate, bus type, and data siz
  49:../../lpc11cx4-library/lpc_chip_11cxx_lib/inc/ssp_11xx.h **** 	__IO uint32_t CR1;		/*!< Control Register 1. Selects master/slave and other modes. */
  50:../../lpc11cx4-library/lpc_chip_11cxx_lib/inc/ssp_11xx.h **** 	__IO uint32_t DR;		/*!< Data Register. Writes fill the transmit FIFO, and reads empty the receive 
  51:../../lpc11cx4-library/lpc_chip_11cxx_lib/inc/ssp_11xx.h **** 	__I  uint32_t SR;		/*!< Status Register        */
  52:../../lpc11cx4-library/lpc_chip_11cxx_lib/inc/ssp_11xx.h **** 	__IO uint32_t CPSR;		/*!< Clock Prescale Register */
  53:../../lpc11cx4-library/lpc_chip_11cxx_lib/inc/ssp_11xx.h **** 	__IO uint32_t IMSC;		/*!< Interrupt Mask Set and Clear Register */
  54:../../lpc11cx4-library/lpc_chip_11cxx_lib/inc/ssp_11xx.h **** 	__I  uint32_t RIS;		/*!< Raw Interrupt Status Register */
  55:../../lpc11cx4-library/lpc_chip_11cxx_lib/inc/ssp_11xx.h **** 	__I  uint32_t MIS;		/*!< Masked Interrupt Status Register */
  56:../../lpc11cx4-library/lpc_chip_11cxx_lib/inc/ssp_11xx.h **** 	__O  uint32_t ICR;		/*!< SSPICR Interrupt Clear Register */
  57:../../lpc11cx4-library/lpc_chip_11cxx_lib/inc/ssp_11xx.h **** } LPC_SSP_T;
  58:../../lpc11cx4-library/lpc_chip_11cxx_lib/inc/ssp_11xx.h **** 
  59:../../lpc11cx4-library/lpc_chip_11cxx_lib/inc/ssp_11xx.h **** /**
  60:../../lpc11cx4-library/lpc_chip_11cxx_lib/inc/ssp_11xx.h ****  * Macro defines for CR0 register
  61:../../lpc11cx4-library/lpc_chip_11cxx_lib/inc/ssp_11xx.h ****  */
  62:../../lpc11cx4-library/lpc_chip_11cxx_lib/inc/ssp_11xx.h **** 
  63:../../lpc11cx4-library/lpc_chip_11cxx_lib/inc/ssp_11xx.h **** /** SSP data size select, must be 4 bits to 16 bits */
  64:../../lpc11cx4-library/lpc_chip_11cxx_lib/inc/ssp_11xx.h **** #define SSP_CR0_DSS(n)          ((uint32_t) ((n) & 0xF))
  65:../../lpc11cx4-library/lpc_chip_11cxx_lib/inc/ssp_11xx.h **** /** SSP control 0 Motorola SPI mode */
  66:../../lpc11cx4-library/lpc_chip_11cxx_lib/inc/ssp_11xx.h **** #define SSP_CR0_FRF_SPI         ((uint32_t) (0 << 4))
  67:../../lpc11cx4-library/lpc_chip_11cxx_lib/inc/ssp_11xx.h **** /** SSP control 0 TI synchronous serial mode */
  68:../../lpc11cx4-library/lpc_chip_11cxx_lib/inc/ssp_11xx.h **** #define SSP_CR0_FRF_TI          ((uint32_t) (1 << 4))
  69:../../lpc11cx4-library/lpc_chip_11cxx_lib/inc/ssp_11xx.h **** /** SSP control 0 National Micro-wire mode */
ARM GAS  /var/folders/f9/8bk2lnw15zn4cbgn6wrnb4lm0000gn/T//ccdAmBzx.s 			page 5


  70:../../lpc11cx4-library/lpc_chip_11cxx_lib/inc/ssp_11xx.h **** #define SSP_CR0_FRF_MICROWIRE   ((uint32_t) (2 << 4))
  71:../../lpc11cx4-library/lpc_chip_11cxx_lib/inc/ssp_11xx.h **** /** SPI clock polarity bit (used in SPI mode only), (1) = maintains the
  72:../../lpc11cx4-library/lpc_chip_11cxx_lib/inc/ssp_11xx.h ****    bus clock high between frames, (0) = low */
  73:../../lpc11cx4-library/lpc_chip_11cxx_lib/inc/ssp_11xx.h **** #define SSP_CR0_CPOL_LO     ((uint32_t) (0))
  74:../../lpc11cx4-library/lpc_chip_11cxx_lib/inc/ssp_11xx.h **** #define SSP_CR0_CPOL_HI     ((uint32_t) (1 << 6))
  75:../../lpc11cx4-library/lpc_chip_11cxx_lib/inc/ssp_11xx.h **** /** SPI clock out phase bit (used in SPI mode only), (1) = captures data
  76:../../lpc11cx4-library/lpc_chip_11cxx_lib/inc/ssp_11xx.h ****    on the second clock transition of the frame, (0) = first */
  77:../../lpc11cx4-library/lpc_chip_11cxx_lib/inc/ssp_11xx.h **** #define SSP_CR0_CPHA_FIRST  ((uint32_t) (0))
  78:../../lpc11cx4-library/lpc_chip_11cxx_lib/inc/ssp_11xx.h **** #define SSP_CR0_CPHA_SECOND ((uint32_t) (1 << 7))
  79:../../lpc11cx4-library/lpc_chip_11cxx_lib/inc/ssp_11xx.h **** /** SSP serial clock rate value load macro, divider rate is
  80:../../lpc11cx4-library/lpc_chip_11cxx_lib/inc/ssp_11xx.h ****    PERIPH_CLK / (cpsr * (SCR + 1)) */
  81:../../lpc11cx4-library/lpc_chip_11cxx_lib/inc/ssp_11xx.h **** #define SSP_CR0_SCR(n)      ((uint32_t) ((n & 0xFF) << 8))
  82:../../lpc11cx4-library/lpc_chip_11cxx_lib/inc/ssp_11xx.h **** /** SSP CR0 bit mask */
  83:../../lpc11cx4-library/lpc_chip_11cxx_lib/inc/ssp_11xx.h **** #define SSP_CR0_BITMASK     ((uint32_t) (0xFFFF))
  84:../../lpc11cx4-library/lpc_chip_11cxx_lib/inc/ssp_11xx.h **** /** SSP CR0 bit mask */
  85:../../lpc11cx4-library/lpc_chip_11cxx_lib/inc/ssp_11xx.h **** #define SSP_CR0_BITMASK     ((uint32_t) (0xFFFF))
  86:../../lpc11cx4-library/lpc_chip_11cxx_lib/inc/ssp_11xx.h **** /** SSP serial clock rate value load macro, divider rate is
  87:../../lpc11cx4-library/lpc_chip_11cxx_lib/inc/ssp_11xx.h ****    PERIPH_CLK / (cpsr * (SCR + 1)) */
  88:../../lpc11cx4-library/lpc_chip_11cxx_lib/inc/ssp_11xx.h **** #define SSP_CR0_SCR(n)      ((uint32_t) ((n & 0xFF) << 8))
  89:../../lpc11cx4-library/lpc_chip_11cxx_lib/inc/ssp_11xx.h **** 
  90:../../lpc11cx4-library/lpc_chip_11cxx_lib/inc/ssp_11xx.h **** /**
  91:../../lpc11cx4-library/lpc_chip_11cxx_lib/inc/ssp_11xx.h ****  * Macro defines for CR1 register
  92:../../lpc11cx4-library/lpc_chip_11cxx_lib/inc/ssp_11xx.h ****  */
  93:../../lpc11cx4-library/lpc_chip_11cxx_lib/inc/ssp_11xx.h **** 
  94:../../lpc11cx4-library/lpc_chip_11cxx_lib/inc/ssp_11xx.h **** /** SSP control 1 loopback mode enable bit */
  95:../../lpc11cx4-library/lpc_chip_11cxx_lib/inc/ssp_11xx.h **** #define SSP_CR1_LBM_EN      ((uint32_t) (1 << 0))
  96:../../lpc11cx4-library/lpc_chip_11cxx_lib/inc/ssp_11xx.h **** /** SSP control 1 enable bit */
  97:../../lpc11cx4-library/lpc_chip_11cxx_lib/inc/ssp_11xx.h **** #define SSP_CR1_SSP_EN      ((uint32_t) (1 << 1))
  98:../../lpc11cx4-library/lpc_chip_11cxx_lib/inc/ssp_11xx.h **** /** SSP control 1 slave enable */
  99:../../lpc11cx4-library/lpc_chip_11cxx_lib/inc/ssp_11xx.h **** #define SSP_CR1_SLAVE_EN    ((uint32_t) (1 << 2))
 100:../../lpc11cx4-library/lpc_chip_11cxx_lib/inc/ssp_11xx.h **** #define SSP_CR1_MASTER_EN   ((uint32_t) (0))
 101:../../lpc11cx4-library/lpc_chip_11cxx_lib/inc/ssp_11xx.h **** /** SSP control 1 slave out disable bit, disables transmit line in slave
 102:../../lpc11cx4-library/lpc_chip_11cxx_lib/inc/ssp_11xx.h ****    mode */
 103:../../lpc11cx4-library/lpc_chip_11cxx_lib/inc/ssp_11xx.h **** #define SSP_CR1_SO_DISABLE  ((uint32_t) (1 << 3))
 104:../../lpc11cx4-library/lpc_chip_11cxx_lib/inc/ssp_11xx.h **** /** SSP CR1 bit mask */
 105:../../lpc11cx4-library/lpc_chip_11cxx_lib/inc/ssp_11xx.h **** #define SSP_CR1_BITMASK     ((uint32_t) (0x0F))
 106:../../lpc11cx4-library/lpc_chip_11cxx_lib/inc/ssp_11xx.h **** 
 107:../../lpc11cx4-library/lpc_chip_11cxx_lib/inc/ssp_11xx.h **** /** SSP CPSR bit mask */
 108:../../lpc11cx4-library/lpc_chip_11cxx_lib/inc/ssp_11xx.h **** #define SSP_CPSR_BITMASK    ((uint32_t) (0xFF))
 109:../../lpc11cx4-library/lpc_chip_11cxx_lib/inc/ssp_11xx.h **** /**
 110:../../lpc11cx4-library/lpc_chip_11cxx_lib/inc/ssp_11xx.h ****  * Macro defines for DR register
 111:../../lpc11cx4-library/lpc_chip_11cxx_lib/inc/ssp_11xx.h ****  */
 112:../../lpc11cx4-library/lpc_chip_11cxx_lib/inc/ssp_11xx.h **** 
 113:../../lpc11cx4-library/lpc_chip_11cxx_lib/inc/ssp_11xx.h **** /** SSP data bit mask */
 114:../../lpc11cx4-library/lpc_chip_11cxx_lib/inc/ssp_11xx.h **** #define SSP_DR_BITMASK(n)   ((n) & 0xFFFF)
 115:../../lpc11cx4-library/lpc_chip_11cxx_lib/inc/ssp_11xx.h **** 
 116:../../lpc11cx4-library/lpc_chip_11cxx_lib/inc/ssp_11xx.h **** /**
 117:../../lpc11cx4-library/lpc_chip_11cxx_lib/inc/ssp_11xx.h ****  * Macro defines for SR register
 118:../../lpc11cx4-library/lpc_chip_11cxx_lib/inc/ssp_11xx.h ****  */
 119:../../lpc11cx4-library/lpc_chip_11cxx_lib/inc/ssp_11xx.h **** 
 120:../../lpc11cx4-library/lpc_chip_11cxx_lib/inc/ssp_11xx.h **** /** SSP SR bit mask */
 121:../../lpc11cx4-library/lpc_chip_11cxx_lib/inc/ssp_11xx.h **** #define SSP_SR_BITMASK  ((uint32_t) (0x1F))
 122:../../lpc11cx4-library/lpc_chip_11cxx_lib/inc/ssp_11xx.h **** 
 123:../../lpc11cx4-library/lpc_chip_11cxx_lib/inc/ssp_11xx.h **** /** ICR bit mask */
 124:../../lpc11cx4-library/lpc_chip_11cxx_lib/inc/ssp_11xx.h **** #define SSP_ICR_BITMASK ((uint32_t) (0x03))
 125:../../lpc11cx4-library/lpc_chip_11cxx_lib/inc/ssp_11xx.h **** 
 126:../../lpc11cx4-library/lpc_chip_11cxx_lib/inc/ssp_11xx.h **** /**
ARM GAS  /var/folders/f9/8bk2lnw15zn4cbgn6wrnb4lm0000gn/T//ccdAmBzx.s 			page 6


 127:../../lpc11cx4-library/lpc_chip_11cxx_lib/inc/ssp_11xx.h ****  * @brief SSP Type of Status
 128:../../lpc11cx4-library/lpc_chip_11cxx_lib/inc/ssp_11xx.h ****  */
 129:../../lpc11cx4-library/lpc_chip_11cxx_lib/inc/ssp_11xx.h **** typedef enum _SSP_STATUS {
 130:../../lpc11cx4-library/lpc_chip_11cxx_lib/inc/ssp_11xx.h **** 	SSP_STAT_TFE = ((uint32_t)(1 << 0)),/**< TX FIFO Empty */
 131:../../lpc11cx4-library/lpc_chip_11cxx_lib/inc/ssp_11xx.h **** 	SSP_STAT_TNF = ((uint32_t)(1 << 1)),/**< TX FIFO not full */
 132:../../lpc11cx4-library/lpc_chip_11cxx_lib/inc/ssp_11xx.h **** 	SSP_STAT_RNE = ((uint32_t)(1 << 2)),/**< RX FIFO not empty */
 133:../../lpc11cx4-library/lpc_chip_11cxx_lib/inc/ssp_11xx.h **** 	SSP_STAT_RFF = ((uint32_t)(1 << 3)),/**< RX FIFO full */
 134:../../lpc11cx4-library/lpc_chip_11cxx_lib/inc/ssp_11xx.h **** 	SSP_STAT_BSY = ((uint32_t)(1 << 4)),/**< SSP Busy */
 135:../../lpc11cx4-library/lpc_chip_11cxx_lib/inc/ssp_11xx.h **** } SSP_STATUS_T;
 136:../../lpc11cx4-library/lpc_chip_11cxx_lib/inc/ssp_11xx.h **** 
 137:../../lpc11cx4-library/lpc_chip_11cxx_lib/inc/ssp_11xx.h **** /**
 138:../../lpc11cx4-library/lpc_chip_11cxx_lib/inc/ssp_11xx.h ****  * @brief SSP Type of Interrupt Mask
 139:../../lpc11cx4-library/lpc_chip_11cxx_lib/inc/ssp_11xx.h ****  */
 140:../../lpc11cx4-library/lpc_chip_11cxx_lib/inc/ssp_11xx.h **** typedef enum _SSP_INTMASK {
 141:../../lpc11cx4-library/lpc_chip_11cxx_lib/inc/ssp_11xx.h **** 	SSP_RORIM = ((uint32_t)(1 << 0)),	/**< Overun */
 142:../../lpc11cx4-library/lpc_chip_11cxx_lib/inc/ssp_11xx.h **** 	SSP_RTIM = ((uint32_t)(1 << 1)),/**< TimeOut */
 143:../../lpc11cx4-library/lpc_chip_11cxx_lib/inc/ssp_11xx.h **** 	SSP_RXIM = ((uint32_t)(1 << 2)),/**< Rx FIFO is at least half full */
 144:../../lpc11cx4-library/lpc_chip_11cxx_lib/inc/ssp_11xx.h **** 	SSP_TXIM = ((uint32_t)(1 << 3)),/**< Tx FIFO is at least half empty */
 145:../../lpc11cx4-library/lpc_chip_11cxx_lib/inc/ssp_11xx.h **** 	SSP_INT_MASK_BITMASK = ((uint32_t)(0xF)),
 146:../../lpc11cx4-library/lpc_chip_11cxx_lib/inc/ssp_11xx.h **** } SSP_INTMASK_T;
 147:../../lpc11cx4-library/lpc_chip_11cxx_lib/inc/ssp_11xx.h **** 
 148:../../lpc11cx4-library/lpc_chip_11cxx_lib/inc/ssp_11xx.h **** /**
 149:../../lpc11cx4-library/lpc_chip_11cxx_lib/inc/ssp_11xx.h ****  * @brief SSP Type of Mask Interrupt Status
 150:../../lpc11cx4-library/lpc_chip_11cxx_lib/inc/ssp_11xx.h ****  */
 151:../../lpc11cx4-library/lpc_chip_11cxx_lib/inc/ssp_11xx.h **** typedef enum _SSP_MASKINTSTATUS {
 152:../../lpc11cx4-library/lpc_chip_11cxx_lib/inc/ssp_11xx.h **** 	SSP_RORMIS = ((uint32_t)(1 << 0)),	/**< Overun */
 153:../../lpc11cx4-library/lpc_chip_11cxx_lib/inc/ssp_11xx.h **** 	SSP_RTMIS = ((uint32_t)(1 << 1)),	/**< TimeOut */
 154:../../lpc11cx4-library/lpc_chip_11cxx_lib/inc/ssp_11xx.h **** 	SSP_RXMIS = ((uint32_t)(1 << 2)),	/**< Rx FIFO is at least half full */
 155:../../lpc11cx4-library/lpc_chip_11cxx_lib/inc/ssp_11xx.h **** 	SSP_TXMIS = ((uint32_t)(1 << 3)),	/**< Tx FIFO is at least half empty */
 156:../../lpc11cx4-library/lpc_chip_11cxx_lib/inc/ssp_11xx.h **** 	SSP_MASK_INT_STAT_BITMASK = ((uint32_t)(0xF)),
 157:../../lpc11cx4-library/lpc_chip_11cxx_lib/inc/ssp_11xx.h **** } SSP_MASKINTSTATUS_T;
 158:../../lpc11cx4-library/lpc_chip_11cxx_lib/inc/ssp_11xx.h **** 
 159:../../lpc11cx4-library/lpc_chip_11cxx_lib/inc/ssp_11xx.h **** /**
 160:../../lpc11cx4-library/lpc_chip_11cxx_lib/inc/ssp_11xx.h ****  * @brief SSP Type of Raw Interrupt Status
 161:../../lpc11cx4-library/lpc_chip_11cxx_lib/inc/ssp_11xx.h ****  */
 162:../../lpc11cx4-library/lpc_chip_11cxx_lib/inc/ssp_11xx.h **** typedef enum _SSP_RAWINTSTATUS {
 163:../../lpc11cx4-library/lpc_chip_11cxx_lib/inc/ssp_11xx.h **** 	SSP_RORRIS = ((uint32_t)(1 << 0)),	/**< Overun */
 164:../../lpc11cx4-library/lpc_chip_11cxx_lib/inc/ssp_11xx.h **** 	SSP_RTRIS = ((uint32_t)(1 << 1)),	/**< TimeOut */
 165:../../lpc11cx4-library/lpc_chip_11cxx_lib/inc/ssp_11xx.h **** 	SSP_RXRIS = ((uint32_t)(1 << 2)),	/**< Rx FIFO is at least half full */
 166:../../lpc11cx4-library/lpc_chip_11cxx_lib/inc/ssp_11xx.h **** 	SSP_TXRIS = ((uint32_t)(1 << 3)),	/**< Tx FIFO is at least half empty */
 167:../../lpc11cx4-library/lpc_chip_11cxx_lib/inc/ssp_11xx.h **** 	SSP_RAW_INT_STAT_BITMASK = ((uint32_t)(0xF)),
 168:../../lpc11cx4-library/lpc_chip_11cxx_lib/inc/ssp_11xx.h **** } SSP_RAWINTSTATUS_T;
 169:../../lpc11cx4-library/lpc_chip_11cxx_lib/inc/ssp_11xx.h **** 
 170:../../lpc11cx4-library/lpc_chip_11cxx_lib/inc/ssp_11xx.h **** typedef enum _SSP_INTCLEAR {
 171:../../lpc11cx4-library/lpc_chip_11cxx_lib/inc/ssp_11xx.h **** 	SSP_RORIC = 0x0,
 172:../../lpc11cx4-library/lpc_chip_11cxx_lib/inc/ssp_11xx.h **** 	SSP_RTIC = 0x1,
 173:../../lpc11cx4-library/lpc_chip_11cxx_lib/inc/ssp_11xx.h **** 	SSP_INT_CLEAR_BITMASK = 0x3,
 174:../../lpc11cx4-library/lpc_chip_11cxx_lib/inc/ssp_11xx.h **** } SSP_INTCLEAR_T;
 175:../../lpc11cx4-library/lpc_chip_11cxx_lib/inc/ssp_11xx.h **** 
 176:../../lpc11cx4-library/lpc_chip_11cxx_lib/inc/ssp_11xx.h **** /*
 177:../../lpc11cx4-library/lpc_chip_11cxx_lib/inc/ssp_11xx.h ****  * @brief SSP clock format
 178:../../lpc11cx4-library/lpc_chip_11cxx_lib/inc/ssp_11xx.h ****  */
 179:../../lpc11cx4-library/lpc_chip_11cxx_lib/inc/ssp_11xx.h **** typedef enum CHIP_SSP_CLOCK_FORMAT {
 180:../../lpc11cx4-library/lpc_chip_11cxx_lib/inc/ssp_11xx.h **** 	SSP_CLOCK_CPHA0_CPOL0 = (0 << 6),		/**< CPHA = 0, CPOL = 0 */
 181:../../lpc11cx4-library/lpc_chip_11cxx_lib/inc/ssp_11xx.h **** 	SSP_CLOCK_CPHA0_CPOL1 = (1u << 6),		/**< CPHA = 0, CPOL = 1 */
 182:../../lpc11cx4-library/lpc_chip_11cxx_lib/inc/ssp_11xx.h **** 	SSP_CLOCK_CPHA1_CPOL0 = (2u << 6),		/**< CPHA = 1, CPOL = 0 */
 183:../../lpc11cx4-library/lpc_chip_11cxx_lib/inc/ssp_11xx.h **** 	SSP_CLOCK_CPHA1_CPOL1 = (3u << 6),		/**< CPHA = 1, CPOL = 1 */
ARM GAS  /var/folders/f9/8bk2lnw15zn4cbgn6wrnb4lm0000gn/T//ccdAmBzx.s 			page 7


 184:../../lpc11cx4-library/lpc_chip_11cxx_lib/inc/ssp_11xx.h **** 	SSP_CLOCK_MODE0 = SSP_CLOCK_CPHA0_CPOL0,/**< alias */
 185:../../lpc11cx4-library/lpc_chip_11cxx_lib/inc/ssp_11xx.h **** 	SSP_CLOCK_MODE1 = SSP_CLOCK_CPHA1_CPOL0,/**< alias */
 186:../../lpc11cx4-library/lpc_chip_11cxx_lib/inc/ssp_11xx.h **** 	SSP_CLOCK_MODE2 = SSP_CLOCK_CPHA0_CPOL1,/**< alias */
 187:../../lpc11cx4-library/lpc_chip_11cxx_lib/inc/ssp_11xx.h **** 	SSP_CLOCK_MODE3 = SSP_CLOCK_CPHA1_CPOL1,/**< alias */
 188:../../lpc11cx4-library/lpc_chip_11cxx_lib/inc/ssp_11xx.h **** } CHIP_SSP_CLOCK_MODE_T;
 189:../../lpc11cx4-library/lpc_chip_11cxx_lib/inc/ssp_11xx.h **** 
 190:../../lpc11cx4-library/lpc_chip_11cxx_lib/inc/ssp_11xx.h **** /*
 191:../../lpc11cx4-library/lpc_chip_11cxx_lib/inc/ssp_11xx.h ****  * @brief SSP frame format
 192:../../lpc11cx4-library/lpc_chip_11cxx_lib/inc/ssp_11xx.h ****  */
 193:../../lpc11cx4-library/lpc_chip_11cxx_lib/inc/ssp_11xx.h **** typedef enum CHIP_SSP_FRAME_FORMAT {
 194:../../lpc11cx4-library/lpc_chip_11cxx_lib/inc/ssp_11xx.h **** 	SSP_FRAMEFORMAT_SPI = (0 << 4),			/**< Frame format: SPI */
 195:../../lpc11cx4-library/lpc_chip_11cxx_lib/inc/ssp_11xx.h **** 	CHIP_SSP_FRAME_FORMAT_TI = (1u << 4),			/**< Frame format: TI SSI */
 196:../../lpc11cx4-library/lpc_chip_11cxx_lib/inc/ssp_11xx.h **** 	SSP_FRAMEFORMAT_MICROWIRE = (2u << 4),	/**< Frame format: Microwire */
 197:../../lpc11cx4-library/lpc_chip_11cxx_lib/inc/ssp_11xx.h **** } CHIP_SSP_FRAME_FORMAT_T;
 198:../../lpc11cx4-library/lpc_chip_11cxx_lib/inc/ssp_11xx.h **** 
 199:../../lpc11cx4-library/lpc_chip_11cxx_lib/inc/ssp_11xx.h **** /*
 200:../../lpc11cx4-library/lpc_chip_11cxx_lib/inc/ssp_11xx.h ****  * @brief Number of bits per frame
 201:../../lpc11cx4-library/lpc_chip_11cxx_lib/inc/ssp_11xx.h ****  */
 202:../../lpc11cx4-library/lpc_chip_11cxx_lib/inc/ssp_11xx.h **** typedef enum CHIP_SSP_BITS {
 203:../../lpc11cx4-library/lpc_chip_11cxx_lib/inc/ssp_11xx.h **** 	SSP_BITS_4 = (3u << 0),		/*!< 4 bits/frame */
 204:../../lpc11cx4-library/lpc_chip_11cxx_lib/inc/ssp_11xx.h **** 	SSP_BITS_5 = (4u << 0),		/*!< 5 bits/frame */
 205:../../lpc11cx4-library/lpc_chip_11cxx_lib/inc/ssp_11xx.h **** 	SSP_BITS_6 = (5u << 0),		/*!< 6 bits/frame */
 206:../../lpc11cx4-library/lpc_chip_11cxx_lib/inc/ssp_11xx.h **** 	SSP_BITS_7 = (6u << 0),		/*!< 7 bits/frame */
 207:../../lpc11cx4-library/lpc_chip_11cxx_lib/inc/ssp_11xx.h **** 	SSP_BITS_8 = (7u << 0),		/*!< 8 bits/frame */
 208:../../lpc11cx4-library/lpc_chip_11cxx_lib/inc/ssp_11xx.h **** 	SSP_BITS_9 = (8u << 0),		/*!< 9 bits/frame */
 209:../../lpc11cx4-library/lpc_chip_11cxx_lib/inc/ssp_11xx.h **** 	SSP_BITS_10 = (9u << 0),	/*!< 10 bits/frame */
 210:../../lpc11cx4-library/lpc_chip_11cxx_lib/inc/ssp_11xx.h **** 	SSP_BITS_11 = (10u << 0),	/*!< 11 bits/frame */
 211:../../lpc11cx4-library/lpc_chip_11cxx_lib/inc/ssp_11xx.h **** 	SSP_BITS_12 = (11u << 0),	/*!< 12 bits/frame */
 212:../../lpc11cx4-library/lpc_chip_11cxx_lib/inc/ssp_11xx.h **** 	SSP_BITS_13 = (12u << 0),	/*!< 13 bits/frame */
 213:../../lpc11cx4-library/lpc_chip_11cxx_lib/inc/ssp_11xx.h **** 	SSP_BITS_14 = (13u << 0),	/*!< 14 bits/frame */
 214:../../lpc11cx4-library/lpc_chip_11cxx_lib/inc/ssp_11xx.h **** 	SSP_BITS_15 = (14u << 0),	/*!< 15 bits/frame */
 215:../../lpc11cx4-library/lpc_chip_11cxx_lib/inc/ssp_11xx.h **** 	SSP_BITS_16 = (15u << 0),	/*!< 16 bits/frame */
 216:../../lpc11cx4-library/lpc_chip_11cxx_lib/inc/ssp_11xx.h **** } CHIP_SSP_BITS_T;
 217:../../lpc11cx4-library/lpc_chip_11cxx_lib/inc/ssp_11xx.h **** 
 218:../../lpc11cx4-library/lpc_chip_11cxx_lib/inc/ssp_11xx.h **** /*
 219:../../lpc11cx4-library/lpc_chip_11cxx_lib/inc/ssp_11xx.h ****  * @brief SSP config format
 220:../../lpc11cx4-library/lpc_chip_11cxx_lib/inc/ssp_11xx.h ****  */
 221:../../lpc11cx4-library/lpc_chip_11cxx_lib/inc/ssp_11xx.h **** typedef struct SSP_ConfigFormat {
 222:../../lpc11cx4-library/lpc_chip_11cxx_lib/inc/ssp_11xx.h **** 	CHIP_SSP_BITS_T bits;					/*!< Format config: bits/frame */
 223:../../lpc11cx4-library/lpc_chip_11cxx_lib/inc/ssp_11xx.h **** 	CHIP_SSP_CLOCK_MODE_T clockMode;	/*!< Format config: clock phase/polarity */
 224:../../lpc11cx4-library/lpc_chip_11cxx_lib/inc/ssp_11xx.h **** 	CHIP_SSP_FRAME_FORMAT_T frameFormat;	/*!< Format config: SPI/TI/Microwire */
 225:../../lpc11cx4-library/lpc_chip_11cxx_lib/inc/ssp_11xx.h **** } SSP_ConfigFormat;
 226:../../lpc11cx4-library/lpc_chip_11cxx_lib/inc/ssp_11xx.h **** 
 227:../../lpc11cx4-library/lpc_chip_11cxx_lib/inc/ssp_11xx.h **** /**
 228:../../lpc11cx4-library/lpc_chip_11cxx_lib/inc/ssp_11xx.h ****  * @brief	Enable SSP operation
 229:../../lpc11cx4-library/lpc_chip_11cxx_lib/inc/ssp_11xx.h ****  * @param	pSSP		: The base of SSP peripheral on the chip
 230:../../lpc11cx4-library/lpc_chip_11cxx_lib/inc/ssp_11xx.h ****  * @return	 Nothing
 231:../../lpc11cx4-library/lpc_chip_11cxx_lib/inc/ssp_11xx.h ****  */
 232:../../lpc11cx4-library/lpc_chip_11cxx_lib/inc/ssp_11xx.h **** STATIC INLINE void Chip_SSP_Enable(LPC_SSP_T *pSSP)
 233:../../lpc11cx4-library/lpc_chip_11cxx_lib/inc/ssp_11xx.h **** {
 234:../../lpc11cx4-library/lpc_chip_11cxx_lib/inc/ssp_11xx.h **** 	pSSP->CR1 |= SSP_CR1_SSP_EN;
 235:../../lpc11cx4-library/lpc_chip_11cxx_lib/inc/ssp_11xx.h **** }
 236:../../lpc11cx4-library/lpc_chip_11cxx_lib/inc/ssp_11xx.h **** 
 237:../../lpc11cx4-library/lpc_chip_11cxx_lib/inc/ssp_11xx.h **** /**
 238:../../lpc11cx4-library/lpc_chip_11cxx_lib/inc/ssp_11xx.h ****  * @brief	Disable SSP operation
 239:../../lpc11cx4-library/lpc_chip_11cxx_lib/inc/ssp_11xx.h ****  * @param	pSSP		: The base of SSP peripheral on the chip
 240:../../lpc11cx4-library/lpc_chip_11cxx_lib/inc/ssp_11xx.h ****  * @return	 Nothing
ARM GAS  /var/folders/f9/8bk2lnw15zn4cbgn6wrnb4lm0000gn/T//ccdAmBzx.s 			page 8


 241:../../lpc11cx4-library/lpc_chip_11cxx_lib/inc/ssp_11xx.h ****  */
 242:../../lpc11cx4-library/lpc_chip_11cxx_lib/inc/ssp_11xx.h **** STATIC INLINE void Chip_SSP_Disable(LPC_SSP_T *pSSP)
 243:../../lpc11cx4-library/lpc_chip_11cxx_lib/inc/ssp_11xx.h **** {
 244:../../lpc11cx4-library/lpc_chip_11cxx_lib/inc/ssp_11xx.h **** 	pSSP->CR1 &= (~SSP_CR1_SSP_EN) & SSP_CR1_BITMASK;
 245:../../lpc11cx4-library/lpc_chip_11cxx_lib/inc/ssp_11xx.h **** }
 246:../../lpc11cx4-library/lpc_chip_11cxx_lib/inc/ssp_11xx.h **** 
 247:../../lpc11cx4-library/lpc_chip_11cxx_lib/inc/ssp_11xx.h **** /**
 248:../../lpc11cx4-library/lpc_chip_11cxx_lib/inc/ssp_11xx.h ****  * @brief	Enable loopback mode
 249:../../lpc11cx4-library/lpc_chip_11cxx_lib/inc/ssp_11xx.h ****  * @param	pSSP		: The base of SSP peripheral on the chip
 250:../../lpc11cx4-library/lpc_chip_11cxx_lib/inc/ssp_11xx.h ****  * @return	 Nothing
 251:../../lpc11cx4-library/lpc_chip_11cxx_lib/inc/ssp_11xx.h ****  * @note	Serial input is taken from the serial output (MOSI or MISO) rather
 252:../../lpc11cx4-library/lpc_chip_11cxx_lib/inc/ssp_11xx.h ****  * than the serial input pin
 253:../../lpc11cx4-library/lpc_chip_11cxx_lib/inc/ssp_11xx.h ****  */
 254:../../lpc11cx4-library/lpc_chip_11cxx_lib/inc/ssp_11xx.h **** STATIC INLINE void Chip_SSP_EnableLoopBack(LPC_SSP_T *pSSP)
 255:../../lpc11cx4-library/lpc_chip_11cxx_lib/inc/ssp_11xx.h **** {
 256:../../lpc11cx4-library/lpc_chip_11cxx_lib/inc/ssp_11xx.h **** 	pSSP->CR1 |= SSP_CR1_LBM_EN;
 257:../../lpc11cx4-library/lpc_chip_11cxx_lib/inc/ssp_11xx.h **** }
 258:../../lpc11cx4-library/lpc_chip_11cxx_lib/inc/ssp_11xx.h **** 
 259:../../lpc11cx4-library/lpc_chip_11cxx_lib/inc/ssp_11xx.h **** /**
 260:../../lpc11cx4-library/lpc_chip_11cxx_lib/inc/ssp_11xx.h ****  * @brief	Disable loopback mode
 261:../../lpc11cx4-library/lpc_chip_11cxx_lib/inc/ssp_11xx.h ****  * @param	pSSP		: The base of SSP peripheral on the chip
 262:../../lpc11cx4-library/lpc_chip_11cxx_lib/inc/ssp_11xx.h ****  * @return	 Nothing
 263:../../lpc11cx4-library/lpc_chip_11cxx_lib/inc/ssp_11xx.h ****  * @note	Serial input is taken from the serial output (MOSI or MISO) rather
 264:../../lpc11cx4-library/lpc_chip_11cxx_lib/inc/ssp_11xx.h ****  * than the serial input pin
 265:../../lpc11cx4-library/lpc_chip_11cxx_lib/inc/ssp_11xx.h ****  */
 266:../../lpc11cx4-library/lpc_chip_11cxx_lib/inc/ssp_11xx.h **** STATIC INLINE void Chip_SSP_DisableLoopBack(LPC_SSP_T *pSSP)
 267:../../lpc11cx4-library/lpc_chip_11cxx_lib/inc/ssp_11xx.h **** {
 268:../../lpc11cx4-library/lpc_chip_11cxx_lib/inc/ssp_11xx.h **** 	pSSP->CR1 &= (~SSP_CR1_LBM_EN) & SSP_CR1_BITMASK;
 269:../../lpc11cx4-library/lpc_chip_11cxx_lib/inc/ssp_11xx.h **** }
 270:../../lpc11cx4-library/lpc_chip_11cxx_lib/inc/ssp_11xx.h **** 
 271:../../lpc11cx4-library/lpc_chip_11cxx_lib/inc/ssp_11xx.h **** /**
 272:../../lpc11cx4-library/lpc_chip_11cxx_lib/inc/ssp_11xx.h ****  * @brief	Get the current status of SSP controller
 273:../../lpc11cx4-library/lpc_chip_11cxx_lib/inc/ssp_11xx.h ****  * @param	pSSP	: The base of SSP peripheral on the chip
 274:../../lpc11cx4-library/lpc_chip_11cxx_lib/inc/ssp_11xx.h ****  * @param	Stat	: Type of status, should be :
 275:../../lpc11cx4-library/lpc_chip_11cxx_lib/inc/ssp_11xx.h ****  *						- SSP_STAT_TFE
 276:../../lpc11cx4-library/lpc_chip_11cxx_lib/inc/ssp_11xx.h ****  *						- SSP_STAT_TNF
 277:../../lpc11cx4-library/lpc_chip_11cxx_lib/inc/ssp_11xx.h ****  *						- SSP_STAT_RNE
 278:../../lpc11cx4-library/lpc_chip_11cxx_lib/inc/ssp_11xx.h ****  *						- SSP_STAT_RFF
 279:../../lpc11cx4-library/lpc_chip_11cxx_lib/inc/ssp_11xx.h ****  *						- SSP_STAT_BSY
 280:../../lpc11cx4-library/lpc_chip_11cxx_lib/inc/ssp_11xx.h ****  * @return	 SSP controller status, SET or RESET
 281:../../lpc11cx4-library/lpc_chip_11cxx_lib/inc/ssp_11xx.h ****  */
 282:../../lpc11cx4-library/lpc_chip_11cxx_lib/inc/ssp_11xx.h **** STATIC INLINE FlagStatus Chip_SSP_GetStatus(LPC_SSP_T *pSSP, SSP_STATUS_T Stat)
 283:../../lpc11cx4-library/lpc_chip_11cxx_lib/inc/ssp_11xx.h **** {
 284:../../lpc11cx4-library/lpc_chip_11cxx_lib/inc/ssp_11xx.h **** 	return (pSSP->SR & Stat) ? SET : RESET;
  86              		.loc 2 284 0 discriminator 1
  87 0002 C368     		ldr	r3, [r0, #12]	@ D.6710, pSSP_4(D)->SR
  88              	.LBE141:
  89              	.LBE140:
  75:../../lpc11cx4-library/lpc_chip_11cxx_lib/src/ssp_11xx.c **** 	uint16_t rDat;
  76:../../lpc11cx4-library/lpc_chip_11cxx_lib/src/ssp_11xx.c **** 
  77:../../lpc11cx4-library/lpc_chip_11cxx_lib/src/ssp_11xx.c **** 	while ((Chip_SSP_GetStatus(pSSP, SSP_STAT_RNE) == SET) &&
  90              		.loc 1 77 0 discriminator 1
  91 0004 5A07     		lsl	r2, r3, #29	@, D.6710,
  92 0006 0CD5     		bpl	.L1	@,
  78:../../lpc11cx4-library/lpc_chip_11cxx_lib/src/ssp_11xx.c **** 		   (xf_setup->rx_cnt < xf_setup->length)) {
  93              		.loc 1 78 0 discriminator 2
  94 0008 CB68     		ldr	r3, [r1, #12]	@ D.6710, xf_setup_6(D)->rx_cnt
ARM GAS  /var/folders/f9/8bk2lnw15zn4cbgn6wrnb4lm0000gn/T//ccdAmBzx.s 			page 9


  77:../../lpc11cx4-library/lpc_chip_11cxx_lib/src/ssp_11xx.c **** 	while ((Chip_SSP_GetStatus(pSSP, SSP_STAT_RNE) == SET) &&
  95              		.loc 1 77 0 discriminator 2
  96 000a 0A69     		ldr	r2, [r1, #16]	@, xf_setup_6(D)->length
  97 000c 9342     		cmp	r3, r2	@ D.6710,
  98 000e 08D2     		bcs	.L1	@,
  99              	.LVL2:
 100              	.LBB142:
 101              	.LBB143:
 285:../../lpc11cx4-library/lpc_chip_11cxx_lib/inc/ssp_11xx.h **** }
 286:../../lpc11cx4-library/lpc_chip_11cxx_lib/inc/ssp_11xx.h **** 
 287:../../lpc11cx4-library/lpc_chip_11cxx_lib/inc/ssp_11xx.h **** /**
 288:../../lpc11cx4-library/lpc_chip_11cxx_lib/inc/ssp_11xx.h ****  * @brief	Get the masked interrupt status
 289:../../lpc11cx4-library/lpc_chip_11cxx_lib/inc/ssp_11xx.h ****  * @param	pSSP	: The base of SSP peripheral on the chip
 290:../../lpc11cx4-library/lpc_chip_11cxx_lib/inc/ssp_11xx.h ****  * @return	 SSP Masked Interrupt Status Register value
 291:../../lpc11cx4-library/lpc_chip_11cxx_lib/inc/ssp_11xx.h ****  * @note	The return value contains a 1 for each interrupt condition that is asserted and enabled (m
 292:../../lpc11cx4-library/lpc_chip_11cxx_lib/inc/ssp_11xx.h ****  */
 293:../../lpc11cx4-library/lpc_chip_11cxx_lib/inc/ssp_11xx.h **** STATIC INLINE uint32_t Chip_SSP_GetIntStatus(LPC_SSP_T *pSSP)
 294:../../lpc11cx4-library/lpc_chip_11cxx_lib/inc/ssp_11xx.h **** {
 295:../../lpc11cx4-library/lpc_chip_11cxx_lib/inc/ssp_11xx.h **** 	return pSSP->MIS;
 296:../../lpc11cx4-library/lpc_chip_11cxx_lib/inc/ssp_11xx.h **** }
 297:../../lpc11cx4-library/lpc_chip_11cxx_lib/inc/ssp_11xx.h **** 
 298:../../lpc11cx4-library/lpc_chip_11cxx_lib/inc/ssp_11xx.h **** /**
 299:../../lpc11cx4-library/lpc_chip_11cxx_lib/inc/ssp_11xx.h ****  * @brief	Get the raw interrupt status
 300:../../lpc11cx4-library/lpc_chip_11cxx_lib/inc/ssp_11xx.h ****  * @param	pSSP	: The base of SSP peripheral on the chip
 301:../../lpc11cx4-library/lpc_chip_11cxx_lib/inc/ssp_11xx.h ****  * @param	RawInt	: Interrupt condition to be get status, shoud be :
 302:../../lpc11cx4-library/lpc_chip_11cxx_lib/inc/ssp_11xx.h ****  *						- SSP_RORRIS
 303:../../lpc11cx4-library/lpc_chip_11cxx_lib/inc/ssp_11xx.h ****  *						- SSP_RTRIS
 304:../../lpc11cx4-library/lpc_chip_11cxx_lib/inc/ssp_11xx.h ****  *						- SSP_RXRIS
 305:../../lpc11cx4-library/lpc_chip_11cxx_lib/inc/ssp_11xx.h ****  *						- SSP_TXRIS
 306:../../lpc11cx4-library/lpc_chip_11cxx_lib/inc/ssp_11xx.h ****  * @return	 Raw interrupt status corresponding to interrupt condition , SET or RESET
 307:../../lpc11cx4-library/lpc_chip_11cxx_lib/inc/ssp_11xx.h ****  * @note	Get the status of each interrupt condition ,regardless of whether or not the interrupt is 
 308:../../lpc11cx4-library/lpc_chip_11cxx_lib/inc/ssp_11xx.h ****  */
 309:../../lpc11cx4-library/lpc_chip_11cxx_lib/inc/ssp_11xx.h **** STATIC INLINE IntStatus Chip_SSP_GetRawIntStatus(LPC_SSP_T *pSSP, SSP_RAWINTSTATUS_T RawInt)
 310:../../lpc11cx4-library/lpc_chip_11cxx_lib/inc/ssp_11xx.h **** {
 311:../../lpc11cx4-library/lpc_chip_11cxx_lib/inc/ssp_11xx.h **** 	return (pSSP->RIS & RawInt) ? SET : RESET;
 312:../../lpc11cx4-library/lpc_chip_11cxx_lib/inc/ssp_11xx.h **** }
 313:../../lpc11cx4-library/lpc_chip_11cxx_lib/inc/ssp_11xx.h **** 
 314:../../lpc11cx4-library/lpc_chip_11cxx_lib/inc/ssp_11xx.h **** /**
 315:../../lpc11cx4-library/lpc_chip_11cxx_lib/inc/ssp_11xx.h ****  * @brief	Get the number of bits transferred in each frame
 316:../../lpc11cx4-library/lpc_chip_11cxx_lib/inc/ssp_11xx.h ****  * @param	pSSP	: The base of SSP peripheral on the chip
 317:../../lpc11cx4-library/lpc_chip_11cxx_lib/inc/ssp_11xx.h ****  * @return	 the number of bits transferred in each frame minus one
 318:../../lpc11cx4-library/lpc_chip_11cxx_lib/inc/ssp_11xx.h ****  * @note	The return value is 0x03 -> 0xF corresponding to 4bit -> 16bit transfer
 319:../../lpc11cx4-library/lpc_chip_11cxx_lib/inc/ssp_11xx.h ****  */
 320:../../lpc11cx4-library/lpc_chip_11cxx_lib/inc/ssp_11xx.h **** STATIC INLINE uint8_t Chip_SSP_GetDataSize(LPC_SSP_T *pSSP)
 321:../../lpc11cx4-library/lpc_chip_11cxx_lib/inc/ssp_11xx.h **** {
 322:../../lpc11cx4-library/lpc_chip_11cxx_lib/inc/ssp_11xx.h **** 	return SSP_CR0_DSS(pSSP->CR0);
 323:../../lpc11cx4-library/lpc_chip_11cxx_lib/inc/ssp_11xx.h **** }
 324:../../lpc11cx4-library/lpc_chip_11cxx_lib/inc/ssp_11xx.h **** 
 325:../../lpc11cx4-library/lpc_chip_11cxx_lib/inc/ssp_11xx.h **** /**
 326:../../lpc11cx4-library/lpc_chip_11cxx_lib/inc/ssp_11xx.h ****  * @brief	Clear the corresponding interrupt condition(s) in the SSP controller
 327:../../lpc11cx4-library/lpc_chip_11cxx_lib/inc/ssp_11xx.h ****  * @param	pSSP	: The base of SSP peripheral on the chip
 328:../../lpc11cx4-library/lpc_chip_11cxx_lib/inc/ssp_11xx.h ****  * @param	IntClear: Type of cleared interrupt, should be :
 329:../../lpc11cx4-library/lpc_chip_11cxx_lib/inc/ssp_11xx.h ****  *						- SSP_RORIC
 330:../../lpc11cx4-library/lpc_chip_11cxx_lib/inc/ssp_11xx.h ****  *						- SSP_RTIC
 331:../../lpc11cx4-library/lpc_chip_11cxx_lib/inc/ssp_11xx.h ****  * @return	 Nothing
 332:../../lpc11cx4-library/lpc_chip_11cxx_lib/inc/ssp_11xx.h ****  * @note	Software can clear one or more interrupt condition(s) in the SSP controller
 333:../../lpc11cx4-library/lpc_chip_11cxx_lib/inc/ssp_11xx.h ****  */
ARM GAS  /var/folders/f9/8bk2lnw15zn4cbgn6wrnb4lm0000gn/T//ccdAmBzx.s 			page 10


 334:../../lpc11cx4-library/lpc_chip_11cxx_lib/inc/ssp_11xx.h **** STATIC INLINE void Chip_SSP_ClearIntPending(LPC_SSP_T *pSSP, SSP_INTCLEAR_T IntClear)
 335:../../lpc11cx4-library/lpc_chip_11cxx_lib/inc/ssp_11xx.h **** {
 336:../../lpc11cx4-library/lpc_chip_11cxx_lib/inc/ssp_11xx.h **** 	pSSP->ICR = IntClear;
 337:../../lpc11cx4-library/lpc_chip_11cxx_lib/inc/ssp_11xx.h **** }
 338:../../lpc11cx4-library/lpc_chip_11cxx_lib/inc/ssp_11xx.h **** 
 339:../../lpc11cx4-library/lpc_chip_11cxx_lib/inc/ssp_11xx.h **** /**
 340:../../lpc11cx4-library/lpc_chip_11cxx_lib/inc/ssp_11xx.h ****  * @brief	Enable interrupt for the SSP
 341:../../lpc11cx4-library/lpc_chip_11cxx_lib/inc/ssp_11xx.h ****  * @param	pSSP		: The base of SSP peripheral on the chip
 342:../../lpc11cx4-library/lpc_chip_11cxx_lib/inc/ssp_11xx.h ****  * @return	 Nothing
 343:../../lpc11cx4-library/lpc_chip_11cxx_lib/inc/ssp_11xx.h ****  */
 344:../../lpc11cx4-library/lpc_chip_11cxx_lib/inc/ssp_11xx.h **** STATIC INLINE void Chip_SSP_Int_Enable(LPC_SSP_T *pSSP)
 345:../../lpc11cx4-library/lpc_chip_11cxx_lib/inc/ssp_11xx.h **** {
 346:../../lpc11cx4-library/lpc_chip_11cxx_lib/inc/ssp_11xx.h **** 	pSSP->IMSC |= SSP_TXIM;
 347:../../lpc11cx4-library/lpc_chip_11cxx_lib/inc/ssp_11xx.h **** }
 348:../../lpc11cx4-library/lpc_chip_11cxx_lib/inc/ssp_11xx.h **** 
 349:../../lpc11cx4-library/lpc_chip_11cxx_lib/inc/ssp_11xx.h **** /**
 350:../../lpc11cx4-library/lpc_chip_11cxx_lib/inc/ssp_11xx.h ****  * @brief	Disable interrupt for the SSP
 351:../../lpc11cx4-library/lpc_chip_11cxx_lib/inc/ssp_11xx.h ****  * @param	pSSP		: The base of SSP peripheral on the chip
 352:../../lpc11cx4-library/lpc_chip_11cxx_lib/inc/ssp_11xx.h ****  * @return	 Nothing
 353:../../lpc11cx4-library/lpc_chip_11cxx_lib/inc/ssp_11xx.h ****  */
 354:../../lpc11cx4-library/lpc_chip_11cxx_lib/inc/ssp_11xx.h **** STATIC INLINE void Chip_SSP_Int_Disable(LPC_SSP_T *pSSP)
 355:../../lpc11cx4-library/lpc_chip_11cxx_lib/inc/ssp_11xx.h **** {
 356:../../lpc11cx4-library/lpc_chip_11cxx_lib/inc/ssp_11xx.h **** 	pSSP->IMSC &= (~SSP_TXIM);
 357:../../lpc11cx4-library/lpc_chip_11cxx_lib/inc/ssp_11xx.h **** }
 358:../../lpc11cx4-library/lpc_chip_11cxx_lib/inc/ssp_11xx.h **** 
 359:../../lpc11cx4-library/lpc_chip_11cxx_lib/inc/ssp_11xx.h **** /**
 360:../../lpc11cx4-library/lpc_chip_11cxx_lib/inc/ssp_11xx.h ****  * @brief	Get received SSP data
 361:../../lpc11cx4-library/lpc_chip_11cxx_lib/inc/ssp_11xx.h ****  * @param	pSSP	: The base of SSP peripheral on the chip
 362:../../lpc11cx4-library/lpc_chip_11cxx_lib/inc/ssp_11xx.h ****  * @return	 SSP 16-bit data received
 363:../../lpc11cx4-library/lpc_chip_11cxx_lib/inc/ssp_11xx.h ****  */
 364:../../lpc11cx4-library/lpc_chip_11cxx_lib/inc/ssp_11xx.h **** STATIC INLINE uint16_t Chip_SSP_ReceiveFrame(LPC_SSP_T *pSSP)
 365:../../lpc11cx4-library/lpc_chip_11cxx_lib/inc/ssp_11xx.h **** {
 366:../../lpc11cx4-library/lpc_chip_11cxx_lib/inc/ssp_11xx.h **** 	return (uint16_t) (SSP_DR_BITMASK(pSSP->DR));
 102              		.loc 2 366 0
 103 0010 8468     		ldr	r4, [r0, #8]	@ D.6710, pSSP_4(D)->DR
 104              	.LBE143:
 105              	.LBE142:
  79:../../lpc11cx4-library/lpc_chip_11cxx_lib/src/ssp_11xx.c **** 		rDat = Chip_SSP_ReceiveFrame(pSSP);
  80:../../lpc11cx4-library/lpc_chip_11cxx_lib/src/ssp_11xx.c **** 		if (xf_setup->rx_data) {
 106              		.loc 1 80 0
 107 0012 8A68     		ldr	r2, [r1, #8]	@ D.6711, xf_setup_6(D)->rx_data
 108              	.LBB145:
 109              	.LBB144:
 110              		.loc 2 366 0
 111 0014 A4B2     		uxth	r4, r4	@ D.6713, D.6710
 112              	.LBE144:
 113              	.LBE145:
 114              		.loc 1 80 0
 115 0016 002A     		cmp	r2, #0	@ D.6711,
 116 0018 00D0     		beq	.L3	@,
  81:../../lpc11cx4-library/lpc_chip_11cxx_lib/src/ssp_11xx.c **** 			*(uint16_t *) ((uint32_t) xf_setup->rx_data + xf_setup->rx_cnt) = rDat;
 117              		.loc 1 81 0
 118 001a D452     		strh	r4, [r2, r3]	@ D.6713, *_13
 119              	.L3:
  82:../../lpc11cx4-library/lpc_chip_11cxx_lib/src/ssp_11xx.c **** 		}
  83:../../lpc11cx4-library/lpc_chip_11cxx_lib/src/ssp_11xx.c **** 
  84:../../lpc11cx4-library/lpc_chip_11cxx_lib/src/ssp_11xx.c **** 		xf_setup->rx_cnt += 2;
ARM GAS  /var/folders/f9/8bk2lnw15zn4cbgn6wrnb4lm0000gn/T//ccdAmBzx.s 			page 11


 120              		.loc 1 84 0
 121 001c 0233     		add	r3, r3, #2	@ D.6710,
 122 001e CB60     		str	r3, [r1, #12]	@ D.6710, xf_setup_6(D)->rx_cnt
 123 0020 EFE7     		b	.L2	@
 124              	.LVL3:
 125              	.L1:
  85:../../lpc11cx4-library/lpc_chip_11cxx_lib/src/ssp_11xx.c **** 	}
  86:../../lpc11cx4-library/lpc_chip_11cxx_lib/src/ssp_11xx.c **** }
 126              		.loc 1 86 0
 127              		@ sp needed	@
 128 0022 10BD     		pop	{r4, pc}
 129              		.cfi_endproc
 130              	.LFE200:
 131              		.size	SSP_Read2BFifo, .-SSP_Read2BFifo
 132              		.section	.text.SSP_Read1BFifo,"ax",%progbits
 133              		.align	1
 134              		.code	16
 135              		.thumb_func
 136              		.type	SSP_Read1BFifo, %function
 137              	SSP_Read1BFifo:
 138              	.LFB201:
  87:../../lpc11cx4-library/lpc_chip_11cxx_lib/src/ssp_11xx.c **** 
  88:../../lpc11cx4-library/lpc_chip_11cxx_lib/src/ssp_11xx.c **** /** SSP macro: read 2 bytes from FIFO buffer */
  89:../../lpc11cx4-library/lpc_chip_11cxx_lib/src/ssp_11xx.c **** STATIC void SSP_Read1BFifo(LPC_SSP_T *pSSP, Chip_SSP_DATA_SETUP_T *xf_setup)
  90:../../lpc11cx4-library/lpc_chip_11cxx_lib/src/ssp_11xx.c **** {
 139              		.loc 1 90 0
 140              		.cfi_startproc
 141              	.LVL4:
 142 0000 10B5     		push	{r4, lr}	@
 143              		.cfi_def_cfa_offset 8
 144              		.cfi_offset 4, -8
 145              		.cfi_offset 14, -4
 146              	.L11:
 147              	.LVL5:
 148              	.LBB146:
 149              	.LBB147:
 284:../../lpc11cx4-library/lpc_chip_11cxx_lib/inc/ssp_11xx.h **** 	return (pSSP->SR & Stat) ? SET : RESET;
 150              		.loc 2 284 0 discriminator 1
 151 0002 C368     		ldr	r3, [r0, #12]	@ D.6718, pSSP_4(D)->SR
 152              	.LBE147:
 153              	.LBE146:
  91:../../lpc11cx4-library/lpc_chip_11cxx_lib/src/ssp_11xx.c **** 	uint16_t rDat;
  92:../../lpc11cx4-library/lpc_chip_11cxx_lib/src/ssp_11xx.c **** 
  93:../../lpc11cx4-library/lpc_chip_11cxx_lib/src/ssp_11xx.c **** 	while ((Chip_SSP_GetStatus(pSSP, SSP_STAT_RNE) == SET) &&
 154              		.loc 1 93 0 discriminator 1
 155 0004 5A07     		lsl	r2, r3, #29	@, D.6718,
 156 0006 0CD5     		bpl	.L10	@,
  94:../../lpc11cx4-library/lpc_chip_11cxx_lib/src/ssp_11xx.c **** 		   (xf_setup->rx_cnt < xf_setup->length)) {
 157              		.loc 1 94 0 discriminator 2
 158 0008 CB68     		ldr	r3, [r1, #12]	@ D.6718, xf_setup_6(D)->rx_cnt
  93:../../lpc11cx4-library/lpc_chip_11cxx_lib/src/ssp_11xx.c **** 	while ((Chip_SSP_GetStatus(pSSP, SSP_STAT_RNE) == SET) &&
 159              		.loc 1 93 0 discriminator 2
 160 000a 0A69     		ldr	r2, [r1, #16]	@, xf_setup_6(D)->length
 161 000c 9342     		cmp	r3, r2	@ D.6718,
 162 000e 08D2     		bcs	.L10	@,
 163              	.LVL6:
  95:../../lpc11cx4-library/lpc_chip_11cxx_lib/src/ssp_11xx.c **** 		rDat = Chip_SSP_ReceiveFrame(pSSP);
ARM GAS  /var/folders/f9/8bk2lnw15zn4cbgn6wrnb4lm0000gn/T//ccdAmBzx.s 			page 12


  96:../../lpc11cx4-library/lpc_chip_11cxx_lib/src/ssp_11xx.c **** 		if (xf_setup->rx_data) {
 164              		.loc 1 96 0
 165 0010 8A68     		ldr	r2, [r1, #8]	@ D.6719, xf_setup_6(D)->rx_data
 166              	.LBB148:
 167              	.LBB149:
 168              		.loc 2 366 0
 169 0012 8468     		ldr	r4, [r0, #8]	@ D.6718, pSSP_4(D)->DR
 170              	.LBE149:
 171              	.LBE148:
 172              		.loc 1 96 0
 173 0014 002A     		cmp	r2, #0	@ D.6719,
 174 0016 00D0     		beq	.L12	@,
  97:../../lpc11cx4-library/lpc_chip_11cxx_lib/src/ssp_11xx.c **** 			*(uint8_t *) ((uint32_t) xf_setup->rx_data + xf_setup->rx_cnt) = rDat;
 175              		.loc 1 97 0
 176 0018 D454     		strb	r4, [r2, r3]	@ D.6718, *_13
 177              	.L12:
  98:../../lpc11cx4-library/lpc_chip_11cxx_lib/src/ssp_11xx.c **** 		}
  99:../../lpc11cx4-library/lpc_chip_11cxx_lib/src/ssp_11xx.c **** 
 100:../../lpc11cx4-library/lpc_chip_11cxx_lib/src/ssp_11xx.c **** 		xf_setup->rx_cnt++;
 178              		.loc 1 100 0
 179 001a CB68     		ldr	r3, [r1, #12]	@ D.6718, xf_setup_6(D)->rx_cnt
 180 001c 0133     		add	r3, r3, #1	@ D.6718,
 181 001e CB60     		str	r3, [r1, #12]	@ D.6718, xf_setup_6(D)->rx_cnt
 182 0020 EFE7     		b	.L11	@
 183              	.LVL7:
 184              	.L10:
 101:../../lpc11cx4-library/lpc_chip_11cxx_lib/src/ssp_11xx.c **** 	}
 102:../../lpc11cx4-library/lpc_chip_11cxx_lib/src/ssp_11xx.c **** }
 185              		.loc 1 102 0
 186              		@ sp needed	@
 187 0022 10BD     		pop	{r4, pc}
 188              		.cfi_endproc
 189              	.LFE201:
 190              		.size	SSP_Read1BFifo, .-SSP_Read1BFifo
 191              		.section	.text.Chip_SSP_SetClockRate,"ax",%progbits
 192              		.align	1
 193              		.global	Chip_SSP_SetClockRate
 194              		.code	16
 195              		.thumb_func
 196              		.type	Chip_SSP_SetClockRate, %function
 197              	Chip_SSP_SetClockRate:
 198              	.LFB206:
 103:../../lpc11cx4-library/lpc_chip_11cxx_lib/src/ssp_11xx.c **** 
 104:../../lpc11cx4-library/lpc_chip_11cxx_lib/src/ssp_11xx.c **** /* Returns clock for the peripheral block */
 105:../../lpc11cx4-library/lpc_chip_11cxx_lib/src/ssp_11xx.c **** STATIC CHIP_SYSCTL_CLOCK_T Chip_SSP_GetClockIndex(LPC_SSP_T *pSSP)
 106:../../lpc11cx4-library/lpc_chip_11cxx_lib/src/ssp_11xx.c **** {
 107:../../lpc11cx4-library/lpc_chip_11cxx_lib/src/ssp_11xx.c **** 	CHIP_SYSCTL_CLOCK_T clkSSP;
 108:../../lpc11cx4-library/lpc_chip_11cxx_lib/src/ssp_11xx.c **** 
 109:../../lpc11cx4-library/lpc_chip_11cxx_lib/src/ssp_11xx.c **** 	if (pSSP == LPC_SSP0) {
 110:../../lpc11cx4-library/lpc_chip_11cxx_lib/src/ssp_11xx.c **** 		clkSSP = SYSCTL_CLOCK_SSP0;
 111:../../lpc11cx4-library/lpc_chip_11cxx_lib/src/ssp_11xx.c **** 	}
 112:../../lpc11cx4-library/lpc_chip_11cxx_lib/src/ssp_11xx.c **** #if defined(CHIP_LPC11CXX) || defined(CHIP_LPC11EXX) || defined(CHIP_LPC11AXX) || defined(CHIP_LPC1
 113:../../lpc11cx4-library/lpc_chip_11cxx_lib/src/ssp_11xx.c **** 	else {
 114:../../lpc11cx4-library/lpc_chip_11cxx_lib/src/ssp_11xx.c **** 		clkSSP = SYSCTL_CLOCK_SSP1;
 115:../../lpc11cx4-library/lpc_chip_11cxx_lib/src/ssp_11xx.c **** 	}
 116:../../lpc11cx4-library/lpc_chip_11cxx_lib/src/ssp_11xx.c **** #endif
 117:../../lpc11cx4-library/lpc_chip_11cxx_lib/src/ssp_11xx.c **** 		
ARM GAS  /var/folders/f9/8bk2lnw15zn4cbgn6wrnb4lm0000gn/T//ccdAmBzx.s 			page 13


 118:../../lpc11cx4-library/lpc_chip_11cxx_lib/src/ssp_11xx.c **** 	return clkSSP;
 119:../../lpc11cx4-library/lpc_chip_11cxx_lib/src/ssp_11xx.c **** }
 120:../../lpc11cx4-library/lpc_chip_11cxx_lib/src/ssp_11xx.c **** 
 121:../../lpc11cx4-library/lpc_chip_11cxx_lib/src/ssp_11xx.c **** /* Returns reset ID for the peripheral block */
 122:../../lpc11cx4-library/lpc_chip_11cxx_lib/src/ssp_11xx.c **** STATIC CHIP_SYSCTL_PERIPH_RESET_T Chip_SSP_GetResetIndex(LPC_SSP_T *pSSP)
 123:../../lpc11cx4-library/lpc_chip_11cxx_lib/src/ssp_11xx.c **** {
 124:../../lpc11cx4-library/lpc_chip_11cxx_lib/src/ssp_11xx.c **** 	CHIP_SYSCTL_PERIPH_RESET_T resetSSP;
 125:../../lpc11cx4-library/lpc_chip_11cxx_lib/src/ssp_11xx.c **** 
 126:../../lpc11cx4-library/lpc_chip_11cxx_lib/src/ssp_11xx.c **** 	if (pSSP == LPC_SSP0) {
 127:../../lpc11cx4-library/lpc_chip_11cxx_lib/src/ssp_11xx.c **** 		resetSSP = RESET_SSP0;
 128:../../lpc11cx4-library/lpc_chip_11cxx_lib/src/ssp_11xx.c **** 	}
 129:../../lpc11cx4-library/lpc_chip_11cxx_lib/src/ssp_11xx.c **** 	else {
 130:../../lpc11cx4-library/lpc_chip_11cxx_lib/src/ssp_11xx.c **** 		resetSSP = RESET_SSP1;
 131:../../lpc11cx4-library/lpc_chip_11cxx_lib/src/ssp_11xx.c **** 	}
 132:../../lpc11cx4-library/lpc_chip_11cxx_lib/src/ssp_11xx.c **** 
 133:../../lpc11cx4-library/lpc_chip_11cxx_lib/src/ssp_11xx.c **** 	return resetSSP;
 134:../../lpc11cx4-library/lpc_chip_11cxx_lib/src/ssp_11xx.c **** }
 135:../../lpc11cx4-library/lpc_chip_11cxx_lib/src/ssp_11xx.c **** 
 136:../../lpc11cx4-library/lpc_chip_11cxx_lib/src/ssp_11xx.c **** /* Returns reset ID for the peripheral block */
 137:../../lpc11cx4-library/lpc_chip_11cxx_lib/src/ssp_11xx.c **** STATIC void Chip_SSP_SetSSPClkDivider(LPC_SSP_T *pSSP, uint32_t div)
 138:../../lpc11cx4-library/lpc_chip_11cxx_lib/src/ssp_11xx.c **** {
 139:../../lpc11cx4-library/lpc_chip_11cxx_lib/src/ssp_11xx.c **** 	if (pSSP == LPC_SSP0) {
 140:../../lpc11cx4-library/lpc_chip_11cxx_lib/src/ssp_11xx.c **** 		Chip_Clock_SetSSP0ClockDiv(div);
 141:../../lpc11cx4-library/lpc_chip_11cxx_lib/src/ssp_11xx.c **** 	}
 142:../../lpc11cx4-library/lpc_chip_11cxx_lib/src/ssp_11xx.c **** #if defined(CHIP_LPC11CXX) || defined(CHIP_LPC11EXX) || defined(CHIP_LPC11AXX) || defined(CHIP_LPC1
 143:../../lpc11cx4-library/lpc_chip_11cxx_lib/src/ssp_11xx.c **** 	else {
 144:../../lpc11cx4-library/lpc_chip_11cxx_lib/src/ssp_11xx.c **** 		Chip_Clock_SetSSP1ClockDiv(div);
 145:../../lpc11cx4-library/lpc_chip_11cxx_lib/src/ssp_11xx.c **** 	}
 146:../../lpc11cx4-library/lpc_chip_11cxx_lib/src/ssp_11xx.c **** #endif
 147:../../lpc11cx4-library/lpc_chip_11cxx_lib/src/ssp_11xx.c **** }
 148:../../lpc11cx4-library/lpc_chip_11cxx_lib/src/ssp_11xx.c **** 
 149:../../lpc11cx4-library/lpc_chip_11cxx_lib/src/ssp_11xx.c **** /* Returns SSP peripheral clock for the peripheral block */
 150:../../lpc11cx4-library/lpc_chip_11cxx_lib/src/ssp_11xx.c **** STATIC uint32_t Chip_SSP_GetPCLKkRate(LPC_SSP_T *pSSP)
 151:../../lpc11cx4-library/lpc_chip_11cxx_lib/src/ssp_11xx.c **** {
 152:../../lpc11cx4-library/lpc_chip_11cxx_lib/src/ssp_11xx.c **** 	uint32_t sspCLK = Chip_Clock_GetMainClockRate();
 153:../../lpc11cx4-library/lpc_chip_11cxx_lib/src/ssp_11xx.c **** 
 154:../../lpc11cx4-library/lpc_chip_11cxx_lib/src/ssp_11xx.c **** 	if (pSSP == LPC_SSP0) {
 155:../../lpc11cx4-library/lpc_chip_11cxx_lib/src/ssp_11xx.c **** 		sspCLK /= Chip_Clock_GetSSP0ClockDiv();
 156:../../lpc11cx4-library/lpc_chip_11cxx_lib/src/ssp_11xx.c **** 	}
 157:../../lpc11cx4-library/lpc_chip_11cxx_lib/src/ssp_11xx.c **** #if defined(CHIP_LPC11CXX) || defined(CHIP_LPC11EXX) || defined(CHIP_LPC11AXX) || defined(CHIP_LPC1
 158:../../lpc11cx4-library/lpc_chip_11cxx_lib/src/ssp_11xx.c **** 	else {
 159:../../lpc11cx4-library/lpc_chip_11cxx_lib/src/ssp_11xx.c **** 		sspCLK /= Chip_Clock_GetSSP1ClockDiv();
 160:../../lpc11cx4-library/lpc_chip_11cxx_lib/src/ssp_11xx.c **** 	}
 161:../../lpc11cx4-library/lpc_chip_11cxx_lib/src/ssp_11xx.c **** #endif
 162:../../lpc11cx4-library/lpc_chip_11cxx_lib/src/ssp_11xx.c **** 	
 163:../../lpc11cx4-library/lpc_chip_11cxx_lib/src/ssp_11xx.c ****     return sspCLK;
 164:../../lpc11cx4-library/lpc_chip_11cxx_lib/src/ssp_11xx.c **** }
 165:../../lpc11cx4-library/lpc_chip_11cxx_lib/src/ssp_11xx.c **** 
 166:../../lpc11cx4-library/lpc_chip_11cxx_lib/src/ssp_11xx.c **** /*****************************************************************************
 167:../../lpc11cx4-library/lpc_chip_11cxx_lib/src/ssp_11xx.c ****  * Public functions
 168:../../lpc11cx4-library/lpc_chip_11cxx_lib/src/ssp_11xx.c ****  ****************************************************************************/
 169:../../lpc11cx4-library/lpc_chip_11cxx_lib/src/ssp_11xx.c **** 
 170:../../lpc11cx4-library/lpc_chip_11cxx_lib/src/ssp_11xx.c **** /*Set up output clocks per bit for SSP bus*/
 171:../../lpc11cx4-library/lpc_chip_11cxx_lib/src/ssp_11xx.c **** void Chip_SSP_SetClockRate(LPC_SSP_T *pSSP, uint32_t clk_rate, uint32_t prescale)
 172:../../lpc11cx4-library/lpc_chip_11cxx_lib/src/ssp_11xx.c **** {
 199              		.loc 1 172 0
 200              		.cfi_startproc
ARM GAS  /var/folders/f9/8bk2lnw15zn4cbgn6wrnb4lm0000gn/T//ccdAmBzx.s 			page 14


 201              	.LVL8:
 202 0000 10B5     		push	{r4, lr}	@
 203              		.cfi_def_cfa_offset 8
 204              		.cfi_offset 4, -8
 205              		.cfi_offset 14, -4
 173:../../lpc11cx4-library/lpc_chip_11cxx_lib/src/ssp_11xx.c **** 	uint32_t temp;
 174:../../lpc11cx4-library/lpc_chip_11cxx_lib/src/ssp_11xx.c **** 	temp = pSSP->CR0 & (~(SSP_CR0_SCR(0xFF)));
 175:../../lpc11cx4-library/lpc_chip_11cxx_lib/src/ssp_11xx.c **** 	pSSP->CR0 = temp | (SSP_CR0_SCR(clk_rate));
 206              		.loc 1 175 0
 207 0002 0906     		lsl	r1, r1, #24	@ tmp120, clk_rate,
 208              	.LVL9:
 174:../../lpc11cx4-library/lpc_chip_11cxx_lib/src/ssp_11xx.c **** 	temp = pSSP->CR0 & (~(SSP_CR0_SCR(0xFF)));
 209              		.loc 1 174 0
 210 0004 0468     		ldr	r4, [r0]	@ D.6726, pSSP_2(D)->CR0
 211              	.LVL10:
 212              		.loc 1 175 0
 213 0006 0B0C     		lsr	r3, r1, #16	@ D.6726, tmp120,
 174:../../lpc11cx4-library/lpc_chip_11cxx_lib/src/ssp_11xx.c **** 	temp = pSSP->CR0 & (~(SSP_CR0_SCR(0xFF)));
 214              		.loc 1 174 0
 215 0008 0249     		ldr	r1, .L19	@ tmp122,
 176:../../lpc11cx4-library/lpc_chip_11cxx_lib/src/ssp_11xx.c **** 	pSSP->CPSR = prescale;
 177:../../lpc11cx4-library/lpc_chip_11cxx_lib/src/ssp_11xx.c **** }
 216              		.loc 1 177 0
 217              		@ sp needed	@
 174:../../lpc11cx4-library/lpc_chip_11cxx_lib/src/ssp_11xx.c **** 	temp = pSSP->CR0 & (~(SSP_CR0_SCR(0xFF)));
 218              		.loc 1 174 0
 219 000a 2140     		and	r1, r4	@ temp, D.6726
 220              	.LVL11:
 175:../../lpc11cx4-library/lpc_chip_11cxx_lib/src/ssp_11xx.c **** 	pSSP->CR0 = temp | (SSP_CR0_SCR(clk_rate));
 221              		.loc 1 175 0
 222 000c 1943     		orr	r1, r3	@ D.6726, D.6726
 223              	.LVL12:
 224 000e 0160     		str	r1, [r0]	@ D.6726, pSSP_2(D)->CR0
 176:../../lpc11cx4-library/lpc_chip_11cxx_lib/src/ssp_11xx.c **** 	pSSP->CPSR = prescale;
 225              		.loc 1 176 0
 226 0010 0261     		str	r2, [r0, #16]	@ prescale, pSSP_2(D)->CPSR
 227              	.LVL13:
 228              		.loc 1 177 0
 229 0012 10BD     		pop	{r4, pc}
 230              	.L20:
 231              		.align	2
 232              	.L19:
 233 0014 FF00FFFF 		.word	-65281
 234              		.cfi_endproc
 235              	.LFE206:
 236              		.size	Chip_SSP_SetClockRate, .-Chip_SSP_SetClockRate
 237              		.section	.text.Chip_SSP_RWFrames_Blocking,"ax",%progbits
 238              		.align	1
 239              		.global	Chip_SSP_RWFrames_Blocking
 240              		.code	16
 241              		.thumb_func
 242              		.type	Chip_SSP_RWFrames_Blocking, %function
 243              	Chip_SSP_RWFrames_Blocking:
 244              	.LFB207:
 178:../../lpc11cx4-library/lpc_chip_11cxx_lib/src/ssp_11xx.c **** 
 179:../../lpc11cx4-library/lpc_chip_11cxx_lib/src/ssp_11xx.c **** /* SSP Polling Read/Write in blocking mode */
 180:../../lpc11cx4-library/lpc_chip_11cxx_lib/src/ssp_11xx.c **** uint32_t Chip_SSP_RWFrames_Blocking(LPC_SSP_T *pSSP, Chip_SSP_DATA_SETUP_T *xf_setup)
ARM GAS  /var/folders/f9/8bk2lnw15zn4cbgn6wrnb4lm0000gn/T//ccdAmBzx.s 			page 15


 181:../../lpc11cx4-library/lpc_chip_11cxx_lib/src/ssp_11xx.c **** {
 245              		.loc 1 181 0
 246              		.cfi_startproc
 247              	.LVL14:
 248 0000 38B5     		push	{r3, r4, r5, lr}	@
 249              		.cfi_def_cfa_offset 16
 250              		.cfi_offset 3, -16
 251              		.cfi_offset 4, -12
 252              		.cfi_offset 5, -8
 253              		.cfi_offset 14, -4
 254 0002 051C     		mov	r5, r0	@ pSSP, pSSP
 255 0004 0C1C     		mov	r4, r1	@ xf_setup, xf_setup
 256              	.LVL15:
 257              	.L22:
 258              	.LBB178:
 259              	.LBB179:
 284:../../lpc11cx4-library/lpc_chip_11cxx_lib/inc/ssp_11xx.h **** 	return (pSSP->SR & Stat) ? SET : RESET;
 260              		.loc 2 284 0 discriminator 1
 261 0006 EB68     		ldr	r3, [r5, #12]	@ D.6742, pSSP_10(D)->SR
 262              	.LBE179:
 263              	.LBE178:
 182:../../lpc11cx4-library/lpc_chip_11cxx_lib/src/ssp_11xx.c **** 	/* Clear all remaining frames in RX FIFO */
 183:../../lpc11cx4-library/lpc_chip_11cxx_lib/src/ssp_11xx.c **** 	while (Chip_SSP_GetStatus(pSSP, SSP_STAT_RNE)) {
 264              		.loc 1 183 0 discriminator 1
 265 0008 5907     		lsl	r1, r3, #29	@, D.6742,
 266 000a 01D5     		bpl	.L50	@,
 267              	.LVL16:
 268              	.LBB180:
 269              	.LBB181:
 270              		.loc 2 366 0
 271 000c AB68     		ldr	r3, [r5, #8]	@ D.6742, pSSP_10(D)->DR
 272 000e FAE7     		b	.L22	@
 273              	.LVL17:
 274              	.L50:
 275              	.LBE181:
 276              	.LBE180:
 277              	.LBB182:
 278              	.LBB183:
 336:../../lpc11cx4-library/lpc_chip_11cxx_lib/inc/ssp_11xx.h **** 	pSSP->ICR = IntClear;
 279              		.loc 2 336 0
 280 0010 0323     		mov	r3, #3	@ tmp168,
 281 0012 2B62     		str	r3, [r5, #32]	@ tmp168, pSSP_10(D)->ICR
 282              	.LVL18:
 283              	.LBE183:
 284              	.LBE182:
 285              	.LBB184:
 286              	.LBB185:
 322:../../lpc11cx4-library/lpc_chip_11cxx_lib/inc/ssp_11xx.h **** 	return SSP_CR0_DSS(pSSP->CR0);
 287              		.loc 2 322 0
 288 0014 2A68     		ldr	r2, [r5]	@ D.6742, pSSP_10(D)->CR0
 289              	.LBE185:
 290              	.LBE184:
 184:../../lpc11cx4-library/lpc_chip_11cxx_lib/src/ssp_11xx.c **** 		Chip_SSP_ReceiveFrame(pSSP);
 185:../../lpc11cx4-library/lpc_chip_11cxx_lib/src/ssp_11xx.c **** 	}
 186:../../lpc11cx4-library/lpc_chip_11cxx_lib/src/ssp_11xx.c **** 
 187:../../lpc11cx4-library/lpc_chip_11cxx_lib/src/ssp_11xx.c **** 	/* Clear status */
 188:../../lpc11cx4-library/lpc_chip_11cxx_lib/src/ssp_11xx.c **** 	Chip_SSP_ClearIntPending(pSSP, SSP_INT_CLEAR_BITMASK);
ARM GAS  /var/folders/f9/8bk2lnw15zn4cbgn6wrnb4lm0000gn/T//ccdAmBzx.s 			page 16


 189:../../lpc11cx4-library/lpc_chip_11cxx_lib/src/ssp_11xx.c **** 
 190:../../lpc11cx4-library/lpc_chip_11cxx_lib/src/ssp_11xx.c **** 	if (Chip_SSP_GetDataSize(pSSP) > SSP_BITS_8) {
 291              		.loc 1 190 0
 292 0016 0F23     		mov	r3, #15	@ tmp171,
 293 0018 1340     		and	r3, r2	@ tmp172, D.6742
 294 001a 072B     		cmp	r3, #7	@ tmp172,
 295 001c 31D9     		bls	.L25	@,
 296              	.LVL19:
 297              	.L26:
 191:../../lpc11cx4-library/lpc_chip_11cxx_lib/src/ssp_11xx.c **** 		while (xf_setup->rx_cnt < xf_setup->length || xf_setup->tx_cnt < xf_setup->length) {
 298              		.loc 1 191 0 discriminator 1
 299 001e 2369     		ldr	r3, [r4, #16]	@ D.6742, xf_setup_15(D)->length
 300 0020 E168     		ldr	r1, [r4, #12]	@, xf_setup_15(D)->rx_cnt
 301 0022 9942     		cmp	r1, r3	@, D.6742
 302 0024 18D2     		bcs	.L51	@,
 303              	.L32:
 304              	.LVL20:
 305              	.LBB186:
 306              	.LBB187:
 284:../../lpc11cx4-library/lpc_chip_11cxx_lib/inc/ssp_11xx.h **** 	return (pSSP->SR & Stat) ? SET : RESET;
 307              		.loc 2 284 0
 308 0026 EA68     		ldr	r2, [r5, #12]	@ D.6742, pSSP_10(D)->SR
 309              	.LBE187:
 310              	.LBE186:
 192:../../lpc11cx4-library/lpc_chip_11cxx_lib/src/ssp_11xx.c **** 			/* write data to buffer */
 193:../../lpc11cx4-library/lpc_chip_11cxx_lib/src/ssp_11xx.c **** 			if (( Chip_SSP_GetStatus(pSSP, SSP_STAT_TNF) == SET) && ( xf_setup->tx_cnt < xf_setup->length) )
 311              		.loc 1 193 0
 312 0028 9107     		lsl	r1, r2, #30	@, D.6742,
 313 002a 0BD5     		bpl	.L27	@,
 314              		.loc 1 193 0 is_stmt 0 discriminator 1
 315 002c 6268     		ldr	r2, [r4, #4]	@ D.6742, xf_setup_15(D)->tx_cnt
 316 002e 9A42     		cmp	r2, r3	@ D.6742, D.6742
 317 0030 08D2     		bcs	.L27	@,
 318              	.LVL21:
 319              	.LBB188:
 320              	.LBB189:
  48:../../lpc11cx4-library/lpc_chip_11cxx_lib/src/ssp_11xx.c **** 	if (xf_setup->tx_data) {
 321              		.loc 1 48 0 is_stmt 1
 322 0032 2368     		ldr	r3, [r4]	@ D.6743, xf_setup_15(D)->tx_data
 323 0034 002B     		cmp	r3, #0	@ D.6743,
 324 0036 01D0     		beq	.L28	@,
 325              	.LVL22:
 326              	.LBB190:
 327              	.LBB191:
 367:../../lpc11cx4-library/lpc_chip_11cxx_lib/inc/ssp_11xx.h **** }
 368:../../lpc11cx4-library/lpc_chip_11cxx_lib/inc/ssp_11xx.h **** 
 369:../../lpc11cx4-library/lpc_chip_11cxx_lib/inc/ssp_11xx.h **** /**
 370:../../lpc11cx4-library/lpc_chip_11cxx_lib/inc/ssp_11xx.h ****  * @brief	Send SSP 16-bit data
 371:../../lpc11cx4-library/lpc_chip_11cxx_lib/inc/ssp_11xx.h ****  * @param	pSSP	: The base of SSP peripheral on the chip
 372:../../lpc11cx4-library/lpc_chip_11cxx_lib/inc/ssp_11xx.h ****  * @param	tx_data	: SSP 16-bit data to be transmited
 373:../../lpc11cx4-library/lpc_chip_11cxx_lib/inc/ssp_11xx.h ****  * @return	 Nothing
 374:../../lpc11cx4-library/lpc_chip_11cxx_lib/inc/ssp_11xx.h ****  */
 375:../../lpc11cx4-library/lpc_chip_11cxx_lib/inc/ssp_11xx.h **** STATIC INLINE void Chip_SSP_SendFrame(LPC_SSP_T *pSSP, uint16_t tx_data)
 376:../../lpc11cx4-library/lpc_chip_11cxx_lib/inc/ssp_11xx.h **** {
 377:../../lpc11cx4-library/lpc_chip_11cxx_lib/inc/ssp_11xx.h **** 	pSSP->DR = SSP_DR_BITMASK(tx_data);
 328              		.loc 2 377 0
 329 0038 9B5A     		ldrh	r3, [r3, r2]	@ D.6742, *_67
ARM GAS  /var/folders/f9/8bk2lnw15zn4cbgn6wrnb4lm0000gn/T//ccdAmBzx.s 			page 17


 330              	.LVL23:
 331 003a 00E0     		b	.L48	@
 332              	.LVL24:
 333              	.L28:
 334              	.LBE191:
 335              	.LBE190:
 336              	.LBB192:
 337              	.LBB193:
 338 003c 1C4B     		ldr	r3, .L55	@ tmp178,
 339              	.LVL25:
 340              	.L48:
 341              	.LBE193:
 342              	.LBE192:
  56:../../lpc11cx4-library/lpc_chip_11cxx_lib/src/ssp_11xx.c **** 	xf_setup->tx_cnt += 2;
 343              		.loc 1 56 0
 344 003e 0232     		add	r2, r2, #2	@ D.6742,
 345              	.LBB195:
 346              	.LBB194:
 347              		.loc 2 377 0
 348 0040 AB60     		str	r3, [r5, #8]	@ tmp178,
 349              	.LBE194:
 350              	.LBE195:
  56:../../lpc11cx4-library/lpc_chip_11cxx_lib/src/ssp_11xx.c **** 	xf_setup->tx_cnt += 2;
 351              		.loc 1 56 0
 352 0042 6260     		str	r2, [r4, #4]	@ D.6742, xf_setup_15(D)->tx_cnt
 353              	.LVL26:
 354              	.L27:
 355              	.LBE189:
 356              	.LBE188:
 357              	.LBB196:
 358              	.LBB197:
 311:../../lpc11cx4-library/lpc_chip_11cxx_lib/inc/ssp_11xx.h **** 	return (pSSP->RIS & RawInt) ? SET : RESET;
 359              		.loc 2 311 0
 360 0044 AB69     		ldr	r3, [r5, #24]	@ D.6742, pSSP_10(D)->RIS
 361              	.LBE197:
 362              	.LBE196:
 194:../../lpc11cx4-library/lpc_chip_11cxx_lib/src/ssp_11xx.c **** 				SSP_Write2BFifo(pSSP, xf_setup);
 195:../../lpc11cx4-library/lpc_chip_11cxx_lib/src/ssp_11xx.c **** 			}
 196:../../lpc11cx4-library/lpc_chip_11cxx_lib/src/ssp_11xx.c **** 
 197:../../lpc11cx4-library/lpc_chip_11cxx_lib/src/ssp_11xx.c **** 			/* Check overrun error */
 198:../../lpc11cx4-library/lpc_chip_11cxx_lib/src/ssp_11xx.c **** 			if (Chip_SSP_GetRawIntStatus(pSSP, SSP_RORRIS) == SET) {
 363              		.loc 1 198 0
 364 0046 DA07     		lsl	r2, r3, #31	@, D.6742,
 365 0048 01D5     		bpl	.L30	@,
 366              	.LVL27:
 367              	.L38:
 199:../../lpc11cx4-library/lpc_chip_11cxx_lib/src/ssp_11xx.c **** 				return ERROR;
 368              		.loc 1 199 0
 369 004a 0020     		mov	r0, #0	@ D.6741,
 370 004c 2FE0     		b	.L31	@
 371              	.LVL28:
 372              	.L30:
 200:../../lpc11cx4-library/lpc_chip_11cxx_lib/src/ssp_11xx.c **** 			}
 201:../../lpc11cx4-library/lpc_chip_11cxx_lib/src/ssp_11xx.c **** 
 202:../../lpc11cx4-library/lpc_chip_11cxx_lib/src/ssp_11xx.c **** 			/* Check for any data available in RX FIFO */
 203:../../lpc11cx4-library/lpc_chip_11cxx_lib/src/ssp_11xx.c **** 			SSP_Read2BFifo(pSSP, xf_setup);
 373              		.loc 1 203 0
ARM GAS  /var/folders/f9/8bk2lnw15zn4cbgn6wrnb4lm0000gn/T//ccdAmBzx.s 			page 18


 374 004e 281C     		mov	r0, r5	@, pSSP
 375 0050 211C     		mov	r1, r4	@, xf_setup
 376 0052 FFF7FEFF 		bl	SSP_Read2BFifo	@
 377              	.LVL29:
 378 0056 E2E7     		b	.L26	@
 379              	.LVL30:
 380              	.L51:
 191:../../lpc11cx4-library/lpc_chip_11cxx_lib/src/ssp_11xx.c **** 		while (xf_setup->rx_cnt < xf_setup->length || xf_setup->tx_cnt < xf_setup->length) {
 381              		.loc 1 191 0 discriminator 2
 382 0058 6268     		ldr	r2, [r4, #4]	@, xf_setup_15(D)->tx_cnt
 383 005a 9A42     		cmp	r2, r3	@, D.6742
 384 005c E3D3     		bcc	.L32	@,
 385              	.L40:
 204:../../lpc11cx4-library/lpc_chip_11cxx_lib/src/ssp_11xx.c **** 		}
 205:../../lpc11cx4-library/lpc_chip_11cxx_lib/src/ssp_11xx.c **** 	}
 206:../../lpc11cx4-library/lpc_chip_11cxx_lib/src/ssp_11xx.c **** 	else {
 207:../../lpc11cx4-library/lpc_chip_11cxx_lib/src/ssp_11xx.c **** 		while (xf_setup->rx_cnt < xf_setup->length || xf_setup->tx_cnt < xf_setup->length) {
 208:../../lpc11cx4-library/lpc_chip_11cxx_lib/src/ssp_11xx.c **** 			/* write data to buffer */
 209:../../lpc11cx4-library/lpc_chip_11cxx_lib/src/ssp_11xx.c **** 			if (( Chip_SSP_GetStatus(pSSP, SSP_STAT_TNF) == SET) && ( xf_setup->tx_cnt < xf_setup->length) )
 210:../../lpc11cx4-library/lpc_chip_11cxx_lib/src/ssp_11xx.c **** 				SSP_Write1BFifo(pSSP, xf_setup);
 211:../../lpc11cx4-library/lpc_chip_11cxx_lib/src/ssp_11xx.c **** 			}
 212:../../lpc11cx4-library/lpc_chip_11cxx_lib/src/ssp_11xx.c **** 
 213:../../lpc11cx4-library/lpc_chip_11cxx_lib/src/ssp_11xx.c **** 			/* Check overrun error */
 214:../../lpc11cx4-library/lpc_chip_11cxx_lib/src/ssp_11xx.c **** 			if (Chip_SSP_GetRawIntStatus(pSSP, SSP_RORRIS) == SET) {
 215:../../lpc11cx4-library/lpc_chip_11cxx_lib/src/ssp_11xx.c **** 				return ERROR;
 216:../../lpc11cx4-library/lpc_chip_11cxx_lib/src/ssp_11xx.c **** 			}
 217:../../lpc11cx4-library/lpc_chip_11cxx_lib/src/ssp_11xx.c **** 
 218:../../lpc11cx4-library/lpc_chip_11cxx_lib/src/ssp_11xx.c **** 			/* Check for any data available in RX FIFO */
 219:../../lpc11cx4-library/lpc_chip_11cxx_lib/src/ssp_11xx.c **** 			SSP_Read1BFifo(pSSP, xf_setup);
 220:../../lpc11cx4-library/lpc_chip_11cxx_lib/src/ssp_11xx.c **** 		}
 221:../../lpc11cx4-library/lpc_chip_11cxx_lib/src/ssp_11xx.c **** 	}
 222:../../lpc11cx4-library/lpc_chip_11cxx_lib/src/ssp_11xx.c **** 	if (xf_setup->tx_data) {
 386              		.loc 1 222 0
 387 005e 2368     		ldr	r3, [r4]	@, xf_setup_15(D)->tx_data
 388 0060 002B     		cmp	r3, #0	@,
 389 0062 20D0     		beq	.L52	@,
 223:../../lpc11cx4-library/lpc_chip_11cxx_lib/src/ssp_11xx.c **** 		return xf_setup->tx_cnt;
 390              		.loc 1 223 0
 391 0064 6068     		ldr	r0, [r4, #4]	@ D.6741, xf_setup_15(D)->tx_cnt
 392 0066 22E0     		b	.L31	@
 393              	.L54:
 207:../../lpc11cx4-library/lpc_chip_11cxx_lib/src/ssp_11xx.c **** 		while (xf_setup->rx_cnt < xf_setup->length || xf_setup->tx_cnt < xf_setup->length) {
 394              		.loc 1 207 0 discriminator 2
 395 0068 6268     		ldr	r2, [r4, #4]	@, xf_setup_15(D)->tx_cnt
 396 006a 9A42     		cmp	r2, r3	@, D.6742
 397 006c F7D2     		bcs	.L40	@,
 398              	.L39:
 399              	.LVL31:
 400              	.LBB198:
 401              	.LBB199:
 284:../../lpc11cx4-library/lpc_chip_11cxx_lib/inc/ssp_11xx.h **** 	return (pSSP->SR & Stat) ? SET : RESET;
 402              		.loc 2 284 0
 403 006e EA68     		ldr	r2, [r5, #12]	@ D.6742, pSSP_10(D)->SR
 404              	.LBE199:
 405              	.LBE198:
 209:../../lpc11cx4-library/lpc_chip_11cxx_lib/src/ssp_11xx.c **** 			if (( Chip_SSP_GetStatus(pSSP, SSP_STAT_TNF) == SET) && ( xf_setup->tx_cnt < xf_setup->length) )
 406              		.loc 1 209 0
ARM GAS  /var/folders/f9/8bk2lnw15zn4cbgn6wrnb4lm0000gn/T//ccdAmBzx.s 			page 19


 407 0070 9107     		lsl	r1, r2, #30	@, D.6742,
 408 0072 0BD4     		bmi	.L53	@,
 409              	.L35:
 410              	.LVL32:
 411              	.LBB200:
 412              	.LBB201:
 311:../../lpc11cx4-library/lpc_chip_11cxx_lib/inc/ssp_11xx.h **** 	return (pSSP->RIS & RawInt) ? SET : RESET;
 413              		.loc 2 311 0
 414 0074 AB69     		ldr	r3, [r5, #24]	@ D.6742, pSSP_10(D)->RIS
 415              	.LBE201:
 416              	.LBE200:
 214:../../lpc11cx4-library/lpc_chip_11cxx_lib/src/ssp_11xx.c **** 			if (Chip_SSP_GetRawIntStatus(pSSP, SSP_RORRIS) == SET) {
 417              		.loc 1 214 0
 418 0076 DA07     		lsl	r2, r3, #31	@, D.6742,
 419 0078 E7D4     		bmi	.L38	@,
 219:../../lpc11cx4-library/lpc_chip_11cxx_lib/src/ssp_11xx.c **** 			SSP_Read1BFifo(pSSP, xf_setup);
 420              		.loc 1 219 0
 421 007a 281C     		mov	r0, r5	@, pSSP
 422 007c 211C     		mov	r1, r4	@, xf_setup
 423 007e FFF7FEFF 		bl	SSP_Read1BFifo	@
 424              	.LVL33:
 425              	.L25:
 207:../../lpc11cx4-library/lpc_chip_11cxx_lib/src/ssp_11xx.c **** 		while (xf_setup->rx_cnt < xf_setup->length || xf_setup->tx_cnt < xf_setup->length) {
 426              		.loc 1 207 0 discriminator 1
 427 0082 2369     		ldr	r3, [r4, #16]	@ D.6742, xf_setup_15(D)->length
 428 0084 E168     		ldr	r1, [r4, #12]	@, xf_setup_15(D)->rx_cnt
 429 0086 9942     		cmp	r1, r3	@, D.6742
 430 0088 F1D3     		bcc	.L39	@,
 431 008a EDE7     		b	.L54	@
 432              	.LVL34:
 433              	.L53:
 209:../../lpc11cx4-library/lpc_chip_11cxx_lib/src/ssp_11xx.c **** 			if (( Chip_SSP_GetStatus(pSSP, SSP_STAT_TNF) == SET) && ( xf_setup->tx_cnt < xf_setup->length) )
 434              		.loc 1 209 0 discriminator 1
 435 008c 6268     		ldr	r2, [r4, #4]	@ D.6742, xf_setup_15(D)->tx_cnt
 436 008e 9A42     		cmp	r2, r3	@ D.6742, D.6742
 437 0090 F0D2     		bcs	.L35	@,
 438              	.LVL35:
 439              	.LBB202:
 440              	.LBB203:
  62:../../lpc11cx4-library/lpc_chip_11cxx_lib/src/ssp_11xx.c **** 	if (xf_setup->tx_data) {
 441              		.loc 1 62 0
 442 0092 2368     		ldr	r3, [r4]	@ D.6743, xf_setup_15(D)->tx_data
 443 0094 002B     		cmp	r3, #0	@ D.6743,
 444 0096 01D0     		beq	.L36	@,
 445              	.LVL36:
 446              	.LBB204:
 447              	.LBB205:
 448              		.loc 2 377 0
 449 0098 9B5C     		ldrb	r3, [r3, r2]	@ D.6742, *_76
 450              	.LVL37:
 451 009a 00E0     		b	.L49	@
 452              	.LVL38:
 453              	.L36:
 454              	.LBE205:
 455              	.LBE204:
 456              	.LBB206:
 457              	.LBB207:
ARM GAS  /var/folders/f9/8bk2lnw15zn4cbgn6wrnb4lm0000gn/T//ccdAmBzx.s 			page 20


 458 009c FF23     		mov	r3, #255	@ tmp192,
 459              	.LVL39:
 460              	.L49:
 461              	.LBE207:
 462              	.LBE206:
  69:../../lpc11cx4-library/lpc_chip_11cxx_lib/src/ssp_11xx.c **** 	xf_setup->tx_cnt++;
 463              		.loc 1 69 0
 464 009e 0132     		add	r2, r2, #1	@ D.6742,
 465              	.LBB209:
 466              	.LBB208:
 467              		.loc 2 377 0
 468 00a0 AB60     		str	r3, [r5, #8]	@ tmp192,
 469              	.LBE208:
 470              	.LBE209:
  69:../../lpc11cx4-library/lpc_chip_11cxx_lib/src/ssp_11xx.c **** 	xf_setup->tx_cnt++;
 471              		.loc 1 69 0
 472 00a2 6260     		str	r2, [r4, #4]	@ D.6742, xf_setup_15(D)->tx_cnt
 473 00a4 E6E7     		b	.L35	@
 474              	.LVL40:
 475              	.L52:
 476              	.LBE203:
 477              	.LBE202:
 224:../../lpc11cx4-library/lpc_chip_11cxx_lib/src/ssp_11xx.c **** 	}
 225:../../lpc11cx4-library/lpc_chip_11cxx_lib/src/ssp_11xx.c **** 	else if (xf_setup->rx_data) {
 478              		.loc 1 225 0
 479 00a6 A368     		ldr	r3, [r4, #8]	@, xf_setup_15(D)->rx_data
 480 00a8 002B     		cmp	r3, #0	@,
 481 00aa CED0     		beq	.L38	@,
 226:../../lpc11cx4-library/lpc_chip_11cxx_lib/src/ssp_11xx.c **** 		return xf_setup->rx_cnt;
 482              		.loc 1 226 0
 483 00ac E068     		ldr	r0, [r4, #12]	@ D.6741, xf_setup_15(D)->rx_cnt
 484              	.L31:
 227:../../lpc11cx4-library/lpc_chip_11cxx_lib/src/ssp_11xx.c **** 	}
 228:../../lpc11cx4-library/lpc_chip_11cxx_lib/src/ssp_11xx.c **** 
 229:../../lpc11cx4-library/lpc_chip_11cxx_lib/src/ssp_11xx.c **** 	return 0;
 230:../../lpc11cx4-library/lpc_chip_11cxx_lib/src/ssp_11xx.c **** }
 485              		.loc 1 230 0
 486              		@ sp needed	@
 487              	.LVL41:
 488              	.LVL42:
 489 00ae 38BD     		pop	{r3, r4, r5, pc}
 490              	.L56:
 491              		.align	2
 492              	.L55:
 493 00b0 FFFF0000 		.word	65535
 494              		.cfi_endproc
 495              	.LFE207:
 496              		.size	Chip_SSP_RWFrames_Blocking, .-Chip_SSP_RWFrames_Blocking
 497              		.section	.text.Chip_SSP_WriteFrames_Blocking,"ax",%progbits
 498              		.align	1
 499              		.global	Chip_SSP_WriteFrames_Blocking
 500              		.code	16
 501              		.thumb_func
 502              		.type	Chip_SSP_WriteFrames_Blocking, %function
 503              	Chip_SSP_WriteFrames_Blocking:
 504              	.LFB208:
 231:../../lpc11cx4-library/lpc_chip_11cxx_lib/src/ssp_11xx.c **** 
ARM GAS  /var/folders/f9/8bk2lnw15zn4cbgn6wrnb4lm0000gn/T//ccdAmBzx.s 			page 21


 232:../../lpc11cx4-library/lpc_chip_11cxx_lib/src/ssp_11xx.c **** /* SSP Polling Write in blocking mode */
 233:../../lpc11cx4-library/lpc_chip_11cxx_lib/src/ssp_11xx.c **** uint32_t Chip_SSP_WriteFrames_Blocking(LPC_SSP_T *pSSP, uint8_t *buffer, uint32_t buffer_len)
 234:../../lpc11cx4-library/lpc_chip_11cxx_lib/src/ssp_11xx.c **** {
 505              		.loc 1 234 0
 506              		.cfi_startproc
 507              	.LVL43:
 508 0000 70B5     		push	{r4, r5, r6, lr}	@
 509              		.cfi_def_cfa_offset 16
 510              		.cfi_offset 4, -16
 511              		.cfi_offset 5, -12
 512              		.cfi_offset 6, -8
 513              		.cfi_offset 14, -4
 514              	.LVL44:
 515              	.L58:
 516              	.LBB210:
 517              	.LBB211:
 284:../../lpc11cx4-library/lpc_chip_11cxx_lib/inc/ssp_11xx.h **** 	return (pSSP->SR & Stat) ? SET : RESET;
 518              		.loc 2 284 0 discriminator 1
 519 0002 C468     		ldr	r4, [r0, #12]	@ D.6772, pSSP_25(D)->SR
 520 0004 6407     		lsl	r4, r4, #29	@ tmp158, D.6772,
 521              	.LBE211:
 522              	.LBE210:
 235:../../lpc11cx4-library/lpc_chip_11cxx_lib/src/ssp_11xx.c **** 	uint32_t tx_cnt = 0, rx_cnt = 0;
 236:../../lpc11cx4-library/lpc_chip_11cxx_lib/src/ssp_11xx.c **** 
 237:../../lpc11cx4-library/lpc_chip_11cxx_lib/src/ssp_11xx.c **** 	/* Clear all remaining frames in RX FIFO */
 238:../../lpc11cx4-library/lpc_chip_11cxx_lib/src/ssp_11xx.c **** 	while (Chip_SSP_GetStatus(pSSP, SSP_STAT_RNE)) {
 523              		.loc 1 238 0 discriminator 1
 524 0006 E40F     		lsr	r4, r4, #31	@ tmp160, tmp158,
 525 0008 01D0     		beq	.L81	@,
 526              	.LVL45:
 527              	.LBB212:
 528              	.LBB213:
 366:../../lpc11cx4-library/lpc_chip_11cxx_lib/inc/ssp_11xx.h **** 	return (uint16_t) (SSP_DR_BITMASK(pSSP->DR));
 529              		.loc 2 366 0
 530 000a 8368     		ldr	r3, [r0, #8]	@ D.6772, pSSP_25(D)->DR
 531 000c F9E7     		b	.L58	@
 532              	.LVL46:
 533              	.L81:
 534              	.LBE213:
 535              	.LBE212:
 536              	.LBB214:
 537              	.LBB215:
 336:../../lpc11cx4-library/lpc_chip_11cxx_lib/inc/ssp_11xx.h **** 	pSSP->ICR = IntClear;
 538              		.loc 2 336 0
 539 000e 0323     		mov	r3, #3	@ tmp161,
 540 0010 0362     		str	r3, [r0, #32]	@ tmp161, pSSP_25(D)->ICR
 541              	.LVL47:
 542              	.LBE215:
 543              	.LBE214:
 544              	.LBB216:
 545              	.LBB217:
 322:../../lpc11cx4-library/lpc_chip_11cxx_lib/inc/ssp_11xx.h **** 	return SSP_CR0_DSS(pSSP->CR0);
 546              		.loc 2 322 0
 547 0012 0568     		ldr	r5, [r0]	@ D.6772, pSSP_25(D)->CR0
 548              	.LBE217:
 549              	.LBE216:
 239:../../lpc11cx4-library/lpc_chip_11cxx_lib/src/ssp_11xx.c **** 		Chip_SSP_ReceiveFrame(pSSP);
ARM GAS  /var/folders/f9/8bk2lnw15zn4cbgn6wrnb4lm0000gn/T//ccdAmBzx.s 			page 22


 240:../../lpc11cx4-library/lpc_chip_11cxx_lib/src/ssp_11xx.c **** 	}
 241:../../lpc11cx4-library/lpc_chip_11cxx_lib/src/ssp_11xx.c **** 
 242:../../lpc11cx4-library/lpc_chip_11cxx_lib/src/ssp_11xx.c **** 	/* Clear status */
 243:../../lpc11cx4-library/lpc_chip_11cxx_lib/src/ssp_11xx.c **** 	Chip_SSP_ClearIntPending(pSSP, SSP_INT_CLEAR_BITMASK);
 244:../../lpc11cx4-library/lpc_chip_11cxx_lib/src/ssp_11xx.c **** 
 245:../../lpc11cx4-library/lpc_chip_11cxx_lib/src/ssp_11xx.c **** 	if (Chip_SSP_GetDataSize(pSSP) > SSP_BITS_8) {
 550              		.loc 1 245 0
 551 0014 0F23     		mov	r3, #15	@ tmp164,
 552 0016 2B40     		and	r3, r5	@ tmp165, D.6772
 553 0018 072B     		cmp	r3, #7	@ tmp165,
 554 001a 01D8     		bhi	.L60	@,
 555 001c 231C     		mov	r3, r4	@ tx_cnt, rx_cnt
 556 001e 24E0     		b	.L61	@
 557              	.L60:
 558 0020 231C     		mov	r3, r4	@ tx_cnt, rx_cnt
 559              	.LVL48:
 560              	.L62:
 561              	.LBB218:
 246:../../lpc11cx4-library/lpc_chip_11cxx_lib/src/ssp_11xx.c **** 		uint16_t *wdata16;
 247:../../lpc11cx4-library/lpc_chip_11cxx_lib/src/ssp_11xx.c **** 
 248:../../lpc11cx4-library/lpc_chip_11cxx_lib/src/ssp_11xx.c **** 		wdata16 = (uint16_t *) buffer;
 249:../../lpc11cx4-library/lpc_chip_11cxx_lib/src/ssp_11xx.c **** 
 250:../../lpc11cx4-library/lpc_chip_11cxx_lib/src/ssp_11xx.c **** 		while (tx_cnt < buffer_len || rx_cnt < buffer_len) {
 562              		.loc 1 250 0 discriminator 1
 563 0022 9342     		cmp	r3, r2	@ tx_cnt, buffer_len
 564 0024 13D2     		bcs	.L82	@,
 565              	.L68:
 566              	.LVL49:
 567              	.LBB219:
 568              	.LBB220:
 284:../../lpc11cx4-library/lpc_chip_11cxx_lib/inc/ssp_11xx.h **** 	return (pSSP->SR & Stat) ? SET : RESET;
 569              		.loc 2 284 0
 570 0026 C568     		ldr	r5, [r0, #12]	@ D.6772, pSSP_25(D)->SR
 571              	.LBE220:
 572              	.LBE219:
 251:../../lpc11cx4-library/lpc_chip_11cxx_lib/src/ssp_11xx.c **** 			/* write data to buffer */
 252:../../lpc11cx4-library/lpc_chip_11cxx_lib/src/ssp_11xx.c **** 			if ((Chip_SSP_GetStatus(pSSP, SSP_STAT_TNF) == SET) && (tx_cnt < buffer_len)) {
 573              		.loc 1 252 0
 574 0028 AE07     		lsl	r6, r5, #30	@, D.6772,
 575 002a 05D5     		bpl	.L63	@,
 576              		.loc 1 252 0 is_stmt 0 discriminator 1
 577 002c 9342     		cmp	r3, r2	@ tx_cnt, buffer_len
 578 002e 03D2     		bcs	.L63	@,
 579              	.LVL50:
 580              	.LBB221:
 581              	.LBB222:
 582              		.loc 2 377 0 is_stmt 1
 583 0030 0D88     		ldrh	r5, [r1]	@ D.6772, MEM[(uint16_t *)buffer_11]
 584              	.LBE222:
 585              	.LBE221:
 253:../../lpc11cx4-library/lpc_chip_11cxx_lib/src/ssp_11xx.c **** 				Chip_SSP_SendFrame(pSSP, *wdata16);
 254:../../lpc11cx4-library/lpc_chip_11cxx_lib/src/ssp_11xx.c **** 				wdata16++;
 255:../../lpc11cx4-library/lpc_chip_11cxx_lib/src/ssp_11xx.c **** 				tx_cnt += 2;
 586              		.loc 1 255 0
 587 0032 0233     		add	r3, r3, #2	@ tx_cnt,
 588              	.LVL51:
 589              	.LBB224:
ARM GAS  /var/folders/f9/8bk2lnw15zn4cbgn6wrnb4lm0000gn/T//ccdAmBzx.s 			page 23


 590              	.LBB223:
 591              		.loc 2 377 0
 592 0034 8560     		str	r5, [r0, #8]	@ D.6772, pSSP_25(D)->DR
 593              	.LVL52:
 594              	.LBE223:
 595              	.LBE224:
 254:../../lpc11cx4-library/lpc_chip_11cxx_lib/src/ssp_11xx.c **** 				wdata16++;
 596              		.loc 1 254 0
 597 0036 0231     		add	r1, r1, #2	@ buffer,
 598              	.LVL53:
 599              	.L63:
 600              	.LBB225:
 601              	.LBB226:
 311:../../lpc11cx4-library/lpc_chip_11cxx_lib/inc/ssp_11xx.h **** 	return (pSSP->RIS & RawInt) ? SET : RESET;
 602              		.loc 2 311 0
 603 0038 8569     		ldr	r5, [r0, #24]	@ D.6772, pSSP_25(D)->RIS
 604              	.LBE226:
 605              	.LBE225:
 256:../../lpc11cx4-library/lpc_chip_11cxx_lib/src/ssp_11xx.c **** 			}
 257:../../lpc11cx4-library/lpc_chip_11cxx_lib/src/ssp_11xx.c **** 
 258:../../lpc11cx4-library/lpc_chip_11cxx_lib/src/ssp_11xx.c **** 			/* Check overrun error */
 259:../../lpc11cx4-library/lpc_chip_11cxx_lib/src/ssp_11xx.c **** 			if (Chip_SSP_GetRawIntStatus(pSSP, SSP_RORRIS) == SET) {
 606              		.loc 1 259 0
 607 003a EE07     		lsl	r6, r5, #31	@, D.6772,
 608 003c 01D5     		bpl	.L65	@,
 609              	.LVL54:
 610              	.L64:
 260:../../lpc11cx4-library/lpc_chip_11cxx_lib/src/ssp_11xx.c **** 				return ERROR;
 611              		.loc 1 260 0
 612 003e 0020     		mov	r0, #0	@ D.6769,
 613              	.LVL55:
 614 0040 23E0     		b	.L66	@
 615              	.LVL56:
 616              	.L65:
 617              	.LBB227:
 618              	.LBB228:
 284:../../lpc11cx4-library/lpc_chip_11cxx_lib/inc/ssp_11xx.h **** 	return (pSSP->SR & Stat) ? SET : RESET;
 619              		.loc 2 284 0 discriminator 1
 620 0042 C568     		ldr	r5, [r0, #12]	@ D.6772, pSSP_25(D)->SR
 621              	.LBE228:
 622              	.LBE227:
 261:../../lpc11cx4-library/lpc_chip_11cxx_lib/src/ssp_11xx.c **** 			}
 262:../../lpc11cx4-library/lpc_chip_11cxx_lib/src/ssp_11xx.c **** 
 263:../../lpc11cx4-library/lpc_chip_11cxx_lib/src/ssp_11xx.c **** 			/* Check for any data available in RX FIFO */
 264:../../lpc11cx4-library/lpc_chip_11cxx_lib/src/ssp_11xx.c **** 			while (Chip_SSP_GetStatus(pSSP, SSP_STAT_RNE) == SET) {
 623              		.loc 1 264 0 discriminator 1
 624 0044 6E07     		lsl	r6, r5, #29	@, D.6772,
 625 0046 ECD5     		bpl	.L62	@,
 626              	.LVL57:
 627              	.LBB229:
 628              	.LBB230:
 366:../../lpc11cx4-library/lpc_chip_11cxx_lib/inc/ssp_11xx.h **** 	return (uint16_t) (SSP_DR_BITMASK(pSSP->DR));
 629              		.loc 2 366 0
 630 0048 8568     		ldr	r5, [r0, #8]	@ D.6772, pSSP_25(D)->DR
 631              	.LBE230:
 632              	.LBE229:
 265:../../lpc11cx4-library/lpc_chip_11cxx_lib/src/ssp_11xx.c **** 				Chip_SSP_ReceiveFrame(pSSP);	/* read dummy data */
ARM GAS  /var/folders/f9/8bk2lnw15zn4cbgn6wrnb4lm0000gn/T//ccdAmBzx.s 			page 24


 266:../../lpc11cx4-library/lpc_chip_11cxx_lib/src/ssp_11xx.c **** 				rx_cnt += 2;
 633              		.loc 1 266 0
 634 004a 0234     		add	r4, r4, #2	@ rx_cnt,
 635              	.LVL58:
 636 004c F9E7     		b	.L65	@
 637              	.LVL59:
 638              	.L82:
 250:../../lpc11cx4-library/lpc_chip_11cxx_lib/src/ssp_11xx.c **** 		while (tx_cnt < buffer_len || rx_cnt < buffer_len) {
 639              		.loc 1 250 0 discriminator 2
 640 004e 9442     		cmp	r4, r2	@ rx_cnt, buffer_len
 641 0050 E9D3     		bcc	.L68	@,
 642 0052 19E0     		b	.L80	@
 643              	.LVL60:
 644              	.L85:
 645              	.LBE218:
 646              	.LBB231:
 267:../../lpc11cx4-library/lpc_chip_11cxx_lib/src/ssp_11xx.c **** 			}
 268:../../lpc11cx4-library/lpc_chip_11cxx_lib/src/ssp_11xx.c **** 		}
 269:../../lpc11cx4-library/lpc_chip_11cxx_lib/src/ssp_11xx.c **** 	}
 270:../../lpc11cx4-library/lpc_chip_11cxx_lib/src/ssp_11xx.c **** 	else {
 271:../../lpc11cx4-library/lpc_chip_11cxx_lib/src/ssp_11xx.c **** 		uint8_t *wdata8;
 272:../../lpc11cx4-library/lpc_chip_11cxx_lib/src/ssp_11xx.c **** 
 273:../../lpc11cx4-library/lpc_chip_11cxx_lib/src/ssp_11xx.c **** 		wdata8 = buffer;
 274:../../lpc11cx4-library/lpc_chip_11cxx_lib/src/ssp_11xx.c **** 
 275:../../lpc11cx4-library/lpc_chip_11cxx_lib/src/ssp_11xx.c **** 		while (tx_cnt < buffer_len || rx_cnt < buffer_len) {
 647              		.loc 1 275 0 discriminator 2
 648 0054 9442     		cmp	r4, r2	@ rx_cnt, buffer_len
 649 0056 17D2     		bcs	.L80	@,
 650              	.L73:
 651              	.LVL61:
 652              	.LBB232:
 653              	.LBB233:
 284:../../lpc11cx4-library/lpc_chip_11cxx_lib/inc/ssp_11xx.h **** 	return (pSSP->SR & Stat) ? SET : RESET;
 654              		.loc 2 284 0
 655 0058 C568     		ldr	r5, [r0, #12]	@ D.6772, pSSP_25(D)->SR
 656              	.LBE233:
 657              	.LBE232:
 276:../../lpc11cx4-library/lpc_chip_11cxx_lib/src/ssp_11xx.c **** 			/* write data to buffer */
 277:../../lpc11cx4-library/lpc_chip_11cxx_lib/src/ssp_11xx.c **** 			if ((Chip_SSP_GetStatus(pSSP, SSP_STAT_TNF) == SET) && (tx_cnt < buffer_len)) {
 658              		.loc 1 277 0
 659 005a AE07     		lsl	r6, r5, #30	@, D.6772,
 660 005c 08D4     		bmi	.L83	@,
 661              	.L69:
 662              	.LVL62:
 663              	.LBB234:
 664              	.LBB235:
 311:../../lpc11cx4-library/lpc_chip_11cxx_lib/inc/ssp_11xx.h **** 	return (pSSP->RIS & RawInt) ? SET : RESET;
 665              		.loc 2 311 0
 666 005e 8569     		ldr	r5, [r0, #24]	@ D.6772, pSSP_25(D)->RIS
 667              	.LBE235:
 668              	.LBE234:
 278:../../lpc11cx4-library/lpc_chip_11cxx_lib/src/ssp_11xx.c **** 				Chip_SSP_SendFrame(pSSP, *wdata8);
 279:../../lpc11cx4-library/lpc_chip_11cxx_lib/src/ssp_11xx.c **** 				wdata8++;
 280:../../lpc11cx4-library/lpc_chip_11cxx_lib/src/ssp_11xx.c **** 				tx_cnt++;
 281:../../lpc11cx4-library/lpc_chip_11cxx_lib/src/ssp_11xx.c **** 			}
 282:../../lpc11cx4-library/lpc_chip_11cxx_lib/src/ssp_11xx.c **** 
 283:../../lpc11cx4-library/lpc_chip_11cxx_lib/src/ssp_11xx.c **** 			/* Check overrun error */
ARM GAS  /var/folders/f9/8bk2lnw15zn4cbgn6wrnb4lm0000gn/T//ccdAmBzx.s 			page 25


 284:../../lpc11cx4-library/lpc_chip_11cxx_lib/src/ssp_11xx.c **** 			if (Chip_SSP_GetRawIntStatus(pSSP, SSP_RORRIS) == SET) {
 669              		.loc 1 284 0
 670 0060 EE07     		lsl	r6, r5, #31	@, D.6772,
 671 0062 ECD4     		bmi	.L64	@,
 672              	.L70:
 673              	.LVL63:
 674              	.LBB236:
 675              	.LBB237:
 284:../../lpc11cx4-library/lpc_chip_11cxx_lib/inc/ssp_11xx.h **** 	return (pSSP->SR & Stat) ? SET : RESET;
 676              		.loc 2 284 0 discriminator 1
 677 0064 C568     		ldr	r5, [r0, #12]	@ D.6772, pSSP_25(D)->SR
 678              	.LBE237:
 679              	.LBE236:
 285:../../lpc11cx4-library/lpc_chip_11cxx_lib/src/ssp_11xx.c **** 				return ERROR;
 286:../../lpc11cx4-library/lpc_chip_11cxx_lib/src/ssp_11xx.c **** 			}
 287:../../lpc11cx4-library/lpc_chip_11cxx_lib/src/ssp_11xx.c **** 
 288:../../lpc11cx4-library/lpc_chip_11cxx_lib/src/ssp_11xx.c **** 			/* Check for any data available in RX FIFO */
 289:../../lpc11cx4-library/lpc_chip_11cxx_lib/src/ssp_11xx.c **** 			while (Chip_SSP_GetStatus(pSSP, SSP_STAT_RNE) == SET && rx_cnt < buffer_len) {
 680              		.loc 1 289 0 discriminator 1
 681 0066 6E07     		lsl	r6, r5, #29	@, D.6772,
 682 0068 09D4     		bmi	.L84	@,
 683              	.LVL64:
 684              	.L61:
 275:../../lpc11cx4-library/lpc_chip_11cxx_lib/src/ssp_11xx.c **** 		while (tx_cnt < buffer_len || rx_cnt < buffer_len) {
 685              		.loc 1 275 0 discriminator 1
 686 006a 9342     		cmp	r3, r2	@ tx_cnt, buffer_len
 687 006c F4D3     		bcc	.L73	@,
 688 006e F1E7     		b	.L85	@
 689              	.LVL65:
 690              	.L83:
 277:../../lpc11cx4-library/lpc_chip_11cxx_lib/src/ssp_11xx.c **** 			if ((Chip_SSP_GetStatus(pSSP, SSP_STAT_TNF) == SET) && (tx_cnt < buffer_len)) {
 691              		.loc 1 277 0 discriminator 1
 692 0070 9342     		cmp	r3, r2	@ tx_cnt, buffer_len
 693 0072 F4D2     		bcs	.L69	@,
 694              	.LVL66:
 695              	.LBB238:
 696              	.LBB239:
 697              		.loc 2 377 0
 698 0074 0D78     		ldrb	r5, [r1]	@ D.6772, *buffer_13
 699              	.LBE239:
 700              	.LBE238:
 280:../../lpc11cx4-library/lpc_chip_11cxx_lib/src/ssp_11xx.c **** 				tx_cnt++;
 701              		.loc 1 280 0
 702 0076 0133     		add	r3, r3, #1	@ tx_cnt,
 703              	.LVL67:
 704              	.LBB241:
 705              	.LBB240:
 706              		.loc 2 377 0
 707 0078 8560     		str	r5, [r0, #8]	@ D.6772, pSSP_25(D)->DR
 708              	.LVL68:
 709              	.LBE240:
 710              	.LBE241:
 279:../../lpc11cx4-library/lpc_chip_11cxx_lib/src/ssp_11xx.c **** 				wdata8++;
 711              		.loc 1 279 0
 712 007a 0131     		add	r1, r1, #1	@ buffer,
 713              	.LVL69:
 714 007c EFE7     		b	.L69	@
ARM GAS  /var/folders/f9/8bk2lnw15zn4cbgn6wrnb4lm0000gn/T//ccdAmBzx.s 			page 26


 715              	.LVL70:
 716              	.L84:
 717              		.loc 1 289 0 discriminator 2
 718 007e 9442     		cmp	r4, r2	@ rx_cnt, buffer_len
 719 0080 F3D2     		bcs	.L61	@,
 720              	.LVL71:
 721              	.LBB242:
 722              	.LBB243:
 366:../../lpc11cx4-library/lpc_chip_11cxx_lib/inc/ssp_11xx.h **** 	return (uint16_t) (SSP_DR_BITMASK(pSSP->DR));
 723              		.loc 2 366 0
 724 0082 8568     		ldr	r5, [r0, #8]	@ D.6772, pSSP_25(D)->DR
 725              	.LBE243:
 726              	.LBE242:
 290:../../lpc11cx4-library/lpc_chip_11cxx_lib/src/ssp_11xx.c **** 				Chip_SSP_ReceiveFrame(pSSP);	/* read dummy data */
 291:../../lpc11cx4-library/lpc_chip_11cxx_lib/src/ssp_11xx.c **** 				rx_cnt++;
 727              		.loc 1 291 0
 728 0084 0134     		add	r4, r4, #1	@ rx_cnt,
 729              	.LVL72:
 730 0086 EDE7     		b	.L70	@
 731              	.LVL73:
 732              	.L80:
 733 0088 181C     		mov	r0, r3	@ D.6769, tx_cnt
 734              	.LVL74:
 735              	.L66:
 736              	.LBE231:
 292:../../lpc11cx4-library/lpc_chip_11cxx_lib/src/ssp_11xx.c **** 			}
 293:../../lpc11cx4-library/lpc_chip_11cxx_lib/src/ssp_11xx.c **** 		}
 294:../../lpc11cx4-library/lpc_chip_11cxx_lib/src/ssp_11xx.c **** 	}
 295:../../lpc11cx4-library/lpc_chip_11cxx_lib/src/ssp_11xx.c **** 
 296:../../lpc11cx4-library/lpc_chip_11cxx_lib/src/ssp_11xx.c **** 	return tx_cnt;
 297:../../lpc11cx4-library/lpc_chip_11cxx_lib/src/ssp_11xx.c **** 
 298:../../lpc11cx4-library/lpc_chip_11cxx_lib/src/ssp_11xx.c **** }
 737              		.loc 1 298 0
 738              		@ sp needed	@
 739              	.LVL75:
 740 008a 70BD     		pop	{r4, r5, r6, pc}
 741              		.cfi_endproc
 742              	.LFE208:
 743              		.size	Chip_SSP_WriteFrames_Blocking, .-Chip_SSP_WriteFrames_Blocking
 744              		.section	.text.Chip_SSP_ReadFrames_Blocking,"ax",%progbits
 745              		.align	1
 746              		.global	Chip_SSP_ReadFrames_Blocking
 747              		.code	16
 748              		.thumb_func
 749              		.type	Chip_SSP_ReadFrames_Blocking, %function
 750              	Chip_SSP_ReadFrames_Blocking:
 751              	.LFB209:
 299:../../lpc11cx4-library/lpc_chip_11cxx_lib/src/ssp_11xx.c **** 
 300:../../lpc11cx4-library/lpc_chip_11cxx_lib/src/ssp_11xx.c **** /* SSP Polling Read in blocking mode */
 301:../../lpc11cx4-library/lpc_chip_11cxx_lib/src/ssp_11xx.c **** uint32_t Chip_SSP_ReadFrames_Blocking(LPC_SSP_T *pSSP, uint8_t *buffer, uint32_t buffer_len)
 302:../../lpc11cx4-library/lpc_chip_11cxx_lib/src/ssp_11xx.c **** {
 752              		.loc 1 302 0
 753              		.cfi_startproc
 754              	.LVL76:
 755 0000 F7B5     		push	{r0, r1, r2, r4, r5, r6, r7, lr}	@
 756              		.cfi_def_cfa_offset 32
 757              		.cfi_offset 0, -32
ARM GAS  /var/folders/f9/8bk2lnw15zn4cbgn6wrnb4lm0000gn/T//ccdAmBzx.s 			page 27


 758              		.cfi_offset 1, -28
 759              		.cfi_offset 2, -24
 760              		.cfi_offset 4, -20
 761              		.cfi_offset 5, -16
 762              		.cfi_offset 6, -12
 763              		.cfi_offset 7, -8
 764              		.cfi_offset 14, -4
 765              	.LVL77:
 766              	.L87:
 767              	.LBB244:
 768              	.LBB245:
 284:../../lpc11cx4-library/lpc_chip_11cxx_lib/inc/ssp_11xx.h **** 	return (pSSP->SR & Stat) ? SET : RESET;
 769              		.loc 2 284 0 discriminator 1
 770 0002 C568     		ldr	r5, [r0, #12]	@ D.6808, pSSP_25(D)->SR
 771 0004 6D07     		lsl	r5, r5, #29	@ tmp219, D.6808,
 772              	.LBE245:
 773              	.LBE244:
 303:../../lpc11cx4-library/lpc_chip_11cxx_lib/src/ssp_11xx.c **** 	uint32_t rx_cnt = 0, tx_cnt = 0;
 304:../../lpc11cx4-library/lpc_chip_11cxx_lib/src/ssp_11xx.c **** 
 305:../../lpc11cx4-library/lpc_chip_11cxx_lib/src/ssp_11xx.c **** 	/* Clear all remaining frames in RX FIFO */
 306:../../lpc11cx4-library/lpc_chip_11cxx_lib/src/ssp_11xx.c **** 	while (Chip_SSP_GetStatus(pSSP, SSP_STAT_RNE)) {
 774              		.loc 1 306 0 discriminator 1
 775 0006 ED0F     		lsr	r5, r5, #31	@ tmp221, tmp219,
 776 0008 01D0     		beq	.L111	@,
 777              	.LVL78:
 778              	.LBB246:
 779              	.LBB247:
 366:../../lpc11cx4-library/lpc_chip_11cxx_lib/inc/ssp_11xx.h **** 	return (uint16_t) (SSP_DR_BITMASK(pSSP->DR));
 780              		.loc 2 366 0
 781 000a 8368     		ldr	r3, [r0, #8]	@ D.6808, pSSP_25(D)->DR
 782 000c F9E7     		b	.L87	@
 783              	.LVL79:
 784              	.L111:
 785              	.LBE247:
 786              	.LBE246:
 787              	.LBB248:
 788              	.LBB249:
 336:../../lpc11cx4-library/lpc_chip_11cxx_lib/inc/ssp_11xx.h **** 	pSSP->ICR = IntClear;
 789              		.loc 2 336 0
 790 000e 0323     		mov	r3, #3	@ tmp222,
 791 0010 0362     		str	r3, [r0, #32]	@ tmp222, pSSP_25(D)->ICR
 792              	.LVL80:
 793              	.LBE249:
 794              	.LBE248:
 795              	.LBB250:
 796              	.LBB251:
 322:../../lpc11cx4-library/lpc_chip_11cxx_lib/inc/ssp_11xx.h **** 	return SSP_CR0_DSS(pSSP->CR0);
 797              		.loc 2 322 0
 798 0012 0468     		ldr	r4, [r0]	@ D.6808, pSSP_25(D)->CR0
 799              	.LBE251:
 800              	.LBE250:
 307:../../lpc11cx4-library/lpc_chip_11cxx_lib/src/ssp_11xx.c **** 		Chip_SSP_ReceiveFrame(pSSP);
 308:../../lpc11cx4-library/lpc_chip_11cxx_lib/src/ssp_11xx.c **** 	}
 309:../../lpc11cx4-library/lpc_chip_11cxx_lib/src/ssp_11xx.c **** 
 310:../../lpc11cx4-library/lpc_chip_11cxx_lib/src/ssp_11xx.c **** 	/* Clear status */
 311:../../lpc11cx4-library/lpc_chip_11cxx_lib/src/ssp_11xx.c **** 	Chip_SSP_ClearIntPending(pSSP, SSP_INT_CLEAR_BITMASK);
 312:../../lpc11cx4-library/lpc_chip_11cxx_lib/src/ssp_11xx.c **** 
ARM GAS  /var/folders/f9/8bk2lnw15zn4cbgn6wrnb4lm0000gn/T//ccdAmBzx.s 			page 28


 313:../../lpc11cx4-library/lpc_chip_11cxx_lib/src/ssp_11xx.c **** 	if (Chip_SSP_GetDataSize(pSSP) > SSP_BITS_8) {
 801              		.loc 1 313 0
 802 0014 0F23     		mov	r3, #15	@ tmp225,
 803 0016 2340     		and	r3, r4	@ tmp226, D.6808
 804 0018 072B     		cmp	r3, #7	@ tmp226,
 805 001a 01D8     		bhi	.L89	@,
 806 001c 2B1C     		mov	r3, r5	@ rx_cnt, tx_cnt
 807 001e 36E0     		b	.L90	@
 808              	.L89:
 809 0020 2B1C     		mov	r3, r5	@ rx_cnt, tx_cnt
 810              	.LVL81:
 811              	.L91:
 812              	.LBB252:
 314:../../lpc11cx4-library/lpc_chip_11cxx_lib/src/ssp_11xx.c **** 		uint16_t *rdata16;
 315:../../lpc11cx4-library/lpc_chip_11cxx_lib/src/ssp_11xx.c **** 
 316:../../lpc11cx4-library/lpc_chip_11cxx_lib/src/ssp_11xx.c **** 		rdata16 = (uint16_t *) buffer;
 317:../../lpc11cx4-library/lpc_chip_11cxx_lib/src/ssp_11xx.c **** 
 318:../../lpc11cx4-library/lpc_chip_11cxx_lib/src/ssp_11xx.c **** 		while (tx_cnt < buffer_len || rx_cnt < buffer_len) {
 813              		.loc 1 318 0 discriminator 1
 814 0022 9542     		cmp	r5, r2	@ tx_cnt, buffer_len
 815 0024 1ED2     		bcs	.L112	@,
 816              	.L98:
 817              	.LVL82:
 818              	.LBB253:
 819              	.LBB254:
 284:../../lpc11cx4-library/lpc_chip_11cxx_lib/inc/ssp_11xx.h **** 	return (pSSP->SR & Stat) ? SET : RESET;
 820              		.loc 2 284 0
 821 0026 C468     		ldr	r4, [r0, #12]	@ D.6808, pSSP_25(D)->SR
 822              	.LBE254:
 823              	.LBE253:
 319:../../lpc11cx4-library/lpc_chip_11cxx_lib/src/ssp_11xx.c **** 			/* write data to buffer */
 320:../../lpc11cx4-library/lpc_chip_11cxx_lib/src/ssp_11xx.c **** 			if ((Chip_SSP_GetStatus(pSSP, SSP_STAT_TNF) == SET) && (tx_cnt < buffer_len)) {
 824              		.loc 1 320 0
 825 0028 A607     		lsl	r6, r4, #30	@, D.6808,
 826 002a 04D5     		bpl	.L92	@,
 827              		.loc 1 320 0 is_stmt 0 discriminator 1
 828 002c 9542     		cmp	r5, r2	@ tx_cnt, buffer_len
 829 002e 02D2     		bcs	.L92	@,
 830              	.LVL83:
 831              	.LBB255:
 832              	.LBB256:
 833              		.loc 2 377 0 is_stmt 1
 834 0030 204C     		ldr	r4, .L117	@ tmp232,
 835              	.LBE256:
 836              	.LBE255:
 321:../../lpc11cx4-library/lpc_chip_11cxx_lib/src/ssp_11xx.c **** 				Chip_SSP_SendFrame(pSSP, 0xFFFF);	/* just send dummy data */
 322:../../lpc11cx4-library/lpc_chip_11cxx_lib/src/ssp_11xx.c **** 				tx_cnt += 2;
 837              		.loc 1 322 0
 838 0032 0235     		add	r5, r5, #2	@ tx_cnt,
 839              	.LVL84:
 840              	.LBB258:
 841              	.LBB257:
 842              		.loc 2 377 0
 843 0034 8460     		str	r4, [r0, #8]	@ tmp232, pSSP_25(D)->DR
 844              	.LVL85:
 845              	.L92:
 846              	.LBE257:
ARM GAS  /var/folders/f9/8bk2lnw15zn4cbgn6wrnb4lm0000gn/T//ccdAmBzx.s 			page 29


 847              	.LBE258:
 848              	.LBB259:
 849              	.LBB260:
 311:../../lpc11cx4-library/lpc_chip_11cxx_lib/inc/ssp_11xx.h **** 	return (pSSP->RIS & RawInt) ? SET : RESET;
 850              		.loc 2 311 0
 851 0036 8469     		ldr	r4, [r0, #24]	@ D.6808, pSSP_25(D)->RIS
 852              	.LBE260:
 853              	.LBE259:
 323:../../lpc11cx4-library/lpc_chip_11cxx_lib/src/ssp_11xx.c **** 			}
 324:../../lpc11cx4-library/lpc_chip_11cxx_lib/src/ssp_11xx.c **** 
 325:../../lpc11cx4-library/lpc_chip_11cxx_lib/src/ssp_11xx.c **** 			/* Check overrun error */
 326:../../lpc11cx4-library/lpc_chip_11cxx_lib/src/ssp_11xx.c **** 			if (Chip_SSP_GetRawIntStatus(pSSP, SSP_RORRIS) == SET) {
 854              		.loc 1 326 0
 855 0038 E607     		lsl	r6, r4, #31	@, D.6808,
 856 003a 01D4     		bmi	.L93	@,
 857 003c 1C1C     		mov	r4, r3	@ rx_cnt, rx_cnt
 858 003e 07E0     		b	.L94	@
 859              	.LVL86:
 860              	.L93:
 327:../../lpc11cx4-library/lpc_chip_11cxx_lib/src/ssp_11xx.c **** 				return ERROR;
 861              		.loc 1 327 0
 862 0040 0020     		mov	r0, #0	@ D.6804,
 863              	.LVL87:
 864 0042 35E0     		b	.L95	@
 865              	.LVL88:
 866              	.L113:
 328:../../lpc11cx4-library/lpc_chip_11cxx_lib/src/ssp_11xx.c **** 			}
 329:../../lpc11cx4-library/lpc_chip_11cxx_lib/src/ssp_11xx.c **** 
 330:../../lpc11cx4-library/lpc_chip_11cxx_lib/src/ssp_11xx.c **** 			/* Check for any data available in RX FIFO */
 331:../../lpc11cx4-library/lpc_chip_11cxx_lib/src/ssp_11xx.c **** 			while (Chip_SSP_GetStatus(pSSP, SSP_STAT_RNE) == SET && rx_cnt < buffer_len) {
 867              		.loc 1 331 0 discriminator 2
 868 0044 9442     		cmp	r4, r2	@ rx_cnt, buffer_len
 869 0046 0AD2     		bcs	.L96	@,
 870              	.LVL89:
 871              	.LBB261:
 872              	.LBB262:
 366:../../lpc11cx4-library/lpc_chip_11cxx_lib/inc/ssp_11xx.h **** 	return (uint16_t) (SSP_DR_BITMASK(pSSP->DR));
 873              		.loc 2 366 0
 874 0048 8668     		ldr	r6, [r0, #8]	@ D.6808, pSSP_25(D)->DR
 875 004a CF19     		add	r7, r1, r7	@ D.6805, buffer, D.6808
 876 004c 3E53     		strh	r6, [r7, r4]	@ D.6808, MEM[base: _15, index: rx_cnt_1, offset: 0B]
 877              	.LVL90:
 878              	.LBE262:
 879              	.LBE261:
 332:../../lpc11cx4-library/lpc_chip_11cxx_lib/src/ssp_11xx.c **** 				*rdata16 = Chip_SSP_ReceiveFrame(pSSP);
 333:../../lpc11cx4-library/lpc_chip_11cxx_lib/src/ssp_11xx.c **** 				rdata16++;
 334:../../lpc11cx4-library/lpc_chip_11cxx_lib/src/ssp_11xx.c **** 				rx_cnt += 2;
 880              		.loc 1 334 0
 881 004e 0234     		add	r4, r4, #2	@ rx_cnt,
 882              	.LVL91:
 883              	.L94:
 884 0050 CE1A     		sub	r6, r1, r3	@ D.6806, buffer, rx_cnt
 885 0052 3619     		add	r6, r6, r4	@, D.6806, rx_cnt
 886 0054 0196     		str	r6, [sp, #4]	@, %sfp
 887              	.LVL92:
 888              	.LBB263:
 889              	.LBB264:
ARM GAS  /var/folders/f9/8bk2lnw15zn4cbgn6wrnb4lm0000gn/T//ccdAmBzx.s 			page 30


 284:../../lpc11cx4-library/lpc_chip_11cxx_lib/inc/ssp_11xx.h **** 	return (pSSP->SR & Stat) ? SET : RESET;
 890              		.loc 2 284 0 discriminator 1
 891 0056 C668     		ldr	r6, [r0, #12]	@, pSSP_25(D)->SR
 892              	.LVL93:
 893 0058 5F42     		neg	r7, r3	@ D.6808, rx_cnt
 894              	.LBE264:
 895              	.LBE263:
 331:../../lpc11cx4-library/lpc_chip_11cxx_lib/src/ssp_11xx.c **** 			while (Chip_SSP_GetStatus(pSSP, SSP_STAT_RNE) == SET && rx_cnt < buffer_len) {
 896              		.loc 1 331 0 discriminator 1
 897 005a 7607     		lsl	r6, r6, #29	@,,
 898 005c F2D4     		bmi	.L113	@,
 899              	.L96:
 326:../../lpc11cx4-library/lpc_chip_11cxx_lib/src/ssp_11xx.c **** 			if (Chip_SSP_GetRawIntStatus(pSSP, SSP_RORRIS) == SET) {
 900              		.loc 1 326 0 discriminator 1
 901 005e 0199     		ldr	r1, [sp, #4]	@ buffer, %sfp
 902 0060 231C     		mov	r3, r4	@ rx_cnt, rx_cnt
 903 0062 DEE7     		b	.L91	@
 904              	.LVL94:
 905              	.L112:
 318:../../lpc11cx4-library/lpc_chip_11cxx_lib/src/ssp_11xx.c **** 		while (tx_cnt < buffer_len || rx_cnt < buffer_len) {
 906              		.loc 1 318 0 discriminator 2
 907 0064 9342     		cmp	r3, r2	@ rx_cnt, buffer_len
 908 0066 DED3     		bcc	.L98	@,
 909 0068 21E0     		b	.L110	@
 910              	.LVL95:
 911              	.L116:
 912              	.LBE252:
 913              	.LBB265:
 335:../../lpc11cx4-library/lpc_chip_11cxx_lib/src/ssp_11xx.c **** 			}
 336:../../lpc11cx4-library/lpc_chip_11cxx_lib/src/ssp_11xx.c **** 		}
 337:../../lpc11cx4-library/lpc_chip_11cxx_lib/src/ssp_11xx.c **** 	}
 338:../../lpc11cx4-library/lpc_chip_11cxx_lib/src/ssp_11xx.c **** 	else {
 339:../../lpc11cx4-library/lpc_chip_11cxx_lib/src/ssp_11xx.c **** 		uint8_t *rdata8;
 340:../../lpc11cx4-library/lpc_chip_11cxx_lib/src/ssp_11xx.c **** 
 341:../../lpc11cx4-library/lpc_chip_11cxx_lib/src/ssp_11xx.c **** 		rdata8 = buffer;
 342:../../lpc11cx4-library/lpc_chip_11cxx_lib/src/ssp_11xx.c **** 
 343:../../lpc11cx4-library/lpc_chip_11cxx_lib/src/ssp_11xx.c **** 		while (tx_cnt < buffer_len || rx_cnt < buffer_len) {
 914              		.loc 1 343 0 discriminator 2
 915 006a 9342     		cmp	r3, r2	@ rx_cnt, buffer_len
 916 006c 1FD2     		bcs	.L110	@,
 917              	.L103:
 918              	.LVL96:
 919              	.LBB266:
 920              	.LBB267:
 284:../../lpc11cx4-library/lpc_chip_11cxx_lib/inc/ssp_11xx.h **** 	return (pSSP->SR & Stat) ? SET : RESET;
 921              		.loc 2 284 0
 922 006e C468     		ldr	r4, [r0, #12]	@ D.6808, pSSP_25(D)->SR
 923              	.LBE267:
 924              	.LBE266:
 344:../../lpc11cx4-library/lpc_chip_11cxx_lib/src/ssp_11xx.c **** 			/* write data to buffer */
 345:../../lpc11cx4-library/lpc_chip_11cxx_lib/src/ssp_11xx.c **** 			if ((Chip_SSP_GetStatus(pSSP, SSP_STAT_TNF) == SET) && (tx_cnt < buffer_len)) {
 925              		.loc 1 345 0
 926 0070 A607     		lsl	r6, r4, #30	@, D.6808,
 927 0072 0FD4     		bmi	.L114	@,
 928              	.L99:
 929              	.LVL97:
 930              	.LBB268:
ARM GAS  /var/folders/f9/8bk2lnw15zn4cbgn6wrnb4lm0000gn/T//ccdAmBzx.s 			page 31


 931              	.LBB269:
 311:../../lpc11cx4-library/lpc_chip_11cxx_lib/inc/ssp_11xx.h **** 	return (pSSP->RIS & RawInt) ? SET : RESET;
 932              		.loc 2 311 0
 933 0074 8469     		ldr	r4, [r0, #24]	@ D.6808, pSSP_25(D)->RIS
 934              	.LBE269:
 935              	.LBE268:
 346:../../lpc11cx4-library/lpc_chip_11cxx_lib/src/ssp_11xx.c **** 				Chip_SSP_SendFrame(pSSP, 0xFF);	/* just send dummy data		 */
 347:../../lpc11cx4-library/lpc_chip_11cxx_lib/src/ssp_11xx.c **** 				tx_cnt++;
 348:../../lpc11cx4-library/lpc_chip_11cxx_lib/src/ssp_11xx.c **** 			}
 349:../../lpc11cx4-library/lpc_chip_11cxx_lib/src/ssp_11xx.c **** 
 350:../../lpc11cx4-library/lpc_chip_11cxx_lib/src/ssp_11xx.c **** 			/* Check overrun error */
 351:../../lpc11cx4-library/lpc_chip_11cxx_lib/src/ssp_11xx.c **** 			if (Chip_SSP_GetRawIntStatus(pSSP, SSP_RORRIS) == SET) {
 936              		.loc 1 351 0
 937 0076 E607     		lsl	r6, r4, #31	@, D.6808,
 938 0078 E2D4     		bmi	.L93	@,
 939 007a 1C1C     		mov	r4, r3	@ rx_cnt, rx_cnt
 940              	.LVL98:
 941              	.L100:
 942 007c CE1A     		sub	r6, r1, r3	@ D.6806, buffer, rx_cnt
 943 007e 3619     		add	r6, r6, r4	@, D.6806, rx_cnt
 944 0080 0196     		str	r6, [sp, #4]	@, %sfp
 945              	.LVL99:
 946              	.LBB270:
 947              	.LBB271:
 284:../../lpc11cx4-library/lpc_chip_11cxx_lib/inc/ssp_11xx.h **** 	return (pSSP->SR & Stat) ? SET : RESET;
 948              		.loc 2 284 0 discriminator 1
 949 0082 C668     		ldr	r6, [r0, #12]	@, pSSP_25(D)->SR
 950              	.LVL100:
 951 0084 5F42     		neg	r7, r3	@ D.6808, rx_cnt
 952              	.LBE271:
 953              	.LBE270:
 352:../../lpc11cx4-library/lpc_chip_11cxx_lib/src/ssp_11xx.c **** 				return ERROR;
 353:../../lpc11cx4-library/lpc_chip_11cxx_lib/src/ssp_11xx.c **** 			}
 354:../../lpc11cx4-library/lpc_chip_11cxx_lib/src/ssp_11xx.c **** 
 355:../../lpc11cx4-library/lpc_chip_11cxx_lib/src/ssp_11xx.c **** 			/* Check for any data available in RX FIFO */
 356:../../lpc11cx4-library/lpc_chip_11cxx_lib/src/ssp_11xx.c **** 			while (Chip_SSP_GetStatus(pSSP, SSP_STAT_RNE) == SET && rx_cnt < buffer_len) {
 954              		.loc 1 356 0 discriminator 1
 955 0086 7607     		lsl	r6, r6, #29	@,,
 956 0088 0AD4     		bmi	.L115	@,
 957              	.L101:
 351:../../lpc11cx4-library/lpc_chip_11cxx_lib/src/ssp_11xx.c **** 			if (Chip_SSP_GetRawIntStatus(pSSP, SSP_RORRIS) == SET) {
 958              		.loc 1 351 0 discriminator 1
 959 008a 0199     		ldr	r1, [sp, #4]	@ buffer, %sfp
 960 008c 231C     		mov	r3, r4	@ rx_cnt, rx_cnt
 961              	.LVL101:
 962              	.L90:
 343:../../lpc11cx4-library/lpc_chip_11cxx_lib/src/ssp_11xx.c **** 		while (tx_cnt < buffer_len || rx_cnt < buffer_len) {
 963              		.loc 1 343 0 discriminator 1
 964 008e 9542     		cmp	r5, r2	@ tx_cnt, buffer_len
 965 0090 EDD3     		bcc	.L103	@,
 966 0092 EAE7     		b	.L116	@
 967              	.LVL102:
 968              	.L114:
 345:../../lpc11cx4-library/lpc_chip_11cxx_lib/src/ssp_11xx.c **** 			if ((Chip_SSP_GetStatus(pSSP, SSP_STAT_TNF) == SET) && (tx_cnt < buffer_len)) {
 969              		.loc 1 345 0 discriminator 1
 970 0094 9542     		cmp	r5, r2	@ tx_cnt, buffer_len
 971 0096 EDD2     		bcs	.L99	@,
ARM GAS  /var/folders/f9/8bk2lnw15zn4cbgn6wrnb4lm0000gn/T//ccdAmBzx.s 			page 32


 972              	.LVL103:
 973              	.LBB272:
 974              	.LBB273:
 975              		.loc 2 377 0
 976 0098 FF24     		mov	r4, #255	@ tmp249,
 977 009a 8460     		str	r4, [r0, #8]	@ tmp249, pSSP_25(D)->DR
 978              	.LBE273:
 979              	.LBE272:
 347:../../lpc11cx4-library/lpc_chip_11cxx_lib/src/ssp_11xx.c **** 				tx_cnt++;
 980              		.loc 1 347 0
 981 009c 0135     		add	r5, r5, #1	@ tx_cnt,
 982              	.LVL104:
 983 009e E9E7     		b	.L99	@
 984              	.LVL105:
 985              	.L115:
 986              		.loc 1 356 0 discriminator 2
 987 00a0 9442     		cmp	r4, r2	@ rx_cnt, buffer_len
 988 00a2 F2D2     		bcs	.L101	@,
 989              	.LVL106:
 990              	.LBB274:
 991              	.LBB275:
 366:../../lpc11cx4-library/lpc_chip_11cxx_lib/inc/ssp_11xx.h **** 	return (uint16_t) (SSP_DR_BITMASK(pSSP->DR));
 992              		.loc 2 366 0
 993 00a4 8668     		ldr	r6, [r0, #8]	@ D.6808, pSSP_25(D)->DR
 994 00a6 CF19     		add	r7, r1, r7	@ D.6805, buffer, D.6808
 995              	.LBE275:
 996              	.LBE274:
 357:../../lpc11cx4-library/lpc_chip_11cxx_lib/src/ssp_11xx.c **** 				*rdata8 = Chip_SSP_ReceiveFrame(pSSP);
 997              		.loc 1 357 0
 998 00a8 3E55     		strb	r6, [r7, r4]	@ D.6808, MEM[base: _120, index: rx_cnt_3, offset: 0B]
 999              	.LVL107:
 358:../../lpc11cx4-library/lpc_chip_11cxx_lib/src/ssp_11xx.c **** 				rdata8++;
 359:../../lpc11cx4-library/lpc_chip_11cxx_lib/src/ssp_11xx.c **** 				rx_cnt++;
 1000              		.loc 1 359 0
 1001 00aa 0134     		add	r4, r4, #1	@ rx_cnt,
 1002              	.LVL108:
 1003 00ac E6E7     		b	.L100	@
 1004              	.LVL109:
 1005              	.L110:
 1006 00ae 181C     		mov	r0, r3	@ D.6804, rx_cnt
 1007              	.LVL110:
 1008              	.L95:
 1009              	.LBE265:
 360:../../lpc11cx4-library/lpc_chip_11cxx_lib/src/ssp_11xx.c **** 			}
 361:../../lpc11cx4-library/lpc_chip_11cxx_lib/src/ssp_11xx.c **** 		}
 362:../../lpc11cx4-library/lpc_chip_11cxx_lib/src/ssp_11xx.c **** 	}
 363:../../lpc11cx4-library/lpc_chip_11cxx_lib/src/ssp_11xx.c **** 
 364:../../lpc11cx4-library/lpc_chip_11cxx_lib/src/ssp_11xx.c **** 	return rx_cnt;
 365:../../lpc11cx4-library/lpc_chip_11cxx_lib/src/ssp_11xx.c **** 
 366:../../lpc11cx4-library/lpc_chip_11cxx_lib/src/ssp_11xx.c **** }
 1010              		.loc 1 366 0
 1011              		@ sp needed	@
 1012              	.LVL111:
 1013 00b0 FEBD     		pop	{r1, r2, r3, r4, r5, r6, r7, pc}
 1014              	.L118:
 1015 00b2 C046     		.align	2
 1016              	.L117:
ARM GAS  /var/folders/f9/8bk2lnw15zn4cbgn6wrnb4lm0000gn/T//ccdAmBzx.s 			page 33


 1017 00b4 FFFF0000 		.word	65535
 1018              		.cfi_endproc
 1019              	.LFE209:
 1020              		.size	Chip_SSP_ReadFrames_Blocking, .-Chip_SSP_ReadFrames_Blocking
 1021              		.section	.text.Chip_SSP_Int_FlushData,"ax",%progbits
 1022              		.align	1
 1023              		.global	Chip_SSP_Int_FlushData
 1024              		.code	16
 1025              		.thumb_func
 1026              		.type	Chip_SSP_Int_FlushData, %function
 1027              	Chip_SSP_Int_FlushData:
 1028              	.LFB210:
 367:../../lpc11cx4-library/lpc_chip_11cxx_lib/src/ssp_11xx.c **** 
 368:../../lpc11cx4-library/lpc_chip_11cxx_lib/src/ssp_11xx.c **** /* Clean all data in RX FIFO of SSP */
 369:../../lpc11cx4-library/lpc_chip_11cxx_lib/src/ssp_11xx.c **** void Chip_SSP_Int_FlushData(LPC_SSP_T *pSSP)
 370:../../lpc11cx4-library/lpc_chip_11cxx_lib/src/ssp_11xx.c **** {
 1029              		.loc 1 370 0
 1030              		.cfi_startproc
 1031              	.LVL112:
 1032              	.L128:
 1033              	.LBB276:
 1034              	.LBB277:
 284:../../lpc11cx4-library/lpc_chip_11cxx_lib/inc/ssp_11xx.h **** 	return (pSSP->SR & Stat) ? SET : RESET;
 1035              		.loc 2 284 0
 1036 0000 C368     		ldr	r3, [r0, #12]	@ D.6817,
 1037              	.LBE277:
 1038              	.LBE276:
 371:../../lpc11cx4-library/lpc_chip_11cxx_lib/src/ssp_11xx.c **** 	if (Chip_SSP_GetStatus(pSSP, SSP_STAT_BSY)) {
 1039              		.loc 1 371 0
 1040 0002 DA06     		lsl	r2, r3, #27	@, D.6817,
 1041 0004 FCD4     		bmi	.L128	@,
 1042              	.L121:
 1043              	.LVL113:
 1044              	.LBB278:
 1045              	.LBB279:
 284:../../lpc11cx4-library/lpc_chip_11cxx_lib/inc/ssp_11xx.h **** 	return (pSSP->SR & Stat) ? SET : RESET;
 1046              		.loc 2 284 0 discriminator 1
 1047 0006 C368     		ldr	r3, [r0, #12]	@ D.6817, pSSP_4(D)->SR
 1048              	.LBE279:
 1049              	.LBE278:
 372:../../lpc11cx4-library/lpc_chip_11cxx_lib/src/ssp_11xx.c **** 		while (Chip_SSP_GetStatus(pSSP, SSP_STAT_BSY)) {}
 373:../../lpc11cx4-library/lpc_chip_11cxx_lib/src/ssp_11xx.c **** 	}
 374:../../lpc11cx4-library/lpc_chip_11cxx_lib/src/ssp_11xx.c **** 
 375:../../lpc11cx4-library/lpc_chip_11cxx_lib/src/ssp_11xx.c **** 	/* Clear all remaining frames in RX FIFO */
 376:../../lpc11cx4-library/lpc_chip_11cxx_lib/src/ssp_11xx.c **** 	while (Chip_SSP_GetStatus(pSSP, SSP_STAT_RNE)) {
 1050              		.loc 1 376 0 discriminator 1
 1051 0008 5A07     		lsl	r2, r3, #29	@, D.6817,
 1052 000a 01D5     		bpl	.L129	@,
 1053              	.LVL114:
 1054              	.LBB280:
 1055              	.LBB281:
 366:../../lpc11cx4-library/lpc_chip_11cxx_lib/inc/ssp_11xx.h **** 	return (uint16_t) (SSP_DR_BITMASK(pSSP->DR));
 1056              		.loc 2 366 0
 1057 000c 8368     		ldr	r3, [r0, #8]	@ D.6817, pSSP_4(D)->DR
 1058 000e FAE7     		b	.L121	@
 1059              	.LVL115:
 1060              	.L129:
ARM GAS  /var/folders/f9/8bk2lnw15zn4cbgn6wrnb4lm0000gn/T//ccdAmBzx.s 			page 34


 1061              	.LBE281:
 1062              	.LBE280:
 1063              	.LBB282:
 1064              	.LBB283:
 336:../../lpc11cx4-library/lpc_chip_11cxx_lib/inc/ssp_11xx.h **** 	pSSP->ICR = IntClear;
 1065              		.loc 2 336 0
 1066 0010 0323     		mov	r3, #3	@ tmp142,
 1067 0012 0362     		str	r3, [r0, #32]	@ tmp142, pSSP_4(D)->ICR
 1068              	.LBE283:
 1069              	.LBE282:
 377:../../lpc11cx4-library/lpc_chip_11cxx_lib/src/ssp_11xx.c **** 		Chip_SSP_ReceiveFrame(pSSP);
 378:../../lpc11cx4-library/lpc_chip_11cxx_lib/src/ssp_11xx.c **** 	}
 379:../../lpc11cx4-library/lpc_chip_11cxx_lib/src/ssp_11xx.c **** 
 380:../../lpc11cx4-library/lpc_chip_11cxx_lib/src/ssp_11xx.c **** 	/* Clear status */
 381:../../lpc11cx4-library/lpc_chip_11cxx_lib/src/ssp_11xx.c **** 	Chip_SSP_ClearIntPending(pSSP, SSP_INT_CLEAR_BITMASK);
 382:../../lpc11cx4-library/lpc_chip_11cxx_lib/src/ssp_11xx.c **** }
 1070              		.loc 1 382 0
 1071              		@ sp needed	@
 1072 0014 7047     		bx	lr
 1073              		.cfi_endproc
 1074              	.LFE210:
 1075              		.size	Chip_SSP_Int_FlushData, .-Chip_SSP_Int_FlushData
 1076              		.section	.text.Chip_SSP_Int_RWFrames8Bits,"ax",%progbits
 1077              		.align	1
 1078              		.global	Chip_SSP_Int_RWFrames8Bits
 1079              		.code	16
 1080              		.thumb_func
 1081              		.type	Chip_SSP_Int_RWFrames8Bits, %function
 1082              	Chip_SSP_Int_RWFrames8Bits:
 1083              	.LFB211:
 383:../../lpc11cx4-library/lpc_chip_11cxx_lib/src/ssp_11xx.c **** 
 384:../../lpc11cx4-library/lpc_chip_11cxx_lib/src/ssp_11xx.c **** /* SSP Interrupt Read/Write with 8-bit frame width */
 385:../../lpc11cx4-library/lpc_chip_11cxx_lib/src/ssp_11xx.c **** Status Chip_SSP_Int_RWFrames8Bits(LPC_SSP_T *pSSP, Chip_SSP_DATA_SETUP_T *xf_setup)
 386:../../lpc11cx4-library/lpc_chip_11cxx_lib/src/ssp_11xx.c **** {
 1084              		.loc 1 386 0
 1085              		.cfi_startproc
 1086              	.LVL116:
 1087 0000 38B5     		push	{r3, r4, r5, lr}	@
 1088              		.cfi_def_cfa_offset 16
 1089              		.cfi_offset 3, -16
 1090              		.cfi_offset 4, -12
 1091              		.cfi_offset 5, -8
 1092              		.cfi_offset 14, -4
 1093              	.LBB296:
 1094              	.LBB297:
 311:../../lpc11cx4-library/lpc_chip_11cxx_lib/inc/ssp_11xx.h **** 	return (pSSP->RIS & RawInt) ? SET : RESET;
 1095              		.loc 2 311 0
 1096 0002 8369     		ldr	r3, [r0, #24]	@ D.6829, pSSP_5(D)->RIS
 1097              	.LBE297:
 1098              	.LBE296:
 1099              		.loc 1 386 0
 1100 0004 051C     		mov	r5, r0	@ pSSP, pSSP
 1101 0006 0C1C     		mov	r4, r1	@ xf_setup, xf_setup
 387:../../lpc11cx4-library/lpc_chip_11cxx_lib/src/ssp_11xx.c **** 	/* Check overrun error in RIS register */
 388:../../lpc11cx4-library/lpc_chip_11cxx_lib/src/ssp_11xx.c **** 	if (Chip_SSP_GetRawIntStatus(pSSP, SSP_RORRIS) == SET) {
 1102              		.loc 1 388 0
 1103 0008 DA07     		lsl	r2, r3, #31	@, D.6829,
ARM GAS  /var/folders/f9/8bk2lnw15zn4cbgn6wrnb4lm0000gn/T//ccdAmBzx.s 			page 35


 1104 000a 01D5     		bpl	.L131	@,
 1105              	.LVL117:
 1106              	.L136:
 389:../../lpc11cx4-library/lpc_chip_11cxx_lib/src/ssp_11xx.c **** 		return ERROR;
 1107              		.loc 1 389 0
 1108 000c 0020     		mov	r0, #0	@ D.6828,
 1109 000e 1FE0     		b	.L132	@
 1110              	.LVL118:
 1111              	.L131:
 390:../../lpc11cx4-library/lpc_chip_11cxx_lib/src/ssp_11xx.c **** 	}
 391:../../lpc11cx4-library/lpc_chip_11cxx_lib/src/ssp_11xx.c **** 
 392:../../lpc11cx4-library/lpc_chip_11cxx_lib/src/ssp_11xx.c **** 	if ((xf_setup->tx_cnt != xf_setup->length) || (xf_setup->rx_cnt != xf_setup->length)) {
 1112              		.loc 1 392 0
 1113 0010 4B68     		ldr	r3, [r1, #4]	@ D.6829, xf_setup_7(D)->tx_cnt
 1114 0012 0A69     		ldr	r2, [r1, #16]	@, xf_setup_7(D)->length
 1115 0014 9342     		cmp	r3, r2	@ D.6829,
 1116 0016 02D1     		bne	.L134	@,
 1117              		.loc 1 392 0 is_stmt 0 discriminator 1
 1118 0018 CA68     		ldr	r2, [r1, #12]	@, xf_setup_7(D)->rx_cnt
 1119 001a 9A42     		cmp	r2, r3	@, D.6829
 1120 001c F6D0     		beq	.L136	@,
 1121              	.LVL119:
 1122              	.L134:
 393:../../lpc11cx4-library/lpc_chip_11cxx_lib/src/ssp_11xx.c **** 		/* check if RX FIFO contains data */
 394:../../lpc11cx4-library/lpc_chip_11cxx_lib/src/ssp_11xx.c **** 		SSP_Read1BFifo(pSSP, xf_setup);
 1123              		.loc 1 394 0 is_stmt 1
 1124 001e 281C     		mov	r0, r5	@, pSSP
 1125 0020 211C     		mov	r1, r4	@, xf_setup
 1126 0022 FFF7FEFF 		bl	SSP_Read1BFifo	@
 1127              	.LVL120:
 1128              	.LBB298:
 1129              	.LBB299:
 284:../../lpc11cx4-library/lpc_chip_11cxx_lib/inc/ssp_11xx.h **** 	return (pSSP->SR & Stat) ? SET : RESET;
 1130              		.loc 2 284 0
 1131 0026 EB68     		ldr	r3, [r5, #12]	@ D.6829, pSSP_5(D)->SR
 1132 0028 0120     		mov	r0, #1	@ tmp144,
 1133              	.LBE299:
 1134              	.LBE298:
 395:../../lpc11cx4-library/lpc_chip_11cxx_lib/src/ssp_11xx.c **** 
 396:../../lpc11cx4-library/lpc_chip_11cxx_lib/src/ssp_11xx.c **** 		while ((Chip_SSP_GetStatus(pSSP, SSP_STAT_TNF)) && (xf_setup->tx_cnt != xf_setup->length)) {
 1135              		.loc 1 396 0
 1136 002a 9A07     		lsl	r2, r3, #30	@, D.6829,
 1137 002c 10D5     		bpl	.L132	@,
 1138              		.loc 1 396 0 is_stmt 0 discriminator 2
 1139 002e 6368     		ldr	r3, [r4, #4]	@ D.6829, xf_setup_7(D)->tx_cnt
 1140 0030 2269     		ldr	r2, [r4, #16]	@, xf_setup_7(D)->length
 1141 0032 9342     		cmp	r3, r2	@ D.6829,
 1142 0034 0CD0     		beq	.L132	@,
 1143              	.LVL121:
 1144              	.LBB300:
 1145              	.LBB301:
  62:../../lpc11cx4-library/lpc_chip_11cxx_lib/src/ssp_11xx.c **** 	if (xf_setup->tx_data) {
 1146              		.loc 1 62 0 is_stmt 1
 1147 0036 2268     		ldr	r2, [r4]	@ D.6833, xf_setup_7(D)->tx_data
 1148 0038 002A     		cmp	r2, #0	@ D.6833,
 1149 003a 01D0     		beq	.L138	@,
 1150              	.LVL122:
ARM GAS  /var/folders/f9/8bk2lnw15zn4cbgn6wrnb4lm0000gn/T//ccdAmBzx.s 			page 36


 1151              	.LBB302:
 1152              	.LBB303:
 1153              		.loc 2 377 0
 1154 003c D25C     		ldrb	r2, [r2, r3]	@ D.6829, *_34
 1155              	.LVL123:
 1156 003e 00E0     		b	.L145	@
 1157              	.LVL124:
 1158              	.L138:
 1159              	.LBE303:
 1160              	.LBE302:
 1161              	.LBB304:
 1162              	.LBB305:
 1163 0040 FF22     		mov	r2, #255	@ tmp147,
 1164              	.LVL125:
 1165              	.L145:
 1166 0042 AA60     		str	r2, [r5, #8]	@ tmp147,
 1167              	.LBE305:
 1168              	.LBE304:
  69:../../lpc11cx4-library/lpc_chip_11cxx_lib/src/ssp_11xx.c **** 	xf_setup->tx_cnt++;
 1169              		.loc 1 69 0
 1170 0044 0133     		add	r3, r3, #1	@ D.6829,
 1171 0046 6360     		str	r3, [r4, #4]	@ D.6829, xf_setup_7(D)->tx_cnt
 1172              	.LVL126:
 1173              	.LBE301:
 1174              	.LBE300:
 1175              	.LBB306:
 1176              	.LBB307:
 311:../../lpc11cx4-library/lpc_chip_11cxx_lib/inc/ssp_11xx.h **** 	return (pSSP->RIS & RawInt) ? SET : RESET;
 1177              		.loc 2 311 0
 1178 0048 AB69     		ldr	r3, [r5, #24]	@ D.6829, pSSP_5(D)->RIS
 1179              	.LBE307:
 1180              	.LBE306:
 397:../../lpc11cx4-library/lpc_chip_11cxx_lib/src/ssp_11xx.c **** 			/* Write data to buffer */
 398:../../lpc11cx4-library/lpc_chip_11cxx_lib/src/ssp_11xx.c **** 			SSP_Write1BFifo(pSSP, xf_setup);
 399:../../lpc11cx4-library/lpc_chip_11cxx_lib/src/ssp_11xx.c **** 
 400:../../lpc11cx4-library/lpc_chip_11cxx_lib/src/ssp_11xx.c **** 			/* Check overrun error in RIS register */
 401:../../lpc11cx4-library/lpc_chip_11cxx_lib/src/ssp_11xx.c **** 			if (Chip_SSP_GetRawIntStatus(pSSP, SSP_RORRIS) == SET) {
 1181              		.loc 1 401 0
 1182 004a DA07     		lsl	r2, r3, #31	@, D.6829,
 1183 004c E7D5     		bpl	.L134	@,
 1184 004e DDE7     		b	.L136	@
 1185              	.LVL127:
 1186              	.L132:
 402:../../lpc11cx4-library/lpc_chip_11cxx_lib/src/ssp_11xx.c **** 				return ERROR;
 403:../../lpc11cx4-library/lpc_chip_11cxx_lib/src/ssp_11xx.c **** 			}
 404:../../lpc11cx4-library/lpc_chip_11cxx_lib/src/ssp_11xx.c **** 
 405:../../lpc11cx4-library/lpc_chip_11cxx_lib/src/ssp_11xx.c **** 			/*  Check for any data available in RX FIFO */
 406:../../lpc11cx4-library/lpc_chip_11cxx_lib/src/ssp_11xx.c **** 			SSP_Read1BFifo(pSSP, xf_setup);
 407:../../lpc11cx4-library/lpc_chip_11cxx_lib/src/ssp_11xx.c **** 		}
 408:../../lpc11cx4-library/lpc_chip_11cxx_lib/src/ssp_11xx.c **** 
 409:../../lpc11cx4-library/lpc_chip_11cxx_lib/src/ssp_11xx.c **** 		return SUCCESS;
 410:../../lpc11cx4-library/lpc_chip_11cxx_lib/src/ssp_11xx.c **** 	}
 411:../../lpc11cx4-library/lpc_chip_11cxx_lib/src/ssp_11xx.c **** 
 412:../../lpc11cx4-library/lpc_chip_11cxx_lib/src/ssp_11xx.c **** 	return ERROR;
 413:../../lpc11cx4-library/lpc_chip_11cxx_lib/src/ssp_11xx.c **** }
 1187              		.loc 1 413 0
 1188              		@ sp needed	@
ARM GAS  /var/folders/f9/8bk2lnw15zn4cbgn6wrnb4lm0000gn/T//ccdAmBzx.s 			page 37


 1189              	.LVL128:
 1190              	.LVL129:
 1191 0050 38BD     		pop	{r3, r4, r5, pc}
 1192              		.cfi_endproc
 1193              	.LFE211:
 1194              		.size	Chip_SSP_Int_RWFrames8Bits, .-Chip_SSP_Int_RWFrames8Bits
 1195              		.section	.text.Chip_SSP_Int_RWFrames16Bits,"ax",%progbits
 1196              		.align	1
 1197              		.global	Chip_SSP_Int_RWFrames16Bits
 1198              		.code	16
 1199              		.thumb_func
 1200              		.type	Chip_SSP_Int_RWFrames16Bits, %function
 1201              	Chip_SSP_Int_RWFrames16Bits:
 1202              	.LFB212:
 414:../../lpc11cx4-library/lpc_chip_11cxx_lib/src/ssp_11xx.c **** 
 415:../../lpc11cx4-library/lpc_chip_11cxx_lib/src/ssp_11xx.c **** /* SSP Interrupt Read/Write with 16-bit frame width */
 416:../../lpc11cx4-library/lpc_chip_11cxx_lib/src/ssp_11xx.c **** Status Chip_SSP_Int_RWFrames16Bits(LPC_SSP_T *pSSP, Chip_SSP_DATA_SETUP_T *xf_setup)
 417:../../lpc11cx4-library/lpc_chip_11cxx_lib/src/ssp_11xx.c **** {
 1203              		.loc 1 417 0
 1204              		.cfi_startproc
 1205              	.LVL130:
 1206 0000 38B5     		push	{r3, r4, r5, lr}	@
 1207              		.cfi_def_cfa_offset 16
 1208              		.cfi_offset 3, -16
 1209              		.cfi_offset 4, -12
 1210              		.cfi_offset 5, -8
 1211              		.cfi_offset 14, -4
 1212              	.LBB320:
 1213              	.LBB321:
 311:../../lpc11cx4-library/lpc_chip_11cxx_lib/inc/ssp_11xx.h **** 	return (pSSP->RIS & RawInt) ? SET : RESET;
 1214              		.loc 2 311 0
 1215 0002 8369     		ldr	r3, [r0, #24]	@ D.6845, pSSP_5(D)->RIS
 1216              	.LBE321:
 1217              	.LBE320:
 1218              		.loc 1 417 0
 1219 0004 051C     		mov	r5, r0	@ pSSP, pSSP
 1220 0006 0C1C     		mov	r4, r1	@ xf_setup, xf_setup
 418:../../lpc11cx4-library/lpc_chip_11cxx_lib/src/ssp_11xx.c **** 	/* Check overrun error in RIS register */
 419:../../lpc11cx4-library/lpc_chip_11cxx_lib/src/ssp_11xx.c **** 	if (Chip_SSP_GetRawIntStatus(pSSP, SSP_RORRIS) == SET) {
 1221              		.loc 1 419 0
 1222 0008 DA07     		lsl	r2, r3, #31	@, D.6845,
 1223 000a 01D5     		bpl	.L147	@,
 1224              	.LVL131:
 1225              	.L152:
 420:../../lpc11cx4-library/lpc_chip_11cxx_lib/src/ssp_11xx.c **** 		return ERROR;
 1226              		.loc 1 420 0
 1227 000c 0020     		mov	r0, #0	@ D.6844,
 1228 000e 1FE0     		b	.L148	@
 1229              	.LVL132:
 1230              	.L147:
 421:../../lpc11cx4-library/lpc_chip_11cxx_lib/src/ssp_11xx.c **** 	}
 422:../../lpc11cx4-library/lpc_chip_11cxx_lib/src/ssp_11xx.c **** 
 423:../../lpc11cx4-library/lpc_chip_11cxx_lib/src/ssp_11xx.c **** 	if ((xf_setup->tx_cnt != xf_setup->length) || (xf_setup->rx_cnt != xf_setup->length)) {
 1231              		.loc 1 423 0
 1232 0010 4B68     		ldr	r3, [r1, #4]	@ D.6845, xf_setup_7(D)->tx_cnt
 1233 0012 0A69     		ldr	r2, [r1, #16]	@, xf_setup_7(D)->length
 1234 0014 9342     		cmp	r3, r2	@ D.6845,
ARM GAS  /var/folders/f9/8bk2lnw15zn4cbgn6wrnb4lm0000gn/T//ccdAmBzx.s 			page 38


 1235 0016 02D1     		bne	.L150	@,
 1236              		.loc 1 423 0 is_stmt 0 discriminator 1
 1237 0018 CA68     		ldr	r2, [r1, #12]	@, xf_setup_7(D)->rx_cnt
 1238 001a 9A42     		cmp	r2, r3	@, D.6845
 1239 001c F6D0     		beq	.L152	@,
 1240              	.LVL133:
 1241              	.L150:
 424:../../lpc11cx4-library/lpc_chip_11cxx_lib/src/ssp_11xx.c **** 		/* check if RX FIFO contains data */
 425:../../lpc11cx4-library/lpc_chip_11cxx_lib/src/ssp_11xx.c **** 		SSP_Read2BFifo(pSSP, xf_setup);
 1242              		.loc 1 425 0 is_stmt 1
 1243 001e 281C     		mov	r0, r5	@, pSSP
 1244 0020 211C     		mov	r1, r4	@, xf_setup
 1245 0022 FFF7FEFF 		bl	SSP_Read2BFifo	@
 1246              	.LVL134:
 1247              	.LBB322:
 1248              	.LBB323:
 284:../../lpc11cx4-library/lpc_chip_11cxx_lib/inc/ssp_11xx.h **** 	return (pSSP->SR & Stat) ? SET : RESET;
 1249              		.loc 2 284 0
 1250 0026 EB68     		ldr	r3, [r5, #12]	@ D.6845, pSSP_5(D)->SR
 1251 0028 0120     		mov	r0, #1	@ tmp144,
 1252              	.LBE323:
 1253              	.LBE322:
 426:../../lpc11cx4-library/lpc_chip_11cxx_lib/src/ssp_11xx.c **** 
 427:../../lpc11cx4-library/lpc_chip_11cxx_lib/src/ssp_11xx.c **** 		while ((Chip_SSP_GetStatus(pSSP, SSP_STAT_TNF)) && (xf_setup->tx_cnt != xf_setup->length)) {
 1254              		.loc 1 427 0
 1255 002a 9A07     		lsl	r2, r3, #30	@, D.6845,
 1256 002c 10D5     		bpl	.L148	@,
 1257              		.loc 1 427 0 is_stmt 0 discriminator 2
 1258 002e 6368     		ldr	r3, [r4, #4]	@ D.6845, xf_setup_7(D)->tx_cnt
 1259 0030 2269     		ldr	r2, [r4, #16]	@, xf_setup_7(D)->length
 1260 0032 9342     		cmp	r3, r2	@ D.6845,
 1261 0034 0CD0     		beq	.L148	@,
 1262              	.LVL135:
 1263              	.LBB324:
 1264              	.LBB325:
  48:../../lpc11cx4-library/lpc_chip_11cxx_lib/src/ssp_11xx.c **** 	if (xf_setup->tx_data) {
 1265              		.loc 1 48 0 is_stmt 1
 1266 0036 2268     		ldr	r2, [r4]	@ D.6849, xf_setup_7(D)->tx_data
 1267 0038 002A     		cmp	r2, #0	@ D.6849,
 1268 003a 01D0     		beq	.L154	@,
 1269              	.LVL136:
 1270              	.LBB326:
 1271              	.LBB327:
 1272              		.loc 2 377 0
 1273 003c D25A     		ldrh	r2, [r2, r3]	@ D.6845, *_34
 1274              	.LVL137:
 1275 003e 00E0     		b	.L161	@
 1276              	.LVL138:
 1277              	.L154:
 1278              	.LBE327:
 1279              	.LBE326:
 1280              	.LBB328:
 1281              	.LBB329:
 1282 0040 044A     		ldr	r2, .L162	@ tmp147,
 1283              	.LVL139:
 1284              	.L161:
 1285 0042 AA60     		str	r2, [r5, #8]	@ tmp147,
ARM GAS  /var/folders/f9/8bk2lnw15zn4cbgn6wrnb4lm0000gn/T//ccdAmBzx.s 			page 39


 1286              	.LBE329:
 1287              	.LBE328:
  56:../../lpc11cx4-library/lpc_chip_11cxx_lib/src/ssp_11xx.c **** 	xf_setup->tx_cnt += 2;
 1288              		.loc 1 56 0
 1289 0044 0233     		add	r3, r3, #2	@ D.6845,
 1290 0046 6360     		str	r3, [r4, #4]	@ D.6845, xf_setup_7(D)->tx_cnt
 1291              	.LVL140:
 1292              	.LBE325:
 1293              	.LBE324:
 1294              	.LBB330:
 1295              	.LBB331:
 311:../../lpc11cx4-library/lpc_chip_11cxx_lib/inc/ssp_11xx.h **** 	return (pSSP->RIS & RawInt) ? SET : RESET;
 1296              		.loc 2 311 0
 1297 0048 AB69     		ldr	r3, [r5, #24]	@ D.6845, pSSP_5(D)->RIS
 1298              	.LBE331:
 1299              	.LBE330:
 428:../../lpc11cx4-library/lpc_chip_11cxx_lib/src/ssp_11xx.c **** 			/* Write data to buffer */
 429:../../lpc11cx4-library/lpc_chip_11cxx_lib/src/ssp_11xx.c **** 			SSP_Write2BFifo(pSSP, xf_setup);
 430:../../lpc11cx4-library/lpc_chip_11cxx_lib/src/ssp_11xx.c **** 
 431:../../lpc11cx4-library/lpc_chip_11cxx_lib/src/ssp_11xx.c **** 			/* Check overrun error in RIS register */
 432:../../lpc11cx4-library/lpc_chip_11cxx_lib/src/ssp_11xx.c **** 			if (Chip_SSP_GetRawIntStatus(pSSP, SSP_RORRIS) == SET) {
 1300              		.loc 1 432 0
 1301 004a DA07     		lsl	r2, r3, #31	@, D.6845,
 1302 004c E7D5     		bpl	.L150	@,
 1303 004e DDE7     		b	.L152	@
 1304              	.LVL141:
 1305              	.L148:
 433:../../lpc11cx4-library/lpc_chip_11cxx_lib/src/ssp_11xx.c **** 				return ERROR;
 434:../../lpc11cx4-library/lpc_chip_11cxx_lib/src/ssp_11xx.c **** 			}
 435:../../lpc11cx4-library/lpc_chip_11cxx_lib/src/ssp_11xx.c **** 
 436:../../lpc11cx4-library/lpc_chip_11cxx_lib/src/ssp_11xx.c **** 			/*  Check for any data available in RX FIFO			 */
 437:../../lpc11cx4-library/lpc_chip_11cxx_lib/src/ssp_11xx.c **** 			SSP_Read2BFifo(pSSP, xf_setup);
 438:../../lpc11cx4-library/lpc_chip_11cxx_lib/src/ssp_11xx.c **** 		}
 439:../../lpc11cx4-library/lpc_chip_11cxx_lib/src/ssp_11xx.c **** 
 440:../../lpc11cx4-library/lpc_chip_11cxx_lib/src/ssp_11xx.c **** 		return SUCCESS;
 441:../../lpc11cx4-library/lpc_chip_11cxx_lib/src/ssp_11xx.c **** 	}
 442:../../lpc11cx4-library/lpc_chip_11cxx_lib/src/ssp_11xx.c **** 
 443:../../lpc11cx4-library/lpc_chip_11cxx_lib/src/ssp_11xx.c **** 	return ERROR;
 444:../../lpc11cx4-library/lpc_chip_11cxx_lib/src/ssp_11xx.c **** }
 1306              		.loc 1 444 0
 1307              		@ sp needed	@
 1308              	.LVL142:
 1309              	.LVL143:
 1310 0050 38BD     		pop	{r3, r4, r5, pc}
 1311              	.L163:
 1312 0052 C046     		.align	2
 1313              	.L162:
 1314 0054 FFFF0000 		.word	65535
 1315              		.cfi_endproc
 1316              	.LFE212:
 1317              		.size	Chip_SSP_Int_RWFrames16Bits, .-Chip_SSP_Int_RWFrames16Bits
 1318              		.section	.text.Chip_SSP_SetMaster,"ax",%progbits
 1319              		.align	1
 1320              		.global	Chip_SSP_SetMaster
 1321              		.code	16
 1322              		.thumb_func
 1323              		.type	Chip_SSP_SetMaster, %function
ARM GAS  /var/folders/f9/8bk2lnw15zn4cbgn6wrnb4lm0000gn/T//ccdAmBzx.s 			page 40


 1324              	Chip_SSP_SetMaster:
 1325              	.LFB213:
 445:../../lpc11cx4-library/lpc_chip_11cxx_lib/src/ssp_11xx.c **** 
 446:../../lpc11cx4-library/lpc_chip_11cxx_lib/src/ssp_11xx.c **** /* Set the SSP operating modes, master or slave */
 447:../../lpc11cx4-library/lpc_chip_11cxx_lib/src/ssp_11xx.c **** void Chip_SSP_SetMaster(LPC_SSP_T *pSSP, bool master)
 448:../../lpc11cx4-library/lpc_chip_11cxx_lib/src/ssp_11xx.c **** {
 1326              		.loc 1 448 0
 1327              		.cfi_startproc
 1328              	.LVL144:
 1329              	.LBB332:
 1330              	.LBB333:
 378:../../lpc11cx4-library/lpc_chip_11cxx_lib/inc/ssp_11xx.h **** }
 379:../../lpc11cx4-library/lpc_chip_11cxx_lib/inc/ssp_11xx.h **** 
 380:../../lpc11cx4-library/lpc_chip_11cxx_lib/inc/ssp_11xx.h **** /**
 381:../../lpc11cx4-library/lpc_chip_11cxx_lib/inc/ssp_11xx.h ****  * @brief	Set up output clocks per bit for SSP bus
 382:../../lpc11cx4-library/lpc_chip_11cxx_lib/inc/ssp_11xx.h ****  * @param	pSSP		: The base of SSP peripheral on the chip
 383:../../lpc11cx4-library/lpc_chip_11cxx_lib/inc/ssp_11xx.h ****  * @param	clk_rate	fs: The number of prescaler-output clocks per bit on the bus, minus one
 384:../../lpc11cx4-library/lpc_chip_11cxx_lib/inc/ssp_11xx.h ****  * @param	prescale	: The factor by which the Prescaler divides the SSP peripheral clock PCLK
 385:../../lpc11cx4-library/lpc_chip_11cxx_lib/inc/ssp_11xx.h ****  * @return	 Nothing
 386:../../lpc11cx4-library/lpc_chip_11cxx_lib/inc/ssp_11xx.h ****  * @note	The bit frequency is PCLK / (prescale x[clk_rate+1])
 387:../../lpc11cx4-library/lpc_chip_11cxx_lib/inc/ssp_11xx.h ****  */
 388:../../lpc11cx4-library/lpc_chip_11cxx_lib/inc/ssp_11xx.h **** void Chip_SSP_SetClockRate(LPC_SSP_T *pSSP, uint32_t clk_rate, uint32_t prescale);
 389:../../lpc11cx4-library/lpc_chip_11cxx_lib/inc/ssp_11xx.h **** 
 390:../../lpc11cx4-library/lpc_chip_11cxx_lib/inc/ssp_11xx.h **** /**
 391:../../lpc11cx4-library/lpc_chip_11cxx_lib/inc/ssp_11xx.h ****  * @brief	Set up the SSP frame format
 392:../../lpc11cx4-library/lpc_chip_11cxx_lib/inc/ssp_11xx.h ****  * @param	pSSP		: The base of SSP peripheral on the chip
 393:../../lpc11cx4-library/lpc_chip_11cxx_lib/inc/ssp_11xx.h ****  * @param	bits		: The number of bits transferred in each frame, should be SSP_BITS_4 to SSP_BITS_16
 394:../../lpc11cx4-library/lpc_chip_11cxx_lib/inc/ssp_11xx.h ****  * @param	frameFormat	: Frame format, should be :
 395:../../lpc11cx4-library/lpc_chip_11cxx_lib/inc/ssp_11xx.h ****  *							- SSP_FRAMEFORMAT_SPI
 396:../../lpc11cx4-library/lpc_chip_11cxx_lib/inc/ssp_11xx.h ****  *							- SSP_FRAME_FORMAT_TI
 397:../../lpc11cx4-library/lpc_chip_11cxx_lib/inc/ssp_11xx.h ****  *							- SSP_FRAMEFORMAT_MICROWIRE
 398:../../lpc11cx4-library/lpc_chip_11cxx_lib/inc/ssp_11xx.h ****  * @param	clockMode	: Select Clock polarity and Clock phase, should be :
 399:../../lpc11cx4-library/lpc_chip_11cxx_lib/inc/ssp_11xx.h ****  *							- SSP_CLOCK_CPHA0_CPOL0
 400:../../lpc11cx4-library/lpc_chip_11cxx_lib/inc/ssp_11xx.h ****  *							- SSP_CLOCK_CPHA0_CPOL1
 401:../../lpc11cx4-library/lpc_chip_11cxx_lib/inc/ssp_11xx.h ****  *							- SSP_CLOCK_CPHA1_CPOL0
 402:../../lpc11cx4-library/lpc_chip_11cxx_lib/inc/ssp_11xx.h ****  *							- SSP_CLOCK_CPHA1_CPOL1
 403:../../lpc11cx4-library/lpc_chip_11cxx_lib/inc/ssp_11xx.h ****  * @return	 Nothing
 404:../../lpc11cx4-library/lpc_chip_11cxx_lib/inc/ssp_11xx.h ****  * @note	Note: The clockFormat is only used in SPI mode
 405:../../lpc11cx4-library/lpc_chip_11cxx_lib/inc/ssp_11xx.h ****  */
 406:../../lpc11cx4-library/lpc_chip_11cxx_lib/inc/ssp_11xx.h **** STATIC INLINE void Chip_SSP_SetFormat(LPC_SSP_T *pSSP, uint32_t bits, uint32_t frameFormat, uint32_
 407:../../lpc11cx4-library/lpc_chip_11cxx_lib/inc/ssp_11xx.h **** {
 408:../../lpc11cx4-library/lpc_chip_11cxx_lib/inc/ssp_11xx.h **** 	pSSP->CR0 = (pSSP->CR0 & ~0xFF) | bits | frameFormat | clockMode;
 409:../../lpc11cx4-library/lpc_chip_11cxx_lib/inc/ssp_11xx.h **** }
 410:../../lpc11cx4-library/lpc_chip_11cxx_lib/inc/ssp_11xx.h **** 
 411:../../lpc11cx4-library/lpc_chip_11cxx_lib/inc/ssp_11xx.h **** /**
 412:../../lpc11cx4-library/lpc_chip_11cxx_lib/inc/ssp_11xx.h ****  * @brief	Set the SSP working as master or slave mode
 413:../../lpc11cx4-library/lpc_chip_11cxx_lib/inc/ssp_11xx.h ****  * @param	pSSP	: The base of SSP peripheral on the chip
 414:../../lpc11cx4-library/lpc_chip_11cxx_lib/inc/ssp_11xx.h ****  * @param	mode	: Operating mode, should be
 415:../../lpc11cx4-library/lpc_chip_11cxx_lib/inc/ssp_11xx.h ****  *						- SSP_MODE_MASTER
 416:../../lpc11cx4-library/lpc_chip_11cxx_lib/inc/ssp_11xx.h ****  *						- SSP_MODE_SLAVE
 417:../../lpc11cx4-library/lpc_chip_11cxx_lib/inc/ssp_11xx.h ****  * @return	 Nothing
 418:../../lpc11cx4-library/lpc_chip_11cxx_lib/inc/ssp_11xx.h ****  */
 419:../../lpc11cx4-library/lpc_chip_11cxx_lib/inc/ssp_11xx.h **** STATIC INLINE void Chip_SSP_Set_Mode(LPC_SSP_T *pSSP, uint32_t mode)
 420:../../lpc11cx4-library/lpc_chip_11cxx_lib/inc/ssp_11xx.h **** {
 421:../../lpc11cx4-library/lpc_chip_11cxx_lib/inc/ssp_11xx.h **** 	pSSP->CR1 = (pSSP->CR1 & ~(1 << 2)) | mode;
 1331              		.loc 2 421 0
 1332 0000 4268     		ldr	r2, [r0, #4]	@ D.6854,
ARM GAS  /var/folders/f9/8bk2lnw15zn4cbgn6wrnb4lm0000gn/T//ccdAmBzx.s 			page 41


 1333 0002 0423     		mov	r3, #4	@ tmp121,
 1334 0004 9A43     		bic	r2, r3	@ D.6854, tmp121
 1335              	.LBE333:
 1336              	.LBE332:
 449:../../lpc11cx4-library/lpc_chip_11cxx_lib/src/ssp_11xx.c **** 	if (master) {
 1337              		.loc 1 449 0
 1338 0006 0029     		cmp	r1, #0	@ master,
 1339 0008 01D0     		beq	.L165	@,
 1340              	.LVL145:
 1341              	.LBB335:
 1342              	.LBB334:
 1343              		.loc 2 421 0
 1344 000a 131C     		mov	r3, r2	@ D.6854, D.6854
 1345 000c 00E0     		b	.L167	@
 1346              	.LVL146:
 1347              	.L165:
 1348              	.LBE334:
 1349              	.LBE335:
 1350              	.LBB336:
 1351              	.LBB337:
 1352 000e 1343     		orr	r3, r2	@ D.6854, D.6854
 1353              	.LVL147:
 1354              	.L167:
 1355 0010 4360     		str	r3, [r0, #4]	@ D.6854,
 1356              	.LBE337:
 1357              	.LBE336:
 450:../../lpc11cx4-library/lpc_chip_11cxx_lib/src/ssp_11xx.c **** 		Chip_SSP_Set_Mode(pSSP, SSP_MODE_MASTER);
 451:../../lpc11cx4-library/lpc_chip_11cxx_lib/src/ssp_11xx.c **** 	}
 452:../../lpc11cx4-library/lpc_chip_11cxx_lib/src/ssp_11xx.c **** 	else {
 453:../../lpc11cx4-library/lpc_chip_11cxx_lib/src/ssp_11xx.c **** 		Chip_SSP_Set_Mode(pSSP, SSP_MODE_SLAVE);
 454:../../lpc11cx4-library/lpc_chip_11cxx_lib/src/ssp_11xx.c **** 	}
 455:../../lpc11cx4-library/lpc_chip_11cxx_lib/src/ssp_11xx.c **** }
 1358              		.loc 1 455 0
 1359              		@ sp needed	@
 1360 0012 7047     		bx	lr
 1361              		.cfi_endproc
 1362              	.LFE213:
 1363              		.size	Chip_SSP_SetMaster, .-Chip_SSP_SetMaster
 1364              		.global	__aeabi_uidiv
 1365              		.section	.text.Chip_SSP_SetBitRate,"ax",%progbits
 1366              		.align	1
 1367              		.global	Chip_SSP_SetBitRate
 1368              		.code	16
 1369              		.thumb_func
 1370              		.type	Chip_SSP_SetBitRate, %function
 1371              	Chip_SSP_SetBitRate:
 1372              	.LFB214:
 456:../../lpc11cx4-library/lpc_chip_11cxx_lib/src/ssp_11xx.c **** 
 457:../../lpc11cx4-library/lpc_chip_11cxx_lib/src/ssp_11xx.c **** /* Set the clock frequency for SSP interface */
 458:../../lpc11cx4-library/lpc_chip_11cxx_lib/src/ssp_11xx.c **** void Chip_SSP_SetBitRate(LPC_SSP_T *pSSP, uint32_t bitRate)
 459:../../lpc11cx4-library/lpc_chip_11cxx_lib/src/ssp_11xx.c **** {
 1373              		.loc 1 459 0
 1374              		.cfi_startproc
 1375              	.LVL148:
 1376 0000 F7B5     		push	{r0, r1, r2, r4, r5, r6, r7, lr}	@
 1377              		.cfi_def_cfa_offset 32
 1378              		.cfi_offset 0, -32
ARM GAS  /var/folders/f9/8bk2lnw15zn4cbgn6wrnb4lm0000gn/T//ccdAmBzx.s 			page 42


 1379              		.cfi_offset 1, -28
 1380              		.cfi_offset 2, -24
 1381              		.cfi_offset 4, -20
 1382              		.cfi_offset 5, -16
 1383              		.cfi_offset 6, -12
 1384              		.cfi_offset 7, -8
 1385              		.cfi_offset 14, -4
 1386              		.loc 1 459 0
 1387 0002 061C     		mov	r6, r0	@ pSSP, pSSP
 1388              	.LVL149:
 1389 0004 0191     		str	r1, [sp, #4]	@ bitRate, %sfp
 1390              	.LBB344:
 1391              	.LBB345:
 152:../../lpc11cx4-library/lpc_chip_11cxx_lib/src/ssp_11xx.c **** 	uint32_t sspCLK = Chip_Clock_GetMainClockRate();
 1392              		.loc 1 152 0
 1393 0006 FFF7FEFF 		bl	Chip_Clock_GetMainClockRate	@
 1394              	.LVL150:
 154:../../lpc11cx4-library/lpc_chip_11cxx_lib/src/ssp_11xx.c **** 	if (pSSP == LPC_SSP0) {
 1395              		.loc 1 154 0
 1396 000a 134B     		ldr	r3, .L178	@ tmp121,
 1397 000c 9E42     		cmp	r6, r3	@ pSSP, tmp121
 1398 000e 01D1     		bne	.L169	@,
 1399              	.LBB346:
 1400              	.LBB347:
 1401              		.file 3 "../../lpc11cx4-library/lpc_chip_11cxx_lib/inc/clock_11xx.h"
   1:../../lpc11cx4-library/lpc_chip_11cxx_lib/inc/clock_11xx.h **** /*
   2:../../lpc11cx4-library/lpc_chip_11cxx_lib/inc/clock_11xx.h ****  * @brief LPC11XX Clock control functions
   3:../../lpc11cx4-library/lpc_chip_11cxx_lib/inc/clock_11xx.h ****  *
   4:../../lpc11cx4-library/lpc_chip_11cxx_lib/inc/clock_11xx.h ****  * @note
   5:../../lpc11cx4-library/lpc_chip_11cxx_lib/inc/clock_11xx.h ****  * Copyright(C) NXP Semiconductors, 2012
   6:../../lpc11cx4-library/lpc_chip_11cxx_lib/inc/clock_11xx.h ****  * All rights reserved.
   7:../../lpc11cx4-library/lpc_chip_11cxx_lib/inc/clock_11xx.h ****  *
   8:../../lpc11cx4-library/lpc_chip_11cxx_lib/inc/clock_11xx.h ****  * @par
   9:../../lpc11cx4-library/lpc_chip_11cxx_lib/inc/clock_11xx.h ****  * Software that is described herein is for illustrative purposes only
  10:../../lpc11cx4-library/lpc_chip_11cxx_lib/inc/clock_11xx.h ****  * which provides customers with programming information regarding the
  11:../../lpc11cx4-library/lpc_chip_11cxx_lib/inc/clock_11xx.h ****  * LPC products.  This software is supplied "AS IS" without any warranties of
  12:../../lpc11cx4-library/lpc_chip_11cxx_lib/inc/clock_11xx.h ****  * any kind, and NXP Semiconductors and its licensor disclaim any and
  13:../../lpc11cx4-library/lpc_chip_11cxx_lib/inc/clock_11xx.h ****  * all warranties, express or implied, including all implied warranties of
  14:../../lpc11cx4-library/lpc_chip_11cxx_lib/inc/clock_11xx.h ****  * merchantability, fitness for a particular purpose and non-infringement of
  15:../../lpc11cx4-library/lpc_chip_11cxx_lib/inc/clock_11xx.h ****  * intellectual property rights.  NXP Semiconductors assumes no responsibility
  16:../../lpc11cx4-library/lpc_chip_11cxx_lib/inc/clock_11xx.h ****  * or liability for the use of the software, conveys no license or rights under any
  17:../../lpc11cx4-library/lpc_chip_11cxx_lib/inc/clock_11xx.h ****  * patent, copyright, mask work right, or any other intellectual property rights in
  18:../../lpc11cx4-library/lpc_chip_11cxx_lib/inc/clock_11xx.h ****  * or to any products. NXP Semiconductors reserves the right to make changes
  19:../../lpc11cx4-library/lpc_chip_11cxx_lib/inc/clock_11xx.h ****  * in the software without notification. NXP Semiconductors also makes no
  20:../../lpc11cx4-library/lpc_chip_11cxx_lib/inc/clock_11xx.h ****  * representation or warranty that such application will be suitable for the
  21:../../lpc11cx4-library/lpc_chip_11cxx_lib/inc/clock_11xx.h ****  * specified use without further testing or modification.
  22:../../lpc11cx4-library/lpc_chip_11cxx_lib/inc/clock_11xx.h ****  *
  23:../../lpc11cx4-library/lpc_chip_11cxx_lib/inc/clock_11xx.h ****  * @par
  24:../../lpc11cx4-library/lpc_chip_11cxx_lib/inc/clock_11xx.h ****  * Permission to use, copy, modify, and distribute this software and its
  25:../../lpc11cx4-library/lpc_chip_11cxx_lib/inc/clock_11xx.h ****  * documentation is hereby granted, under NXP Semiconductors' and its
  26:../../lpc11cx4-library/lpc_chip_11cxx_lib/inc/clock_11xx.h ****  * licensor's relevant copyrights in the software, without fee, provided that it
  27:../../lpc11cx4-library/lpc_chip_11cxx_lib/inc/clock_11xx.h ****  * is used in conjunction with NXP Semiconductors microcontrollers.  This
  28:../../lpc11cx4-library/lpc_chip_11cxx_lib/inc/clock_11xx.h ****  * copyright, permission, and disclaimer notice must appear in all copies of
  29:../../lpc11cx4-library/lpc_chip_11cxx_lib/inc/clock_11xx.h ****  * this code.
  30:../../lpc11cx4-library/lpc_chip_11cxx_lib/inc/clock_11xx.h ****  */
  31:../../lpc11cx4-library/lpc_chip_11cxx_lib/inc/clock_11xx.h **** 
  32:../../lpc11cx4-library/lpc_chip_11cxx_lib/inc/clock_11xx.h **** #ifndef __CLOCK_11XX_H_
ARM GAS  /var/folders/f9/8bk2lnw15zn4cbgn6wrnb4lm0000gn/T//ccdAmBzx.s 			page 43


  33:../../lpc11cx4-library/lpc_chip_11cxx_lib/inc/clock_11xx.h **** #define __CLOCK_11XX_H_
  34:../../lpc11cx4-library/lpc_chip_11cxx_lib/inc/clock_11xx.h **** 
  35:../../lpc11cx4-library/lpc_chip_11cxx_lib/inc/clock_11xx.h **** #ifdef __cplusplus
  36:../../lpc11cx4-library/lpc_chip_11cxx_lib/inc/clock_11xx.h **** extern "C" {
  37:../../lpc11cx4-library/lpc_chip_11cxx_lib/inc/clock_11xx.h **** #endif
  38:../../lpc11cx4-library/lpc_chip_11cxx_lib/inc/clock_11xx.h **** 
  39:../../lpc11cx4-library/lpc_chip_11cxx_lib/inc/clock_11xx.h **** /** @defgroup CLOCK_11XX CHIP: LPC11xx Clock Control block driver
  40:../../lpc11cx4-library/lpc_chip_11cxx_lib/inc/clock_11xx.h ****  * @ingroup CHIP_11XX_Drivers
  41:../../lpc11cx4-library/lpc_chip_11cxx_lib/inc/clock_11xx.h ****  * @{
  42:../../lpc11cx4-library/lpc_chip_11cxx_lib/inc/clock_11xx.h ****  */
  43:../../lpc11cx4-library/lpc_chip_11cxx_lib/inc/clock_11xx.h **** 
  44:../../lpc11cx4-library/lpc_chip_11cxx_lib/inc/clock_11xx.h **** /** Internal oscillator frequency */
  45:../../lpc11cx4-library/lpc_chip_11cxx_lib/inc/clock_11xx.h **** #define SYSCTL_IRC_FREQ (12000000)
  46:../../lpc11cx4-library/lpc_chip_11cxx_lib/inc/clock_11xx.h **** 
  47:../../lpc11cx4-library/lpc_chip_11cxx_lib/inc/clock_11xx.h **** /**
  48:../../lpc11cx4-library/lpc_chip_11cxx_lib/inc/clock_11xx.h ****  * @brief	Set System PLL divider values
  49:../../lpc11cx4-library/lpc_chip_11cxx_lib/inc/clock_11xx.h ****  * @param	msel    : PLL feedback divider value. M = msel + 1.
  50:../../lpc11cx4-library/lpc_chip_11cxx_lib/inc/clock_11xx.h ****  * @param	psel    : PLL post divider value. P =  (1<<psel).
  51:../../lpc11cx4-library/lpc_chip_11cxx_lib/inc/clock_11xx.h ****  * @return	Nothing
  52:../../lpc11cx4-library/lpc_chip_11cxx_lib/inc/clock_11xx.h ****  * @note	See the user manual for how to setup the PLL.
  53:../../lpc11cx4-library/lpc_chip_11cxx_lib/inc/clock_11xx.h ****  */
  54:../../lpc11cx4-library/lpc_chip_11cxx_lib/inc/clock_11xx.h **** STATIC INLINE void Chip_Clock_SetupSystemPLL(uint8_t msel, uint8_t psel)
  55:../../lpc11cx4-library/lpc_chip_11cxx_lib/inc/clock_11xx.h **** {
  56:../../lpc11cx4-library/lpc_chip_11cxx_lib/inc/clock_11xx.h **** 	LPC_SYSCTL->SYSPLLCTRL = (msel & 0x1F) | ((psel & 0x3) << 5);
  57:../../lpc11cx4-library/lpc_chip_11cxx_lib/inc/clock_11xx.h **** }
  58:../../lpc11cx4-library/lpc_chip_11cxx_lib/inc/clock_11xx.h **** 
  59:../../lpc11cx4-library/lpc_chip_11cxx_lib/inc/clock_11xx.h **** /**
  60:../../lpc11cx4-library/lpc_chip_11cxx_lib/inc/clock_11xx.h ****  * @brief	Read System PLL lock status
  61:../../lpc11cx4-library/lpc_chip_11cxx_lib/inc/clock_11xx.h ****  * @return	true of the PLL is locked. false if not locked
  62:../../lpc11cx4-library/lpc_chip_11cxx_lib/inc/clock_11xx.h ****  */
  63:../../lpc11cx4-library/lpc_chip_11cxx_lib/inc/clock_11xx.h **** STATIC INLINE bool Chip_Clock_IsSystemPLLLocked(void)
  64:../../lpc11cx4-library/lpc_chip_11cxx_lib/inc/clock_11xx.h **** {
  65:../../lpc11cx4-library/lpc_chip_11cxx_lib/inc/clock_11xx.h **** 	return (bool) ((LPC_SYSCTL->SYSPLLSTAT & 1) != 0);
  66:../../lpc11cx4-library/lpc_chip_11cxx_lib/inc/clock_11xx.h **** }
  67:../../lpc11cx4-library/lpc_chip_11cxx_lib/inc/clock_11xx.h **** 
  68:../../lpc11cx4-library/lpc_chip_11cxx_lib/inc/clock_11xx.h **** /**
  69:../../lpc11cx4-library/lpc_chip_11cxx_lib/inc/clock_11xx.h ****  * Clock sources for system and USB PLLs
  70:../../lpc11cx4-library/lpc_chip_11cxx_lib/inc/clock_11xx.h ****  */
  71:../../lpc11cx4-library/lpc_chip_11cxx_lib/inc/clock_11xx.h **** typedef enum CHIP_SYSCTL_PLLCLKSRC {
  72:../../lpc11cx4-library/lpc_chip_11cxx_lib/inc/clock_11xx.h **** 	SYSCTL_PLLCLKSRC_IRC = 0,		/*!< Internal oscillator in */
  73:../../lpc11cx4-library/lpc_chip_11cxx_lib/inc/clock_11xx.h **** 	SYSCTL_PLLCLKSRC_MAINOSC,		/*!< Crystal (main) oscillator in */
  74:../../lpc11cx4-library/lpc_chip_11cxx_lib/inc/clock_11xx.h **** #if defined(CHIP_LPC11AXX)
  75:../../lpc11cx4-library/lpc_chip_11cxx_lib/inc/clock_11xx.h **** 	SYSCTL_PLLCLKSRC_EXT_CLKIN,	/*!< External clock in (11Axx only) */
  76:../../lpc11cx4-library/lpc_chip_11cxx_lib/inc/clock_11xx.h **** #else
  77:../../lpc11cx4-library/lpc_chip_11cxx_lib/inc/clock_11xx.h **** 	SYSCTL_PLLCLKSRC_RESERVED1,	/*!< Reserved */
  78:../../lpc11cx4-library/lpc_chip_11cxx_lib/inc/clock_11xx.h **** #endif
  79:../../lpc11cx4-library/lpc_chip_11cxx_lib/inc/clock_11xx.h **** 	SYSCTL_PLLCLKSRC_RESERVED2,	/*!< Reserved */
  80:../../lpc11cx4-library/lpc_chip_11cxx_lib/inc/clock_11xx.h **** } CHIP_SYSCTL_PLLCLKSRC_T;
  81:../../lpc11cx4-library/lpc_chip_11cxx_lib/inc/clock_11xx.h **** 
  82:../../lpc11cx4-library/lpc_chip_11cxx_lib/inc/clock_11xx.h **** /**
  83:../../lpc11cx4-library/lpc_chip_11cxx_lib/inc/clock_11xx.h ****  * @brief	Set System PLL clock source
  84:../../lpc11cx4-library/lpc_chip_11cxx_lib/inc/clock_11xx.h ****  * @param	src	: Clock source for system PLL
  85:../../lpc11cx4-library/lpc_chip_11cxx_lib/inc/clock_11xx.h ****  * @return	Nothing
  86:../../lpc11cx4-library/lpc_chip_11cxx_lib/inc/clock_11xx.h ****  * @note	This function will also toggle the clock source update register
  87:../../lpc11cx4-library/lpc_chip_11cxx_lib/inc/clock_11xx.h ****  * to update the clock source.
  88:../../lpc11cx4-library/lpc_chip_11cxx_lib/inc/clock_11xx.h ****  */
  89:../../lpc11cx4-library/lpc_chip_11cxx_lib/inc/clock_11xx.h **** void Chip_Clock_SetSystemPLLSource(CHIP_SYSCTL_PLLCLKSRC_T src);
ARM GAS  /var/folders/f9/8bk2lnw15zn4cbgn6wrnb4lm0000gn/T//ccdAmBzx.s 			page 44


  90:../../lpc11cx4-library/lpc_chip_11cxx_lib/inc/clock_11xx.h **** 
  91:../../lpc11cx4-library/lpc_chip_11cxx_lib/inc/clock_11xx.h **** #if defined(CHIP_LPC11UXX)
  92:../../lpc11cx4-library/lpc_chip_11cxx_lib/inc/clock_11xx.h **** /**
  93:../../lpc11cx4-library/lpc_chip_11cxx_lib/inc/clock_11xx.h ****  * @brief	Set USB PLL divider values
  94:../../lpc11cx4-library/lpc_chip_11cxx_lib/inc/clock_11xx.h ****  * @param	msel    : PLL feedback divider value. M = msel + 1.
  95:../../lpc11cx4-library/lpc_chip_11cxx_lib/inc/clock_11xx.h ****  * @param	psel    : PLL post divider value. P = (1<<psel).
  96:../../lpc11cx4-library/lpc_chip_11cxx_lib/inc/clock_11xx.h ****  * @return	Nothing
  97:../../lpc11cx4-library/lpc_chip_11cxx_lib/inc/clock_11xx.h ****  * @note	See the user manual for how to setup the PLL.
  98:../../lpc11cx4-library/lpc_chip_11cxx_lib/inc/clock_11xx.h ****  */
  99:../../lpc11cx4-library/lpc_chip_11cxx_lib/inc/clock_11xx.h **** STATIC INLINE void Chip_Clock_SetupUSBPLL(uint8_t msel, uint8_t psel)
 100:../../lpc11cx4-library/lpc_chip_11cxx_lib/inc/clock_11xx.h **** {
 101:../../lpc11cx4-library/lpc_chip_11cxx_lib/inc/clock_11xx.h **** 	LPC_SYSCTL->USBPLLCTRL = (msel & 0x1F) | ((psel & 0x3) << 5);
 102:../../lpc11cx4-library/lpc_chip_11cxx_lib/inc/clock_11xx.h **** }
 103:../../lpc11cx4-library/lpc_chip_11cxx_lib/inc/clock_11xx.h **** 
 104:../../lpc11cx4-library/lpc_chip_11cxx_lib/inc/clock_11xx.h **** /**
 105:../../lpc11cx4-library/lpc_chip_11cxx_lib/inc/clock_11xx.h ****  * @brief	Read USB PLL lock status
 106:../../lpc11cx4-library/lpc_chip_11cxx_lib/inc/clock_11xx.h ****  * @return	true of the PLL is locked. false if not locked
 107:../../lpc11cx4-library/lpc_chip_11cxx_lib/inc/clock_11xx.h ****  */
 108:../../lpc11cx4-library/lpc_chip_11cxx_lib/inc/clock_11xx.h **** STATIC INLINE bool Chip_Clock_IsUSBPLLLocked(void)
 109:../../lpc11cx4-library/lpc_chip_11cxx_lib/inc/clock_11xx.h **** {
 110:../../lpc11cx4-library/lpc_chip_11cxx_lib/inc/clock_11xx.h **** 	return (bool) ((LPC_SYSCTL->USBPLLSTAT & 1) != 0);
 111:../../lpc11cx4-library/lpc_chip_11cxx_lib/inc/clock_11xx.h **** }
 112:../../lpc11cx4-library/lpc_chip_11cxx_lib/inc/clock_11xx.h **** 
 113:../../lpc11cx4-library/lpc_chip_11cxx_lib/inc/clock_11xx.h **** /**
 114:../../lpc11cx4-library/lpc_chip_11cxx_lib/inc/clock_11xx.h ****  * @brief	Set USB PLL clock source
 115:../../lpc11cx4-library/lpc_chip_11cxx_lib/inc/clock_11xx.h ****  * @param	src	: Clock source for USB PLL
 116:../../lpc11cx4-library/lpc_chip_11cxx_lib/inc/clock_11xx.h ****  * @return	Nothing
 117:../../lpc11cx4-library/lpc_chip_11cxx_lib/inc/clock_11xx.h ****  * @note	This function will also toggle the clock source update register
 118:../../lpc11cx4-library/lpc_chip_11cxx_lib/inc/clock_11xx.h ****  * to update the clock source.
 119:../../lpc11cx4-library/lpc_chip_11cxx_lib/inc/clock_11xx.h ****  */
 120:../../lpc11cx4-library/lpc_chip_11cxx_lib/inc/clock_11xx.h **** void Chip_Clock_SetUSBPLLSource(CHIP_SYSCTL_PLLCLKSRC_T src);
 121:../../lpc11cx4-library/lpc_chip_11cxx_lib/inc/clock_11xx.h **** 
 122:../../lpc11cx4-library/lpc_chip_11cxx_lib/inc/clock_11xx.h **** #endif /*defined(CHIP_LPC11UXX)*/
 123:../../lpc11cx4-library/lpc_chip_11cxx_lib/inc/clock_11xx.h **** 
 124:../../lpc11cx4-library/lpc_chip_11cxx_lib/inc/clock_11xx.h **** /**
 125:../../lpc11cx4-library/lpc_chip_11cxx_lib/inc/clock_11xx.h ****  * @brief	Bypass System Oscillator and set oscillator frequency range
 126:../../lpc11cx4-library/lpc_chip_11cxx_lib/inc/clock_11xx.h ****  * @param	bypass	: Flag to bypass oscillator
 127:../../lpc11cx4-library/lpc_chip_11cxx_lib/inc/clock_11xx.h ****  * @param	highfr	: Flag to set oscillator range from 15-25 MHz
 128:../../lpc11cx4-library/lpc_chip_11cxx_lib/inc/clock_11xx.h ****  * @return	Nothing
 129:../../lpc11cx4-library/lpc_chip_11cxx_lib/inc/clock_11xx.h ****  * @note	Sets the PLL input to bypass the oscillator. This would be
 130:../../lpc11cx4-library/lpc_chip_11cxx_lib/inc/clock_11xx.h ****  * used if an external clock that is not an oscillator is attached
 131:../../lpc11cx4-library/lpc_chip_11cxx_lib/inc/clock_11xx.h ****  * to the XTALIN pin.
 132:../../lpc11cx4-library/lpc_chip_11cxx_lib/inc/clock_11xx.h ****  */
 133:../../lpc11cx4-library/lpc_chip_11cxx_lib/inc/clock_11xx.h **** void Chip_Clock_SetPLLBypass(bool bypass, bool highfr);
 134:../../lpc11cx4-library/lpc_chip_11cxx_lib/inc/clock_11xx.h **** 
 135:../../lpc11cx4-library/lpc_chip_11cxx_lib/inc/clock_11xx.h **** /**
 136:../../lpc11cx4-library/lpc_chip_11cxx_lib/inc/clock_11xx.h ****  * Watchdog and low frequency oscillator frequencies plus or minus 40%
 137:../../lpc11cx4-library/lpc_chip_11cxx_lib/inc/clock_11xx.h ****  */
 138:../../lpc11cx4-library/lpc_chip_11cxx_lib/inc/clock_11xx.h **** typedef enum CHIP_WDTLFO_OSC {
 139:../../lpc11cx4-library/lpc_chip_11cxx_lib/inc/clock_11xx.h **** 	WDTLFO_OSC_ILLEGAL,
 140:../../lpc11cx4-library/lpc_chip_11cxx_lib/inc/clock_11xx.h **** 	WDTLFO_OSC_0_60,	/*!< 0.6 MHz watchdog/LFO rate */
 141:../../lpc11cx4-library/lpc_chip_11cxx_lib/inc/clock_11xx.h **** 	WDTLFO_OSC_1_05,	/*!< 1.05 MHz watchdog/LFO rate */
 142:../../lpc11cx4-library/lpc_chip_11cxx_lib/inc/clock_11xx.h **** 	WDTLFO_OSC_1_40,	/*!< 1.4 MHz watchdog/LFO rate */
 143:../../lpc11cx4-library/lpc_chip_11cxx_lib/inc/clock_11xx.h **** 	WDTLFO_OSC_1_75,	/*!< 1.75 MHz watchdog/LFO rate */
 144:../../lpc11cx4-library/lpc_chip_11cxx_lib/inc/clock_11xx.h **** 	WDTLFO_OSC_2_10,	/*!< 2.1 MHz watchdog/LFO rate */
 145:../../lpc11cx4-library/lpc_chip_11cxx_lib/inc/clock_11xx.h **** 	WDTLFO_OSC_2_40,	/*!< 2.4 MHz watchdog/LFO rate */
 146:../../lpc11cx4-library/lpc_chip_11cxx_lib/inc/clock_11xx.h **** 	WDTLFO_OSC_2_70,	/*!< 2.7 MHz watchdog/LFO rate */
ARM GAS  /var/folders/f9/8bk2lnw15zn4cbgn6wrnb4lm0000gn/T//ccdAmBzx.s 			page 45


 147:../../lpc11cx4-library/lpc_chip_11cxx_lib/inc/clock_11xx.h **** 	WDTLFO_OSC_3_00,	/*!< 3.0 MHz watchdog/LFO rate */
 148:../../lpc11cx4-library/lpc_chip_11cxx_lib/inc/clock_11xx.h **** 	WDTLFO_OSC_3_25,	/*!< 3.25 MHz watchdog/LFO rate */
 149:../../lpc11cx4-library/lpc_chip_11cxx_lib/inc/clock_11xx.h **** 	WDTLFO_OSC_3_50,	/*!< 3.5 MHz watchdog/LFO rate */
 150:../../lpc11cx4-library/lpc_chip_11cxx_lib/inc/clock_11xx.h **** 	WDTLFO_OSC_3_75,	/*!< 3.75 MHz watchdog/LFO rate */
 151:../../lpc11cx4-library/lpc_chip_11cxx_lib/inc/clock_11xx.h **** 	WDTLFO_OSC_4_00,	/*!< 4.0 MHz watchdog/LFO rate */
 152:../../lpc11cx4-library/lpc_chip_11cxx_lib/inc/clock_11xx.h **** 	WDTLFO_OSC_4_20,	/*!< 4.2 MHz watchdog/LFO rate */
 153:../../lpc11cx4-library/lpc_chip_11cxx_lib/inc/clock_11xx.h **** 	WDTLFO_OSC_4_40,	/*!< 4.4 MHz watchdog/LFO rate */
 154:../../lpc11cx4-library/lpc_chip_11cxx_lib/inc/clock_11xx.h **** 	WDTLFO_OSC_4_60		/*!< 4.6 MHz watchdog/LFO rate */
 155:../../lpc11cx4-library/lpc_chip_11cxx_lib/inc/clock_11xx.h **** } CHIP_WDTLFO_OSC_T;
 156:../../lpc11cx4-library/lpc_chip_11cxx_lib/inc/clock_11xx.h **** 
 157:../../lpc11cx4-library/lpc_chip_11cxx_lib/inc/clock_11xx.h **** /**
 158:../../lpc11cx4-library/lpc_chip_11cxx_lib/inc/clock_11xx.h ****  * @brief	Setup Watchdog oscillator rate and divider
 159:../../lpc11cx4-library/lpc_chip_11cxx_lib/inc/clock_11xx.h ****  * @param	wdtclk	: Selected watchdog clock rate
 160:../../lpc11cx4-library/lpc_chip_11cxx_lib/inc/clock_11xx.h ****  * @param	div		: Watchdog divider value, even value between 2 and 64
 161:../../lpc11cx4-library/lpc_chip_11cxx_lib/inc/clock_11xx.h ****  * @return	Nothing
 162:../../lpc11cx4-library/lpc_chip_11cxx_lib/inc/clock_11xx.h ****  * @note	Watchdog rate = selected rate divided by divider rate
 163:../../lpc11cx4-library/lpc_chip_11cxx_lib/inc/clock_11xx.h ****  */
 164:../../lpc11cx4-library/lpc_chip_11cxx_lib/inc/clock_11xx.h **** STATIC INLINE void Chip_Clock_SetWDTOSC(CHIP_WDTLFO_OSC_T wdtclk, uint8_t div)
 165:../../lpc11cx4-library/lpc_chip_11cxx_lib/inc/clock_11xx.h **** {
 166:../../lpc11cx4-library/lpc_chip_11cxx_lib/inc/clock_11xx.h **** 	LPC_SYSCTL->WDTOSCCTRL  = (((uint32_t) wdtclk) << 5) | ((div >> 1) - 1);
 167:../../lpc11cx4-library/lpc_chip_11cxx_lib/inc/clock_11xx.h **** }
 168:../../lpc11cx4-library/lpc_chip_11cxx_lib/inc/clock_11xx.h **** 
 169:../../lpc11cx4-library/lpc_chip_11cxx_lib/inc/clock_11xx.h **** #if defined(CHIP_LPC11AXX)
 170:../../lpc11cx4-library/lpc_chip_11cxx_lib/inc/clock_11xx.h **** /**
 171:../../lpc11cx4-library/lpc_chip_11cxx_lib/inc/clock_11xx.h ****  * @brief	Setup low frequency oscillator rate and divider
 172:../../lpc11cx4-library/lpc_chip_11cxx_lib/inc/clock_11xx.h ****  * @param	lfoclk	: Selected low frequency clock rate
 173:../../lpc11cx4-library/lpc_chip_11cxx_lib/inc/clock_11xx.h ****  * @param	div		: Low frequency divider value, even value between 2 and 64
 174:../../lpc11cx4-library/lpc_chip_11cxx_lib/inc/clock_11xx.h ****  * @return	Nothing
 175:../../lpc11cx4-library/lpc_chip_11cxx_lib/inc/clock_11xx.h ****  * @note	Low frequency oscillator rate = selected rate divided by divider rate
 176:../../lpc11cx4-library/lpc_chip_11cxx_lib/inc/clock_11xx.h ****  */
 177:../../lpc11cx4-library/lpc_chip_11cxx_lib/inc/clock_11xx.h **** STATIC INLINE void Chip_Clock_SetLFOSC(CHIP_WDTLFO_OSC_T lfoclk, uint8_t div)
 178:../../lpc11cx4-library/lpc_chip_11cxx_lib/inc/clock_11xx.h **** {
 179:../../lpc11cx4-library/lpc_chip_11cxx_lib/inc/clock_11xx.h **** 	LPC_SYSCTL->LFOSCCTRL  = (((uint32_t) lfoclk) << 5) | ((div >> 1) - 1);
 180:../../lpc11cx4-library/lpc_chip_11cxx_lib/inc/clock_11xx.h **** }
 181:../../lpc11cx4-library/lpc_chip_11cxx_lib/inc/clock_11xx.h **** 
 182:../../lpc11cx4-library/lpc_chip_11cxx_lib/inc/clock_11xx.h **** #endif /*CHIP_LPC11AXX*/
 183:../../lpc11cx4-library/lpc_chip_11cxx_lib/inc/clock_11xx.h **** 
 184:../../lpc11cx4-library/lpc_chip_11cxx_lib/inc/clock_11xx.h **** /**
 185:../../lpc11cx4-library/lpc_chip_11cxx_lib/inc/clock_11xx.h ****  * Clock sources for main system clock
 186:../../lpc11cx4-library/lpc_chip_11cxx_lib/inc/clock_11xx.h ****  */
 187:../../lpc11cx4-library/lpc_chip_11cxx_lib/inc/clock_11xx.h **** typedef enum CHIP_SYSCTL_MAINCLKSRC {
 188:../../lpc11cx4-library/lpc_chip_11cxx_lib/inc/clock_11xx.h **** 	SYSCTL_MAINCLKSRC_IRC = 0,		/*!< Internal oscillator */
 189:../../lpc11cx4-library/lpc_chip_11cxx_lib/inc/clock_11xx.h **** 	SYSCTL_MAINCLKSRC_PLLIN,		/*!< System PLL input */
 190:../../lpc11cx4-library/lpc_chip_11cxx_lib/inc/clock_11xx.h **** 	SYSCTL_MAINCLKSRC_LFOSC,		/*!< LF oscillator rate (11Axx only) */
 191:../../lpc11cx4-library/lpc_chip_11cxx_lib/inc/clock_11xx.h **** 	SYSCTL_MAINCLKSRC_WDTOSC = SYSCTL_MAINCLKSRC_LFOSC,	/*!< Watchdog oscillator rate */
 192:../../lpc11cx4-library/lpc_chip_11cxx_lib/inc/clock_11xx.h **** 	SYSCTL_MAINCLKSRC_PLLOUT,		/*!< System PLL output */
 193:../../lpc11cx4-library/lpc_chip_11cxx_lib/inc/clock_11xx.h **** } CHIP_SYSCTL_MAINCLKSRC_T;
 194:../../lpc11cx4-library/lpc_chip_11cxx_lib/inc/clock_11xx.h **** 
 195:../../lpc11cx4-library/lpc_chip_11cxx_lib/inc/clock_11xx.h **** /**
 196:../../lpc11cx4-library/lpc_chip_11cxx_lib/inc/clock_11xx.h ****  * @brief	Set main system clock source
 197:../../lpc11cx4-library/lpc_chip_11cxx_lib/inc/clock_11xx.h ****  * @param	src	: Clock source for main system
 198:../../lpc11cx4-library/lpc_chip_11cxx_lib/inc/clock_11xx.h ****  * @return	Nothing
 199:../../lpc11cx4-library/lpc_chip_11cxx_lib/inc/clock_11xx.h ****  * @note	This function will also toggle the clock source update register
 200:../../lpc11cx4-library/lpc_chip_11cxx_lib/inc/clock_11xx.h ****  * to update the clock source.
 201:../../lpc11cx4-library/lpc_chip_11cxx_lib/inc/clock_11xx.h ****  */
 202:../../lpc11cx4-library/lpc_chip_11cxx_lib/inc/clock_11xx.h **** void Chip_Clock_SetMainClockSource(CHIP_SYSCTL_MAINCLKSRC_T src);
 203:../../lpc11cx4-library/lpc_chip_11cxx_lib/inc/clock_11xx.h **** 
ARM GAS  /var/folders/f9/8bk2lnw15zn4cbgn6wrnb4lm0000gn/T//ccdAmBzx.s 			page 46


 204:../../lpc11cx4-library/lpc_chip_11cxx_lib/inc/clock_11xx.h **** /**
 205:../../lpc11cx4-library/lpc_chip_11cxx_lib/inc/clock_11xx.h ****  * @brief   Returns the main clock source
 206:../../lpc11cx4-library/lpc_chip_11cxx_lib/inc/clock_11xx.h ****  * @return	Which clock is used for the core clock source?
 207:../../lpc11cx4-library/lpc_chip_11cxx_lib/inc/clock_11xx.h ****  */
 208:../../lpc11cx4-library/lpc_chip_11cxx_lib/inc/clock_11xx.h **** STATIC INLINE CHIP_SYSCTL_MAINCLKSRC_T Chip_Clock_GetMainClockSource(void)
 209:../../lpc11cx4-library/lpc_chip_11cxx_lib/inc/clock_11xx.h **** {
 210:../../lpc11cx4-library/lpc_chip_11cxx_lib/inc/clock_11xx.h **** 	return (CHIP_SYSCTL_MAINCLKSRC_T) (LPC_SYSCTL->MAINCLKSEL);
 211:../../lpc11cx4-library/lpc_chip_11cxx_lib/inc/clock_11xx.h **** }
 212:../../lpc11cx4-library/lpc_chip_11cxx_lib/inc/clock_11xx.h **** 
 213:../../lpc11cx4-library/lpc_chip_11cxx_lib/inc/clock_11xx.h **** /**
 214:../../lpc11cx4-library/lpc_chip_11cxx_lib/inc/clock_11xx.h ****  * @brief	Set system clock divider
 215:../../lpc11cx4-library/lpc_chip_11cxx_lib/inc/clock_11xx.h ****  * @param	div	: divider for system clock
 216:../../lpc11cx4-library/lpc_chip_11cxx_lib/inc/clock_11xx.h ****  * @return	Nothing
 217:../../lpc11cx4-library/lpc_chip_11cxx_lib/inc/clock_11xx.h ****  * @note	Use 0 to disable, or a divider value of 1 to 255. The system clock
 218:../../lpc11cx4-library/lpc_chip_11cxx_lib/inc/clock_11xx.h ****  * rate is the main system clock divided by this value.
 219:../../lpc11cx4-library/lpc_chip_11cxx_lib/inc/clock_11xx.h ****  */
 220:../../lpc11cx4-library/lpc_chip_11cxx_lib/inc/clock_11xx.h **** STATIC INLINE void Chip_Clock_SetSysClockDiv(uint32_t div)
 221:../../lpc11cx4-library/lpc_chip_11cxx_lib/inc/clock_11xx.h **** {
 222:../../lpc11cx4-library/lpc_chip_11cxx_lib/inc/clock_11xx.h **** 	LPC_SYSCTL->SYSAHBCLKDIV  = div;
 223:../../lpc11cx4-library/lpc_chip_11cxx_lib/inc/clock_11xx.h **** }
 224:../../lpc11cx4-library/lpc_chip_11cxx_lib/inc/clock_11xx.h **** 
 225:../../lpc11cx4-library/lpc_chip_11cxx_lib/inc/clock_11xx.h **** /**
 226:../../lpc11cx4-library/lpc_chip_11cxx_lib/inc/clock_11xx.h ****  * System and peripheral clocks
 227:../../lpc11cx4-library/lpc_chip_11cxx_lib/inc/clock_11xx.h ****  */
 228:../../lpc11cx4-library/lpc_chip_11cxx_lib/inc/clock_11xx.h **** typedef enum CHIP_SYSCTL_CLOCK {
 229:../../lpc11cx4-library/lpc_chip_11cxx_lib/inc/clock_11xx.h **** 	SYSCTL_CLOCK_SYS = 0,				/*!< 0: System clock */
 230:../../lpc11cx4-library/lpc_chip_11cxx_lib/inc/clock_11xx.h **** 	SYSCTL_CLOCK_ROM,					/*!<1:  ROM clock */
 231:../../lpc11cx4-library/lpc_chip_11cxx_lib/inc/clock_11xx.h **** 	SYSCTL_CLOCK_RAM,					/*!< 2: RAM clock */
 232:../../lpc11cx4-library/lpc_chip_11cxx_lib/inc/clock_11xx.h **** 	SYSCTL_CLOCK_FLASHREG,				/*!< 3: FLASH register interface clock */
 233:../../lpc11cx4-library/lpc_chip_11cxx_lib/inc/clock_11xx.h **** 	SYSCTL_CLOCK_FLASHARRAY,			/*!< 4: FLASH array access clock */
 234:../../lpc11cx4-library/lpc_chip_11cxx_lib/inc/clock_11xx.h **** #if defined(CHIP_LPC110X)
 235:../../lpc11cx4-library/lpc_chip_11cxx_lib/inc/clock_11xx.h **** 	SYSCTL_CLOCK_RESERVED5,				/*!< 5: Reserved */
 236:../../lpc11cx4-library/lpc_chip_11cxx_lib/inc/clock_11xx.h **** #else
 237:../../lpc11cx4-library/lpc_chip_11cxx_lib/inc/clock_11xx.h **** 	SYSCTL_CLOCK_I2C,					/*!< 5: I2C clock, not on LPC110x */
 238:../../lpc11cx4-library/lpc_chip_11cxx_lib/inc/clock_11xx.h **** #endif
 239:../../lpc11cx4-library/lpc_chip_11cxx_lib/inc/clock_11xx.h **** 	SYSCTL_CLOCK_GPIO,					/*!< 6: GPIO clock */
 240:../../lpc11cx4-library/lpc_chip_11cxx_lib/inc/clock_11xx.h **** 	SYSCTL_CLOCK_CT16B0,				/*!< 7: 16-bit Counter/timer 0 clock */
 241:../../lpc11cx4-library/lpc_chip_11cxx_lib/inc/clock_11xx.h **** 	SYSCTL_CLOCK_CT16B1,				/*!< 8: 16-bit Counter/timer 1 clock */
 242:../../lpc11cx4-library/lpc_chip_11cxx_lib/inc/clock_11xx.h **** 	SYSCTL_CLOCK_CT32B0,				/*!< 9: 32-bit Counter/timer 0 clock */
 243:../../lpc11cx4-library/lpc_chip_11cxx_lib/inc/clock_11xx.h **** 	SYSCTL_CLOCK_CT32B1,				/*!< 10: 32-bit Counter/timer 1 clock */
 244:../../lpc11cx4-library/lpc_chip_11cxx_lib/inc/clock_11xx.h **** 	SYSCTL_CLOCK_SSP0,					/*!< 11: SSP0 clock */
 245:../../lpc11cx4-library/lpc_chip_11cxx_lib/inc/clock_11xx.h **** 	SYSCTL_CLOCK_UART0,					/*!< 12: UART0 clock */
 246:../../lpc11cx4-library/lpc_chip_11cxx_lib/inc/clock_11xx.h **** 	SYSCTL_CLOCK_ADC,					/*!< 13: ADC clock */
 247:../../lpc11cx4-library/lpc_chip_11cxx_lib/inc/clock_11xx.h **** #if defined(CHIP_LPC11UXX)
 248:../../lpc11cx4-library/lpc_chip_11cxx_lib/inc/clock_11xx.h **** 	SYSCTL_CLOCK_USB,					/*!< 14: USB clock, LPC11Uxx only */
 249:../../lpc11cx4-library/lpc_chip_11cxx_lib/inc/clock_11xx.h **** #else
 250:../../lpc11cx4-library/lpc_chip_11cxx_lib/inc/clock_11xx.h **** 	SYSCTL_CLOCK_RESERVED14,			/*!< 14: Reserved */
 251:../../lpc11cx4-library/lpc_chip_11cxx_lib/inc/clock_11xx.h **** #endif
 252:../../lpc11cx4-library/lpc_chip_11cxx_lib/inc/clock_11xx.h **** 	SYSCTL_CLOCK_WDT,					/*!< 15: Watchdog timer clock */
 253:../../lpc11cx4-library/lpc_chip_11cxx_lib/inc/clock_11xx.h **** 	SYSCTL_CLOCK_IOCON,					/*!< 16: IOCON block clock */
 254:../../lpc11cx4-library/lpc_chip_11cxx_lib/inc/clock_11xx.h **** #if defined(CHIP_LPC11CXX)
 255:../../lpc11cx4-library/lpc_chip_11cxx_lib/inc/clock_11xx.h **** 	SYSCTL_CLOCK_CAN,					/*!< 17: CAN clock, LPC11Cxx only */
 256:../../lpc11cx4-library/lpc_chip_11cxx_lib/inc/clock_11xx.h **** #else
 257:../../lpc11cx4-library/lpc_chip_11cxx_lib/inc/clock_11xx.h **** 	SYSCTL_CLOCK_RESERVED17,			/*!< 17: Reserved */
 258:../../lpc11cx4-library/lpc_chip_11cxx_lib/inc/clock_11xx.h **** #endif
 259:../../lpc11cx4-library/lpc_chip_11cxx_lib/inc/clock_11xx.h **** #if !(defined(CHIP_LPC110X) || defined(CHIP_LPC11XXLV))  
 260:../../lpc11cx4-library/lpc_chip_11cxx_lib/inc/clock_11xx.h **** 	SYSCTL_CLOCK_SSP1,					/*!< 18: SSP1 clock, LPC11A/C/E/Uxx//1125 only */
ARM GAS  /var/folders/f9/8bk2lnw15zn4cbgn6wrnb4lm0000gn/T//ccdAmBzx.s 			page 47


 261:../../lpc11cx4-library/lpc_chip_11cxx_lib/inc/clock_11xx.h **** #if !defined(CHIP_LPC11CXX)
 262:../../lpc11cx4-library/lpc_chip_11cxx_lib/inc/clock_11xx.h **** 	SYSCTL_CLOCK_PINT,					/*!< 19: GPIO Pin int register interface clock, LPC11A/E/Uxx only */
 263:../../lpc11cx4-library/lpc_chip_11cxx_lib/inc/clock_11xx.h **** #if defined(CHIP_LPC11AXX)
 264:../../lpc11cx4-library/lpc_chip_11cxx_lib/inc/clock_11xx.h **** 	SYSCTL_CLOCK_ACOMP,					/*!< 20: Analog comparator clock, LPC11Axx only */
 265:../../lpc11cx4-library/lpc_chip_11cxx_lib/inc/clock_11xx.h **** 	SYSCTL_CLOCK_DAC,					/*!< 21: DAC clock, LPC11Axx only */
 266:../../lpc11cx4-library/lpc_chip_11cxx_lib/inc/clock_11xx.h **** #else
 267:../../lpc11cx4-library/lpc_chip_11cxx_lib/inc/clock_11xx.h **** 	SYSCTL_CLOCK_RESERVED20,			/*!< 20: Reserved */
 268:../../lpc11cx4-library/lpc_chip_11cxx_lib/inc/clock_11xx.h **** 	SYSCTL_CLOCK_RESERVED21,			/*!< 21: Reserved */
 269:../../lpc11cx4-library/lpc_chip_11cxx_lib/inc/clock_11xx.h **** #endif
 270:../../lpc11cx4-library/lpc_chip_11cxx_lib/inc/clock_11xx.h **** 	SYSCTL_CLOCK_RESERVED22,			/*!< 22: Reserved */
 271:../../lpc11cx4-library/lpc_chip_11cxx_lib/inc/clock_11xx.h **** 	SYSCTL_CLOCK_P0INT,					/*!< 23: GPIO GROUP1 interrupt register clock, LPC11Axx only */
 272:../../lpc11cx4-library/lpc_chip_11cxx_lib/inc/clock_11xx.h **** 	SYSCTL_CLOCK_GROUP0INT = SYSCTL_CLOCK_P0INT,/*!< 23: GPIO GROUP0 interrupt register interface cloc
 273:../../lpc11cx4-library/lpc_chip_11cxx_lib/inc/clock_11xx.h **** 	SYSCTL_CLOCK_P1INT,					/*!< 24: GPIO GROUP1 interrupt register clock, LPC11Axx only */
 274:../../lpc11cx4-library/lpc_chip_11cxx_lib/inc/clock_11xx.h **** 	SYSCTL_CLOCK_GROUP1INT = SYSCTL_CLOCK_P1INT,/*!< 24: GPIO GROUP1 interrupt register interface cloc
 275:../../lpc11cx4-library/lpc_chip_11cxx_lib/inc/clock_11xx.h **** 	SYSCTL_CLOCK_RESERVED25,			/*!< 25: Reserved */
 276:../../lpc11cx4-library/lpc_chip_11cxx_lib/inc/clock_11xx.h **** #if defined(CHIP_LPC11EXX)  || defined(CHIP_LPC11UXX)
 277:../../lpc11cx4-library/lpc_chip_11cxx_lib/inc/clock_11xx.h **** 	SYSCTL_CLOCK_RAM1,					/*!< 26: SRAM block (0x20000000) clock, LPC11E/Uxx only */
 278:../../lpc11cx4-library/lpc_chip_11cxx_lib/inc/clock_11xx.h **** #else
 279:../../lpc11cx4-library/lpc_chip_11cxx_lib/inc/clock_11xx.h **** 	SYSCTL_CLOCK_RESERVED26,			/*!< 26: Reserved */
 280:../../lpc11cx4-library/lpc_chip_11cxx_lib/inc/clock_11xx.h **** #endif
 281:../../lpc11cx4-library/lpc_chip_11cxx_lib/inc/clock_11xx.h **** #if defined(CHIP_LPC11UXX)
 282:../../lpc11cx4-library/lpc_chip_11cxx_lib/inc/clock_11xx.h **** 	SYSCTL_CLOCK_USBRAM,				/*!< 27: USB SRAM block clock, LPC11Uxx only */
 283:../../lpc11cx4-library/lpc_chip_11cxx_lib/inc/clock_11xx.h **** #else
 284:../../lpc11cx4-library/lpc_chip_11cxx_lib/inc/clock_11xx.h **** 	SYSCTL_CLOCK_RESERVED27,			/*!< 27: Reserved */
 285:../../lpc11cx4-library/lpc_chip_11cxx_lib/inc/clock_11xx.h **** #endif
 286:../../lpc11cx4-library/lpc_chip_11cxx_lib/inc/clock_11xx.h **** #endif /* !defined(CHIP_LPC11CXX) */
 287:../../lpc11cx4-library/lpc_chip_11cxx_lib/inc/clock_11xx.h **** #endif /* !(defined(CHIP_LPC110X) || defined(CHIP_LPC11XXLV)) */
 288:../../lpc11cx4-library/lpc_chip_11cxx_lib/inc/clock_11xx.h **** } CHIP_SYSCTL_CLOCK_T;
 289:../../lpc11cx4-library/lpc_chip_11cxx_lib/inc/clock_11xx.h **** 
 290:../../lpc11cx4-library/lpc_chip_11cxx_lib/inc/clock_11xx.h **** /**
 291:../../lpc11cx4-library/lpc_chip_11cxx_lib/inc/clock_11xx.h ****  * @brief	Enable a system or peripheral clock
 292:../../lpc11cx4-library/lpc_chip_11cxx_lib/inc/clock_11xx.h ****  * @param	clk	: Clock to enable
 293:../../lpc11cx4-library/lpc_chip_11cxx_lib/inc/clock_11xx.h ****  * @return	Nothing
 294:../../lpc11cx4-library/lpc_chip_11cxx_lib/inc/clock_11xx.h ****  */
 295:../../lpc11cx4-library/lpc_chip_11cxx_lib/inc/clock_11xx.h **** STATIC INLINE void Chip_Clock_EnablePeriphClock(CHIP_SYSCTL_CLOCK_T clk)
 296:../../lpc11cx4-library/lpc_chip_11cxx_lib/inc/clock_11xx.h **** {
 297:../../lpc11cx4-library/lpc_chip_11cxx_lib/inc/clock_11xx.h **** 	LPC_SYSCTL->SYSAHBCLKCTRL |= (1 << clk);
 298:../../lpc11cx4-library/lpc_chip_11cxx_lib/inc/clock_11xx.h **** }
 299:../../lpc11cx4-library/lpc_chip_11cxx_lib/inc/clock_11xx.h **** 
 300:../../lpc11cx4-library/lpc_chip_11cxx_lib/inc/clock_11xx.h **** /**
 301:../../lpc11cx4-library/lpc_chip_11cxx_lib/inc/clock_11xx.h ****  * @brief	Disable a system or peripheral clock
 302:../../lpc11cx4-library/lpc_chip_11cxx_lib/inc/clock_11xx.h ****  * @param	clk	: Clock to disable
 303:../../lpc11cx4-library/lpc_chip_11cxx_lib/inc/clock_11xx.h ****  * @return	Nothing
 304:../../lpc11cx4-library/lpc_chip_11cxx_lib/inc/clock_11xx.h ****  */
 305:../../lpc11cx4-library/lpc_chip_11cxx_lib/inc/clock_11xx.h **** STATIC INLINE void Chip_Clock_DisablePeriphClock(CHIP_SYSCTL_CLOCK_T clk)
 306:../../lpc11cx4-library/lpc_chip_11cxx_lib/inc/clock_11xx.h **** {
 307:../../lpc11cx4-library/lpc_chip_11cxx_lib/inc/clock_11xx.h **** 	LPC_SYSCTL->SYSAHBCLKCTRL &= ~(1 << clk);
 308:../../lpc11cx4-library/lpc_chip_11cxx_lib/inc/clock_11xx.h **** }
 309:../../lpc11cx4-library/lpc_chip_11cxx_lib/inc/clock_11xx.h **** 
 310:../../lpc11cx4-library/lpc_chip_11cxx_lib/inc/clock_11xx.h **** /**
 311:../../lpc11cx4-library/lpc_chip_11cxx_lib/inc/clock_11xx.h ****  * @brief	Set SSP0 divider
 312:../../lpc11cx4-library/lpc_chip_11cxx_lib/inc/clock_11xx.h ****  * @param	div	: divider for SSP0 clock
 313:../../lpc11cx4-library/lpc_chip_11cxx_lib/inc/clock_11xx.h ****  * @return	Nothing
 314:../../lpc11cx4-library/lpc_chip_11cxx_lib/inc/clock_11xx.h ****  * @note	Use 0 to disable, or a divider value of 1 to 255. The SSP0 clock
 315:../../lpc11cx4-library/lpc_chip_11cxx_lib/inc/clock_11xx.h ****  * rate is the main system clock divided by this value.
 316:../../lpc11cx4-library/lpc_chip_11cxx_lib/inc/clock_11xx.h ****  */
 317:../../lpc11cx4-library/lpc_chip_11cxx_lib/inc/clock_11xx.h **** STATIC INLINE void Chip_Clock_SetSSP0ClockDiv(uint32_t div)
ARM GAS  /var/folders/f9/8bk2lnw15zn4cbgn6wrnb4lm0000gn/T//ccdAmBzx.s 			page 48


 318:../../lpc11cx4-library/lpc_chip_11cxx_lib/inc/clock_11xx.h **** {
 319:../../lpc11cx4-library/lpc_chip_11cxx_lib/inc/clock_11xx.h **** 	LPC_SYSCTL->SSP0CLKDIV  = div;
 320:../../lpc11cx4-library/lpc_chip_11cxx_lib/inc/clock_11xx.h **** }
 321:../../lpc11cx4-library/lpc_chip_11cxx_lib/inc/clock_11xx.h **** 
 322:../../lpc11cx4-library/lpc_chip_11cxx_lib/inc/clock_11xx.h **** /**
 323:../../lpc11cx4-library/lpc_chip_11cxx_lib/inc/clock_11xx.h ****  * @brief	Return SSP0 divider
 324:../../lpc11cx4-library/lpc_chip_11cxx_lib/inc/clock_11xx.h ****  * @return	divider for SSP0 clock
 325:../../lpc11cx4-library/lpc_chip_11cxx_lib/inc/clock_11xx.h ****  * @note	A value of 0 means the clock is disabled.
 326:../../lpc11cx4-library/lpc_chip_11cxx_lib/inc/clock_11xx.h ****  */
 327:../../lpc11cx4-library/lpc_chip_11cxx_lib/inc/clock_11xx.h **** STATIC INLINE uint32_t Chip_Clock_GetSSP0ClockDiv(void)
 328:../../lpc11cx4-library/lpc_chip_11cxx_lib/inc/clock_11xx.h **** {
 329:../../lpc11cx4-library/lpc_chip_11cxx_lib/inc/clock_11xx.h **** 	return LPC_SYSCTL->SSP0CLKDIV;
 1402              		.loc 3 329 0
 1403 0010 124B     		ldr	r3, .L178+4	@ tmp125,
 1404 0012 00E0     		b	.L175	@
 1405              	.L169:
 1406              	.LBE347:
 1407              	.LBE346:
 1408              	.LBB348:
 1409              	.LBB349:
 330:../../lpc11cx4-library/lpc_chip_11cxx_lib/inc/clock_11xx.h **** }
 331:../../lpc11cx4-library/lpc_chip_11cxx_lib/inc/clock_11xx.h **** 
 332:../../lpc11cx4-library/lpc_chip_11cxx_lib/inc/clock_11xx.h **** /**
 333:../../lpc11cx4-library/lpc_chip_11cxx_lib/inc/clock_11xx.h ****  * @brief	Set UART divider clock
 334:../../lpc11cx4-library/lpc_chip_11cxx_lib/inc/clock_11xx.h ****  * @param	div	: divider for UART clock
 335:../../lpc11cx4-library/lpc_chip_11cxx_lib/inc/clock_11xx.h ****  * @return	Nothing
 336:../../lpc11cx4-library/lpc_chip_11cxx_lib/inc/clock_11xx.h ****  * @note	Use 0 to disable, or a divider value of 1 to 255. The UART clock
 337:../../lpc11cx4-library/lpc_chip_11cxx_lib/inc/clock_11xx.h ****  * rate is the main system clock divided by this value.
 338:../../lpc11cx4-library/lpc_chip_11cxx_lib/inc/clock_11xx.h ****  */
 339:../../lpc11cx4-library/lpc_chip_11cxx_lib/inc/clock_11xx.h **** STATIC INLINE void Chip_Clock_SetUARTClockDiv(uint32_t div)
 340:../../lpc11cx4-library/lpc_chip_11cxx_lib/inc/clock_11xx.h **** {
 341:../../lpc11cx4-library/lpc_chip_11cxx_lib/inc/clock_11xx.h **** 	LPC_SYSCTL->USARTCLKDIV  = div;
 342:../../lpc11cx4-library/lpc_chip_11cxx_lib/inc/clock_11xx.h **** }
 343:../../lpc11cx4-library/lpc_chip_11cxx_lib/inc/clock_11xx.h **** 
 344:../../lpc11cx4-library/lpc_chip_11cxx_lib/inc/clock_11xx.h **** /**
 345:../../lpc11cx4-library/lpc_chip_11cxx_lib/inc/clock_11xx.h ****  * @brief	Return UART divider
 346:../../lpc11cx4-library/lpc_chip_11cxx_lib/inc/clock_11xx.h ****  * @return	divider for UART clock
 347:../../lpc11cx4-library/lpc_chip_11cxx_lib/inc/clock_11xx.h ****  * @note	A value of 0 means the clock is disabled.
 348:../../lpc11cx4-library/lpc_chip_11cxx_lib/inc/clock_11xx.h ****  */
 349:../../lpc11cx4-library/lpc_chip_11cxx_lib/inc/clock_11xx.h **** STATIC INLINE uint32_t Chip_Clock_GetUARTClockDiv(void)
 350:../../lpc11cx4-library/lpc_chip_11cxx_lib/inc/clock_11xx.h **** {
 351:../../lpc11cx4-library/lpc_chip_11cxx_lib/inc/clock_11xx.h **** 	return LPC_SYSCTL->USARTCLKDIV;
 352:../../lpc11cx4-library/lpc_chip_11cxx_lib/inc/clock_11xx.h **** }
 353:../../lpc11cx4-library/lpc_chip_11cxx_lib/inc/clock_11xx.h **** 
 354:../../lpc11cx4-library/lpc_chip_11cxx_lib/inc/clock_11xx.h **** #if defined(CHIP_LPC11CXX) || defined(CHIP_LPC11EXX) || defined(CHIP_LPC11AXX) || defined(CHIP_LPC1
 355:../../lpc11cx4-library/lpc_chip_11cxx_lib/inc/clock_11xx.h **** /**
 356:../../lpc11cx4-library/lpc_chip_11cxx_lib/inc/clock_11xx.h ****  * @brief	Set SSP1 divider clock
 357:../../lpc11cx4-library/lpc_chip_11cxx_lib/inc/clock_11xx.h ****  * @param	div	: divider for SSP1 clock
 358:../../lpc11cx4-library/lpc_chip_11cxx_lib/inc/clock_11xx.h ****  * @return	Nothing
 359:../../lpc11cx4-library/lpc_chip_11cxx_lib/inc/clock_11xx.h ****  * @note	Use 0 to disable, or a divider value of 1 to 255. The SSP1 clock
 360:../../lpc11cx4-library/lpc_chip_11cxx_lib/inc/clock_11xx.h ****  * rate is the main system clock divided by this value.
 361:../../lpc11cx4-library/lpc_chip_11cxx_lib/inc/clock_11xx.h ****  */
 362:../../lpc11cx4-library/lpc_chip_11cxx_lib/inc/clock_11xx.h **** STATIC INLINE void Chip_Clock_SetSSP1ClockDiv(uint32_t div)
 363:../../lpc11cx4-library/lpc_chip_11cxx_lib/inc/clock_11xx.h **** {
 364:../../lpc11cx4-library/lpc_chip_11cxx_lib/inc/clock_11xx.h **** 	LPC_SYSCTL->SSP1CLKDIV  = div;
 365:../../lpc11cx4-library/lpc_chip_11cxx_lib/inc/clock_11xx.h **** }
 366:../../lpc11cx4-library/lpc_chip_11cxx_lib/inc/clock_11xx.h **** 
ARM GAS  /var/folders/f9/8bk2lnw15zn4cbgn6wrnb4lm0000gn/T//ccdAmBzx.s 			page 49


 367:../../lpc11cx4-library/lpc_chip_11cxx_lib/inc/clock_11xx.h **** /**
 368:../../lpc11cx4-library/lpc_chip_11cxx_lib/inc/clock_11xx.h ****  * @brief	Return SSP1 divider
 369:../../lpc11cx4-library/lpc_chip_11cxx_lib/inc/clock_11xx.h ****  * @return	divider for SSP1 clock
 370:../../lpc11cx4-library/lpc_chip_11cxx_lib/inc/clock_11xx.h ****  * @note	A value of 0 means the clock is disabled.
 371:../../lpc11cx4-library/lpc_chip_11cxx_lib/inc/clock_11xx.h ****  */
 372:../../lpc11cx4-library/lpc_chip_11cxx_lib/inc/clock_11xx.h **** STATIC INLINE uint32_t Chip_Clock_GetSSP1ClockDiv(void)
 373:../../lpc11cx4-library/lpc_chip_11cxx_lib/inc/clock_11xx.h **** {
 374:../../lpc11cx4-library/lpc_chip_11cxx_lib/inc/clock_11xx.h **** 	return LPC_SYSCTL->SSP1CLKDIV;
 1410              		.loc 3 374 0
 1411 0014 124B     		ldr	r3, .L178+8	@ tmp132,
 1412              	.L175:
 1413 0016 1968     		ldr	r1, [r3]	@ D.6861,
 1414              	.LBE349:
 1415              	.LBE348:
 159:../../lpc11cx4-library/lpc_chip_11cxx_lib/src/ssp_11xx.c **** 		sspCLK /= Chip_Clock_GetSSP1ClockDiv();
 1416              		.loc 1 159 0
 1417 0018 FFF7FEFF 		bl	__aeabi_uidiv	@
 1418              	.LVL151:
 1419 001c 071C     		mov	r7, r0	@ ssp_clk,
 1420              	.LVL152:
 1421              	.LBE345:
 1422              	.LBE344:
 460:../../lpc11cx4-library/lpc_chip_11cxx_lib/src/ssp_11xx.c **** 	uint32_t ssp_clk, cr0_div, cmp_clk, prescale;
 461:../../lpc11cx4-library/lpc_chip_11cxx_lib/src/ssp_11xx.c **** 
 462:../../lpc11cx4-library/lpc_chip_11cxx_lib/src/ssp_11xx.c **** 	ssp_clk = Chip_SSP_GetPCLKkRate(pSSP);
 463:../../lpc11cx4-library/lpc_chip_11cxx_lib/src/ssp_11xx.c **** 
 464:../../lpc11cx4-library/lpc_chip_11cxx_lib/src/ssp_11xx.c **** 	cr0_div = 0;
 465:../../lpc11cx4-library/lpc_chip_11cxx_lib/src/ssp_11xx.c **** 	cmp_clk = 0xFFFFFFFF;
 1423              		.loc 1 465 0
 1424 001e 0120     		mov	r0, #1	@ tmp140,
 1425              	.LVL153:
 466:../../lpc11cx4-library/lpc_chip_11cxx_lib/src/ssp_11xx.c **** 	prescale = 2;
 1426              		.loc 1 466 0
 1427 0020 0225     		mov	r5, #2	@ prescale,
 465:../../lpc11cx4-library/lpc_chip_11cxx_lib/src/ssp_11xx.c **** 	cmp_clk = 0xFFFFFFFF;
 1428              		.loc 1 465 0
 1429 0022 4042     		neg	r0, r0	@ cmp_clk, tmp140
 1430              	.LVL154:
 1431              	.L176:
 467:../../lpc11cx4-library/lpc_chip_11cxx_lib/src/ssp_11xx.c **** 
 468:../../lpc11cx4-library/lpc_chip_11cxx_lib/src/ssp_11xx.c **** 	while (cmp_clk > bitRate) {
 469:../../lpc11cx4-library/lpc_chip_11cxx_lib/src/ssp_11xx.c **** 		cmp_clk = ssp_clk / ((cr0_div + 1) * prescale);
 470:../../lpc11cx4-library/lpc_chip_11cxx_lib/src/ssp_11xx.c **** 		if (cmp_clk > bitRate) {
 471:../../lpc11cx4-library/lpc_chip_11cxx_lib/src/ssp_11xx.c **** 			cr0_div++;
 472:../../lpc11cx4-library/lpc_chip_11cxx_lib/src/ssp_11xx.c **** 			if (cr0_div > 0xFF) {
 473:../../lpc11cx4-library/lpc_chip_11cxx_lib/src/ssp_11xx.c **** 				cr0_div = 0;
 1432              		.loc 1 473 0
 1433 0024 0024     		mov	r4, #0	@ cr0_div,
 1434              	.LVL155:
 1435              	.L171:
 468:../../lpc11cx4-library/lpc_chip_11cxx_lib/src/ssp_11xx.c **** 	while (cmp_clk > bitRate) {
 1436              		.loc 1 468 0 discriminator 1
 1437 0026 019B     		ldr	r3, [sp, #4]	@, %sfp
 1438 0028 9842     		cmp	r0, r3	@ cmp_clk,
 1439 002a 0ED9     		bls	.L177	@,
 469:../../lpc11cx4-library/lpc_chip_11cxx_lib/src/ssp_11xx.c **** 		cmp_clk = ssp_clk / ((cr0_div + 1) * prescale);
 1440              		.loc 1 469 0
ARM GAS  /var/folders/f9/8bk2lnw15zn4cbgn6wrnb4lm0000gn/T//ccdAmBzx.s 			page 50


 1441 002c 631C     		add	r3, r4, #1	@, cr0_div,
 1442 002e 191C     		mov	r1, r3	@ D.6860,
 1443 0030 6943     		mul	r1, r5	@ D.6860, prescale
 1444 0032 381C     		mov	r0, r7	@, ssp_clk
 1445              	.LVL156:
 1446 0034 0093     		str	r3, [sp]	@, %sfp
 1447 0036 FFF7FEFF 		bl	__aeabi_uidiv	@
 1448              	.LVL157:
 470:../../lpc11cx4-library/lpc_chip_11cxx_lib/src/ssp_11xx.c **** 		if (cmp_clk > bitRate) {
 1449              		.loc 1 470 0
 1450 003a 019B     		ldr	r3, [sp, #4]	@, %sfp
 1451 003c 9842     		cmp	r0, r3	@ cmp_clk,
 1452 003e F2D9     		bls	.L171	@,
 1453              	.LVL158:
 1454 0040 009C     		ldr	r4, [sp]	@ cr0_div, %sfp
 472:../../lpc11cx4-library/lpc_chip_11cxx_lib/src/ssp_11xx.c **** 			if (cr0_div > 0xFF) {
 1455              		.loc 1 472 0
 1456 0042 FF2C     		cmp	r4, #255	@ cr0_div,
 1457 0044 EFD9     		bls	.L171	@,
 1458              	.LVL159:
 474:../../lpc11cx4-library/lpc_chip_11cxx_lib/src/ssp_11xx.c **** 				prescale += 2;
 1459              		.loc 1 474 0
 1460 0046 0235     		add	r5, r5, #2	@ prescale,
 1461              	.LVL160:
 1462 0048 ECE7     		b	.L176	@
 1463              	.LVL161:
 1464              	.L177:
 475:../../lpc11cx4-library/lpc_chip_11cxx_lib/src/ssp_11xx.c **** 			}
 476:../../lpc11cx4-library/lpc_chip_11cxx_lib/src/ssp_11xx.c **** 		}
 477:../../lpc11cx4-library/lpc_chip_11cxx_lib/src/ssp_11xx.c **** 	}
 478:../../lpc11cx4-library/lpc_chip_11cxx_lib/src/ssp_11xx.c **** 
 479:../../lpc11cx4-library/lpc_chip_11cxx_lib/src/ssp_11xx.c **** 	Chip_SSP_SetClockRate(pSSP, cr0_div, prescale);
 1465              		.loc 1 479 0
 1466 004a 301C     		mov	r0, r6	@, pSSP
 1467              	.LVL162:
 1468 004c 2A1C     		mov	r2, r5	@, prescale
 1469 004e 211C     		mov	r1, r4	@, cr0_div
 1470 0050 FFF7FEFF 		bl	Chip_SSP_SetClockRate	@
 1471              	.LVL163:
 480:../../lpc11cx4-library/lpc_chip_11cxx_lib/src/ssp_11xx.c **** }
 1472              		.loc 1 480 0
 1473              		@ sp needed	@
 1474              	.LVL164:
 1475              	.LVL165:
 1476              	.LVL166:
 1477              	.LVL167:
 1478 0054 F7BD     		pop	{r0, r1, r2, r4, r5, r6, r7, pc}
 1479              	.L179:
 1480 0056 C046     		.align	2
 1481              	.L178:
 1482 0058 00000440 		.word	1074003968
 1483 005c 94800440 		.word	1074036884
 1484 0060 9C800440 		.word	1074036892
 1485              		.cfi_endproc
 1486              	.LFE214:
 1487              		.size	Chip_SSP_SetBitRate, .-Chip_SSP_SetBitRate
 1488              		.section	.text.Chip_SSP_Init,"ax",%progbits
ARM GAS  /var/folders/f9/8bk2lnw15zn4cbgn6wrnb4lm0000gn/T//ccdAmBzx.s 			page 51


 1489              		.align	1
 1490              		.global	Chip_SSP_Init
 1491              		.code	16
 1492              		.thumb_func
 1493              		.type	Chip_SSP_Init, %function
 1494              	Chip_SSP_Init:
 1495              	.LFB215:
 481:../../lpc11cx4-library/lpc_chip_11cxx_lib/src/ssp_11xx.c **** 
 482:../../lpc11cx4-library/lpc_chip_11cxx_lib/src/ssp_11xx.c **** /* Initialize the SSP */
 483:../../lpc11cx4-library/lpc_chip_11cxx_lib/src/ssp_11xx.c **** void Chip_SSP_Init(LPC_SSP_T *pSSP)
 484:../../lpc11cx4-library/lpc_chip_11cxx_lib/src/ssp_11xx.c **** {
 1496              		.loc 1 484 0
 1497              		.cfi_startproc
 1498              	.LVL168:
 1499              	.LBB372:
 1500              	.LBB373:
 109:../../lpc11cx4-library/lpc_chip_11cxx_lib/src/ssp_11xx.c **** 	if (pSSP == LPC_SSP0) {
 1501              		.loc 1 109 0
 1502 0000 1749     		ldr	r1, .L185	@ tmp161,
 1503              	.LBE373:
 1504              	.LBE372:
 1505              		.loc 1 484 0
 1506 0002 70B5     		push	{r4, r5, r6, lr}	@
 1507              		.cfi_def_cfa_offset 16
 1508              		.cfi_offset 4, -16
 1509              		.cfi_offset 5, -12
 1510              		.cfi_offset 6, -8
 1511              		.cfi_offset 14, -4
 1512              	.LBB375:
 1513              	.LBB374:
 114:../../lpc11cx4-library/lpc_chip_11cxx_lib/src/ssp_11xx.c **** 		clkSSP = SYSCTL_CLOCK_SSP1;
 1514              		.loc 1 114 0
 1515 0004 1224     		mov	r4, #18	@ clkSSP,
 109:../../lpc11cx4-library/lpc_chip_11cxx_lib/src/ssp_11xx.c **** 	if (pSSP == LPC_SSP0) {
 1516              		.loc 1 109 0
 1517 0006 8842     		cmp	r0, r1	@ pSSP, tmp161
 1518 0008 00D1     		bne	.L181	@,
 110:../../lpc11cx4-library/lpc_chip_11cxx_lib/src/ssp_11xx.c **** 		clkSSP = SYSCTL_CLOCK_SSP0;
 1519              		.loc 1 110 0
 1520 000a 0B24     		mov	r4, #11	@ clkSSP,
 1521              	.L181:
 1522              	.LVL169:
 1523              	.LBE374:
 1524              	.LBE375:
 1525              	.LBB376:
 1526              	.LBB377:
 297:../../lpc11cx4-library/lpc_chip_11cxx_lib/inc/clock_11xx.h **** 	LPC_SYSCTL->SYSAHBCLKCTRL |= (1 << clk);
 1527              		.loc 3 297 0
 1528 000c 154B     		ldr	r3, .L185+4	@ tmp134,
 1529 000e 0122     		mov	r2, #1	@ tmp136,
 1530 0010 161C     		mov	r6, r2	@, tmp136
 1531 0012 DD6F     		ldr	r5, [r3, #124]	@ D.6872, MEM[(struct LPC_SYSCTL_T *)1074036736B].SYSAHBCLKCTRL
 1532 0014 A640     		lsl	r6, r6, r4	@,, clkSSP
 1533 0016 341C     		mov	r4, r6	@ D.6873,
 1534 0018 2C43     		orr	r4, r5	@ D.6872, D.6872
 1535 001a DC67     		str	r4, [r3, #124]	@ D.6872, MEM[(struct LPC_SYSCTL_T *)1074036736B].SYSAHBCLKCTRL
 1536              	.LVL170:
ARM GAS  /var/folders/f9/8bk2lnw15zn4cbgn6wrnb4lm0000gn/T//ccdAmBzx.s 			page 52


 1537 001c 124B     		ldr	r3, .L185+8	@ tmp162,
 1538              	.LBE377:
 1539              	.LBE376:
 1540              	.LBB378:
 1541              	.LBB379:
 139:../../lpc11cx4-library/lpc_chip_11cxx_lib/src/ssp_11xx.c **** 	if (pSSP == LPC_SSP0) {
 1542              		.loc 1 139 0
 1543 001e 8842     		cmp	r0, r1	@ pSSP, tmp161
 1544 0020 03D1     		bne	.L182	@,
 1545              	.LVL171:
 1546              	.LBB380:
 1547              	.LBB381:
 319:../../lpc11cx4-library/lpc_chip_11cxx_lib/inc/clock_11xx.h **** 	LPC_SYSCTL->SSP0CLKDIV  = div;
 1548              		.loc 3 319 0
 1549 0022 1249     		ldr	r1, .L185+12	@ tmp143,
 1550 0024 0A60     		str	r2, [r1]	@ tmp136, MEM[(struct LPC_SYSCTL_T *)1074036736B].SSP0CLKDIV
 1551              	.LVL172:
 1552              	.LBE381:
 1553              	.LBE380:
 1554              	.LBE379:
 1555              	.LBE378:
 1556              	.LBB385:
 1557              	.LBB386:
 127:../../lpc11cx4-library/lpc_chip_11cxx_lib/src/ssp_11xx.c **** 		resetSSP = RESET_SSP0;
 1558              		.loc 1 127 0
 1559 0026 0022     		mov	r2, #0	@ resetSSP,
 1560 0028 02E0     		b	.L183	@
 1561              	.LVL173:
 1562              	.L182:
 1563              	.LBE386:
 1564              	.LBE385:
 1565              	.LBB388:
 1566              	.LBB384:
 1567              	.LBB382:
 1568              	.LBB383:
 364:../../lpc11cx4-library/lpc_chip_11cxx_lib/inc/clock_11xx.h **** 	LPC_SYSCTL->SSP1CLKDIV  = div;
 1569              		.loc 3 364 0
 1570 002a 1149     		ldr	r1, .L185+16	@ tmp148,
 1571 002c 0A60     		str	r2, [r1]	@ tmp136, MEM[(struct LPC_SYSCTL_T *)1074036736B].SSP1CLKDIV
 1572              	.LVL174:
 1573              	.LBE383:
 1574              	.LBE382:
 1575              	.LBE384:
 1576              	.LBE388:
 1577              	.LBB389:
 1578              	.LBB387:
 130:../../lpc11cx4-library/lpc_chip_11cxx_lib/src/ssp_11xx.c **** 		resetSSP = RESET_SSP1;
 1579              		.loc 1 130 0
 1580 002e 0222     		mov	r2, #2	@ resetSSP,
 1581              	.LVL175:
 1582              	.L183:
 1583              	.LBE387:
 1584              	.LBE389:
 1585              	.LBB390:
 1586              	.LBB391:
 1587              	.LBB392:
 1588              		.file 4 "../../lpc11cx4-library/lpc_chip_11cxx_lib/inc/sysctl_11xx.h"
ARM GAS  /var/folders/f9/8bk2lnw15zn4cbgn6wrnb4lm0000gn/T//ccdAmBzx.s 			page 53


   1:../../lpc11cx4-library/lpc_chip_11cxx_lib/inc/sysctl_11xx.h **** /*
   2:../../lpc11cx4-library/lpc_chip_11cxx_lib/inc/sysctl_11xx.h ****  * @brief LPC11XX System Control registers and control functions
   3:../../lpc11cx4-library/lpc_chip_11cxx_lib/inc/sysctl_11xx.h ****  *
   4:../../lpc11cx4-library/lpc_chip_11cxx_lib/inc/sysctl_11xx.h ****  * @note
   5:../../lpc11cx4-library/lpc_chip_11cxx_lib/inc/sysctl_11xx.h ****  * Copyright(C) NXP Semiconductors, 2012
   6:../../lpc11cx4-library/lpc_chip_11cxx_lib/inc/sysctl_11xx.h ****  * All rights reserved.
   7:../../lpc11cx4-library/lpc_chip_11cxx_lib/inc/sysctl_11xx.h ****  *
   8:../../lpc11cx4-library/lpc_chip_11cxx_lib/inc/sysctl_11xx.h ****  * @par
   9:../../lpc11cx4-library/lpc_chip_11cxx_lib/inc/sysctl_11xx.h ****  * Software that is described herein is for illustrative purposes only
  10:../../lpc11cx4-library/lpc_chip_11cxx_lib/inc/sysctl_11xx.h ****  * which provides customers with programming information regarding the
  11:../../lpc11cx4-library/lpc_chip_11cxx_lib/inc/sysctl_11xx.h ****  * LPC products.  This software is supplied "AS IS" without any warranties of
  12:../../lpc11cx4-library/lpc_chip_11cxx_lib/inc/sysctl_11xx.h ****  * any kind, and NXP Semiconductors and its licensor disclaim any and
  13:../../lpc11cx4-library/lpc_chip_11cxx_lib/inc/sysctl_11xx.h ****  * all warranties, express or implied, including all implied warranties of
  14:../../lpc11cx4-library/lpc_chip_11cxx_lib/inc/sysctl_11xx.h ****  * merchantability, fitness for a particular purpose and non-infringement of
  15:../../lpc11cx4-library/lpc_chip_11cxx_lib/inc/sysctl_11xx.h ****  * intellectual property rights.  NXP Semiconductors assumes no responsibility
  16:../../lpc11cx4-library/lpc_chip_11cxx_lib/inc/sysctl_11xx.h ****  * or liability for the use of the software, conveys no license or rights under any
  17:../../lpc11cx4-library/lpc_chip_11cxx_lib/inc/sysctl_11xx.h ****  * patent, copyright, mask work right, or any other intellectual property rights in
  18:../../lpc11cx4-library/lpc_chip_11cxx_lib/inc/sysctl_11xx.h ****  * or to any products. NXP Semiconductors reserves the right to make changes
  19:../../lpc11cx4-library/lpc_chip_11cxx_lib/inc/sysctl_11xx.h ****  * in the software without notification. NXP Semiconductors also makes no
  20:../../lpc11cx4-library/lpc_chip_11cxx_lib/inc/sysctl_11xx.h ****  * representation or warranty that such application will be suitable for the
  21:../../lpc11cx4-library/lpc_chip_11cxx_lib/inc/sysctl_11xx.h ****  * specified use without further testing or modification.
  22:../../lpc11cx4-library/lpc_chip_11cxx_lib/inc/sysctl_11xx.h ****  *
  23:../../lpc11cx4-library/lpc_chip_11cxx_lib/inc/sysctl_11xx.h ****  * @par
  24:../../lpc11cx4-library/lpc_chip_11cxx_lib/inc/sysctl_11xx.h ****  * Permission to use, copy, modify, and distribute this software and its
  25:../../lpc11cx4-library/lpc_chip_11cxx_lib/inc/sysctl_11xx.h ****  * documentation is hereby granted, under NXP Semiconductors' and its
  26:../../lpc11cx4-library/lpc_chip_11cxx_lib/inc/sysctl_11xx.h ****  * licensor's relevant copyrights in the software, without fee, provided that it
  27:../../lpc11cx4-library/lpc_chip_11cxx_lib/inc/sysctl_11xx.h ****  * is used in conjunction with NXP Semiconductors microcontrollers.  This
  28:../../lpc11cx4-library/lpc_chip_11cxx_lib/inc/sysctl_11xx.h ****  * copyright, permission, and disclaimer notice must appear in all copies of
  29:../../lpc11cx4-library/lpc_chip_11cxx_lib/inc/sysctl_11xx.h ****  * this code.
  30:../../lpc11cx4-library/lpc_chip_11cxx_lib/inc/sysctl_11xx.h ****  */
  31:../../lpc11cx4-library/lpc_chip_11cxx_lib/inc/sysctl_11xx.h **** 
  32:../../lpc11cx4-library/lpc_chip_11cxx_lib/inc/sysctl_11xx.h **** #ifndef __SYSCTL_11XX_H_
  33:../../lpc11cx4-library/lpc_chip_11cxx_lib/inc/sysctl_11xx.h **** #define __SYSCTL_11XX_H_
  34:../../lpc11cx4-library/lpc_chip_11cxx_lib/inc/sysctl_11xx.h **** 
  35:../../lpc11cx4-library/lpc_chip_11cxx_lib/inc/sysctl_11xx.h **** #ifdef __cplusplus
  36:../../lpc11cx4-library/lpc_chip_11cxx_lib/inc/sysctl_11xx.h **** extern "C" {
  37:../../lpc11cx4-library/lpc_chip_11cxx_lib/inc/sysctl_11xx.h **** #endif
  38:../../lpc11cx4-library/lpc_chip_11cxx_lib/inc/sysctl_11xx.h **** 
  39:../../lpc11cx4-library/lpc_chip_11cxx_lib/inc/sysctl_11xx.h **** /** @defgroup SYSCTL_11XX CHIP: LPC11xx System Control block driver
  40:../../lpc11cx4-library/lpc_chip_11cxx_lib/inc/sysctl_11xx.h ****  * @ingroup CHIP_11XX_Drivers
  41:../../lpc11cx4-library/lpc_chip_11cxx_lib/inc/sysctl_11xx.h ****  * @{
  42:../../lpc11cx4-library/lpc_chip_11cxx_lib/inc/sysctl_11xx.h ****  */
  43:../../lpc11cx4-library/lpc_chip_11cxx_lib/inc/sysctl_11xx.h **** 
  44:../../lpc11cx4-library/lpc_chip_11cxx_lib/inc/sysctl_11xx.h **** /**
  45:../../lpc11cx4-library/lpc_chip_11cxx_lib/inc/sysctl_11xx.h ****  * @brief LPC11XX System Control block structure
  46:../../lpc11cx4-library/lpc_chip_11cxx_lib/inc/sysctl_11xx.h ****  */
  47:../../lpc11cx4-library/lpc_chip_11cxx_lib/inc/sysctl_11xx.h **** typedef struct {			/*!< SYSCTL Structure */
  48:../../lpc11cx4-library/lpc_chip_11cxx_lib/inc/sysctl_11xx.h **** 	__IO uint32_t  SYSMEMREMAP;		/*!< System Memory remap register */
  49:../../lpc11cx4-library/lpc_chip_11cxx_lib/inc/sysctl_11xx.h **** 	__IO uint32_t  PRESETCTRL;		/*!< Peripheral reset Control register */
  50:../../lpc11cx4-library/lpc_chip_11cxx_lib/inc/sysctl_11xx.h **** 	__IO uint32_t  SYSPLLCTRL;		/*!< System PLL control register */
  51:../../lpc11cx4-library/lpc_chip_11cxx_lib/inc/sysctl_11xx.h **** 	__I  uint32_t  SYSPLLSTAT;		/*!< System PLL status register */
  52:../../lpc11cx4-library/lpc_chip_11cxx_lib/inc/sysctl_11xx.h **** 	__IO uint32_t  USBPLLCTRL;		/*!< USB PLL control register, LPC11UXX only*/
  53:../../lpc11cx4-library/lpc_chip_11cxx_lib/inc/sysctl_11xx.h **** 	__I  uint32_t  USBPLLSTAT;		/*!< USB PLL status register, LPC11UXX only */
  54:../../lpc11cx4-library/lpc_chip_11cxx_lib/inc/sysctl_11xx.h **** 	__I  uint32_t  RESERVED1[2];
  55:../../lpc11cx4-library/lpc_chip_11cxx_lib/inc/sysctl_11xx.h **** 	__IO uint32_t  SYSOSCCTRL;		/*!< System Oscillator control register */
  56:../../lpc11cx4-library/lpc_chip_11cxx_lib/inc/sysctl_11xx.h **** 	__IO uint32_t  WDTOSCCTRL;		/*!< Watchdog Oscillator control register */
  57:../../lpc11cx4-library/lpc_chip_11cxx_lib/inc/sysctl_11xx.h **** 	__IO uint32_t  IRCCTRL;			/*!< IRC control register, not on LPC11UXX and LPC11EXX */
ARM GAS  /var/folders/f9/8bk2lnw15zn4cbgn6wrnb4lm0000gn/T//ccdAmBzx.s 			page 54


  58:../../lpc11cx4-library/lpc_chip_11cxx_lib/inc/sysctl_11xx.h **** 	__IO uint32_t  LFOSCCTRL;		/*!< LF oscillator control, LPC11AXX only */
  59:../../lpc11cx4-library/lpc_chip_11cxx_lib/inc/sysctl_11xx.h **** 	__IO uint32_t  SYSRSTSTAT;		/*!< System Reset Status register           */
  60:../../lpc11cx4-library/lpc_chip_11cxx_lib/inc/sysctl_11xx.h **** 	__I  uint32_t  RESERVED2[3];
  61:../../lpc11cx4-library/lpc_chip_11cxx_lib/inc/sysctl_11xx.h **** 	__IO uint32_t  SYSPLLCLKSEL;	/*!< System PLL clock source select register */
  62:../../lpc11cx4-library/lpc_chip_11cxx_lib/inc/sysctl_11xx.h **** 	__IO uint32_t  SYSPLLCLKUEN;	/*!< System PLL clock source update enable register*/
  63:../../lpc11cx4-library/lpc_chip_11cxx_lib/inc/sysctl_11xx.h **** 	__IO uint32_t  USBPLLCLKSEL;	/*!< USB PLL clock source select register, LPC11UXX only */
  64:../../lpc11cx4-library/lpc_chip_11cxx_lib/inc/sysctl_11xx.h **** 	__IO uint32_t  USBPLLCLKUEN;	/*!< USB PLL clock source update enable register, LPC11UXX only */
  65:../../lpc11cx4-library/lpc_chip_11cxx_lib/inc/sysctl_11xx.h **** 	__I  uint32_t  RESERVED3[8];
  66:../../lpc11cx4-library/lpc_chip_11cxx_lib/inc/sysctl_11xx.h **** 	__IO uint32_t  MAINCLKSEL;	/*!< Main clock source select register		*/
  67:../../lpc11cx4-library/lpc_chip_11cxx_lib/inc/sysctl_11xx.h **** 	__IO uint32_t  MAINCLKUEN;	/*!< Main clock source update enable register	*/
  68:../../lpc11cx4-library/lpc_chip_11cxx_lib/inc/sysctl_11xx.h **** 	__IO uint32_t  SYSAHBCLKDIV;	/*!< System Clock divider register */
  69:../../lpc11cx4-library/lpc_chip_11cxx_lib/inc/sysctl_11xx.h **** 	__I  uint32_t  RESERVED4;
  70:../../lpc11cx4-library/lpc_chip_11cxx_lib/inc/sysctl_11xx.h **** 	__IO uint32_t  SYSAHBCLKCTRL;	/*!< System clock control register */
  71:../../lpc11cx4-library/lpc_chip_11cxx_lib/inc/sysctl_11xx.h **** 	__I  uint32_t  RESERVED5[4];
  72:../../lpc11cx4-library/lpc_chip_11cxx_lib/inc/sysctl_11xx.h **** 	__IO uint32_t  SSP0CLKDIV;	/*!< SSP0 clock divider register   */
  73:../../lpc11cx4-library/lpc_chip_11cxx_lib/inc/sysctl_11xx.h **** 	__IO uint32_t  USARTCLKDIV;	/*!< UART clock divider register   */
  74:../../lpc11cx4-library/lpc_chip_11cxx_lib/inc/sysctl_11xx.h **** 	__IO uint32_t  SSP1CLKDIV;	/*!< SSP1 clock divider register, not on CHIP_LPC110X, CHIP_LPC11XXLV *
  75:../../lpc11cx4-library/lpc_chip_11cxx_lib/inc/sysctl_11xx.h **** 	__I  uint32_t  RESERVED6[8];
  76:../../lpc11cx4-library/lpc_chip_11cxx_lib/inc/sysctl_11xx.h **** 	__IO uint32_t  USBCLKSEL;	/*!< USB clock source select register, LPC11UXX only */
  77:../../lpc11cx4-library/lpc_chip_11cxx_lib/inc/sysctl_11xx.h **** 	__IO uint32_t  USBCLKUEN;	/*!< USB clock source update enable register, LPC11UXX only */
  78:../../lpc11cx4-library/lpc_chip_11cxx_lib/inc/sysctl_11xx.h **** 	__IO uint32_t  USBCLKDIV;	/*!< USB clock source divider register, LPC11UXX only */
  79:../../lpc11cx4-library/lpc_chip_11cxx_lib/inc/sysctl_11xx.h **** 	__I  uint32_t  RESERVED7;
  80:../../lpc11cx4-library/lpc_chip_11cxx_lib/inc/sysctl_11xx.h **** 	__IO uint32_t  WDTCLKSEL;	/*!< WDT clock source select register, some parts only */
  81:../../lpc11cx4-library/lpc_chip_11cxx_lib/inc/sysctl_11xx.h **** 	__IO uint32_t  WDTCLKUEN;	/*!< WDT clock source update enable register, some parts only */
  82:../../lpc11cx4-library/lpc_chip_11cxx_lib/inc/sysctl_11xx.h **** 	__IO uint32_t  WDTCLKDIV;	/*!< WDT clock divider register, some parts only */
  83:../../lpc11cx4-library/lpc_chip_11cxx_lib/inc/sysctl_11xx.h **** 	__I  uint32_t  RESERVED8;
  84:../../lpc11cx4-library/lpc_chip_11cxx_lib/inc/sysctl_11xx.h **** 	__IO uint32_t  CLKOUTSEL;	/*!< Clock out source select register, not on LPC1102/04 */
  85:../../lpc11cx4-library/lpc_chip_11cxx_lib/inc/sysctl_11xx.h **** 	__IO uint32_t  CLKOUTUEN;	/*!< Clock out source update enable register, not on LPC1102/04 */
  86:../../lpc11cx4-library/lpc_chip_11cxx_lib/inc/sysctl_11xx.h **** 	__IO uint32_t  CLKOUTDIV;	/*!< Clock out divider register, not on LPC1102/04 */
  87:../../lpc11cx4-library/lpc_chip_11cxx_lib/inc/sysctl_11xx.h **** 	__I  uint32_t  RESERVED9[5];
  88:../../lpc11cx4-library/lpc_chip_11cxx_lib/inc/sysctl_11xx.h **** 	__I  uint32_t  PIOPORCAP[2];/*!< POR captured PIO status registers, index 1 on LPC1102/04 */
  89:../../lpc11cx4-library/lpc_chip_11cxx_lib/inc/sysctl_11xx.h **** 	__I  uint32_t  RESERVED10[18];
  90:../../lpc11cx4-library/lpc_chip_11cxx_lib/inc/sysctl_11xx.h **** 	__IO uint32_t  BODCTRL;		/*!< Brown Out Detect register */
  91:../../lpc11cx4-library/lpc_chip_11cxx_lib/inc/sysctl_11xx.h **** 	__IO uint32_t  SYSTCKCAL;	/*!< System tick counter calibration register */
  92:../../lpc11cx4-library/lpc_chip_11cxx_lib/inc/sysctl_11xx.h **** 	__I  uint32_t  RESERVED11[6];
  93:../../lpc11cx4-library/lpc_chip_11cxx_lib/inc/sysctl_11xx.h **** 	__IO uint32_t  IRQLATENCY;	/*!< IRQ delay register, on LPC11UXX and LPC11EXX only */
  94:../../lpc11cx4-library/lpc_chip_11cxx_lib/inc/sysctl_11xx.h **** 	__IO uint32_t  NMISRC;		/*!< NMI source control register,some parts only */
  95:../../lpc11cx4-library/lpc_chip_11cxx_lib/inc/sysctl_11xx.h **** 	__IO uint32_t  PINTSEL[8];	/*!< GPIO pin interrupt select register 0-7, not on CHIP_LPC110X, CHIP_
  96:../../lpc11cx4-library/lpc_chip_11cxx_lib/inc/sysctl_11xx.h **** 	__IO uint32_t  USBCLKCTRL;	/*!< USB clock control register, LPC11UXX only */
  97:../../lpc11cx4-library/lpc_chip_11cxx_lib/inc/sysctl_11xx.h **** 	__I  uint32_t  USBCLKST;	/*!< USB clock status register, LPC11UXX only */
  98:../../lpc11cx4-library/lpc_chip_11cxx_lib/inc/sysctl_11xx.h **** 	__I  uint32_t  RESERVED12[24];
  99:../../lpc11cx4-library/lpc_chip_11cxx_lib/inc/sysctl_11xx.h **** 	__IO uint32_t  STARTAPRP0;	/*!< Start loigc 0 interrupt wake up enable register 0, on CHIP_LPC110X
 100:../../lpc11cx4-library/lpc_chip_11cxx_lib/inc/sysctl_11xx.h **** 	__IO uint32_t  STARTERP0;	/*!< Start loigc signal enable register 0, not on LPC11AXX */
 101:../../lpc11cx4-library/lpc_chip_11cxx_lib/inc/sysctl_11xx.h **** 	__IO uint32_t  STARTRSRP0CLR;	/*!< Start loigc reset register 0, on CHIP_LPC110X, CHIP_LPC11XXLV, 
 102:../../lpc11cx4-library/lpc_chip_11cxx_lib/inc/sysctl_11xx.h **** 	__IO uint32_t  STARTSRP0;		/*!< Start loigc status register 0, on CHIP_LPC110X, CHIP_LPC11XXLV, CH
 103:../../lpc11cx4-library/lpc_chip_11cxx_lib/inc/sysctl_11xx.h **** 	__I  uint32_t  RESERVED13;
 104:../../lpc11cx4-library/lpc_chip_11cxx_lib/inc/sysctl_11xx.h **** 	__IO uint32_t  STARTERP1;	/*!< Start logic 1 interrupt wake up enable register 1, on LPC11UXX and 
 105:../../lpc11cx4-library/lpc_chip_11cxx_lib/inc/sysctl_11xx.h **** 	__I  uint32_t  RESERVED14[6];
 106:../../lpc11cx4-library/lpc_chip_11cxx_lib/inc/sysctl_11xx.h **** 	__IO uint32_t  PDSLEEPCFG;	/*!< Power down states in deep sleep mode register, not on LPC11AXX */
 107:../../lpc11cx4-library/lpc_chip_11cxx_lib/inc/sysctl_11xx.h **** 	__IO uint32_t  PDWAKECFG;	/*!< Power down states in wake up from deep sleep register, not on LPC11
 108:../../lpc11cx4-library/lpc_chip_11cxx_lib/inc/sysctl_11xx.h **** 	__IO uint32_t  PDRUNCFG;	/*!< Power configuration register*/
 109:../../lpc11cx4-library/lpc_chip_11cxx_lib/inc/sysctl_11xx.h **** 	__I  uint32_t  RESERVED15[110];
 110:../../lpc11cx4-library/lpc_chip_11cxx_lib/inc/sysctl_11xx.h **** 	__I  uint32_t  DEVICEID;	/*!< Device ID register */
 111:../../lpc11cx4-library/lpc_chip_11cxx_lib/inc/sysctl_11xx.h **** } LPC_SYSCTL_T;
 112:../../lpc11cx4-library/lpc_chip_11cxx_lib/inc/sysctl_11xx.h **** 
 113:../../lpc11cx4-library/lpc_chip_11cxx_lib/inc/sysctl_11xx.h **** /**
 114:../../lpc11cx4-library/lpc_chip_11cxx_lib/inc/sysctl_11xx.h ****  * System memory remap modes used to remap interrupt vectors
ARM GAS  /var/folders/f9/8bk2lnw15zn4cbgn6wrnb4lm0000gn/T//ccdAmBzx.s 			page 55


 115:../../lpc11cx4-library/lpc_chip_11cxx_lib/inc/sysctl_11xx.h ****  */
 116:../../lpc11cx4-library/lpc_chip_11cxx_lib/inc/sysctl_11xx.h **** typedef enum CHIP_SYSCTL_BOOT_MODE_REMAP {
 117:../../lpc11cx4-library/lpc_chip_11cxx_lib/inc/sysctl_11xx.h **** 	REMAP_BOOT_LOADER_MODE,	/*!< Interrupt vectors are re-mapped to Boot ROM */
 118:../../lpc11cx4-library/lpc_chip_11cxx_lib/inc/sysctl_11xx.h **** 	REMAP_USER_RAM_MODE,	/*!< Interrupt vectors are re-mapped to Static RAM */
 119:../../lpc11cx4-library/lpc_chip_11cxx_lib/inc/sysctl_11xx.h **** 	REMAP_USER_FLASH_MODE	/*!< Interrupt vectors are not re-mapped and reside in Flash */
 120:../../lpc11cx4-library/lpc_chip_11cxx_lib/inc/sysctl_11xx.h **** } CHIP_SYSCTL_BOOT_MODE_REMAP_T;
 121:../../lpc11cx4-library/lpc_chip_11cxx_lib/inc/sysctl_11xx.h **** 
 122:../../lpc11cx4-library/lpc_chip_11cxx_lib/inc/sysctl_11xx.h **** /**
 123:../../lpc11cx4-library/lpc_chip_11cxx_lib/inc/sysctl_11xx.h ****  * @brief	Re-map interrupt vectors
 124:../../lpc11cx4-library/lpc_chip_11cxx_lib/inc/sysctl_11xx.h ****  * @param	remap	: system memory map value
 125:../../lpc11cx4-library/lpc_chip_11cxx_lib/inc/sysctl_11xx.h ****  * @return	Nothing
 126:../../lpc11cx4-library/lpc_chip_11cxx_lib/inc/sysctl_11xx.h ****  */
 127:../../lpc11cx4-library/lpc_chip_11cxx_lib/inc/sysctl_11xx.h **** STATIC INLINE void Chip_SYSCTL_Map(CHIP_SYSCTL_BOOT_MODE_REMAP_T remap)
 128:../../lpc11cx4-library/lpc_chip_11cxx_lib/inc/sysctl_11xx.h **** {
 129:../../lpc11cx4-library/lpc_chip_11cxx_lib/inc/sysctl_11xx.h **** 	LPC_SYSCTL->SYSMEMREMAP = (uint32_t) remap;
 130:../../lpc11cx4-library/lpc_chip_11cxx_lib/inc/sysctl_11xx.h **** }
 131:../../lpc11cx4-library/lpc_chip_11cxx_lib/inc/sysctl_11xx.h **** 
 132:../../lpc11cx4-library/lpc_chip_11cxx_lib/inc/sysctl_11xx.h **** /**
 133:../../lpc11cx4-library/lpc_chip_11cxx_lib/inc/sysctl_11xx.h ****  * Peripheral reset identifiers, not available on all devices
 134:../../lpc11cx4-library/lpc_chip_11cxx_lib/inc/sysctl_11xx.h ****  */
 135:../../lpc11cx4-library/lpc_chip_11cxx_lib/inc/sysctl_11xx.h **** typedef enum {
 136:../../lpc11cx4-library/lpc_chip_11cxx_lib/inc/sysctl_11xx.h **** 	RESET_SSP0,			/*!< SSP0 reset control */
 137:../../lpc11cx4-library/lpc_chip_11cxx_lib/inc/sysctl_11xx.h **** 	RESET_I2C0,			/*!< I2C0 reset control */
 138:../../lpc11cx4-library/lpc_chip_11cxx_lib/inc/sysctl_11xx.h **** 	RESET_SSP1,			/*!< SSP1 reset control */
 139:../../lpc11cx4-library/lpc_chip_11cxx_lib/inc/sysctl_11xx.h **** #if !defined(CHIP_LPC1125)
 140:../../lpc11cx4-library/lpc_chip_11cxx_lib/inc/sysctl_11xx.h **** 	RESET_CAN0,			/*!< CAN0 reset control */
 141:../../lpc11cx4-library/lpc_chip_11cxx_lib/inc/sysctl_11xx.h **** 	RESET_UART0,		/*!< UART0 reset control */
 142:../../lpc11cx4-library/lpc_chip_11cxx_lib/inc/sysctl_11xx.h **** 	RESET_TIMER0_16,	/*!< 16-bit Timer 0 reset control */
 143:../../lpc11cx4-library/lpc_chip_11cxx_lib/inc/sysctl_11xx.h **** 	RESET_TIMER1_16,	/*!< 16-bit Timer 1 reset control */
 144:../../lpc11cx4-library/lpc_chip_11cxx_lib/inc/sysctl_11xx.h **** 	RESET_TIMER0_32,	/*!< 32-bit Timer 0 reset control */
 145:../../lpc11cx4-library/lpc_chip_11cxx_lib/inc/sysctl_11xx.h **** 	RESET_TIMER1_32,	/*!< 32-bit Timer 1 reset control */
 146:../../lpc11cx4-library/lpc_chip_11cxx_lib/inc/sysctl_11xx.h **** 	RESET_ACMP,			/*!< Analog comparator reset control */
 147:../../lpc11cx4-library/lpc_chip_11cxx_lib/inc/sysctl_11xx.h **** 	RESET_DAC0,			/*!< DAC reset control */
 148:../../lpc11cx4-library/lpc_chip_11cxx_lib/inc/sysctl_11xx.h **** 	RESET_ADC0			/*!< ADC reset control */
 149:../../lpc11cx4-library/lpc_chip_11cxx_lib/inc/sysctl_11xx.h **** #endif
 150:../../lpc11cx4-library/lpc_chip_11cxx_lib/inc/sysctl_11xx.h **** } CHIP_SYSCTL_PERIPH_RESET_T;
 151:../../lpc11cx4-library/lpc_chip_11cxx_lib/inc/sysctl_11xx.h **** 
 152:../../lpc11cx4-library/lpc_chip_11cxx_lib/inc/sysctl_11xx.h **** /**
 153:../../lpc11cx4-library/lpc_chip_11cxx_lib/inc/sysctl_11xx.h ****  * @brief	Assert reset for a peripheral
 154:../../lpc11cx4-library/lpc_chip_11cxx_lib/inc/sysctl_11xx.h ****  * @param	periph	: Peripheral to assert reset for
 155:../../lpc11cx4-library/lpc_chip_11cxx_lib/inc/sysctl_11xx.h ****  * @return	Nothing
 156:../../lpc11cx4-library/lpc_chip_11cxx_lib/inc/sysctl_11xx.h ****  * @note	The peripheral will stay in reset until reset is de-asserted. Call
 157:../../lpc11cx4-library/lpc_chip_11cxx_lib/inc/sysctl_11xx.h ****  * Chip_SYSCTL_DeassertPeriphReset() to de-assert the reset.
 158:../../lpc11cx4-library/lpc_chip_11cxx_lib/inc/sysctl_11xx.h ****  */
 159:../../lpc11cx4-library/lpc_chip_11cxx_lib/inc/sysctl_11xx.h **** STATIC INLINE void Chip_SYSCTL_AssertPeriphReset(CHIP_SYSCTL_PERIPH_RESET_T periph)
 160:../../lpc11cx4-library/lpc_chip_11cxx_lib/inc/sysctl_11xx.h **** {
 161:../../lpc11cx4-library/lpc_chip_11cxx_lib/inc/sysctl_11xx.h **** 	LPC_SYSCTL->PRESETCTRL &= ~(1 << (uint32_t) periph);
 1589              		.loc 4 161 0
 1590 0030 5968     		ldr	r1, [r3, #4]	@ D.6872, MEM[(struct LPC_SYSCTL_T *)1074036736B].PRESETCTRL
 1591 0032 0124     		mov	r4, #1	@ tmp151,
 1592 0034 9440     		lsl	r4, r4, r2	@ tmp151, tmp151, resetSSP
 1593 0036 A143     		bic	r1, r4	@ D.6872, D.6873
 1594 0038 5960     		str	r1, [r3, #4]	@ D.6872, MEM[(struct LPC_SYSCTL_T *)1074036736B].PRESETCTRL
 1595              	.LVL176:
 1596              	.LBE392:
 1597              	.LBE391:
 1598              	.LBB394:
ARM GAS  /var/folders/f9/8bk2lnw15zn4cbgn6wrnb4lm0000gn/T//ccdAmBzx.s 			page 56


 1599              	.LBB395:
 162:../../lpc11cx4-library/lpc_chip_11cxx_lib/inc/sysctl_11xx.h **** }
 163:../../lpc11cx4-library/lpc_chip_11cxx_lib/inc/sysctl_11xx.h **** 
 164:../../lpc11cx4-library/lpc_chip_11cxx_lib/inc/sysctl_11xx.h **** /**
 165:../../lpc11cx4-library/lpc_chip_11cxx_lib/inc/sysctl_11xx.h ****  * @brief	De-assert reset for a peripheral
 166:../../lpc11cx4-library/lpc_chip_11cxx_lib/inc/sysctl_11xx.h ****  * @param	periph	: Peripheral to de-assert reset for
 167:../../lpc11cx4-library/lpc_chip_11cxx_lib/inc/sysctl_11xx.h ****  * @return	Nothing
 168:../../lpc11cx4-library/lpc_chip_11cxx_lib/inc/sysctl_11xx.h ****  */
 169:../../lpc11cx4-library/lpc_chip_11cxx_lib/inc/sysctl_11xx.h **** STATIC INLINE void Chip_SYSCTL_DeassertPeriphReset(CHIP_SYSCTL_PERIPH_RESET_T periph)
 170:../../lpc11cx4-library/lpc_chip_11cxx_lib/inc/sysctl_11xx.h **** {
 171:../../lpc11cx4-library/lpc_chip_11cxx_lib/inc/sysctl_11xx.h **** 	LPC_SYSCTL->PRESETCTRL |= (1 << (uint32_t) periph);
 1600              		.loc 4 171 0
 1601 003a 5968     		ldr	r1, [r3, #4]	@ D.6872, MEM[(struct LPC_SYSCTL_T *)1074036736B].PRESETCTRL
 1602              	.LBE395:
 1603              	.LBE394:
 1604              	.LBB397:
 1605              	.LBB393:
 161:../../lpc11cx4-library/lpc_chip_11cxx_lib/inc/sysctl_11xx.h **** 	LPC_SYSCTL->PRESETCTRL &= ~(1 << (uint32_t) periph);
 1606              		.loc 4 161 0
 1607 003c 221C     		mov	r2, r4	@ D.6873, tmp151
 1608              	.LBE393:
 1609              	.LBE397:
 1610              	.LBB398:
 1611              	.LBB396:
 1612              		.loc 4 171 0
 1613 003e 0A43     		orr	r2, r1	@ D.6872, D.6872
 1614 0040 5A60     		str	r2, [r3, #4]	@ D.6872, MEM[(struct LPC_SYSCTL_T *)1074036736B].PRESETCTRL
 1615              	.LVL177:
 1616              	.LBE396:
 1617              	.LBE398:
 1618              	.LBE390:
 1619              	.LBB399:
 1620              	.LBB400:
 1621              		.loc 2 421 0
 1622 0042 4368     		ldr	r3, [r0, #4]	@ D.6872, pSSP_1(D)->CR1
 1623 0044 0422     		mov	r2, #4	@ tmp156,
 1624 0046 9343     		bic	r3, r2	@ D.6872, tmp156
 1625 0048 4360     		str	r3, [r0, #4]	@ D.6872, pSSP_1(D)->CR1
 1626              	.LVL178:
 1627              	.LBE400:
 1628              	.LBE399:
 1629              	.LBB401:
 1630              	.LBB402:
 408:../../lpc11cx4-library/lpc_chip_11cxx_lib/inc/ssp_11xx.h **** 	pSSP->CR0 = (pSSP->CR0 & ~0xFF) | bits | frameFormat | clockMode;
 1631              		.loc 2 408 0
 1632 004a 0368     		ldr	r3, [r0]	@ D.6872, pSSP_1(D)->CR0
 1633 004c FF22     		mov	r2, #255	@ tmp158,
 1634 004e 9343     		bic	r3, r2	@ D.6872, tmp158
 1635 0050 0722     		mov	r2, #7	@ tmp159,
 1636 0052 1343     		orr	r3, r2	@ D.6872, tmp159
 1637 0054 0360     		str	r3, [r0]	@ D.6872, pSSP_1(D)->CR0
 1638              	.LBE402:
 1639              	.LBE401:
 485:../../lpc11cx4-library/lpc_chip_11cxx_lib/src/ssp_11xx.c **** 	Chip_Clock_EnablePeriphClock(Chip_SSP_GetClockIndex(pSSP));
 486:../../lpc11cx4-library/lpc_chip_11cxx_lib/src/ssp_11xx.c **** 	Chip_SSP_SetSSPClkDivider(pSSP, 1);
 487:../../lpc11cx4-library/lpc_chip_11cxx_lib/src/ssp_11xx.c **** 	Chip_SYSCTL_PeriphReset(Chip_SSP_GetResetIndex(pSSP));
 488:../../lpc11cx4-library/lpc_chip_11cxx_lib/src/ssp_11xx.c **** 
ARM GAS  /var/folders/f9/8bk2lnw15zn4cbgn6wrnb4lm0000gn/T//ccdAmBzx.s 			page 57


 489:../../lpc11cx4-library/lpc_chip_11cxx_lib/src/ssp_11xx.c **** 	Chip_SSP_Set_Mode(pSSP, SSP_MODE_MASTER);
 490:../../lpc11cx4-library/lpc_chip_11cxx_lib/src/ssp_11xx.c **** 	Chip_SSP_SetFormat(pSSP, SSP_BITS_8, SSP_FRAMEFORMAT_SPI, SSP_CLOCK_CPHA0_CPOL0);
 491:../../lpc11cx4-library/lpc_chip_11cxx_lib/src/ssp_11xx.c **** 	Chip_SSP_SetBitRate(pSSP, 100000);
 1640              		.loc 1 491 0
 1641 0056 0749     		ldr	r1, .L185+20	@,
 1642 0058 FFF7FEFF 		bl	Chip_SSP_SetBitRate	@
 1643              	.LVL179:
 492:../../lpc11cx4-library/lpc_chip_11cxx_lib/src/ssp_11xx.c **** }
 1644              		.loc 1 492 0
 1645              		@ sp needed	@
 1646 005c 70BD     		pop	{r4, r5, r6, pc}
 1647              	.L186:
 1648 005e C046     		.align	2
 1649              	.L185:
 1650 0060 00000440 		.word	1074003968
 1651 0064 04800440 		.word	1074036740
 1652 0068 00800440 		.word	1074036736
 1653 006c 94800440 		.word	1074036884
 1654 0070 9C800440 		.word	1074036892
 1655 0074 A0860100 		.word	100000
 1656              		.cfi_endproc
 1657              	.LFE215:
 1658              		.size	Chip_SSP_Init, .-Chip_SSP_Init
 1659              		.section	.text.Chip_SSP_DeInit,"ax",%progbits
 1660              		.align	1
 1661              		.global	Chip_SSP_DeInit
 1662              		.code	16
 1663              		.thumb_func
 1664              		.type	Chip_SSP_DeInit, %function
 1665              	Chip_SSP_DeInit:
 1666              	.LFB216:
 493:../../lpc11cx4-library/lpc_chip_11cxx_lib/src/ssp_11xx.c **** 
 494:../../lpc11cx4-library/lpc_chip_11cxx_lib/src/ssp_11xx.c **** /* De-initializes the SSP peripheral */
 495:../../lpc11cx4-library/lpc_chip_11cxx_lib/src/ssp_11xx.c **** void Chip_SSP_DeInit(LPC_SSP_T *pSSP)
 496:../../lpc11cx4-library/lpc_chip_11cxx_lib/src/ssp_11xx.c **** {
 1667              		.loc 1 496 0
 1668              		.cfi_startproc
 1669              	.LVL180:
 1670              	.LBB415:
 1671              	.LBB416:
 244:../../lpc11cx4-library/lpc_chip_11cxx_lib/inc/ssp_11xx.h **** 	pSSP->CR1 &= (~SSP_CR1_SSP_EN) & SSP_CR1_BITMASK;
 1672              		.loc 2 244 0
 1673 0000 4268     		ldr	r2, [r0, #4]	@ D.6881, pSSP_2(D)->CR1
 1674 0002 0D23     		mov	r3, #13	@ tmp120,
 1675 0004 1340     		and	r3, r2	@ D.6881, D.6881
 1676              	.LBE416:
 1677              	.LBE415:
 1678              	.LBB418:
 1679              	.LBB419:
 109:../../lpc11cx4-library/lpc_chip_11cxx_lib/src/ssp_11xx.c **** 	if (pSSP == LPC_SSP0) {
 1680              		.loc 1 109 0
 1681 0006 0A4A     		ldr	r2, .L193	@ tmp140,
 1682              	.LBE419:
 1683              	.LBE418:
 1684              		.loc 1 496 0
 1685 0008 30B5     		push	{r4, r5, lr}	@
 1686              		.cfi_def_cfa_offset 12
ARM GAS  /var/folders/f9/8bk2lnw15zn4cbgn6wrnb4lm0000gn/T//ccdAmBzx.s 			page 58


 1687              		.cfi_offset 4, -12
 1688              		.cfi_offset 5, -8
 1689              		.cfi_offset 14, -4
 1690              	.LBB421:
 1691              	.LBB417:
 244:../../lpc11cx4-library/lpc_chip_11cxx_lib/inc/ssp_11xx.h **** 	pSSP->CR1 &= (~SSP_CR1_SSP_EN) & SSP_CR1_BITMASK;
 1692              		.loc 2 244 0
 1693 000a 4360     		str	r3, [r0, #4]	@ D.6881, pSSP_2(D)->CR1
 1694              	.LVL181:
 1695              	.LBE417:
 1696              	.LBE421:
 1697              	.LBB422:
 1698              	.LBB420:
 114:../../lpc11cx4-library/lpc_chip_11cxx_lib/src/ssp_11xx.c **** 		clkSSP = SYSCTL_CLOCK_SSP1;
 1699              		.loc 1 114 0
 1700 000c 1221     		mov	r1, #18	@ clkSSP,
 109:../../lpc11cx4-library/lpc_chip_11cxx_lib/src/ssp_11xx.c **** 	if (pSSP == LPC_SSP0) {
 1701              		.loc 1 109 0
 1702 000e 9042     		cmp	r0, r2	@ pSSP, tmp140
 1703 0010 00D1     		bne	.L188	@,
 110:../../lpc11cx4-library/lpc_chip_11cxx_lib/src/ssp_11xx.c **** 		clkSSP = SYSCTL_CLOCK_SSP0;
 1704              		.loc 1 110 0
 1705 0012 0B21     		mov	r1, #11	@ clkSSP,
 1706              	.L188:
 1707              	.LVL182:
 1708              	.LBE420:
 1709              	.LBE422:
 1710              	.LBB423:
 1711              	.LBB424:
 307:../../lpc11cx4-library/lpc_chip_11cxx_lib/inc/clock_11xx.h **** 	LPC_SYSCTL->SYSAHBCLKCTRL &= ~(1 << clk);
 1712              		.loc 3 307 0
 1713 0014 074B     		ldr	r3, .L193+4	@ tmp123,
 1714 0016 0125     		mov	r5, #1	@ tmp125,
 1715 0018 DC6F     		ldr	r4, [r3, #124]	@ D.6881, MEM[(struct LPC_SYSCTL_T *)1074036736B].SYSAHBCLKCTRL
 1716 001a 8D40     		lsl	r5, r5, r1	@ tmp125, tmp125, clkSSP
 1717 001c AC43     		bic	r4, r5	@ D.6881, D.6882
 1718 001e DC67     		str	r4, [r3, #124]	@ D.6881, MEM[(struct LPC_SYSCTL_T *)1074036736B].SYSAHBCLKCTRL
 1719              	.LVL183:
 1720 0020 0023     		mov	r3, #0	@ tmp141,
 1721              	.LBE424:
 1722              	.LBE423:
 1723              	.LBB425:
 1724              	.LBB426:
 139:../../lpc11cx4-library/lpc_chip_11cxx_lib/src/ssp_11xx.c **** 	if (pSSP == LPC_SSP0) {
 1725              		.loc 1 139 0
 1726 0022 9042     		cmp	r0, r2	@ pSSP, tmp140
 1727 0024 01D1     		bne	.L189	@,
 1728              	.LVL184:
 1729              	.LBB427:
 1730              	.LBB428:
 319:../../lpc11cx4-library/lpc_chip_11cxx_lib/inc/clock_11xx.h **** 	LPC_SYSCTL->SSP0CLKDIV  = div;
 1731              		.loc 3 319 0
 1732 0026 044A     		ldr	r2, .L193+8	@ tmp133,
 1733 0028 00E0     		b	.L192	@
 1734              	.LVL185:
 1735              	.L189:
 1736              	.LBE428:
ARM GAS  /var/folders/f9/8bk2lnw15zn4cbgn6wrnb4lm0000gn/T//ccdAmBzx.s 			page 59


 1737              	.LBE427:
 1738              	.LBB429:
 1739              	.LBB430:
 364:../../lpc11cx4-library/lpc_chip_11cxx_lib/inc/clock_11xx.h **** 	LPC_SYSCTL->SSP1CLKDIV  = div;
 1740              		.loc 3 364 0
 1741 002a 044A     		ldr	r2, .L193+12	@ tmp138,
 1742              	.LVL186:
 1743              	.L192:
 1744 002c 1360     		str	r3, [r2]	@ tmp141,
 1745              	.LBE430:
 1746              	.LBE429:
 1747              	.LBE426:
 1748              	.LBE425:
 497:../../lpc11cx4-library/lpc_chip_11cxx_lib/src/ssp_11xx.c **** 	Chip_SSP_Disable(pSSP);
 498:../../lpc11cx4-library/lpc_chip_11cxx_lib/src/ssp_11xx.c **** 
 499:../../lpc11cx4-library/lpc_chip_11cxx_lib/src/ssp_11xx.c **** 	Chip_Clock_DisablePeriphClock(Chip_SSP_GetClockIndex(pSSP));
 500:../../lpc11cx4-library/lpc_chip_11cxx_lib/src/ssp_11xx.c **** 	Chip_SSP_SetSSPClkDivider(pSSP, 0);
 501:../../lpc11cx4-library/lpc_chip_11cxx_lib/src/ssp_11xx.c **** }
 1749              		.loc 1 501 0
 1750              		@ sp needed	@
 1751 002e 30BD     		pop	{r4, r5, pc}
 1752              	.L194:
 1753              		.align	2
 1754              	.L193:
 1755 0030 00000440 		.word	1074003968
 1756 0034 04800440 		.word	1074036740
 1757 0038 94800440 		.word	1074036884
 1758 003c 9C800440 		.word	1074036892
 1759              		.cfi_endproc
 1760              	.LFE216:
 1761              		.size	Chip_SSP_DeInit, .-Chip_SSP_DeInit
 1762              		.text
 1763              	.Letext0:
 1764              		.file 5 "/usr/local/Cellar/gcc-arm-none-eabi/20140805/arm-none-eabi/include/machine/_default_types
 1765              		.file 6 "/usr/local/Cellar/gcc-arm-none-eabi/20140805/arm-none-eabi/include/stdint.h"
 1766              		.file 7 "../../lpc11cx4-library/lpc_chip_11cxx_lib/inc/lpc_types.h"
 1767              		.file 8 "../../lpc11cx4-library/lpc_chip_11cxx_lib/inc/chip.h"