ARM GAS  /tmp/ccSBomBp.s 			page 1


   1              		.cpu cortex-m0
   2              		.fpu softvfp
   3              		.eabi_attribute 20, 1	@ Tag_ABI_FP_denormal
   4              		.eabi_attribute 21, 1	@ Tag_ABI_FP_exceptions
   5              		.eabi_attribute 23, 3	@ Tag_ABI_FP_number_model
   6              		.eabi_attribute 24, 1	@ Tag_ABI_align8_needed
   7              		.eabi_attribute 25, 1	@ Tag_ABI_align8_preserved
   8              		.eabi_attribute 26, 1	@ Tag_ABI_enum_size
   9              		.eabi_attribute 30, 4	@ Tag_ABI_optimization_goals
  10              		.eabi_attribute 34, 0	@ Tag_CPU_unaligned_access
  11              		.eabi_attribute 18, 4	@ Tag_ABI_PCS_wchar_t
  12              		.file	"uart_11xx.c"
  13              	@ GNU C (GNU Tools for ARM Embedded Processors) version 4.9.3 20150529 (release) [ARM/embedded-4_9-
  14              	@	compiled by GNU C version 4.8.4, GMP version 5.1.3, MPFR version 3.1.2-p3, MPC version 1.0.1
  15              	@ GGC heuristics: --param ggc-min-expand=100 --param ggc-min-heapsize=131072
  16              	@ options passed:  -I . -I ../../lpc11cx4-library/lpc_chip_11cxx_lib/inc
  17              	@ -I ../../lpc11cx4-library/evt_lib/inc -I inc -imultilib armv6-m
  18              	@ -iprefix /usr/bin/../lib/gcc/arm-none-eabi/4.9.3/
  19              	@ -isysroot /usr/bin/../arm-none-eabi -MD bin/uart_11xx.d
  20              	@ -MF bin/uart_11xx.d -MP -MQ bin/uart_11xx.o -D__USES_INITFINI__
  21              	@ -D CORE_M0 ../../lpc11cx4-library/lpc_chip_11cxx_lib/src/uart_11xx.c
  22              	@ -mcpu=cortex-m0 -mthumb -auxbase-strip bin/uart_11xx.o -g -ggdb3 -Os
  23              	@ -Wall -Wstrict-prototypes -Wextra -std=gnu90 -ffunction-sections
  24              	@ -fdata-sections -fverbose-asm -fstack-usage
  25              	@ options enabled:  -faggressive-loop-optimizations -fauto-inc-dec
  26              	@ -fbranch-count-reg -fcaller-saves -fcombine-stack-adjustments -fcommon
  27              	@ -fcompare-elim -fcprop-registers -fcrossjumping -fcse-follow-jumps
  28              	@ -fdata-sections -fdefer-pop -fdelete-null-pointer-checks -fdevirtualize
  29              	@ -fdevirtualize-speculatively -fdwarf2-cfi-asm -fearly-inlining
  30              	@ -feliminate-unused-debug-types -fexpensive-optimizations
  31              	@ -fforward-propagate -ffunction-cse -ffunction-sections -fgcse -fgcse-lm
  32              	@ -fgnu-runtime -fgnu-unique -fguess-branch-probability
  33              	@ -fhoist-adjacent-loads -fident -fif-conversion -fif-conversion2
  34              	@ -findirect-inlining -finline -finline-atomics -finline-functions
  35              	@ -finline-functions-called-once -finline-small-functions -fipa-cp
  36              	@ -fipa-profile -fipa-pure-const -fipa-reference -fipa-sra
  37              	@ -fira-hoist-pressure -fira-share-save-slots -fira-share-spill-slots
  38              	@ -fisolate-erroneous-paths-dereference -fivopts -fkeep-static-consts
  39              	@ -fleading-underscore -flifetime-dse -fmath-errno -fmerge-constants
  40              	@ -fmerge-debug-strings -fomit-frame-pointer -foptimize-sibling-calls
  41              	@ -fpartial-inlining -fpeephole -fpeephole2 -fprefetch-loop-arrays
  42              	@ -freg-struct-return -freorder-blocks -freorder-functions
  43              	@ -frerun-cse-after-loop -fsched-critical-path-heuristic
  44              	@ -fsched-dep-count-heuristic -fsched-group-heuristic -fsched-interblock
  45              	@ -fsched-last-insn-heuristic -fsched-pressure -fsched-rank-heuristic
  46              	@ -fsched-spec -fsched-spec-insn-heuristic -fsched-stalled-insns-dep
  47              	@ -fschedule-insns2 -fsection-anchors -fshow-column -fshrink-wrap
  48              	@ -fsigned-zeros -fsplit-ivs-in-unroller -fsplit-wide-types
  49              	@ -fstrict-aliasing -fstrict-overflow -fstrict-volatile-bitfields
  50              	@ -fsync-libcalls -fthread-jumps -ftoplevel-reorder -ftrapping-math
  51              	@ -ftree-bit-ccp -ftree-builtin-call-dce -ftree-ccp -ftree-ch
  52              	@ -ftree-coalesce-vars -ftree-copy-prop -ftree-copyrename -ftree-cselim
  53              	@ -ftree-dce -ftree-dominator-opts -ftree-dse -ftree-forwprop -ftree-fre
  54              	@ -ftree-loop-if-convert -ftree-loop-im -ftree-loop-ivcanon
  55              	@ -ftree-loop-optimize -ftree-parallelize-loops= -ftree-phiprop -ftree-pre
  56              	@ -ftree-pta -ftree-reassoc -ftree-scev-cprop -ftree-sink -ftree-slsr
  57              	@ -ftree-sra -ftree-switch-conversion -ftree-tail-merge -ftree-ter
ARM GAS  /tmp/ccSBomBp.s 			page 2


  58              	@ -ftree-vrp -funit-at-a-time -fvar-tracking -fvar-tracking-assignments
  59              	@ -fverbose-asm -fzero-initialized-in-bss -mlittle-endian -mlra
  60              	@ -mpic-data-is-text-relative -msched-prolog -mthumb
  61              	@ -mvectorize-with-neon-quad
  62              	
  63              		.text
  64              	.Ltext0:
  65              		.cfi_sections	.debug_frame
  66              		.section	.text.Chip_UART_Init,"ax",%progbits
  67              		.align	1
  68              		.global	Chip_UART_Init
  69              		.code	16
  70              		.thumb_func
  71              		.type	Chip_UART_Init, %function
  72              	Chip_UART_Init:
  73              	.LFB198:
  74              		.file 1 "../../lpc11cx4-library/lpc_chip_11cxx_lib/src/uart_11xx.c"
   1:../../lpc11cx4-library/lpc_chip_11cxx_lib/src/uart_11xx.c **** /*
   2:../../lpc11cx4-library/lpc_chip_11cxx_lib/src/uart_11xx.c ****  * @brief LPC11xx UART chip driver
   3:../../lpc11cx4-library/lpc_chip_11cxx_lib/src/uart_11xx.c ****  *
   4:../../lpc11cx4-library/lpc_chip_11cxx_lib/src/uart_11xx.c ****  * @note
   5:../../lpc11cx4-library/lpc_chip_11cxx_lib/src/uart_11xx.c ****  * Copyright(C) NXP Semiconductors, 2012
   6:../../lpc11cx4-library/lpc_chip_11cxx_lib/src/uart_11xx.c ****  * All rights reserved.
   7:../../lpc11cx4-library/lpc_chip_11cxx_lib/src/uart_11xx.c ****  *
   8:../../lpc11cx4-library/lpc_chip_11cxx_lib/src/uart_11xx.c ****  * @par
   9:../../lpc11cx4-library/lpc_chip_11cxx_lib/src/uart_11xx.c ****  * Software that is described herein is for illustrative purposes only
  10:../../lpc11cx4-library/lpc_chip_11cxx_lib/src/uart_11xx.c ****  * which provides customers with programming information regarding the
  11:../../lpc11cx4-library/lpc_chip_11cxx_lib/src/uart_11xx.c ****  * LPC products.  This software is supplied "AS IS" without any warranties of
  12:../../lpc11cx4-library/lpc_chip_11cxx_lib/src/uart_11xx.c ****  * any kind, and NXP Semiconductors and its licensor disclaim any and
  13:../../lpc11cx4-library/lpc_chip_11cxx_lib/src/uart_11xx.c ****  * all warranties, express or implied, including all implied warranties of
  14:../../lpc11cx4-library/lpc_chip_11cxx_lib/src/uart_11xx.c ****  * merchantability, fitness for a particular purpose and non-infringement of
  15:../../lpc11cx4-library/lpc_chip_11cxx_lib/src/uart_11xx.c ****  * intellectual property rights.  NXP Semiconductors assumes no responsibility
  16:../../lpc11cx4-library/lpc_chip_11cxx_lib/src/uart_11xx.c ****  * or liability for the use of the software, conveys no license or rights under any
  17:../../lpc11cx4-library/lpc_chip_11cxx_lib/src/uart_11xx.c ****  * patent, copyright, mask work right, or any other intellectual property rights in
  18:../../lpc11cx4-library/lpc_chip_11cxx_lib/src/uart_11xx.c ****  * or to any products. NXP Semiconductors reserves the right to make changes
  19:../../lpc11cx4-library/lpc_chip_11cxx_lib/src/uart_11xx.c ****  * in the software without notification. NXP Semiconductors also makes no
  20:../../lpc11cx4-library/lpc_chip_11cxx_lib/src/uart_11xx.c ****  * representation or warranty that such application will be suitable for the
  21:../../lpc11cx4-library/lpc_chip_11cxx_lib/src/uart_11xx.c ****  * specified use without further testing or modification.
  22:../../lpc11cx4-library/lpc_chip_11cxx_lib/src/uart_11xx.c ****  *
  23:../../lpc11cx4-library/lpc_chip_11cxx_lib/src/uart_11xx.c ****  * @par
  24:../../lpc11cx4-library/lpc_chip_11cxx_lib/src/uart_11xx.c ****  * Permission to use, copy, modify, and distribute this software and its
  25:../../lpc11cx4-library/lpc_chip_11cxx_lib/src/uart_11xx.c ****  * documentation is hereby granted, under NXP Semiconductors' and its
  26:../../lpc11cx4-library/lpc_chip_11cxx_lib/src/uart_11xx.c ****  * licensor's relevant copyrights in the software, without fee, provided that it
  27:../../lpc11cx4-library/lpc_chip_11cxx_lib/src/uart_11xx.c ****  * is used in conjunction with NXP Semiconductors microcontrollers.  This
  28:../../lpc11cx4-library/lpc_chip_11cxx_lib/src/uart_11xx.c ****  * copyright, permission, and disclaimer notice must appear in all copies of
  29:../../lpc11cx4-library/lpc_chip_11cxx_lib/src/uart_11xx.c ****  * this code.
  30:../../lpc11cx4-library/lpc_chip_11cxx_lib/src/uart_11xx.c ****  */
  31:../../lpc11cx4-library/lpc_chip_11cxx_lib/src/uart_11xx.c **** 
  32:../../lpc11cx4-library/lpc_chip_11cxx_lib/src/uart_11xx.c **** #include "chip.h"
  33:../../lpc11cx4-library/lpc_chip_11cxx_lib/src/uart_11xx.c **** 
  34:../../lpc11cx4-library/lpc_chip_11cxx_lib/src/uart_11xx.c **** /*****************************************************************************
  35:../../lpc11cx4-library/lpc_chip_11cxx_lib/src/uart_11xx.c ****  * Private types/enumerations/variables
  36:../../lpc11cx4-library/lpc_chip_11cxx_lib/src/uart_11xx.c ****  ****************************************************************************/
  37:../../lpc11cx4-library/lpc_chip_11cxx_lib/src/uart_11xx.c **** 
  38:../../lpc11cx4-library/lpc_chip_11cxx_lib/src/uart_11xx.c **** /*****************************************************************************
  39:../../lpc11cx4-library/lpc_chip_11cxx_lib/src/uart_11xx.c ****  * Public types/enumerations/variables
  40:../../lpc11cx4-library/lpc_chip_11cxx_lib/src/uart_11xx.c ****  ****************************************************************************/
ARM GAS  /tmp/ccSBomBp.s 			page 3


  41:../../lpc11cx4-library/lpc_chip_11cxx_lib/src/uart_11xx.c **** 
  42:../../lpc11cx4-library/lpc_chip_11cxx_lib/src/uart_11xx.c **** /*****************************************************************************
  43:../../lpc11cx4-library/lpc_chip_11cxx_lib/src/uart_11xx.c ****  * Private functions
  44:../../lpc11cx4-library/lpc_chip_11cxx_lib/src/uart_11xx.c ****  ****************************************************************************/
  45:../../lpc11cx4-library/lpc_chip_11cxx_lib/src/uart_11xx.c **** 
  46:../../lpc11cx4-library/lpc_chip_11cxx_lib/src/uart_11xx.c **** /*****************************************************************************
  47:../../lpc11cx4-library/lpc_chip_11cxx_lib/src/uart_11xx.c ****  * Public functions
  48:../../lpc11cx4-library/lpc_chip_11cxx_lib/src/uart_11xx.c ****  ****************************************************************************/
  49:../../lpc11cx4-library/lpc_chip_11cxx_lib/src/uart_11xx.c **** 
  50:../../lpc11cx4-library/lpc_chip_11cxx_lib/src/uart_11xx.c **** /* Initializes the pUART peripheral */
  51:../../lpc11cx4-library/lpc_chip_11cxx_lib/src/uart_11xx.c **** void Chip_UART_Init(LPC_USART_T *pUART)
  52:../../lpc11cx4-library/lpc_chip_11cxx_lib/src/uart_11xx.c **** {
  75              		.loc 1 52 0
  76              		.cfi_startproc
  77              	.LVL0:
  78 0000 10B5     		push	{r4, lr}	@
  79              		.cfi_def_cfa_offset 8
  80              		.cfi_offset 4, -8
  81              		.cfi_offset 14, -4
  82              	.LBB53:
  83              	.LBB54:
  84              		.file 2 "../../lpc11cx4-library/lpc_chip_11cxx_lib/inc/clock_11xx.h"
   1:../../lpc11cx4-library/lpc_chip_11cxx_lib/inc/clock_11xx.h **** /*
   2:../../lpc11cx4-library/lpc_chip_11cxx_lib/inc/clock_11xx.h ****  * @brief LPC11XX Clock control functions
   3:../../lpc11cx4-library/lpc_chip_11cxx_lib/inc/clock_11xx.h ****  *
   4:../../lpc11cx4-library/lpc_chip_11cxx_lib/inc/clock_11xx.h ****  * @note
   5:../../lpc11cx4-library/lpc_chip_11cxx_lib/inc/clock_11xx.h ****  * Copyright(C) NXP Semiconductors, 2012
   6:../../lpc11cx4-library/lpc_chip_11cxx_lib/inc/clock_11xx.h ****  * All rights reserved.
   7:../../lpc11cx4-library/lpc_chip_11cxx_lib/inc/clock_11xx.h ****  *
   8:../../lpc11cx4-library/lpc_chip_11cxx_lib/inc/clock_11xx.h ****  * @par
   9:../../lpc11cx4-library/lpc_chip_11cxx_lib/inc/clock_11xx.h ****  * Software that is described herein is for illustrative purposes only
  10:../../lpc11cx4-library/lpc_chip_11cxx_lib/inc/clock_11xx.h ****  * which provides customers with programming information regarding the
  11:../../lpc11cx4-library/lpc_chip_11cxx_lib/inc/clock_11xx.h ****  * LPC products.  This software is supplied "AS IS" without any warranties of
  12:../../lpc11cx4-library/lpc_chip_11cxx_lib/inc/clock_11xx.h ****  * any kind, and NXP Semiconductors and its licensor disclaim any and
  13:../../lpc11cx4-library/lpc_chip_11cxx_lib/inc/clock_11xx.h ****  * all warranties, express or implied, including all implied warranties of
  14:../../lpc11cx4-library/lpc_chip_11cxx_lib/inc/clock_11xx.h ****  * merchantability, fitness for a particular purpose and non-infringement of
  15:../../lpc11cx4-library/lpc_chip_11cxx_lib/inc/clock_11xx.h ****  * intellectual property rights.  NXP Semiconductors assumes no responsibility
  16:../../lpc11cx4-library/lpc_chip_11cxx_lib/inc/clock_11xx.h ****  * or liability for the use of the software, conveys no license or rights under any
  17:../../lpc11cx4-library/lpc_chip_11cxx_lib/inc/clock_11xx.h ****  * patent, copyright, mask work right, or any other intellectual property rights in
  18:../../lpc11cx4-library/lpc_chip_11cxx_lib/inc/clock_11xx.h ****  * or to any products. NXP Semiconductors reserves the right to make changes
  19:../../lpc11cx4-library/lpc_chip_11cxx_lib/inc/clock_11xx.h ****  * in the software without notification. NXP Semiconductors also makes no
  20:../../lpc11cx4-library/lpc_chip_11cxx_lib/inc/clock_11xx.h ****  * representation or warranty that such application will be suitable for the
  21:../../lpc11cx4-library/lpc_chip_11cxx_lib/inc/clock_11xx.h ****  * specified use without further testing or modification.
  22:../../lpc11cx4-library/lpc_chip_11cxx_lib/inc/clock_11xx.h ****  *
  23:../../lpc11cx4-library/lpc_chip_11cxx_lib/inc/clock_11xx.h ****  * @par
  24:../../lpc11cx4-library/lpc_chip_11cxx_lib/inc/clock_11xx.h ****  * Permission to use, copy, modify, and distribute this software and its
  25:../../lpc11cx4-library/lpc_chip_11cxx_lib/inc/clock_11xx.h ****  * documentation is hereby granted, under NXP Semiconductors' and its
  26:../../lpc11cx4-library/lpc_chip_11cxx_lib/inc/clock_11xx.h ****  * licensor's relevant copyrights in the software, without fee, provided that it
  27:../../lpc11cx4-library/lpc_chip_11cxx_lib/inc/clock_11xx.h ****  * is used in conjunction with NXP Semiconductors microcontrollers.  This
  28:../../lpc11cx4-library/lpc_chip_11cxx_lib/inc/clock_11xx.h ****  * copyright, permission, and disclaimer notice must appear in all copies of
  29:../../lpc11cx4-library/lpc_chip_11cxx_lib/inc/clock_11xx.h ****  * this code.
  30:../../lpc11cx4-library/lpc_chip_11cxx_lib/inc/clock_11xx.h ****  */
  31:../../lpc11cx4-library/lpc_chip_11cxx_lib/inc/clock_11xx.h **** 
  32:../../lpc11cx4-library/lpc_chip_11cxx_lib/inc/clock_11xx.h **** #ifndef __CLOCK_11XX_H_
  33:../../lpc11cx4-library/lpc_chip_11cxx_lib/inc/clock_11xx.h **** #define __CLOCK_11XX_H_
  34:../../lpc11cx4-library/lpc_chip_11cxx_lib/inc/clock_11xx.h **** 
  35:../../lpc11cx4-library/lpc_chip_11cxx_lib/inc/clock_11xx.h **** #ifdef __cplusplus
ARM GAS  /tmp/ccSBomBp.s 			page 4


  36:../../lpc11cx4-library/lpc_chip_11cxx_lib/inc/clock_11xx.h **** extern "C" {
  37:../../lpc11cx4-library/lpc_chip_11cxx_lib/inc/clock_11xx.h **** #endif
  38:../../lpc11cx4-library/lpc_chip_11cxx_lib/inc/clock_11xx.h **** 
  39:../../lpc11cx4-library/lpc_chip_11cxx_lib/inc/clock_11xx.h **** /** @defgroup CLOCK_11XX CHIP: LPC11xx Clock Control block driver
  40:../../lpc11cx4-library/lpc_chip_11cxx_lib/inc/clock_11xx.h ****  * @ingroup CHIP_11XX_Drivers
  41:../../lpc11cx4-library/lpc_chip_11cxx_lib/inc/clock_11xx.h ****  * @{
  42:../../lpc11cx4-library/lpc_chip_11cxx_lib/inc/clock_11xx.h ****  */
  43:../../lpc11cx4-library/lpc_chip_11cxx_lib/inc/clock_11xx.h **** 
  44:../../lpc11cx4-library/lpc_chip_11cxx_lib/inc/clock_11xx.h **** /** Internal oscillator frequency */
  45:../../lpc11cx4-library/lpc_chip_11cxx_lib/inc/clock_11xx.h **** #define SYSCTL_IRC_FREQ (12000000)
  46:../../lpc11cx4-library/lpc_chip_11cxx_lib/inc/clock_11xx.h **** 
  47:../../lpc11cx4-library/lpc_chip_11cxx_lib/inc/clock_11xx.h **** /**
  48:../../lpc11cx4-library/lpc_chip_11cxx_lib/inc/clock_11xx.h ****  * @brief	Set System PLL divider values
  49:../../lpc11cx4-library/lpc_chip_11cxx_lib/inc/clock_11xx.h ****  * @param	msel    : PLL feedback divider value. M = msel + 1.
  50:../../lpc11cx4-library/lpc_chip_11cxx_lib/inc/clock_11xx.h ****  * @param	psel    : PLL post divider value. P =  (1<<psel).
  51:../../lpc11cx4-library/lpc_chip_11cxx_lib/inc/clock_11xx.h ****  * @return	Nothing
  52:../../lpc11cx4-library/lpc_chip_11cxx_lib/inc/clock_11xx.h ****  * @note	See the user manual for how to setup the PLL.
  53:../../lpc11cx4-library/lpc_chip_11cxx_lib/inc/clock_11xx.h ****  */
  54:../../lpc11cx4-library/lpc_chip_11cxx_lib/inc/clock_11xx.h **** STATIC INLINE void Chip_Clock_SetupSystemPLL(uint8_t msel, uint8_t psel)
  55:../../lpc11cx4-library/lpc_chip_11cxx_lib/inc/clock_11xx.h **** {
  56:../../lpc11cx4-library/lpc_chip_11cxx_lib/inc/clock_11xx.h **** 	LPC_SYSCTL->SYSPLLCTRL = (msel & 0x1F) | ((psel & 0x3) << 5);
  57:../../lpc11cx4-library/lpc_chip_11cxx_lib/inc/clock_11xx.h **** }
  58:../../lpc11cx4-library/lpc_chip_11cxx_lib/inc/clock_11xx.h **** 
  59:../../lpc11cx4-library/lpc_chip_11cxx_lib/inc/clock_11xx.h **** /**
  60:../../lpc11cx4-library/lpc_chip_11cxx_lib/inc/clock_11xx.h ****  * @brief	Read System PLL lock status
  61:../../lpc11cx4-library/lpc_chip_11cxx_lib/inc/clock_11xx.h ****  * @return	true of the PLL is locked. false if not locked
  62:../../lpc11cx4-library/lpc_chip_11cxx_lib/inc/clock_11xx.h ****  */
  63:../../lpc11cx4-library/lpc_chip_11cxx_lib/inc/clock_11xx.h **** STATIC INLINE bool Chip_Clock_IsSystemPLLLocked(void)
  64:../../lpc11cx4-library/lpc_chip_11cxx_lib/inc/clock_11xx.h **** {
  65:../../lpc11cx4-library/lpc_chip_11cxx_lib/inc/clock_11xx.h **** 	return (bool) ((LPC_SYSCTL->SYSPLLSTAT & 1) != 0);
  66:../../lpc11cx4-library/lpc_chip_11cxx_lib/inc/clock_11xx.h **** }
  67:../../lpc11cx4-library/lpc_chip_11cxx_lib/inc/clock_11xx.h **** 
  68:../../lpc11cx4-library/lpc_chip_11cxx_lib/inc/clock_11xx.h **** /**
  69:../../lpc11cx4-library/lpc_chip_11cxx_lib/inc/clock_11xx.h ****  * Clock sources for system and USB PLLs
  70:../../lpc11cx4-library/lpc_chip_11cxx_lib/inc/clock_11xx.h ****  */
  71:../../lpc11cx4-library/lpc_chip_11cxx_lib/inc/clock_11xx.h **** typedef enum CHIP_SYSCTL_PLLCLKSRC {
  72:../../lpc11cx4-library/lpc_chip_11cxx_lib/inc/clock_11xx.h **** 	SYSCTL_PLLCLKSRC_IRC = 0,		/*!< Internal oscillator in */
  73:../../lpc11cx4-library/lpc_chip_11cxx_lib/inc/clock_11xx.h **** 	SYSCTL_PLLCLKSRC_MAINOSC,		/*!< Crystal (main) oscillator in */
  74:../../lpc11cx4-library/lpc_chip_11cxx_lib/inc/clock_11xx.h **** #if defined(CHIP_LPC11AXX)
  75:../../lpc11cx4-library/lpc_chip_11cxx_lib/inc/clock_11xx.h **** 	SYSCTL_PLLCLKSRC_EXT_CLKIN,	/*!< External clock in (11Axx only) */
  76:../../lpc11cx4-library/lpc_chip_11cxx_lib/inc/clock_11xx.h **** #else
  77:../../lpc11cx4-library/lpc_chip_11cxx_lib/inc/clock_11xx.h **** 	SYSCTL_PLLCLKSRC_RESERVED1,	/*!< Reserved */
  78:../../lpc11cx4-library/lpc_chip_11cxx_lib/inc/clock_11xx.h **** #endif
  79:../../lpc11cx4-library/lpc_chip_11cxx_lib/inc/clock_11xx.h **** 	SYSCTL_PLLCLKSRC_RESERVED2,	/*!< Reserved */
  80:../../lpc11cx4-library/lpc_chip_11cxx_lib/inc/clock_11xx.h **** } CHIP_SYSCTL_PLLCLKSRC_T;
  81:../../lpc11cx4-library/lpc_chip_11cxx_lib/inc/clock_11xx.h **** 
  82:../../lpc11cx4-library/lpc_chip_11cxx_lib/inc/clock_11xx.h **** /**
  83:../../lpc11cx4-library/lpc_chip_11cxx_lib/inc/clock_11xx.h ****  * @brief	Set System PLL clock source
  84:../../lpc11cx4-library/lpc_chip_11cxx_lib/inc/clock_11xx.h ****  * @param	src	: Clock source for system PLL
  85:../../lpc11cx4-library/lpc_chip_11cxx_lib/inc/clock_11xx.h ****  * @return	Nothing
  86:../../lpc11cx4-library/lpc_chip_11cxx_lib/inc/clock_11xx.h ****  * @note	This function will also toggle the clock source update register
  87:../../lpc11cx4-library/lpc_chip_11cxx_lib/inc/clock_11xx.h ****  * to update the clock source.
  88:../../lpc11cx4-library/lpc_chip_11cxx_lib/inc/clock_11xx.h ****  */
  89:../../lpc11cx4-library/lpc_chip_11cxx_lib/inc/clock_11xx.h **** void Chip_Clock_SetSystemPLLSource(CHIP_SYSCTL_PLLCLKSRC_T src);
  90:../../lpc11cx4-library/lpc_chip_11cxx_lib/inc/clock_11xx.h **** 
  91:../../lpc11cx4-library/lpc_chip_11cxx_lib/inc/clock_11xx.h **** #if defined(CHIP_LPC11UXX)
  92:../../lpc11cx4-library/lpc_chip_11cxx_lib/inc/clock_11xx.h **** /**
ARM GAS  /tmp/ccSBomBp.s 			page 5


  93:../../lpc11cx4-library/lpc_chip_11cxx_lib/inc/clock_11xx.h ****  * @brief	Set USB PLL divider values
  94:../../lpc11cx4-library/lpc_chip_11cxx_lib/inc/clock_11xx.h ****  * @param	msel    : PLL feedback divider value. M = msel + 1.
  95:../../lpc11cx4-library/lpc_chip_11cxx_lib/inc/clock_11xx.h ****  * @param	psel    : PLL post divider value. P = (1<<psel).
  96:../../lpc11cx4-library/lpc_chip_11cxx_lib/inc/clock_11xx.h ****  * @return	Nothing
  97:../../lpc11cx4-library/lpc_chip_11cxx_lib/inc/clock_11xx.h ****  * @note	See the user manual for how to setup the PLL.
  98:../../lpc11cx4-library/lpc_chip_11cxx_lib/inc/clock_11xx.h ****  */
  99:../../lpc11cx4-library/lpc_chip_11cxx_lib/inc/clock_11xx.h **** STATIC INLINE void Chip_Clock_SetupUSBPLL(uint8_t msel, uint8_t psel)
 100:../../lpc11cx4-library/lpc_chip_11cxx_lib/inc/clock_11xx.h **** {
 101:../../lpc11cx4-library/lpc_chip_11cxx_lib/inc/clock_11xx.h **** 	LPC_SYSCTL->USBPLLCTRL = (msel & 0x1F) | ((psel & 0x3) << 5);
 102:../../lpc11cx4-library/lpc_chip_11cxx_lib/inc/clock_11xx.h **** }
 103:../../lpc11cx4-library/lpc_chip_11cxx_lib/inc/clock_11xx.h **** 
 104:../../lpc11cx4-library/lpc_chip_11cxx_lib/inc/clock_11xx.h **** /**
 105:../../lpc11cx4-library/lpc_chip_11cxx_lib/inc/clock_11xx.h ****  * @brief	Read USB PLL lock status
 106:../../lpc11cx4-library/lpc_chip_11cxx_lib/inc/clock_11xx.h ****  * @return	true of the PLL is locked. false if not locked
 107:../../lpc11cx4-library/lpc_chip_11cxx_lib/inc/clock_11xx.h ****  */
 108:../../lpc11cx4-library/lpc_chip_11cxx_lib/inc/clock_11xx.h **** STATIC INLINE bool Chip_Clock_IsUSBPLLLocked(void)
 109:../../lpc11cx4-library/lpc_chip_11cxx_lib/inc/clock_11xx.h **** {
 110:../../lpc11cx4-library/lpc_chip_11cxx_lib/inc/clock_11xx.h **** 	return (bool) ((LPC_SYSCTL->USBPLLSTAT & 1) != 0);
 111:../../lpc11cx4-library/lpc_chip_11cxx_lib/inc/clock_11xx.h **** }
 112:../../lpc11cx4-library/lpc_chip_11cxx_lib/inc/clock_11xx.h **** 
 113:../../lpc11cx4-library/lpc_chip_11cxx_lib/inc/clock_11xx.h **** /**
 114:../../lpc11cx4-library/lpc_chip_11cxx_lib/inc/clock_11xx.h ****  * @brief	Set USB PLL clock source
 115:../../lpc11cx4-library/lpc_chip_11cxx_lib/inc/clock_11xx.h ****  * @param	src	: Clock source for USB PLL
 116:../../lpc11cx4-library/lpc_chip_11cxx_lib/inc/clock_11xx.h ****  * @return	Nothing
 117:../../lpc11cx4-library/lpc_chip_11cxx_lib/inc/clock_11xx.h ****  * @note	This function will also toggle the clock source update register
 118:../../lpc11cx4-library/lpc_chip_11cxx_lib/inc/clock_11xx.h ****  * to update the clock source.
 119:../../lpc11cx4-library/lpc_chip_11cxx_lib/inc/clock_11xx.h ****  */
 120:../../lpc11cx4-library/lpc_chip_11cxx_lib/inc/clock_11xx.h **** void Chip_Clock_SetUSBPLLSource(CHIP_SYSCTL_PLLCLKSRC_T src);
 121:../../lpc11cx4-library/lpc_chip_11cxx_lib/inc/clock_11xx.h **** 
 122:../../lpc11cx4-library/lpc_chip_11cxx_lib/inc/clock_11xx.h **** #endif /*defined(CHIP_LPC11UXX)*/
 123:../../lpc11cx4-library/lpc_chip_11cxx_lib/inc/clock_11xx.h **** 
 124:../../lpc11cx4-library/lpc_chip_11cxx_lib/inc/clock_11xx.h **** /**
 125:../../lpc11cx4-library/lpc_chip_11cxx_lib/inc/clock_11xx.h ****  * @brief	Bypass System Oscillator and set oscillator frequency range
 126:../../lpc11cx4-library/lpc_chip_11cxx_lib/inc/clock_11xx.h ****  * @param	bypass	: Flag to bypass oscillator
 127:../../lpc11cx4-library/lpc_chip_11cxx_lib/inc/clock_11xx.h ****  * @param	highfr	: Flag to set oscillator range from 15-25 MHz
 128:../../lpc11cx4-library/lpc_chip_11cxx_lib/inc/clock_11xx.h ****  * @return	Nothing
 129:../../lpc11cx4-library/lpc_chip_11cxx_lib/inc/clock_11xx.h ****  * @note	Sets the PLL input to bypass the oscillator. This would be
 130:../../lpc11cx4-library/lpc_chip_11cxx_lib/inc/clock_11xx.h ****  * used if an external clock that is not an oscillator is attached
 131:../../lpc11cx4-library/lpc_chip_11cxx_lib/inc/clock_11xx.h ****  * to the XTALIN pin.
 132:../../lpc11cx4-library/lpc_chip_11cxx_lib/inc/clock_11xx.h ****  */
 133:../../lpc11cx4-library/lpc_chip_11cxx_lib/inc/clock_11xx.h **** void Chip_Clock_SetPLLBypass(bool bypass, bool highfr);
 134:../../lpc11cx4-library/lpc_chip_11cxx_lib/inc/clock_11xx.h **** 
 135:../../lpc11cx4-library/lpc_chip_11cxx_lib/inc/clock_11xx.h **** /**
 136:../../lpc11cx4-library/lpc_chip_11cxx_lib/inc/clock_11xx.h ****  * Watchdog and low frequency oscillator frequencies plus or minus 40%
 137:../../lpc11cx4-library/lpc_chip_11cxx_lib/inc/clock_11xx.h ****  */
 138:../../lpc11cx4-library/lpc_chip_11cxx_lib/inc/clock_11xx.h **** typedef enum CHIP_WDTLFO_OSC {
 139:../../lpc11cx4-library/lpc_chip_11cxx_lib/inc/clock_11xx.h **** 	WDTLFO_OSC_ILLEGAL,
 140:../../lpc11cx4-library/lpc_chip_11cxx_lib/inc/clock_11xx.h **** 	WDTLFO_OSC_0_60,	/*!< 0.6 MHz watchdog/LFO rate */
 141:../../lpc11cx4-library/lpc_chip_11cxx_lib/inc/clock_11xx.h **** 	WDTLFO_OSC_1_05,	/*!< 1.05 MHz watchdog/LFO rate */
 142:../../lpc11cx4-library/lpc_chip_11cxx_lib/inc/clock_11xx.h **** 	WDTLFO_OSC_1_40,	/*!< 1.4 MHz watchdog/LFO rate */
 143:../../lpc11cx4-library/lpc_chip_11cxx_lib/inc/clock_11xx.h **** 	WDTLFO_OSC_1_75,	/*!< 1.75 MHz watchdog/LFO rate */
 144:../../lpc11cx4-library/lpc_chip_11cxx_lib/inc/clock_11xx.h **** 	WDTLFO_OSC_2_10,	/*!< 2.1 MHz watchdog/LFO rate */
 145:../../lpc11cx4-library/lpc_chip_11cxx_lib/inc/clock_11xx.h **** 	WDTLFO_OSC_2_40,	/*!< 2.4 MHz watchdog/LFO rate */
 146:../../lpc11cx4-library/lpc_chip_11cxx_lib/inc/clock_11xx.h **** 	WDTLFO_OSC_2_70,	/*!< 2.7 MHz watchdog/LFO rate */
 147:../../lpc11cx4-library/lpc_chip_11cxx_lib/inc/clock_11xx.h **** 	WDTLFO_OSC_3_00,	/*!< 3.0 MHz watchdog/LFO rate */
 148:../../lpc11cx4-library/lpc_chip_11cxx_lib/inc/clock_11xx.h **** 	WDTLFO_OSC_3_25,	/*!< 3.25 MHz watchdog/LFO rate */
 149:../../lpc11cx4-library/lpc_chip_11cxx_lib/inc/clock_11xx.h **** 	WDTLFO_OSC_3_50,	/*!< 3.5 MHz watchdog/LFO rate */
ARM GAS  /tmp/ccSBomBp.s 			page 6


 150:../../lpc11cx4-library/lpc_chip_11cxx_lib/inc/clock_11xx.h **** 	WDTLFO_OSC_3_75,	/*!< 3.75 MHz watchdog/LFO rate */
 151:../../lpc11cx4-library/lpc_chip_11cxx_lib/inc/clock_11xx.h **** 	WDTLFO_OSC_4_00,	/*!< 4.0 MHz watchdog/LFO rate */
 152:../../lpc11cx4-library/lpc_chip_11cxx_lib/inc/clock_11xx.h **** 	WDTLFO_OSC_4_20,	/*!< 4.2 MHz watchdog/LFO rate */
 153:../../lpc11cx4-library/lpc_chip_11cxx_lib/inc/clock_11xx.h **** 	WDTLFO_OSC_4_40,	/*!< 4.4 MHz watchdog/LFO rate */
 154:../../lpc11cx4-library/lpc_chip_11cxx_lib/inc/clock_11xx.h **** 	WDTLFO_OSC_4_60		/*!< 4.6 MHz watchdog/LFO rate */
 155:../../lpc11cx4-library/lpc_chip_11cxx_lib/inc/clock_11xx.h **** } CHIP_WDTLFO_OSC_T;
 156:../../lpc11cx4-library/lpc_chip_11cxx_lib/inc/clock_11xx.h **** 
 157:../../lpc11cx4-library/lpc_chip_11cxx_lib/inc/clock_11xx.h **** /**
 158:../../lpc11cx4-library/lpc_chip_11cxx_lib/inc/clock_11xx.h ****  * @brief	Setup Watchdog oscillator rate and divider
 159:../../lpc11cx4-library/lpc_chip_11cxx_lib/inc/clock_11xx.h ****  * @param	wdtclk	: Selected watchdog clock rate
 160:../../lpc11cx4-library/lpc_chip_11cxx_lib/inc/clock_11xx.h ****  * @param	div		: Watchdog divider value, even value between 2 and 64
 161:../../lpc11cx4-library/lpc_chip_11cxx_lib/inc/clock_11xx.h ****  * @return	Nothing
 162:../../lpc11cx4-library/lpc_chip_11cxx_lib/inc/clock_11xx.h ****  * @note	Watchdog rate = selected rate divided by divider rate
 163:../../lpc11cx4-library/lpc_chip_11cxx_lib/inc/clock_11xx.h ****  */
 164:../../lpc11cx4-library/lpc_chip_11cxx_lib/inc/clock_11xx.h **** STATIC INLINE void Chip_Clock_SetWDTOSC(CHIP_WDTLFO_OSC_T wdtclk, uint8_t div)
 165:../../lpc11cx4-library/lpc_chip_11cxx_lib/inc/clock_11xx.h **** {
 166:../../lpc11cx4-library/lpc_chip_11cxx_lib/inc/clock_11xx.h **** 	LPC_SYSCTL->WDTOSCCTRL  = (((uint32_t) wdtclk) << 5) | ((div >> 1) - 1);
 167:../../lpc11cx4-library/lpc_chip_11cxx_lib/inc/clock_11xx.h **** }
 168:../../lpc11cx4-library/lpc_chip_11cxx_lib/inc/clock_11xx.h **** 
 169:../../lpc11cx4-library/lpc_chip_11cxx_lib/inc/clock_11xx.h **** #if defined(CHIP_LPC11AXX)
 170:../../lpc11cx4-library/lpc_chip_11cxx_lib/inc/clock_11xx.h **** /**
 171:../../lpc11cx4-library/lpc_chip_11cxx_lib/inc/clock_11xx.h ****  * @brief	Setup low frequency oscillator rate and divider
 172:../../lpc11cx4-library/lpc_chip_11cxx_lib/inc/clock_11xx.h ****  * @param	lfoclk	: Selected low frequency clock rate
 173:../../lpc11cx4-library/lpc_chip_11cxx_lib/inc/clock_11xx.h ****  * @param	div		: Low frequency divider value, even value between 2 and 64
 174:../../lpc11cx4-library/lpc_chip_11cxx_lib/inc/clock_11xx.h ****  * @return	Nothing
 175:../../lpc11cx4-library/lpc_chip_11cxx_lib/inc/clock_11xx.h ****  * @note	Low frequency oscillator rate = selected rate divided by divider rate
 176:../../lpc11cx4-library/lpc_chip_11cxx_lib/inc/clock_11xx.h ****  */
 177:../../lpc11cx4-library/lpc_chip_11cxx_lib/inc/clock_11xx.h **** STATIC INLINE void Chip_Clock_SetLFOSC(CHIP_WDTLFO_OSC_T lfoclk, uint8_t div)
 178:../../lpc11cx4-library/lpc_chip_11cxx_lib/inc/clock_11xx.h **** {
 179:../../lpc11cx4-library/lpc_chip_11cxx_lib/inc/clock_11xx.h **** 	LPC_SYSCTL->LFOSCCTRL  = (((uint32_t) lfoclk) << 5) | ((div >> 1) - 1);
 180:../../lpc11cx4-library/lpc_chip_11cxx_lib/inc/clock_11xx.h **** }
 181:../../lpc11cx4-library/lpc_chip_11cxx_lib/inc/clock_11xx.h **** 
 182:../../lpc11cx4-library/lpc_chip_11cxx_lib/inc/clock_11xx.h **** #endif /*CHIP_LPC11AXX*/
 183:../../lpc11cx4-library/lpc_chip_11cxx_lib/inc/clock_11xx.h **** 
 184:../../lpc11cx4-library/lpc_chip_11cxx_lib/inc/clock_11xx.h **** /**
 185:../../lpc11cx4-library/lpc_chip_11cxx_lib/inc/clock_11xx.h ****  * Clock sources for main system clock
 186:../../lpc11cx4-library/lpc_chip_11cxx_lib/inc/clock_11xx.h ****  */
 187:../../lpc11cx4-library/lpc_chip_11cxx_lib/inc/clock_11xx.h **** typedef enum CHIP_SYSCTL_MAINCLKSRC {
 188:../../lpc11cx4-library/lpc_chip_11cxx_lib/inc/clock_11xx.h **** 	SYSCTL_MAINCLKSRC_IRC = 0,		/*!< Internal oscillator */
 189:../../lpc11cx4-library/lpc_chip_11cxx_lib/inc/clock_11xx.h **** 	SYSCTL_MAINCLKSRC_PLLIN,		/*!< System PLL input */
 190:../../lpc11cx4-library/lpc_chip_11cxx_lib/inc/clock_11xx.h **** 	SYSCTL_MAINCLKSRC_LFOSC,		/*!< LF oscillator rate (11Axx only) */
 191:../../lpc11cx4-library/lpc_chip_11cxx_lib/inc/clock_11xx.h **** 	SYSCTL_MAINCLKSRC_WDTOSC = SYSCTL_MAINCLKSRC_LFOSC,	/*!< Watchdog oscillator rate */
 192:../../lpc11cx4-library/lpc_chip_11cxx_lib/inc/clock_11xx.h **** 	SYSCTL_MAINCLKSRC_PLLOUT,		/*!< System PLL output */
 193:../../lpc11cx4-library/lpc_chip_11cxx_lib/inc/clock_11xx.h **** } CHIP_SYSCTL_MAINCLKSRC_T;
 194:../../lpc11cx4-library/lpc_chip_11cxx_lib/inc/clock_11xx.h **** 
 195:../../lpc11cx4-library/lpc_chip_11cxx_lib/inc/clock_11xx.h **** /**
 196:../../lpc11cx4-library/lpc_chip_11cxx_lib/inc/clock_11xx.h ****  * @brief	Set main system clock source
 197:../../lpc11cx4-library/lpc_chip_11cxx_lib/inc/clock_11xx.h ****  * @param	src	: Clock source for main system
 198:../../lpc11cx4-library/lpc_chip_11cxx_lib/inc/clock_11xx.h ****  * @return	Nothing
 199:../../lpc11cx4-library/lpc_chip_11cxx_lib/inc/clock_11xx.h ****  * @note	This function will also toggle the clock source update register
 200:../../lpc11cx4-library/lpc_chip_11cxx_lib/inc/clock_11xx.h ****  * to update the clock source.
 201:../../lpc11cx4-library/lpc_chip_11cxx_lib/inc/clock_11xx.h ****  */
 202:../../lpc11cx4-library/lpc_chip_11cxx_lib/inc/clock_11xx.h **** void Chip_Clock_SetMainClockSource(CHIP_SYSCTL_MAINCLKSRC_T src);
 203:../../lpc11cx4-library/lpc_chip_11cxx_lib/inc/clock_11xx.h **** 
 204:../../lpc11cx4-library/lpc_chip_11cxx_lib/inc/clock_11xx.h **** /**
 205:../../lpc11cx4-library/lpc_chip_11cxx_lib/inc/clock_11xx.h ****  * @brief   Returns the main clock source
 206:../../lpc11cx4-library/lpc_chip_11cxx_lib/inc/clock_11xx.h ****  * @return	Which clock is used for the core clock source?
ARM GAS  /tmp/ccSBomBp.s 			page 7


 207:../../lpc11cx4-library/lpc_chip_11cxx_lib/inc/clock_11xx.h ****  */
 208:../../lpc11cx4-library/lpc_chip_11cxx_lib/inc/clock_11xx.h **** STATIC INLINE CHIP_SYSCTL_MAINCLKSRC_T Chip_Clock_GetMainClockSource(void)
 209:../../lpc11cx4-library/lpc_chip_11cxx_lib/inc/clock_11xx.h **** {
 210:../../lpc11cx4-library/lpc_chip_11cxx_lib/inc/clock_11xx.h **** 	return (CHIP_SYSCTL_MAINCLKSRC_T) (LPC_SYSCTL->MAINCLKSEL);
 211:../../lpc11cx4-library/lpc_chip_11cxx_lib/inc/clock_11xx.h **** }
 212:../../lpc11cx4-library/lpc_chip_11cxx_lib/inc/clock_11xx.h **** 
 213:../../lpc11cx4-library/lpc_chip_11cxx_lib/inc/clock_11xx.h **** /**
 214:../../lpc11cx4-library/lpc_chip_11cxx_lib/inc/clock_11xx.h ****  * @brief	Set system clock divider
 215:../../lpc11cx4-library/lpc_chip_11cxx_lib/inc/clock_11xx.h ****  * @param	div	: divider for system clock
 216:../../lpc11cx4-library/lpc_chip_11cxx_lib/inc/clock_11xx.h ****  * @return	Nothing
 217:../../lpc11cx4-library/lpc_chip_11cxx_lib/inc/clock_11xx.h ****  * @note	Use 0 to disable, or a divider value of 1 to 255. The system clock
 218:../../lpc11cx4-library/lpc_chip_11cxx_lib/inc/clock_11xx.h ****  * rate is the main system clock divided by this value.
 219:../../lpc11cx4-library/lpc_chip_11cxx_lib/inc/clock_11xx.h ****  */
 220:../../lpc11cx4-library/lpc_chip_11cxx_lib/inc/clock_11xx.h **** STATIC INLINE void Chip_Clock_SetSysClockDiv(uint32_t div)
 221:../../lpc11cx4-library/lpc_chip_11cxx_lib/inc/clock_11xx.h **** {
 222:../../lpc11cx4-library/lpc_chip_11cxx_lib/inc/clock_11xx.h **** 	LPC_SYSCTL->SYSAHBCLKDIV  = div;
 223:../../lpc11cx4-library/lpc_chip_11cxx_lib/inc/clock_11xx.h **** }
 224:../../lpc11cx4-library/lpc_chip_11cxx_lib/inc/clock_11xx.h **** 
 225:../../lpc11cx4-library/lpc_chip_11cxx_lib/inc/clock_11xx.h **** /**
 226:../../lpc11cx4-library/lpc_chip_11cxx_lib/inc/clock_11xx.h ****  * System and peripheral clocks
 227:../../lpc11cx4-library/lpc_chip_11cxx_lib/inc/clock_11xx.h ****  */
 228:../../lpc11cx4-library/lpc_chip_11cxx_lib/inc/clock_11xx.h **** typedef enum CHIP_SYSCTL_CLOCK {
 229:../../lpc11cx4-library/lpc_chip_11cxx_lib/inc/clock_11xx.h **** 	SYSCTL_CLOCK_SYS = 0,				/*!< 0: System clock */
 230:../../lpc11cx4-library/lpc_chip_11cxx_lib/inc/clock_11xx.h **** 	SYSCTL_CLOCK_ROM,					/*!<1:  ROM clock */
 231:../../lpc11cx4-library/lpc_chip_11cxx_lib/inc/clock_11xx.h **** 	SYSCTL_CLOCK_RAM,					/*!< 2: RAM clock */
 232:../../lpc11cx4-library/lpc_chip_11cxx_lib/inc/clock_11xx.h **** 	SYSCTL_CLOCK_FLASHREG,				/*!< 3: FLASH register interface clock */
 233:../../lpc11cx4-library/lpc_chip_11cxx_lib/inc/clock_11xx.h **** 	SYSCTL_CLOCK_FLASHARRAY,			/*!< 4: FLASH array access clock */
 234:../../lpc11cx4-library/lpc_chip_11cxx_lib/inc/clock_11xx.h **** #if defined(CHIP_LPC110X)
 235:../../lpc11cx4-library/lpc_chip_11cxx_lib/inc/clock_11xx.h **** 	SYSCTL_CLOCK_RESERVED5,				/*!< 5: Reserved */
 236:../../lpc11cx4-library/lpc_chip_11cxx_lib/inc/clock_11xx.h **** #else
 237:../../lpc11cx4-library/lpc_chip_11cxx_lib/inc/clock_11xx.h **** 	SYSCTL_CLOCK_I2C,					/*!< 5: I2C clock, not on LPC110x */
 238:../../lpc11cx4-library/lpc_chip_11cxx_lib/inc/clock_11xx.h **** #endif
 239:../../lpc11cx4-library/lpc_chip_11cxx_lib/inc/clock_11xx.h **** 	SYSCTL_CLOCK_GPIO,					/*!< 6: GPIO clock */
 240:../../lpc11cx4-library/lpc_chip_11cxx_lib/inc/clock_11xx.h **** 	SYSCTL_CLOCK_CT16B0,				/*!< 7: 16-bit Counter/timer 0 clock */
 241:../../lpc11cx4-library/lpc_chip_11cxx_lib/inc/clock_11xx.h **** 	SYSCTL_CLOCK_CT16B1,				/*!< 8: 16-bit Counter/timer 1 clock */
 242:../../lpc11cx4-library/lpc_chip_11cxx_lib/inc/clock_11xx.h **** 	SYSCTL_CLOCK_CT32B0,				/*!< 9: 32-bit Counter/timer 0 clock */
 243:../../lpc11cx4-library/lpc_chip_11cxx_lib/inc/clock_11xx.h **** 	SYSCTL_CLOCK_CT32B1,				/*!< 10: 32-bit Counter/timer 1 clock */
 244:../../lpc11cx4-library/lpc_chip_11cxx_lib/inc/clock_11xx.h **** 	SYSCTL_CLOCK_SSP0,					/*!< 11: SSP0 clock */
 245:../../lpc11cx4-library/lpc_chip_11cxx_lib/inc/clock_11xx.h **** 	SYSCTL_CLOCK_UART0,					/*!< 12: UART0 clock */
 246:../../lpc11cx4-library/lpc_chip_11cxx_lib/inc/clock_11xx.h **** 	SYSCTL_CLOCK_ADC,					/*!< 13: ADC clock */
 247:../../lpc11cx4-library/lpc_chip_11cxx_lib/inc/clock_11xx.h **** #if defined(CHIP_LPC11UXX)
 248:../../lpc11cx4-library/lpc_chip_11cxx_lib/inc/clock_11xx.h **** 	SYSCTL_CLOCK_USB,					/*!< 14: USB clock, LPC11Uxx only */
 249:../../lpc11cx4-library/lpc_chip_11cxx_lib/inc/clock_11xx.h **** #else
 250:../../lpc11cx4-library/lpc_chip_11cxx_lib/inc/clock_11xx.h **** 	SYSCTL_CLOCK_RESERVED14,			/*!< 14: Reserved */
 251:../../lpc11cx4-library/lpc_chip_11cxx_lib/inc/clock_11xx.h **** #endif
 252:../../lpc11cx4-library/lpc_chip_11cxx_lib/inc/clock_11xx.h **** 	SYSCTL_CLOCK_WDT,					/*!< 15: Watchdog timer clock */
 253:../../lpc11cx4-library/lpc_chip_11cxx_lib/inc/clock_11xx.h **** 	SYSCTL_CLOCK_IOCON,					/*!< 16: IOCON block clock */
 254:../../lpc11cx4-library/lpc_chip_11cxx_lib/inc/clock_11xx.h **** #if defined(CHIP_LPC11CXX)
 255:../../lpc11cx4-library/lpc_chip_11cxx_lib/inc/clock_11xx.h **** 	SYSCTL_CLOCK_CAN,					/*!< 17: CAN clock, LPC11Cxx only */
 256:../../lpc11cx4-library/lpc_chip_11cxx_lib/inc/clock_11xx.h **** #else
 257:../../lpc11cx4-library/lpc_chip_11cxx_lib/inc/clock_11xx.h **** 	SYSCTL_CLOCK_RESERVED17,			/*!< 17: Reserved */
 258:../../lpc11cx4-library/lpc_chip_11cxx_lib/inc/clock_11xx.h **** #endif
 259:../../lpc11cx4-library/lpc_chip_11cxx_lib/inc/clock_11xx.h **** #if !(defined(CHIP_LPC110X) || defined(CHIP_LPC11XXLV))  
 260:../../lpc11cx4-library/lpc_chip_11cxx_lib/inc/clock_11xx.h **** 	SYSCTL_CLOCK_SSP1,					/*!< 18: SSP1 clock, LPC11A/C/E/Uxx//1125 only */
 261:../../lpc11cx4-library/lpc_chip_11cxx_lib/inc/clock_11xx.h **** #if !defined(CHIP_LPC11CXX)
 262:../../lpc11cx4-library/lpc_chip_11cxx_lib/inc/clock_11xx.h **** 	SYSCTL_CLOCK_PINT,					/*!< 19: GPIO Pin int register interface clock, LPC11A/E/Uxx only */
 263:../../lpc11cx4-library/lpc_chip_11cxx_lib/inc/clock_11xx.h **** #if defined(CHIP_LPC11AXX)
ARM GAS  /tmp/ccSBomBp.s 			page 8


 264:../../lpc11cx4-library/lpc_chip_11cxx_lib/inc/clock_11xx.h **** 	SYSCTL_CLOCK_ACOMP,					/*!< 20: Analog comparator clock, LPC11Axx only */
 265:../../lpc11cx4-library/lpc_chip_11cxx_lib/inc/clock_11xx.h **** 	SYSCTL_CLOCK_DAC,					/*!< 21: DAC clock, LPC11Axx only */
 266:../../lpc11cx4-library/lpc_chip_11cxx_lib/inc/clock_11xx.h **** #else
 267:../../lpc11cx4-library/lpc_chip_11cxx_lib/inc/clock_11xx.h **** 	SYSCTL_CLOCK_RESERVED20,			/*!< 20: Reserved */
 268:../../lpc11cx4-library/lpc_chip_11cxx_lib/inc/clock_11xx.h **** 	SYSCTL_CLOCK_RESERVED21,			/*!< 21: Reserved */
 269:../../lpc11cx4-library/lpc_chip_11cxx_lib/inc/clock_11xx.h **** #endif
 270:../../lpc11cx4-library/lpc_chip_11cxx_lib/inc/clock_11xx.h **** 	SYSCTL_CLOCK_RESERVED22,			/*!< 22: Reserved */
 271:../../lpc11cx4-library/lpc_chip_11cxx_lib/inc/clock_11xx.h **** 	SYSCTL_CLOCK_P0INT,					/*!< 23: GPIO GROUP1 interrupt register clock, LPC11Axx only */
 272:../../lpc11cx4-library/lpc_chip_11cxx_lib/inc/clock_11xx.h **** 	SYSCTL_CLOCK_GROUP0INT = SYSCTL_CLOCK_P0INT,/*!< 23: GPIO GROUP0 interrupt register interface cloc
 273:../../lpc11cx4-library/lpc_chip_11cxx_lib/inc/clock_11xx.h **** 	SYSCTL_CLOCK_P1INT,					/*!< 24: GPIO GROUP1 interrupt register clock, LPC11Axx only */
 274:../../lpc11cx4-library/lpc_chip_11cxx_lib/inc/clock_11xx.h **** 	SYSCTL_CLOCK_GROUP1INT = SYSCTL_CLOCK_P1INT,/*!< 24: GPIO GROUP1 interrupt register interface cloc
 275:../../lpc11cx4-library/lpc_chip_11cxx_lib/inc/clock_11xx.h **** 	SYSCTL_CLOCK_RESERVED25,			/*!< 25: Reserved */
 276:../../lpc11cx4-library/lpc_chip_11cxx_lib/inc/clock_11xx.h **** #if defined(CHIP_LPC11EXX)  || defined(CHIP_LPC11UXX)
 277:../../lpc11cx4-library/lpc_chip_11cxx_lib/inc/clock_11xx.h **** 	SYSCTL_CLOCK_RAM1,					/*!< 26: SRAM block (0x20000000) clock, LPC11E/Uxx only */
 278:../../lpc11cx4-library/lpc_chip_11cxx_lib/inc/clock_11xx.h **** #else
 279:../../lpc11cx4-library/lpc_chip_11cxx_lib/inc/clock_11xx.h **** 	SYSCTL_CLOCK_RESERVED26,			/*!< 26: Reserved */
 280:../../lpc11cx4-library/lpc_chip_11cxx_lib/inc/clock_11xx.h **** #endif
 281:../../lpc11cx4-library/lpc_chip_11cxx_lib/inc/clock_11xx.h **** #if defined(CHIP_LPC11UXX)
 282:../../lpc11cx4-library/lpc_chip_11cxx_lib/inc/clock_11xx.h **** 	SYSCTL_CLOCK_USBRAM,				/*!< 27: USB SRAM block clock, LPC11Uxx only */
 283:../../lpc11cx4-library/lpc_chip_11cxx_lib/inc/clock_11xx.h **** #else
 284:../../lpc11cx4-library/lpc_chip_11cxx_lib/inc/clock_11xx.h **** 	SYSCTL_CLOCK_RESERVED27,			/*!< 27: Reserved */
 285:../../lpc11cx4-library/lpc_chip_11cxx_lib/inc/clock_11xx.h **** #endif
 286:../../lpc11cx4-library/lpc_chip_11cxx_lib/inc/clock_11xx.h **** #endif /* !defined(CHIP_LPC11CXX) */
 287:../../lpc11cx4-library/lpc_chip_11cxx_lib/inc/clock_11xx.h **** #endif /* !(defined(CHIP_LPC110X) || defined(CHIP_LPC11XXLV)) */
 288:../../lpc11cx4-library/lpc_chip_11cxx_lib/inc/clock_11xx.h **** } CHIP_SYSCTL_CLOCK_T;
 289:../../lpc11cx4-library/lpc_chip_11cxx_lib/inc/clock_11xx.h **** 
 290:../../lpc11cx4-library/lpc_chip_11cxx_lib/inc/clock_11xx.h **** /**
 291:../../lpc11cx4-library/lpc_chip_11cxx_lib/inc/clock_11xx.h ****  * @brief	Enable a system or peripheral clock
 292:../../lpc11cx4-library/lpc_chip_11cxx_lib/inc/clock_11xx.h ****  * @param	clk	: Clock to enable
 293:../../lpc11cx4-library/lpc_chip_11cxx_lib/inc/clock_11xx.h ****  * @return	Nothing
 294:../../lpc11cx4-library/lpc_chip_11cxx_lib/inc/clock_11xx.h ****  */
 295:../../lpc11cx4-library/lpc_chip_11cxx_lib/inc/clock_11xx.h **** STATIC INLINE void Chip_Clock_EnablePeriphClock(CHIP_SYSCTL_CLOCK_T clk)
 296:../../lpc11cx4-library/lpc_chip_11cxx_lib/inc/clock_11xx.h **** {
 297:../../lpc11cx4-library/lpc_chip_11cxx_lib/inc/clock_11xx.h **** 	LPC_SYSCTL->SYSAHBCLKCTRL |= (1 << clk);
  85              		.loc 2 297 0
  86 0002 8024     		mov	r4, #128	@ tmp115,
  87 0004 074B     		ldr	r3, .L2	@ tmp113,
  88 0006 6401     		lsl	r4, r4, #5	@ tmp115, tmp115,
  89 0008 191D     		add	r1, r3, #4	@ tmp114, tmp113,
  90 000a CA6F     		ldr	r2, [r1, #124]	@ D.6369, MEM[(struct LPC_SYSCTL_T *)1074036736B].SYSAHBCLKCTRL
  91              	.LBE54:
  92              	.LBE53:
  93              	.LBB56:
  94              	.LBB57:
 298:../../lpc11cx4-library/lpc_chip_11cxx_lib/inc/clock_11xx.h **** }
 299:../../lpc11cx4-library/lpc_chip_11cxx_lib/inc/clock_11xx.h **** 
 300:../../lpc11cx4-library/lpc_chip_11cxx_lib/inc/clock_11xx.h **** /**
 301:../../lpc11cx4-library/lpc_chip_11cxx_lib/inc/clock_11xx.h ****  * @brief	Disable a system or peripheral clock
 302:../../lpc11cx4-library/lpc_chip_11cxx_lib/inc/clock_11xx.h ****  * @param	clk	: Clock to disable
 303:../../lpc11cx4-library/lpc_chip_11cxx_lib/inc/clock_11xx.h ****  * @return	Nothing
 304:../../lpc11cx4-library/lpc_chip_11cxx_lib/inc/clock_11xx.h ****  */
 305:../../lpc11cx4-library/lpc_chip_11cxx_lib/inc/clock_11xx.h **** STATIC INLINE void Chip_Clock_DisablePeriphClock(CHIP_SYSCTL_CLOCK_T clk)
 306:../../lpc11cx4-library/lpc_chip_11cxx_lib/inc/clock_11xx.h **** {
 307:../../lpc11cx4-library/lpc_chip_11cxx_lib/inc/clock_11xx.h **** 	LPC_SYSCTL->SYSAHBCLKCTRL &= ~(1 << clk);
 308:../../lpc11cx4-library/lpc_chip_11cxx_lib/inc/clock_11xx.h **** }
 309:../../lpc11cx4-library/lpc_chip_11cxx_lib/inc/clock_11xx.h **** 
 310:../../lpc11cx4-library/lpc_chip_11cxx_lib/inc/clock_11xx.h **** /**
ARM GAS  /tmp/ccSBomBp.s 			page 9


 311:../../lpc11cx4-library/lpc_chip_11cxx_lib/inc/clock_11xx.h ****  * @brief	Set SSP0 divider
 312:../../lpc11cx4-library/lpc_chip_11cxx_lib/inc/clock_11xx.h ****  * @param	div	: divider for SSP0 clock
 313:../../lpc11cx4-library/lpc_chip_11cxx_lib/inc/clock_11xx.h ****  * @return	Nothing
 314:../../lpc11cx4-library/lpc_chip_11cxx_lib/inc/clock_11xx.h ****  * @note	Use 0 to disable, or a divider value of 1 to 255. The SSP0 clock
 315:../../lpc11cx4-library/lpc_chip_11cxx_lib/inc/clock_11xx.h ****  * rate is the main system clock divided by this value.
 316:../../lpc11cx4-library/lpc_chip_11cxx_lib/inc/clock_11xx.h ****  */
 317:../../lpc11cx4-library/lpc_chip_11cxx_lib/inc/clock_11xx.h **** STATIC INLINE void Chip_Clock_SetSSP0ClockDiv(uint32_t div)
 318:../../lpc11cx4-library/lpc_chip_11cxx_lib/inc/clock_11xx.h **** {
 319:../../lpc11cx4-library/lpc_chip_11cxx_lib/inc/clock_11xx.h **** 	LPC_SYSCTL->SSP0CLKDIV  = div;
 320:../../lpc11cx4-library/lpc_chip_11cxx_lib/inc/clock_11xx.h **** }
 321:../../lpc11cx4-library/lpc_chip_11cxx_lib/inc/clock_11xx.h **** 
 322:../../lpc11cx4-library/lpc_chip_11cxx_lib/inc/clock_11xx.h **** /**
 323:../../lpc11cx4-library/lpc_chip_11cxx_lib/inc/clock_11xx.h ****  * @brief	Return SSP0 divider
 324:../../lpc11cx4-library/lpc_chip_11cxx_lib/inc/clock_11xx.h ****  * @return	divider for SSP0 clock
 325:../../lpc11cx4-library/lpc_chip_11cxx_lib/inc/clock_11xx.h ****  * @note	A value of 0 means the clock is disabled.
 326:../../lpc11cx4-library/lpc_chip_11cxx_lib/inc/clock_11xx.h ****  */
 327:../../lpc11cx4-library/lpc_chip_11cxx_lib/inc/clock_11xx.h **** STATIC INLINE uint32_t Chip_Clock_GetSSP0ClockDiv(void)
 328:../../lpc11cx4-library/lpc_chip_11cxx_lib/inc/clock_11xx.h **** {
 329:../../lpc11cx4-library/lpc_chip_11cxx_lib/inc/clock_11xx.h **** 	return LPC_SYSCTL->SSP0CLKDIV;
 330:../../lpc11cx4-library/lpc_chip_11cxx_lib/inc/clock_11xx.h **** }
 331:../../lpc11cx4-library/lpc_chip_11cxx_lib/inc/clock_11xx.h **** 
 332:../../lpc11cx4-library/lpc_chip_11cxx_lib/inc/clock_11xx.h **** /**
 333:../../lpc11cx4-library/lpc_chip_11cxx_lib/inc/clock_11xx.h ****  * @brief	Set UART divider clock
 334:../../lpc11cx4-library/lpc_chip_11cxx_lib/inc/clock_11xx.h ****  * @param	div	: divider for UART clock
 335:../../lpc11cx4-library/lpc_chip_11cxx_lib/inc/clock_11xx.h ****  * @return	Nothing
 336:../../lpc11cx4-library/lpc_chip_11cxx_lib/inc/clock_11xx.h ****  * @note	Use 0 to disable, or a divider value of 1 to 255. The UART clock
 337:../../lpc11cx4-library/lpc_chip_11cxx_lib/inc/clock_11xx.h ****  * rate is the main system clock divided by this value.
 338:../../lpc11cx4-library/lpc_chip_11cxx_lib/inc/clock_11xx.h ****  */
 339:../../lpc11cx4-library/lpc_chip_11cxx_lib/inc/clock_11xx.h **** STATIC INLINE void Chip_Clock_SetUARTClockDiv(uint32_t div)
 340:../../lpc11cx4-library/lpc_chip_11cxx_lib/inc/clock_11xx.h **** {
 341:../../lpc11cx4-library/lpc_chip_11cxx_lib/inc/clock_11xx.h **** 	LPC_SYSCTL->USARTCLKDIV  = div;
  95              		.loc 2 341 0
  96 000c 9833     		add	r3, r3, #152	@ tmp121,
  97              	.LBE57:
  98              	.LBE56:
  99              	.LBB59:
 100              	.LBB55:
 297:../../lpc11cx4-library/lpc_chip_11cxx_lib/inc/clock_11xx.h **** }
 101              		.loc 2 297 0
 102 000e 2243     		orr	r2, r4	@ D.6369, tmp115
 103 0010 CA67     		str	r2, [r1, #124]	@ D.6369, MEM[(struct LPC_SYSCTL_T *)1074036736B].SYSAHBCLKCTRL
 104              	.LVL1:
 105              	.LBE55:
 106              	.LBE59:
 107              	.LBB60:
 108              	.LBB58:
 109              		.loc 2 341 0
 110 0012 0122     		mov	r2, #1	@ tmp122,
 111 0014 1A60     		str	r2, [r3]	@ tmp122, MEM[(struct LPC_SYSCTL_T *)1074036736B].USARTCLKDIV
 112              	.LVL2:
 113              	.LBE58:
 114              	.LBE60:
 115              	.LBB61:
 116              	.LBB62:
 117              		.file 3 "../../lpc11cx4-library/lpc_chip_11cxx_lib/inc/uart_11xx.h"
   1:../../lpc11cx4-library/lpc_chip_11cxx_lib/inc/uart_11xx.h **** /*
   2:../../lpc11cx4-library/lpc_chip_11cxx_lib/inc/uart_11xx.h ****  * @brief LPC11xx UART chip driver
ARM GAS  /tmp/ccSBomBp.s 			page 10


   3:../../lpc11cx4-library/lpc_chip_11cxx_lib/inc/uart_11xx.h ****  *
   4:../../lpc11cx4-library/lpc_chip_11cxx_lib/inc/uart_11xx.h ****  * @note
   5:../../lpc11cx4-library/lpc_chip_11cxx_lib/inc/uart_11xx.h ****  * Copyright(C) NXP Semiconductors, 2012
   6:../../lpc11cx4-library/lpc_chip_11cxx_lib/inc/uart_11xx.h ****  * All rights reserved.
   7:../../lpc11cx4-library/lpc_chip_11cxx_lib/inc/uart_11xx.h ****  *
   8:../../lpc11cx4-library/lpc_chip_11cxx_lib/inc/uart_11xx.h ****  * @par
   9:../../lpc11cx4-library/lpc_chip_11cxx_lib/inc/uart_11xx.h ****  * Software that is described herein is for illustrative purposes only
  10:../../lpc11cx4-library/lpc_chip_11cxx_lib/inc/uart_11xx.h ****  * which provides customers with programming information regarding the
  11:../../lpc11cx4-library/lpc_chip_11cxx_lib/inc/uart_11xx.h ****  * LPC products.  This software is supplied "AS IS" without any warranties of
  12:../../lpc11cx4-library/lpc_chip_11cxx_lib/inc/uart_11xx.h ****  * any kind, and NXP Semiconductors and its licensor disclaim any and
  13:../../lpc11cx4-library/lpc_chip_11cxx_lib/inc/uart_11xx.h ****  * all warranties, express or implied, including all implied warranties of
  14:../../lpc11cx4-library/lpc_chip_11cxx_lib/inc/uart_11xx.h ****  * merchantability, fitness for a particular purpose and non-infringement of
  15:../../lpc11cx4-library/lpc_chip_11cxx_lib/inc/uart_11xx.h ****  * intellectual property rights.  NXP Semiconductors assumes no responsibility
  16:../../lpc11cx4-library/lpc_chip_11cxx_lib/inc/uart_11xx.h ****  * or liability for the use of the software, conveys no license or rights under any
  17:../../lpc11cx4-library/lpc_chip_11cxx_lib/inc/uart_11xx.h ****  * patent, copyright, mask work right, or any other intellectual property rights in
  18:../../lpc11cx4-library/lpc_chip_11cxx_lib/inc/uart_11xx.h ****  * or to any products. NXP Semiconductors reserves the right to make changes
  19:../../lpc11cx4-library/lpc_chip_11cxx_lib/inc/uart_11xx.h ****  * in the software without notification. NXP Semiconductors also makes no
  20:../../lpc11cx4-library/lpc_chip_11cxx_lib/inc/uart_11xx.h ****  * representation or warranty that such application will be suitable for the
  21:../../lpc11cx4-library/lpc_chip_11cxx_lib/inc/uart_11xx.h ****  * specified use without further testing or modification.
  22:../../lpc11cx4-library/lpc_chip_11cxx_lib/inc/uart_11xx.h ****  *
  23:../../lpc11cx4-library/lpc_chip_11cxx_lib/inc/uart_11xx.h ****  * @par
  24:../../lpc11cx4-library/lpc_chip_11cxx_lib/inc/uart_11xx.h ****  * Permission to use, copy, modify, and distribute this software and its
  25:../../lpc11cx4-library/lpc_chip_11cxx_lib/inc/uart_11xx.h ****  * documentation is hereby granted, under NXP Semiconductors' and its
  26:../../lpc11cx4-library/lpc_chip_11cxx_lib/inc/uart_11xx.h ****  * licensor's relevant copyrights in the software, without fee, provided that it
  27:../../lpc11cx4-library/lpc_chip_11cxx_lib/inc/uart_11xx.h ****  * is used in conjunction with NXP Semiconductors microcontrollers.  This
  28:../../lpc11cx4-library/lpc_chip_11cxx_lib/inc/uart_11xx.h ****  * copyright, permission, and disclaimer notice must appear in all copies of
  29:../../lpc11cx4-library/lpc_chip_11cxx_lib/inc/uart_11xx.h ****  * this code.
  30:../../lpc11cx4-library/lpc_chip_11cxx_lib/inc/uart_11xx.h ****  */
  31:../../lpc11cx4-library/lpc_chip_11cxx_lib/inc/uart_11xx.h **** 
  32:../../lpc11cx4-library/lpc_chip_11cxx_lib/inc/uart_11xx.h **** #ifndef __UART_11XX_H_
  33:../../lpc11cx4-library/lpc_chip_11cxx_lib/inc/uart_11xx.h **** #define __UART_11XX_H_
  34:../../lpc11cx4-library/lpc_chip_11cxx_lib/inc/uart_11xx.h **** 
  35:../../lpc11cx4-library/lpc_chip_11cxx_lib/inc/uart_11xx.h **** #include "ring_buffer.h"
  36:../../lpc11cx4-library/lpc_chip_11cxx_lib/inc/uart_11xx.h **** 
  37:../../lpc11cx4-library/lpc_chip_11cxx_lib/inc/uart_11xx.h **** #ifdef __cplusplus
  38:../../lpc11cx4-library/lpc_chip_11cxx_lib/inc/uart_11xx.h **** extern "C" {
  39:../../lpc11cx4-library/lpc_chip_11cxx_lib/inc/uart_11xx.h **** #endif
  40:../../lpc11cx4-library/lpc_chip_11cxx_lib/inc/uart_11xx.h **** 
  41:../../lpc11cx4-library/lpc_chip_11cxx_lib/inc/uart_11xx.h **** /** @defgroup UART_11XX CHIP: LPC11xx UART driver
  42:../../lpc11cx4-library/lpc_chip_11cxx_lib/inc/uart_11xx.h ****  * @ingroup CHIP_11XX_Drivers
  43:../../lpc11cx4-library/lpc_chip_11cxx_lib/inc/uart_11xx.h ****  * @{
  44:../../lpc11cx4-library/lpc_chip_11cxx_lib/inc/uart_11xx.h ****  */
  45:../../lpc11cx4-library/lpc_chip_11cxx_lib/inc/uart_11xx.h **** 
  46:../../lpc11cx4-library/lpc_chip_11cxx_lib/inc/uart_11xx.h **** /**
  47:../../lpc11cx4-library/lpc_chip_11cxx_lib/inc/uart_11xx.h ****  * @brief USART register block structure
  48:../../lpc11cx4-library/lpc_chip_11cxx_lib/inc/uart_11xx.h ****  */
  49:../../lpc11cx4-library/lpc_chip_11cxx_lib/inc/uart_11xx.h **** typedef struct {					/*!< USARTn Structure       */
  50:../../lpc11cx4-library/lpc_chip_11cxx_lib/inc/uart_11xx.h **** 
  51:../../lpc11cx4-library/lpc_chip_11cxx_lib/inc/uart_11xx.h **** 	union {
  52:../../lpc11cx4-library/lpc_chip_11cxx_lib/inc/uart_11xx.h **** 		__IO uint32_t  DLL;			/*!< Divisor Latch LSB. Least significant byte of the baud rate divisor val
  53:../../lpc11cx4-library/lpc_chip_11cxx_lib/inc/uart_11xx.h **** 		__O  uint32_t  THR;			/*!< Transmit Holding Register. The next character to be transmitted is wri
  54:../../lpc11cx4-library/lpc_chip_11cxx_lib/inc/uart_11xx.h **** 		__I  uint32_t  RBR;			/*!< Receiver Buffer Register. Contains the next received character to be r
  55:../../lpc11cx4-library/lpc_chip_11cxx_lib/inc/uart_11xx.h **** 	};
  56:../../lpc11cx4-library/lpc_chip_11cxx_lib/inc/uart_11xx.h **** 
  57:../../lpc11cx4-library/lpc_chip_11cxx_lib/inc/uart_11xx.h **** 	union {
  58:../../lpc11cx4-library/lpc_chip_11cxx_lib/inc/uart_11xx.h **** 		__IO uint32_t IER;			/*!< Interrupt Enable Register. Contains individual interrupt enable bits fo
  59:../../lpc11cx4-library/lpc_chip_11cxx_lib/inc/uart_11xx.h **** 		__IO uint32_t DLM;			/*!< Divisor Latch MSB. Most significant byte of the baud rate divisor value
ARM GAS  /tmp/ccSBomBp.s 			page 11


  60:../../lpc11cx4-library/lpc_chip_11cxx_lib/inc/uart_11xx.h **** 	};
  61:../../lpc11cx4-library/lpc_chip_11cxx_lib/inc/uart_11xx.h **** 
  62:../../lpc11cx4-library/lpc_chip_11cxx_lib/inc/uart_11xx.h **** 	union {
  63:../../lpc11cx4-library/lpc_chip_11cxx_lib/inc/uart_11xx.h **** 		__O  uint32_t FCR;			/*!< FIFO Control Register. Controls UART FIFO usage and modes. */
  64:../../lpc11cx4-library/lpc_chip_11cxx_lib/inc/uart_11xx.h **** 		__I  uint32_t IIR;			/*!< Interrupt ID Register. Identifies which interrupt(s) are pending. */
  65:../../lpc11cx4-library/lpc_chip_11cxx_lib/inc/uart_11xx.h **** 	};
  66:../../lpc11cx4-library/lpc_chip_11cxx_lib/inc/uart_11xx.h **** 
  67:../../lpc11cx4-library/lpc_chip_11cxx_lib/inc/uart_11xx.h **** 	__IO uint32_t LCR;				/*!< Line Control Register. Contains controls for frame formatting and break
  68:../../lpc11cx4-library/lpc_chip_11cxx_lib/inc/uart_11xx.h **** 	__IO uint32_t MCR;				/*!< Modem Control Register. Only present on USART ports with full modem sup
  69:../../lpc11cx4-library/lpc_chip_11cxx_lib/inc/uart_11xx.h **** 	__I  uint32_t LSR;				/*!< Line Status Register. Contains flags for transmit and receive status, i
  70:../../lpc11cx4-library/lpc_chip_11cxx_lib/inc/uart_11xx.h **** 	__I  uint32_t MSR;				/*!< Modem Status Register. Only present on USART ports with full modem supp
  71:../../lpc11cx4-library/lpc_chip_11cxx_lib/inc/uart_11xx.h **** 	__IO uint32_t SCR;				/*!< Scratch Pad Register. Eight-bit temporary storage for software. */
  72:../../lpc11cx4-library/lpc_chip_11cxx_lib/inc/uart_11xx.h **** 	__IO uint32_t ACR;				/*!< Auto-baud Control Register. Contains controls for the auto-baud feature
  73:../../lpc11cx4-library/lpc_chip_11cxx_lib/inc/uart_11xx.h **** 	__IO uint32_t ICR;				/*!< IrDA control register (not all UARTS) */
  74:../../lpc11cx4-library/lpc_chip_11cxx_lib/inc/uart_11xx.h **** 	__IO uint32_t FDR;				/*!< Fractional Divider Register. Generates a clock input for the baud rate 
  75:../../lpc11cx4-library/lpc_chip_11cxx_lib/inc/uart_11xx.h **** 	__IO uint32_t OSR;				/*!< Oversampling Register. Controls the degree of oversampling during each 
  76:../../lpc11cx4-library/lpc_chip_11cxx_lib/inc/uart_11xx.h **** 	__IO uint32_t TER1;				/*!< Transmit Enable Register. Turns off USART transmitter for use with sof
  77:../../lpc11cx4-library/lpc_chip_11cxx_lib/inc/uart_11xx.h **** 	uint32_t  RESERVED0[3];
  78:../../lpc11cx4-library/lpc_chip_11cxx_lib/inc/uart_11xx.h ****     __IO uint32_t HDEN;				/*!< Half-duplex enable Register- only on some UARTs */
  79:../../lpc11cx4-library/lpc_chip_11cxx_lib/inc/uart_11xx.h **** 	__I  uint32_t RESERVED1[1];
  80:../../lpc11cx4-library/lpc_chip_11cxx_lib/inc/uart_11xx.h **** 	__IO uint32_t SCICTRL;			/*!< Smart card interface control register- only on some UARTs */
  81:../../lpc11cx4-library/lpc_chip_11cxx_lib/inc/uart_11xx.h **** 
  82:../../lpc11cx4-library/lpc_chip_11cxx_lib/inc/uart_11xx.h **** 	__IO uint32_t RS485CTRL;		/*!< RS-485/EIA-485 Control. Contains controls to configure various aspe
  83:../../lpc11cx4-library/lpc_chip_11cxx_lib/inc/uart_11xx.h **** 	__IO uint32_t RS485ADRMATCH;	/*!< RS-485/EIA-485 address match. Contains the address match value f
  84:../../lpc11cx4-library/lpc_chip_11cxx_lib/inc/uart_11xx.h **** 	__IO uint32_t RS485DLY;			/*!< RS-485/EIA-485 direction control delay. */
  85:../../lpc11cx4-library/lpc_chip_11cxx_lib/inc/uart_11xx.h **** 
  86:../../lpc11cx4-library/lpc_chip_11cxx_lib/inc/uart_11xx.h **** 	union {
  87:../../lpc11cx4-library/lpc_chip_11cxx_lib/inc/uart_11xx.h **** 		__IO uint32_t SYNCCTRL;		/*!< Synchronous mode control register. Only on USARTs. */
  88:../../lpc11cx4-library/lpc_chip_11cxx_lib/inc/uart_11xx.h **** 		__I  uint32_t FIFOLVL;		/*!< FIFO Level register. Provides the current fill levels of the transmi
  89:../../lpc11cx4-library/lpc_chip_11cxx_lib/inc/uart_11xx.h **** 	};
  90:../../lpc11cx4-library/lpc_chip_11cxx_lib/inc/uart_11xx.h **** 
  91:../../lpc11cx4-library/lpc_chip_11cxx_lib/inc/uart_11xx.h **** 	__IO uint32_t TER2;				/*!< Transmit Enable Register. Only on LPC177X_8X UART4 and LPC18XX/43XX US
  92:../../lpc11cx4-library/lpc_chip_11cxx_lib/inc/uart_11xx.h **** } LPC_USART_T;
  93:../../lpc11cx4-library/lpc_chip_11cxx_lib/inc/uart_11xx.h **** 
  94:../../lpc11cx4-library/lpc_chip_11cxx_lib/inc/uart_11xx.h **** 
  95:../../lpc11cx4-library/lpc_chip_11cxx_lib/inc/uart_11xx.h **** /**
  96:../../lpc11cx4-library/lpc_chip_11cxx_lib/inc/uart_11xx.h ****  * @brief Macro defines for UART Receive Buffer register
  97:../../lpc11cx4-library/lpc_chip_11cxx_lib/inc/uart_11xx.h ****  */
  98:../../lpc11cx4-library/lpc_chip_11cxx_lib/inc/uart_11xx.h **** #define UART_RBR_MASKBIT    (0xFF)		        /*!< UART Received Buffer mask bit (8 bits) */
  99:../../lpc11cx4-library/lpc_chip_11cxx_lib/inc/uart_11xx.h **** 
 100:../../lpc11cx4-library/lpc_chip_11cxx_lib/inc/uart_11xx.h **** /**
 101:../../lpc11cx4-library/lpc_chip_11cxx_lib/inc/uart_11xx.h ****  * @brief Macro defines for UART Divisor Latch LSB register
 102:../../lpc11cx4-library/lpc_chip_11cxx_lib/inc/uart_11xx.h ****  */
 103:../../lpc11cx4-library/lpc_chip_11cxx_lib/inc/uart_11xx.h **** #define UART_LOAD_DLL(div)  ((div) & 0xFF)		/*!< Macro for loading LSB of divisor */
 104:../../lpc11cx4-library/lpc_chip_11cxx_lib/inc/uart_11xx.h **** #define UART_DLL_MASKBIT    (0xFF)	            /*!< Divisor latch LSB bit mask */
 105:../../lpc11cx4-library/lpc_chip_11cxx_lib/inc/uart_11xx.h **** 
 106:../../lpc11cx4-library/lpc_chip_11cxx_lib/inc/uart_11xx.h **** /**
 107:../../lpc11cx4-library/lpc_chip_11cxx_lib/inc/uart_11xx.h ****  * @brief Macro defines for UART Divisor Latch MSB register
 108:../../lpc11cx4-library/lpc_chip_11cxx_lib/inc/uart_11xx.h ****  */
 109:../../lpc11cx4-library/lpc_chip_11cxx_lib/inc/uart_11xx.h **** #define UART_LOAD_DLM(div)  (((div) >> 8) & 0xFF)	/*!< Macro for loading MSB of divisors */
 110:../../lpc11cx4-library/lpc_chip_11cxx_lib/inc/uart_11xx.h **** #define UART_DLM_MASKBIT    (0xFF)		            /*!< Divisor latch MSB bit mask */
 111:../../lpc11cx4-library/lpc_chip_11cxx_lib/inc/uart_11xx.h **** 
 112:../../lpc11cx4-library/lpc_chip_11cxx_lib/inc/uart_11xx.h **** /**
 113:../../lpc11cx4-library/lpc_chip_11cxx_lib/inc/uart_11xx.h ****  * @brief Macro defines for UART Interrupt Enable Register
 114:../../lpc11cx4-library/lpc_chip_11cxx_lib/inc/uart_11xx.h ****  */
 115:../../lpc11cx4-library/lpc_chip_11cxx_lib/inc/uart_11xx.h **** #define UART_IER_RBRINT      (1 << 0)	/*!< RBR Interrupt enable */
 116:../../lpc11cx4-library/lpc_chip_11cxx_lib/inc/uart_11xx.h **** #define UART_IER_THREINT     (1 << 1)	/*!< THR Interrupt enable */
ARM GAS  /tmp/ccSBomBp.s 			page 12


 117:../../lpc11cx4-library/lpc_chip_11cxx_lib/inc/uart_11xx.h **** #define UART_IER_RLSINT      (1 << 2)	/*!< RX line status interrupt enable */
 118:../../lpc11cx4-library/lpc_chip_11cxx_lib/inc/uart_11xx.h **** #define UART_IER_MSINT       (1 << 3)	/*!< Modem status interrupt enable - valid for 11xx, 17xx/40x
 119:../../lpc11cx4-library/lpc_chip_11cxx_lib/inc/uart_11xx.h **** #define UART_IER_CTSINT      (1 << 7)	/*!< CTS signal transition interrupt enable - valid for 17xx/
 120:../../lpc11cx4-library/lpc_chip_11cxx_lib/inc/uart_11xx.h **** #define UART_IER_ABEOINT     (1 << 8)	/*!< Enables the end of auto-baud interrupt */
 121:../../lpc11cx4-library/lpc_chip_11cxx_lib/inc/uart_11xx.h **** #define UART_IER_ABTOINT     (1 << 9)	/*!< Enables the auto-baud time-out interrupt */
 122:../../lpc11cx4-library/lpc_chip_11cxx_lib/inc/uart_11xx.h **** #define UART_IER_BITMASK     (0x307)	/*!< UART interrupt enable register bit mask  - valid for 13xx
 123:../../lpc11cx4-library/lpc_chip_11cxx_lib/inc/uart_11xx.h **** #define UART1_IER_BITMASK    (0x30F)	/*!< UART1 interrupt enable register bit mask - valid for 11xx
 124:../../lpc11cx4-library/lpc_chip_11cxx_lib/inc/uart_11xx.h **** #define UART2_IER_BITMASK    (0x38F)	/*!< UART2 interrupt enable register bit mask - valid for 17xx
 125:../../lpc11cx4-library/lpc_chip_11cxx_lib/inc/uart_11xx.h **** 
 126:../../lpc11cx4-library/lpc_chip_11cxx_lib/inc/uart_11xx.h **** /**
 127:../../lpc11cx4-library/lpc_chip_11cxx_lib/inc/uart_11xx.h ****  * @brief Macro defines for UART Interrupt Identification Register
 128:../../lpc11cx4-library/lpc_chip_11cxx_lib/inc/uart_11xx.h ****  */
 129:../../lpc11cx4-library/lpc_chip_11cxx_lib/inc/uart_11xx.h **** #define UART_IIR_INTSTAT_PEND   (1 << 0)	/*!< Interrupt pending status - Active low */
 130:../../lpc11cx4-library/lpc_chip_11cxx_lib/inc/uart_11xx.h **** #define UART_IIR_FIFO_EN        (3 << 6)	/*!< These bits are equivalent to FCR[0] */
 131:../../lpc11cx4-library/lpc_chip_11cxx_lib/inc/uart_11xx.h **** #define UART_IIR_ABEO_INT       (1 << 8)	/*!< End of auto-baud interrupt */
 132:../../lpc11cx4-library/lpc_chip_11cxx_lib/inc/uart_11xx.h **** #define UART_IIR_ABTO_INT       (1 << 9)	/*!< Auto-baud time-out interrupt */
 133:../../lpc11cx4-library/lpc_chip_11cxx_lib/inc/uart_11xx.h **** #define UART_IIR_BITMASK        (0x3CF)		/*!< UART interrupt identification register bit mask */
 134:../../lpc11cx4-library/lpc_chip_11cxx_lib/inc/uart_11xx.h **** 
 135:../../lpc11cx4-library/lpc_chip_11cxx_lib/inc/uart_11xx.h **** /* Interrupt ID bit definitions */
 136:../../lpc11cx4-library/lpc_chip_11cxx_lib/inc/uart_11xx.h **** #define UART_IIR_INTID_MASK     (7 << 1)	/*!< Interrupt identification: Interrupt ID mask */
 137:../../lpc11cx4-library/lpc_chip_11cxx_lib/inc/uart_11xx.h **** #define UART_IIR_INTID_RLS      (3 << 1)	/*!< Interrupt identification: Receive line interrupt */
 138:../../lpc11cx4-library/lpc_chip_11cxx_lib/inc/uart_11xx.h **** #define UART_IIR_INTID_RDA      (2 << 1)	/*!< Interrupt identification: Receive data available inte
 139:../../lpc11cx4-library/lpc_chip_11cxx_lib/inc/uart_11xx.h **** #define UART_IIR_INTID_CTI      (6 << 1)	/*!< Interrupt identification: Character time-out indicato
 140:../../lpc11cx4-library/lpc_chip_11cxx_lib/inc/uart_11xx.h **** #define UART_IIR_INTID_THRE     (1 << 1)	/*!< Interrupt identification: THRE interrupt */
 141:../../lpc11cx4-library/lpc_chip_11cxx_lib/inc/uart_11xx.h **** #define UART_IIR_INTID_MODEM    (0 << 1)	/*!< Interrupt identification: Modem interrupt */
 142:../../lpc11cx4-library/lpc_chip_11cxx_lib/inc/uart_11xx.h **** 
 143:../../lpc11cx4-library/lpc_chip_11cxx_lib/inc/uart_11xx.h **** /**
 144:../../lpc11cx4-library/lpc_chip_11cxx_lib/inc/uart_11xx.h ****  * @brief Macro defines for UART FIFO Control Register
 145:../../lpc11cx4-library/lpc_chip_11cxx_lib/inc/uart_11xx.h ****  */
 146:../../lpc11cx4-library/lpc_chip_11cxx_lib/inc/uart_11xx.h **** #define UART_FCR_FIFO_EN        (1 << 0)	/*!< UART FIFO enable */
 147:../../lpc11cx4-library/lpc_chip_11cxx_lib/inc/uart_11xx.h **** #define UART_FCR_RX_RS          (1 << 1)	/*!< UART RX FIFO reset */
 148:../../lpc11cx4-library/lpc_chip_11cxx_lib/inc/uart_11xx.h **** #define UART_FCR_TX_RS          (1 << 2)	/*!< UART TX FIFO reset */
 149:../../lpc11cx4-library/lpc_chip_11cxx_lib/inc/uart_11xx.h **** #define UART_FCR_DMAMODE_SEL    (1 << 3)	/*!< UART DMA mode selection - valid for 17xx/40xx, 18xx/4
 150:../../lpc11cx4-library/lpc_chip_11cxx_lib/inc/uart_11xx.h **** #define UART_FCR_BITMASK        (0xCF)		/*!< UART FIFO control bit mask */
 151:../../lpc11cx4-library/lpc_chip_11cxx_lib/inc/uart_11xx.h **** 
 152:../../lpc11cx4-library/lpc_chip_11cxx_lib/inc/uart_11xx.h **** #define UART_TX_FIFO_SIZE       (16)
 153:../../lpc11cx4-library/lpc_chip_11cxx_lib/inc/uart_11xx.h **** 
 154:../../lpc11cx4-library/lpc_chip_11cxx_lib/inc/uart_11xx.h **** /* FIFO trigger level bit definitions */
 155:../../lpc11cx4-library/lpc_chip_11cxx_lib/inc/uart_11xx.h **** #define UART_FCR_TRG_LEV0       (0)			/*!< UART FIFO trigger level 0: 1 character */
 156:../../lpc11cx4-library/lpc_chip_11cxx_lib/inc/uart_11xx.h **** #define UART_FCR_TRG_LEV1       (1 << 6)	/*!< UART FIFO trigger level 1: 4 character */
 157:../../lpc11cx4-library/lpc_chip_11cxx_lib/inc/uart_11xx.h **** #define UART_FCR_TRG_LEV2       (2 << 6)	/*!< UART FIFO trigger level 2: 8 character */
 158:../../lpc11cx4-library/lpc_chip_11cxx_lib/inc/uart_11xx.h **** #define UART_FCR_TRG_LEV3       (3 << 6)	/*!< UART FIFO trigger level 3: 14 character */
 159:../../lpc11cx4-library/lpc_chip_11cxx_lib/inc/uart_11xx.h **** 
 160:../../lpc11cx4-library/lpc_chip_11cxx_lib/inc/uart_11xx.h **** /**
 161:../../lpc11cx4-library/lpc_chip_11cxx_lib/inc/uart_11xx.h ****  * @brief Macro defines for UART Line Control Register
 162:../../lpc11cx4-library/lpc_chip_11cxx_lib/inc/uart_11xx.h ****  */
 163:../../lpc11cx4-library/lpc_chip_11cxx_lib/inc/uart_11xx.h **** /* UART word length select bit definitions */
 164:../../lpc11cx4-library/lpc_chip_11cxx_lib/inc/uart_11xx.h **** #define UART_LCR_WLEN_MASK      (3 << 0)		/*!< UART word length select bit mask */
 165:../../lpc11cx4-library/lpc_chip_11cxx_lib/inc/uart_11xx.h **** #define UART_LCR_WLEN5          (0 << 0)		/*!< UART word length select: 5 bit data mode */
 166:../../lpc11cx4-library/lpc_chip_11cxx_lib/inc/uart_11xx.h **** #define UART_LCR_WLEN6          (1 << 0)		/*!< UART word length select: 6 bit data mode */
 167:../../lpc11cx4-library/lpc_chip_11cxx_lib/inc/uart_11xx.h **** #define UART_LCR_WLEN7          (2 << 0)		/*!< UART word length select: 7 bit data mode */
 168:../../lpc11cx4-library/lpc_chip_11cxx_lib/inc/uart_11xx.h **** #define UART_LCR_WLEN8          (3 << 0)		/*!< UART word length select: 8 bit data mode */
 169:../../lpc11cx4-library/lpc_chip_11cxx_lib/inc/uart_11xx.h **** 
 170:../../lpc11cx4-library/lpc_chip_11cxx_lib/inc/uart_11xx.h **** /* UART Stop bit select bit definitions */
 171:../../lpc11cx4-library/lpc_chip_11cxx_lib/inc/uart_11xx.h **** #define UART_LCR_SBS_MASK       (1 << 2)		/*!< UART stop bit select: bit mask */
 172:../../lpc11cx4-library/lpc_chip_11cxx_lib/inc/uart_11xx.h **** #define UART_LCR_SBS_1BIT       (0 << 2)		/*!< UART stop bit select: 1 stop bit */
 173:../../lpc11cx4-library/lpc_chip_11cxx_lib/inc/uart_11xx.h **** #define UART_LCR_SBS_2BIT       (1 << 2)		/*!< UART stop bit select: 2 stop bits (in 5 bit data mod
ARM GAS  /tmp/ccSBomBp.s 			page 13


 174:../../lpc11cx4-library/lpc_chip_11cxx_lib/inc/uart_11xx.h **** 
 175:../../lpc11cx4-library/lpc_chip_11cxx_lib/inc/uart_11xx.h **** /* UART Parity enable bit definitions */
 176:../../lpc11cx4-library/lpc_chip_11cxx_lib/inc/uart_11xx.h **** #define UART_LCR_PARITY_EN      (1 << 3)		/*!< UART Parity Enable */
 177:../../lpc11cx4-library/lpc_chip_11cxx_lib/inc/uart_11xx.h **** #define UART_LCR_PARITY_DIS     (0 << 3)		/*!< UART Parity Disable */
 178:../../lpc11cx4-library/lpc_chip_11cxx_lib/inc/uart_11xx.h **** #define UART_LCR_PARITY_ODD     (0 << 4)		/*!< UART Parity select: Odd parity */
 179:../../lpc11cx4-library/lpc_chip_11cxx_lib/inc/uart_11xx.h **** #define UART_LCR_PARITY_EVEN    (1 << 4)		/*!< UART Parity select: Even parity */
 180:../../lpc11cx4-library/lpc_chip_11cxx_lib/inc/uart_11xx.h **** #define UART_LCR_PARITY_F_1     (2 << 4)		/*!< UART Parity select: Forced 1 stick parity */
 181:../../lpc11cx4-library/lpc_chip_11cxx_lib/inc/uart_11xx.h **** #define UART_LCR_PARITY_F_0     (3 << 4)		/*!< UART Parity select: Forced 0 stick parity */
 182:../../lpc11cx4-library/lpc_chip_11cxx_lib/inc/uart_11xx.h **** #define UART_LCR_BREAK_EN       (1 << 6)		/*!< UART Break transmission enable */
 183:../../lpc11cx4-library/lpc_chip_11cxx_lib/inc/uart_11xx.h **** #define UART_LCR_DLAB_EN        (1 << 7)		/*!< UART Divisor Latches Access bit enable */
 184:../../lpc11cx4-library/lpc_chip_11cxx_lib/inc/uart_11xx.h **** #define UART_LCR_BITMASK        (0xFF)			/*!< UART line control bit mask */
 185:../../lpc11cx4-library/lpc_chip_11cxx_lib/inc/uart_11xx.h **** 
 186:../../lpc11cx4-library/lpc_chip_11cxx_lib/inc/uart_11xx.h **** /**
 187:../../lpc11cx4-library/lpc_chip_11cxx_lib/inc/uart_11xx.h ****  * @brief Macro defines for UART Modem Control Register
 188:../../lpc11cx4-library/lpc_chip_11cxx_lib/inc/uart_11xx.h ****  */
 189:../../lpc11cx4-library/lpc_chip_11cxx_lib/inc/uart_11xx.h **** #define UART_MCR_DTR_CTRL       (1 << 0)		/*!< Source for modem output pin DTR */
 190:../../lpc11cx4-library/lpc_chip_11cxx_lib/inc/uart_11xx.h **** #define UART_MCR_RTS_CTRL       (1 << 1)		/*!< Source for modem output pin RTS */
 191:../../lpc11cx4-library/lpc_chip_11cxx_lib/inc/uart_11xx.h **** #define UART_MCR_LOOPB_EN       (1 << 4)		/*!< Loop back mode select */
 192:../../lpc11cx4-library/lpc_chip_11cxx_lib/inc/uart_11xx.h **** #define UART_MCR_AUTO_RTS_EN    (1 << 6)		/*!< Enable Auto RTS flow-control */
 193:../../lpc11cx4-library/lpc_chip_11cxx_lib/inc/uart_11xx.h **** #define UART_MCR_AUTO_CTS_EN    (1 << 7)		/*!< Enable Auto CTS flow-control */
 194:../../lpc11cx4-library/lpc_chip_11cxx_lib/inc/uart_11xx.h **** #define UART_MCR_BITMASK        (0xD3)			/*!< UART bit mask value */
 195:../../lpc11cx4-library/lpc_chip_11cxx_lib/inc/uart_11xx.h **** 
 196:../../lpc11cx4-library/lpc_chip_11cxx_lib/inc/uart_11xx.h **** /**
 197:../../lpc11cx4-library/lpc_chip_11cxx_lib/inc/uart_11xx.h ****  * @brief Macro defines for UART Line Status Register
 198:../../lpc11cx4-library/lpc_chip_11cxx_lib/inc/uart_11xx.h ****  */
 199:../../lpc11cx4-library/lpc_chip_11cxx_lib/inc/uart_11xx.h **** #define UART_LSR_RDR        (1 << 0)	/*!< Line status: Receive data ready */
 200:../../lpc11cx4-library/lpc_chip_11cxx_lib/inc/uart_11xx.h **** #define UART_LSR_OE         (1 << 1)	/*!< Line status: Overrun error */
 201:../../lpc11cx4-library/lpc_chip_11cxx_lib/inc/uart_11xx.h **** #define UART_LSR_PE         (1 << 2)	/*!< Line status: Parity error */
 202:../../lpc11cx4-library/lpc_chip_11cxx_lib/inc/uart_11xx.h **** #define UART_LSR_FE         (1 << 3)	/*!< Line status: Framing error */
 203:../../lpc11cx4-library/lpc_chip_11cxx_lib/inc/uart_11xx.h **** #define UART_LSR_BI         (1 << 4)	/*!< Line status: Break interrupt */
 204:../../lpc11cx4-library/lpc_chip_11cxx_lib/inc/uart_11xx.h **** #define UART_LSR_THRE       (1 << 5)	/*!< Line status: Transmit holding register empty */
 205:../../lpc11cx4-library/lpc_chip_11cxx_lib/inc/uart_11xx.h **** #define UART_LSR_TEMT       (1 << 6)	/*!< Line status: Transmitter empty */
 206:../../lpc11cx4-library/lpc_chip_11cxx_lib/inc/uart_11xx.h **** #define UART_LSR_RXFE       (1 << 7)	/*!< Line status: Error in RX FIFO */
 207:../../lpc11cx4-library/lpc_chip_11cxx_lib/inc/uart_11xx.h **** #define UART_LSR_TXFE       (1 << 8)	/*!< Line status: Error in RX FIFO */
 208:../../lpc11cx4-library/lpc_chip_11cxx_lib/inc/uart_11xx.h **** #define UART_LSR_BITMASK    (0xFF)		/*!< UART Line status bit mask */
 209:../../lpc11cx4-library/lpc_chip_11cxx_lib/inc/uart_11xx.h **** #define UART1_LSR_BITMASK   (0x1FF)		/*!< UART1 Line status bit mask - valid for 11xx, 18xx/43xx UA
 210:../../lpc11cx4-library/lpc_chip_11cxx_lib/inc/uart_11xx.h **** 
 211:../../lpc11cx4-library/lpc_chip_11cxx_lib/inc/uart_11xx.h **** /**
 212:../../lpc11cx4-library/lpc_chip_11cxx_lib/inc/uart_11xx.h ****  * @brief Macro defines for UART Modem Status Register
 213:../../lpc11cx4-library/lpc_chip_11cxx_lib/inc/uart_11xx.h ****  */
 214:../../lpc11cx4-library/lpc_chip_11cxx_lib/inc/uart_11xx.h **** #define UART_MSR_DELTA_CTS      (1 << 0)	/*!< Modem status: State change of input CTS */
 215:../../lpc11cx4-library/lpc_chip_11cxx_lib/inc/uart_11xx.h **** #define UART_MSR_DELTA_DSR      (1 << 1)	/*!< Modem status: State change of input DSR */
 216:../../lpc11cx4-library/lpc_chip_11cxx_lib/inc/uart_11xx.h **** #define UART_MSR_LO2HI_RI       (1 << 2)	/*!< Modem status: Low to high transition of input RI */
 217:../../lpc11cx4-library/lpc_chip_11cxx_lib/inc/uart_11xx.h **** #define UART_MSR_DELTA_DCD      (1 << 3)	/*!< Modem status: State change of input DCD */
 218:../../lpc11cx4-library/lpc_chip_11cxx_lib/inc/uart_11xx.h **** #define UART_MSR_CTS            (1 << 4)	/*!< Modem status: Clear To Send State */
 219:../../lpc11cx4-library/lpc_chip_11cxx_lib/inc/uart_11xx.h **** #define UART_MSR_DSR            (1 << 5)	/*!< Modem status: Data Set Ready State */
 220:../../lpc11cx4-library/lpc_chip_11cxx_lib/inc/uart_11xx.h **** #define UART_MSR_RI             (1 << 6)	/*!< Modem status: Ring Indicator State */
 221:../../lpc11cx4-library/lpc_chip_11cxx_lib/inc/uart_11xx.h **** #define UART_MSR_DCD            (1 << 7)	/*!< Modem status: Data Carrier Detect State */
 222:../../lpc11cx4-library/lpc_chip_11cxx_lib/inc/uart_11xx.h **** #define UART_MSR_BITMASK        (0xFF)		/*!< Modem status: MSR register bit-mask value */
 223:../../lpc11cx4-library/lpc_chip_11cxx_lib/inc/uart_11xx.h **** 
 224:../../lpc11cx4-library/lpc_chip_11cxx_lib/inc/uart_11xx.h **** /**
 225:../../lpc11cx4-library/lpc_chip_11cxx_lib/inc/uart_11xx.h ****  * @brief Macro defines for UART Auto baudrate control register
 226:../../lpc11cx4-library/lpc_chip_11cxx_lib/inc/uart_11xx.h ****  */
 227:../../lpc11cx4-library/lpc_chip_11cxx_lib/inc/uart_11xx.h **** #define UART_ACR_START              (1 << 0)	/*!< UART Auto-baud start */
 228:../../lpc11cx4-library/lpc_chip_11cxx_lib/inc/uart_11xx.h **** #define UART_ACR_MODE               (1 << 1)	/*!< UART Auto baudrate Mode 1 */
 229:../../lpc11cx4-library/lpc_chip_11cxx_lib/inc/uart_11xx.h **** #define UART_ACR_AUTO_RESTART       (1 << 2)	/*!< UART Auto baudrate restart */
 230:../../lpc11cx4-library/lpc_chip_11cxx_lib/inc/uart_11xx.h **** #define UART_ACR_ABEOINT_CLR        (1 << 8)	/*!< UART End of auto-baud interrupt clear */
ARM GAS  /tmp/ccSBomBp.s 			page 14


 231:../../lpc11cx4-library/lpc_chip_11cxx_lib/inc/uart_11xx.h **** #define UART_ACR_ABTOINT_CLR        (1 << 9)	/*!< UART Auto-baud time-out interrupt clear */
 232:../../lpc11cx4-library/lpc_chip_11cxx_lib/inc/uart_11xx.h **** #define UART_ACR_BITMASK            (0x307)		/*!< UART Auto Baudrate register bit mask */
 233:../../lpc11cx4-library/lpc_chip_11cxx_lib/inc/uart_11xx.h **** 
 234:../../lpc11cx4-library/lpc_chip_11cxx_lib/inc/uart_11xx.h **** /**
 235:../../lpc11cx4-library/lpc_chip_11cxx_lib/inc/uart_11xx.h ****  * @brief Macro defines for UART RS485 Control register
 236:../../lpc11cx4-library/lpc_chip_11cxx_lib/inc/uart_11xx.h ****  */
 237:../../lpc11cx4-library/lpc_chip_11cxx_lib/inc/uart_11xx.h **** #define UART_RS485CTRL_NMM_EN       (1 << 0)	/*!< RS-485/EIA-485 Normal Multi-drop Mode (NMM) is di
 238:../../lpc11cx4-library/lpc_chip_11cxx_lib/inc/uart_11xx.h **** #define UART_RS485CTRL_RX_DIS       (1 << 1)	/*!< The receiver is disabled */
 239:../../lpc11cx4-library/lpc_chip_11cxx_lib/inc/uart_11xx.h **** #define UART_RS485CTRL_AADEN        (1 << 2)	/*!< Auto Address Detect (AAD) is enabled */
 240:../../lpc11cx4-library/lpc_chip_11cxx_lib/inc/uart_11xx.h **** #define UART_RS485CTRL_SEL_DTR      (1 << 3)	/*!< If direction control is enabled (bit DCTRL = 1), 
 241:../../lpc11cx4-library/lpc_chip_11cxx_lib/inc/uart_11xx.h **** 												        used for direction control */
 242:../../lpc11cx4-library/lpc_chip_11cxx_lib/inc/uart_11xx.h **** #define UART_RS485CTRL_DCTRL_EN     (1 << 4)	/*!< Enable Auto Direction Control */
 243:../../lpc11cx4-library/lpc_chip_11cxx_lib/inc/uart_11xx.h **** #define UART_RS485CTRL_OINV_1       (1 << 5)	/*!< This bit reverses the polarity of the direction
 244:../../lpc11cx4-library/lpc_chip_11cxx_lib/inc/uart_11xx.h **** 												       control signal on the RTS (or DTR) pin. The direction control pin
 245:../../lpc11cx4-library/lpc_chip_11cxx_lib/inc/uart_11xx.h **** 												       will be driven to logic "1" when the transmitter has data to be sent */
 246:../../lpc11cx4-library/lpc_chip_11cxx_lib/inc/uart_11xx.h **** #define UART_RS485CTRL_BITMASK      (0x3F)		/*!< RS485 control bit-mask value */
 247:../../lpc11cx4-library/lpc_chip_11cxx_lib/inc/uart_11xx.h **** 
 248:../../lpc11cx4-library/lpc_chip_11cxx_lib/inc/uart_11xx.h **** /**
 249:../../lpc11cx4-library/lpc_chip_11cxx_lib/inc/uart_11xx.h ****  * @brief Macro defines for UART IrDA Control Register - valid for 11xx, 17xx/40xx UART0/2/3, 18xx/
 250:../../lpc11cx4-library/lpc_chip_11cxx_lib/inc/uart_11xx.h ****  */
 251:../../lpc11cx4-library/lpc_chip_11cxx_lib/inc/uart_11xx.h **** #define UART_ICR_IRDAEN         (1 << 0)			/*!< IrDA mode enable */
 252:../../lpc11cx4-library/lpc_chip_11cxx_lib/inc/uart_11xx.h **** #define UART_ICR_IRDAINV        (1 << 1)			/*!< IrDA serial input inverted */
 253:../../lpc11cx4-library/lpc_chip_11cxx_lib/inc/uart_11xx.h **** #define UART_ICR_FIXPULSE_EN    (1 << 2)			/*!< IrDA fixed pulse width mode */
 254:../../lpc11cx4-library/lpc_chip_11cxx_lib/inc/uart_11xx.h **** #define UART_ICR_PULSEDIV(n)    ((n & 0x07) << 3)	/*!< PulseDiv - Configures the pulse when FixPuls
 255:../../lpc11cx4-library/lpc_chip_11cxx_lib/inc/uart_11xx.h **** #define UART_ICR_BITMASK        (0x3F)				/*!< UART IRDA bit mask */
 256:../../lpc11cx4-library/lpc_chip_11cxx_lib/inc/uart_11xx.h **** 
 257:../../lpc11cx4-library/lpc_chip_11cxx_lib/inc/uart_11xx.h **** /**
 258:../../lpc11cx4-library/lpc_chip_11cxx_lib/inc/uart_11xx.h ****  * @brief Macro defines for UART half duplex register - ????
 259:../../lpc11cx4-library/lpc_chip_11cxx_lib/inc/uart_11xx.h ****  */
 260:../../lpc11cx4-library/lpc_chip_11cxx_lib/inc/uart_11xx.h **** #define UART_HDEN_HDEN          ((1 << 0))			/*!< enable half-duplex mode*/
 261:../../lpc11cx4-library/lpc_chip_11cxx_lib/inc/uart_11xx.h **** 
 262:../../lpc11cx4-library/lpc_chip_11cxx_lib/inc/uart_11xx.h **** /**
 263:../../lpc11cx4-library/lpc_chip_11cxx_lib/inc/uart_11xx.h ****  * @brief Macro defines for UART Smart card interface Control Register - valid for 11xx, 18xx/43xx 
 264:../../lpc11cx4-library/lpc_chip_11cxx_lib/inc/uart_11xx.h ****  */
 265:../../lpc11cx4-library/lpc_chip_11cxx_lib/inc/uart_11xx.h **** #define UART_SCICTRL_SCIEN        (1 << 0)			/*!< enable asynchronous half-duplex smart card interf
 266:../../lpc11cx4-library/lpc_chip_11cxx_lib/inc/uart_11xx.h **** #define UART_SCICTRL_NACKDIS      (1 << 1)			/*!< NACK response is inhibited*/
 267:../../lpc11cx4-library/lpc_chip_11cxx_lib/inc/uart_11xx.h **** #define UART_SCICTRL_PROTSEL_T1   (1 << 2)			/*!< ISO7816-3 protocol T1 is selected*/
 268:../../lpc11cx4-library/lpc_chip_11cxx_lib/inc/uart_11xx.h **** #define UART_SCICTRL_TXRETRY(n)   ((n & 0x07) << 5)	/*!< number of retransmission*/
 269:../../lpc11cx4-library/lpc_chip_11cxx_lib/inc/uart_11xx.h **** #define UART_SCICTRL_GUARDTIME(n) ((n & 0xFF) << 8)	/*!< Extra guard time*/
 270:../../lpc11cx4-library/lpc_chip_11cxx_lib/inc/uart_11xx.h **** 
 271:../../lpc11cx4-library/lpc_chip_11cxx_lib/inc/uart_11xx.h **** /**
 272:../../lpc11cx4-library/lpc_chip_11cxx_lib/inc/uart_11xx.h ****  * @brief Macro defines for UART Fractional Divider Register
 273:../../lpc11cx4-library/lpc_chip_11cxx_lib/inc/uart_11xx.h ****  */
 274:../../lpc11cx4-library/lpc_chip_11cxx_lib/inc/uart_11xx.h **** #define UART_FDR_DIVADDVAL(n)   (n & 0x0F)			/*!< Baud-rate generation pre-scaler divisor */
 275:../../lpc11cx4-library/lpc_chip_11cxx_lib/inc/uart_11xx.h **** #define UART_FDR_MULVAL(n)      ((n << 4) & 0xF0)	/*!< Baud-rate pre-scaler multiplier value */
 276:../../lpc11cx4-library/lpc_chip_11cxx_lib/inc/uart_11xx.h **** #define UART_FDR_BITMASK        (0xFF)				/*!< UART Fractional Divider register bit mask */
 277:../../lpc11cx4-library/lpc_chip_11cxx_lib/inc/uart_11xx.h **** 
 278:../../lpc11cx4-library/lpc_chip_11cxx_lib/inc/uart_11xx.h **** /**
 279:../../lpc11cx4-library/lpc_chip_11cxx_lib/inc/uart_11xx.h ****  * @brief Macro defines for UART Tx Enable Register
 280:../../lpc11cx4-library/lpc_chip_11cxx_lib/inc/uart_11xx.h ****  */
 281:../../lpc11cx4-library/lpc_chip_11cxx_lib/inc/uart_11xx.h **** #define UART_TER1_TXEN      (1 << 7)		/*!< Transmit enable bit  - valid for 11xx, 13xx, 17xx/40xx o
 282:../../lpc11cx4-library/lpc_chip_11cxx_lib/inc/uart_11xx.h **** #define UART_TER2_TXEN      (1 << 0)		/*!< Transmit enable bit  - valid for 18xx/43xx only */
 283:../../lpc11cx4-library/lpc_chip_11cxx_lib/inc/uart_11xx.h **** 
 284:../../lpc11cx4-library/lpc_chip_11cxx_lib/inc/uart_11xx.h **** /**
 285:../../lpc11cx4-library/lpc_chip_11cxx_lib/inc/uart_11xx.h ****  * @brief Macro defines for UART Synchronous Control Register - 11xx, 18xx/43xx UART0/2/3 only 
 286:../../lpc11cx4-library/lpc_chip_11cxx_lib/inc/uart_11xx.h ****  */
 287:../../lpc11cx4-library/lpc_chip_11cxx_lib/inc/uart_11xx.h **** #define UART_SYNCCTRL_SYNC             (1 << 0)			/*!< enable synchronous mode*/
ARM GAS  /tmp/ccSBomBp.s 			page 15


 288:../../lpc11cx4-library/lpc_chip_11cxx_lib/inc/uart_11xx.h **** #define UART_SYNCCTRL_CSRC_MASTER      (1 << 1)  		/*!< synchronous master mode*/
 289:../../lpc11cx4-library/lpc_chip_11cxx_lib/inc/uart_11xx.h **** #define UART_SYNCCTRL_FES              (1 << 2)			/*!< sample on falling edge*/
 290:../../lpc11cx4-library/lpc_chip_11cxx_lib/inc/uart_11xx.h **** #define UART_SYNCCTRL_TSBYPASS         (1 << 3)			/*!< to be defined*/
 291:../../lpc11cx4-library/lpc_chip_11cxx_lib/inc/uart_11xx.h **** #define UART_SYNCCTRL_CSCEN            (1 << 4)			/*!< Continuous running clock enable (master mode
 292:../../lpc11cx4-library/lpc_chip_11cxx_lib/inc/uart_11xx.h **** #define UART_SYNCCTRL_STARTSTOPDISABLE (1 << 5)	        /*!< Do not send start/stop bit*/
 293:../../lpc11cx4-library/lpc_chip_11cxx_lib/inc/uart_11xx.h **** #define UART_SYNCCTRL_CCCLR            (1 << 6)			/*!< stop continuous clock*/
 294:../../lpc11cx4-library/lpc_chip_11cxx_lib/inc/uart_11xx.h **** 
 295:../../lpc11cx4-library/lpc_chip_11cxx_lib/inc/uart_11xx.h **** /**
 296:../../lpc11cx4-library/lpc_chip_11cxx_lib/inc/uart_11xx.h ****  * @brief	Enable transmission on UART TxD pin
 297:../../lpc11cx4-library/lpc_chip_11cxx_lib/inc/uart_11xx.h ****  * @param	pUART	: Pointer to selected pUART peripheral
 298:../../lpc11cx4-library/lpc_chip_11cxx_lib/inc/uart_11xx.h ****  * @return Nothing
 299:../../lpc11cx4-library/lpc_chip_11cxx_lib/inc/uart_11xx.h ****  */
 300:../../lpc11cx4-library/lpc_chip_11cxx_lib/inc/uart_11xx.h **** STATIC INLINE void Chip_UART_TXEnable(LPC_USART_T *pUART)
 301:../../lpc11cx4-library/lpc_chip_11cxx_lib/inc/uart_11xx.h **** {
 302:../../lpc11cx4-library/lpc_chip_11cxx_lib/inc/uart_11xx.h **** 	pUART->TER1 = UART_TER1_TXEN;
 303:../../lpc11cx4-library/lpc_chip_11cxx_lib/inc/uart_11xx.h **** }
 304:../../lpc11cx4-library/lpc_chip_11cxx_lib/inc/uart_11xx.h **** 
 305:../../lpc11cx4-library/lpc_chip_11cxx_lib/inc/uart_11xx.h **** /**
 306:../../lpc11cx4-library/lpc_chip_11cxx_lib/inc/uart_11xx.h ****  * @brief	Disable transmission on UART TxD pin
 307:../../lpc11cx4-library/lpc_chip_11cxx_lib/inc/uart_11xx.h ****  * @param	pUART	: Pointer to selected pUART peripheral
 308:../../lpc11cx4-library/lpc_chip_11cxx_lib/inc/uart_11xx.h ****  * @return Nothing
 309:../../lpc11cx4-library/lpc_chip_11cxx_lib/inc/uart_11xx.h ****  */
 310:../../lpc11cx4-library/lpc_chip_11cxx_lib/inc/uart_11xx.h **** STATIC INLINE void Chip_UART_TXDisable(LPC_USART_T *pUART)
 311:../../lpc11cx4-library/lpc_chip_11cxx_lib/inc/uart_11xx.h **** {
 312:../../lpc11cx4-library/lpc_chip_11cxx_lib/inc/uart_11xx.h **** 	pUART->TER1 = 0;
 313:../../lpc11cx4-library/lpc_chip_11cxx_lib/inc/uart_11xx.h **** }
 314:../../lpc11cx4-library/lpc_chip_11cxx_lib/inc/uart_11xx.h **** 
 315:../../lpc11cx4-library/lpc_chip_11cxx_lib/inc/uart_11xx.h **** /**
 316:../../lpc11cx4-library/lpc_chip_11cxx_lib/inc/uart_11xx.h ****  * @brief	Transmit a single data byte through the UART peripheral
 317:../../lpc11cx4-library/lpc_chip_11cxx_lib/inc/uart_11xx.h ****  * @param	pUART	: Pointer to selected UART peripheral
 318:../../lpc11cx4-library/lpc_chip_11cxx_lib/inc/uart_11xx.h ****  * @param	data	: Byte to transmit
 319:../../lpc11cx4-library/lpc_chip_11cxx_lib/inc/uart_11xx.h ****  * @return	Nothing
 320:../../lpc11cx4-library/lpc_chip_11cxx_lib/inc/uart_11xx.h ****  * @note	This function attempts to place a byte into the UART transmit
 321:../../lpc11cx4-library/lpc_chip_11cxx_lib/inc/uart_11xx.h ****  *			FIFO or transmit hold register regard regardless of UART state
 322:../../lpc11cx4-library/lpc_chip_11cxx_lib/inc/uart_11xx.h ****  */
 323:../../lpc11cx4-library/lpc_chip_11cxx_lib/inc/uart_11xx.h **** STATIC INLINE void Chip_UART_SendByte(LPC_USART_T *pUART, uint8_t data)
 324:../../lpc11cx4-library/lpc_chip_11cxx_lib/inc/uart_11xx.h **** {
 325:../../lpc11cx4-library/lpc_chip_11cxx_lib/inc/uart_11xx.h **** 	pUART->THR = (uint32_t) data;
 326:../../lpc11cx4-library/lpc_chip_11cxx_lib/inc/uart_11xx.h **** }
 327:../../lpc11cx4-library/lpc_chip_11cxx_lib/inc/uart_11xx.h **** 
 328:../../lpc11cx4-library/lpc_chip_11cxx_lib/inc/uart_11xx.h **** /**
 329:../../lpc11cx4-library/lpc_chip_11cxx_lib/inc/uart_11xx.h ****  * @brief	Read a single byte data from the UART peripheral
 330:../../lpc11cx4-library/lpc_chip_11cxx_lib/inc/uart_11xx.h ****  * @param	pUART	: Pointer to selected UART peripheral
 331:../../lpc11cx4-library/lpc_chip_11cxx_lib/inc/uart_11xx.h ****  * @return	A single byte of data read
 332:../../lpc11cx4-library/lpc_chip_11cxx_lib/inc/uart_11xx.h ****  * @note	This function reads a byte from the UART receive FIFO or
 333:../../lpc11cx4-library/lpc_chip_11cxx_lib/inc/uart_11xx.h ****  *			receive hold register regard regardless of UART state. The
 334:../../lpc11cx4-library/lpc_chip_11cxx_lib/inc/uart_11xx.h ****  *			FIFO status should be read first prior to using this function
 335:../../lpc11cx4-library/lpc_chip_11cxx_lib/inc/uart_11xx.h ****  */
 336:../../lpc11cx4-library/lpc_chip_11cxx_lib/inc/uart_11xx.h **** STATIC INLINE uint8_t Chip_UART_ReadByte(LPC_USART_T *pUART)
 337:../../lpc11cx4-library/lpc_chip_11cxx_lib/inc/uart_11xx.h **** {
 338:../../lpc11cx4-library/lpc_chip_11cxx_lib/inc/uart_11xx.h **** 	return (uint8_t) (pUART->RBR & UART_RBR_MASKBIT);
 339:../../lpc11cx4-library/lpc_chip_11cxx_lib/inc/uart_11xx.h **** }
 340:../../lpc11cx4-library/lpc_chip_11cxx_lib/inc/uart_11xx.h **** 
 341:../../lpc11cx4-library/lpc_chip_11cxx_lib/inc/uart_11xx.h **** /**
 342:../../lpc11cx4-library/lpc_chip_11cxx_lib/inc/uart_11xx.h ****  * @brief	Enable UART interrupts
 343:../../lpc11cx4-library/lpc_chip_11cxx_lib/inc/uart_11xx.h ****  * @param	pUART	: Pointer to selected UART peripheral
 344:../../lpc11cx4-library/lpc_chip_11cxx_lib/inc/uart_11xx.h ****  * @param	intMask	: OR'ed Interrupts to enable in the Interrupt Enable Register (IER)
ARM GAS  /tmp/ccSBomBp.s 			page 16


 345:../../lpc11cx4-library/lpc_chip_11cxx_lib/inc/uart_11xx.h ****  * @return	Nothing
 346:../../lpc11cx4-library/lpc_chip_11cxx_lib/inc/uart_11xx.h ****  * @note	Use an OR'ed value of UART_IER_* definitions with this function
 347:../../lpc11cx4-library/lpc_chip_11cxx_lib/inc/uart_11xx.h ****  *			to enable specific UART interrupts. The Divisor Latch Access Bit
 348:../../lpc11cx4-library/lpc_chip_11cxx_lib/inc/uart_11xx.h ****  *			(DLAB) in LCR must be cleared in order to access the IER register.
 349:../../lpc11cx4-library/lpc_chip_11cxx_lib/inc/uart_11xx.h ****  *			This function doesn't alter the DLAB state
 350:../../lpc11cx4-library/lpc_chip_11cxx_lib/inc/uart_11xx.h ****  */
 351:../../lpc11cx4-library/lpc_chip_11cxx_lib/inc/uart_11xx.h **** STATIC INLINE void Chip_UART_IntEnable(LPC_USART_T *pUART, uint32_t intMask)
 352:../../lpc11cx4-library/lpc_chip_11cxx_lib/inc/uart_11xx.h **** {
 353:../../lpc11cx4-library/lpc_chip_11cxx_lib/inc/uart_11xx.h **** 	pUART->IER |= intMask;
 354:../../lpc11cx4-library/lpc_chip_11cxx_lib/inc/uart_11xx.h **** }
 355:../../lpc11cx4-library/lpc_chip_11cxx_lib/inc/uart_11xx.h **** 
 356:../../lpc11cx4-library/lpc_chip_11cxx_lib/inc/uart_11xx.h **** /**
 357:../../lpc11cx4-library/lpc_chip_11cxx_lib/inc/uart_11xx.h ****  * @brief	Disable UART interrupts
 358:../../lpc11cx4-library/lpc_chip_11cxx_lib/inc/uart_11xx.h ****  * @param	pUART	: Pointer to selected UART peripheral
 359:../../lpc11cx4-library/lpc_chip_11cxx_lib/inc/uart_11xx.h ****  * @param	intMask	: OR'ed Interrupts to disable in the Interrupt Enable Register (IER)
 360:../../lpc11cx4-library/lpc_chip_11cxx_lib/inc/uart_11xx.h ****  * @return	Nothing
 361:../../lpc11cx4-library/lpc_chip_11cxx_lib/inc/uart_11xx.h ****  * @note	Use an OR'ed value of UART_IER_* definitions with this function
 362:../../lpc11cx4-library/lpc_chip_11cxx_lib/inc/uart_11xx.h ****  *			to disable specific UART interrupts. The Divisor Latch Access Bit
 363:../../lpc11cx4-library/lpc_chip_11cxx_lib/inc/uart_11xx.h ****  *			(DLAB) in LCR must be cleared in order to access the IER register.
 364:../../lpc11cx4-library/lpc_chip_11cxx_lib/inc/uart_11xx.h ****  *			This function doesn't alter the DLAB state
 365:../../lpc11cx4-library/lpc_chip_11cxx_lib/inc/uart_11xx.h ****  */
 366:../../lpc11cx4-library/lpc_chip_11cxx_lib/inc/uart_11xx.h **** STATIC INLINE void Chip_UART_IntDisable(LPC_USART_T *pUART, uint32_t intMask)
 367:../../lpc11cx4-library/lpc_chip_11cxx_lib/inc/uart_11xx.h **** {
 368:../../lpc11cx4-library/lpc_chip_11cxx_lib/inc/uart_11xx.h **** 	pUART->IER &= ~intMask;
 369:../../lpc11cx4-library/lpc_chip_11cxx_lib/inc/uart_11xx.h **** }
 370:../../lpc11cx4-library/lpc_chip_11cxx_lib/inc/uart_11xx.h **** 
 371:../../lpc11cx4-library/lpc_chip_11cxx_lib/inc/uart_11xx.h **** /**
 372:../../lpc11cx4-library/lpc_chip_11cxx_lib/inc/uart_11xx.h ****  * @brief	Returns UART interrupts that are enabled
 373:../../lpc11cx4-library/lpc_chip_11cxx_lib/inc/uart_11xx.h ****  * @param	pUART	: Pointer to selected UART peripheral
 374:../../lpc11cx4-library/lpc_chip_11cxx_lib/inc/uart_11xx.h ****  * @return	Returns the enabled UART interrupts
 375:../../lpc11cx4-library/lpc_chip_11cxx_lib/inc/uart_11xx.h ****  * @note	Use an OR'ed value of UART_IER_* definitions with this function
 376:../../lpc11cx4-library/lpc_chip_11cxx_lib/inc/uart_11xx.h ****  *			to determine which interrupts are enabled. You can check
 377:../../lpc11cx4-library/lpc_chip_11cxx_lib/inc/uart_11xx.h ****  *			for multiple enabled bits if needed.
 378:../../lpc11cx4-library/lpc_chip_11cxx_lib/inc/uart_11xx.h ****  */
 379:../../lpc11cx4-library/lpc_chip_11cxx_lib/inc/uart_11xx.h **** STATIC INLINE uint32_t Chip_UART_GetIntsEnabled(LPC_USART_T *pUART)
 380:../../lpc11cx4-library/lpc_chip_11cxx_lib/inc/uart_11xx.h **** {
 381:../../lpc11cx4-library/lpc_chip_11cxx_lib/inc/uart_11xx.h **** 	return pUART->IER;
 382:../../lpc11cx4-library/lpc_chip_11cxx_lib/inc/uart_11xx.h **** }
 383:../../lpc11cx4-library/lpc_chip_11cxx_lib/inc/uart_11xx.h **** 
 384:../../lpc11cx4-library/lpc_chip_11cxx_lib/inc/uart_11xx.h **** /**
 385:../../lpc11cx4-library/lpc_chip_11cxx_lib/inc/uart_11xx.h ****  * @brief	Read the Interrupt Identification Register (IIR)
 386:../../lpc11cx4-library/lpc_chip_11cxx_lib/inc/uart_11xx.h ****  * @param	pUART	: Pointer to selected UART peripheral
 387:../../lpc11cx4-library/lpc_chip_11cxx_lib/inc/uart_11xx.h ****  * @return	Current pending interrupt status per the IIR register
 388:../../lpc11cx4-library/lpc_chip_11cxx_lib/inc/uart_11xx.h ****  */
 389:../../lpc11cx4-library/lpc_chip_11cxx_lib/inc/uart_11xx.h **** STATIC INLINE uint32_t Chip_UART_ReadIntIDReg(LPC_USART_T *pUART)
 390:../../lpc11cx4-library/lpc_chip_11cxx_lib/inc/uart_11xx.h **** {
 391:../../lpc11cx4-library/lpc_chip_11cxx_lib/inc/uart_11xx.h **** 	return pUART->IIR;
 392:../../lpc11cx4-library/lpc_chip_11cxx_lib/inc/uart_11xx.h **** }
 393:../../lpc11cx4-library/lpc_chip_11cxx_lib/inc/uart_11xx.h **** 
 394:../../lpc11cx4-library/lpc_chip_11cxx_lib/inc/uart_11xx.h **** /**
 395:../../lpc11cx4-library/lpc_chip_11cxx_lib/inc/uart_11xx.h ****  * @brief	Setup the UART FIFOs
 396:../../lpc11cx4-library/lpc_chip_11cxx_lib/inc/uart_11xx.h ****  * @param	pUART	: Pointer to selected UART peripheral
 397:../../lpc11cx4-library/lpc_chip_11cxx_lib/inc/uart_11xx.h ****  * @param	fcr		: FIFO control register setup OR'ed flags
 398:../../lpc11cx4-library/lpc_chip_11cxx_lib/inc/uart_11xx.h ****  * @return	Nothing
 399:../../lpc11cx4-library/lpc_chip_11cxx_lib/inc/uart_11xx.h ****  * @note	Use OR'ed value of UART_FCR_* definitions with this function
 400:../../lpc11cx4-library/lpc_chip_11cxx_lib/inc/uart_11xx.h ****  *			to select specific options. For example, to enable the FIFOs
 401:../../lpc11cx4-library/lpc_chip_11cxx_lib/inc/uart_11xx.h ****  *			with a RX trip level of 8 characters, use something like
ARM GAS  /tmp/ccSBomBp.s 			page 17


 402:../../lpc11cx4-library/lpc_chip_11cxx_lib/inc/uart_11xx.h ****  *			(UART_FCR_FIFO_EN | UART_FCR_TRG_LEV2)
 403:../../lpc11cx4-library/lpc_chip_11cxx_lib/inc/uart_11xx.h ****  */
 404:../../lpc11cx4-library/lpc_chip_11cxx_lib/inc/uart_11xx.h **** STATIC INLINE void Chip_UART_SetupFIFOS(LPC_USART_T *pUART, uint32_t fcr)
 405:../../lpc11cx4-library/lpc_chip_11cxx_lib/inc/uart_11xx.h **** {
 406:../../lpc11cx4-library/lpc_chip_11cxx_lib/inc/uart_11xx.h **** 	pUART->FCR = fcr;
 118              		.loc 3 406 0
 119 0016 0723     		mov	r3, #7	@ tmp123,
 120 0018 8360     		str	r3, [r0, #8]	@ tmp123, pUART_4(D)->D.5011.FCR
 121              	.LVL3:
 122              	.LBE62:
 123              	.LBE61:
 124              	.LBB63:
 125              	.LBB64:
 407:../../lpc11cx4-library/lpc_chip_11cxx_lib/inc/uart_11xx.h **** }
 408:../../lpc11cx4-library/lpc_chip_11cxx_lib/inc/uart_11xx.h **** 
 409:../../lpc11cx4-library/lpc_chip_11cxx_lib/inc/uart_11xx.h **** /**
 410:../../lpc11cx4-library/lpc_chip_11cxx_lib/inc/uart_11xx.h ****  * @brief	Configure data width, parity and stop bits
 411:../../lpc11cx4-library/lpc_chip_11cxx_lib/inc/uart_11xx.h ****  * @param	pUART	: Pointer to selected pUART peripheral
 412:../../lpc11cx4-library/lpc_chip_11cxx_lib/inc/uart_11xx.h ****  * @param	config	: UART configuration, OR'ed values of UART_LCR_* defines
 413:../../lpc11cx4-library/lpc_chip_11cxx_lib/inc/uart_11xx.h ****  * @return	Nothing
 414:../../lpc11cx4-library/lpc_chip_11cxx_lib/inc/uart_11xx.h ****  * @note	Select OR'ed config options for the UART from the UART_LCR_*
 415:../../lpc11cx4-library/lpc_chip_11cxx_lib/inc/uart_11xx.h ****  *			definitions. For example, a configuration of 8 data bits, 1
 416:../../lpc11cx4-library/lpc_chip_11cxx_lib/inc/uart_11xx.h ****  *			stop bit, and even (enabled) parity would be
 417:../../lpc11cx4-library/lpc_chip_11cxx_lib/inc/uart_11xx.h ****  *			(UART_LCR_WLEN8 | UART_LCR_SBS_1BIT | UART_LCR_PARITY_EN | UART_LCR_PARITY_EVEN)
 418:../../lpc11cx4-library/lpc_chip_11cxx_lib/inc/uart_11xx.h ****  */
 419:../../lpc11cx4-library/lpc_chip_11cxx_lib/inc/uart_11xx.h **** STATIC INLINE void Chip_UART_ConfigData(LPC_USART_T *pUART, uint32_t config)
 420:../../lpc11cx4-library/lpc_chip_11cxx_lib/inc/uart_11xx.h **** {
 421:../../lpc11cx4-library/lpc_chip_11cxx_lib/inc/uart_11xx.h **** 	pUART->LCR = config;
 126              		.loc 3 421 0
 127 001a 043B     		sub	r3, r3, #4	@ tmp124,
 128 001c C360     		str	r3, [r0, #12]	@ tmp124, pUART_4(D)->LCR
 129              	.LBE64:
 130              	.LBE63:
  53:../../lpc11cx4-library/lpc_chip_11cxx_lib/src/uart_11xx.c **** 	Chip_Clock_EnablePeriphClock(SYSCTL_CLOCK_UART0);
  54:../../lpc11cx4-library/lpc_chip_11cxx_lib/src/uart_11xx.c **** 	Chip_Clock_SetUARTClockDiv(1);
  55:../../lpc11cx4-library/lpc_chip_11cxx_lib/src/uart_11xx.c **** 
  56:../../lpc11cx4-library/lpc_chip_11cxx_lib/src/uart_11xx.c **** 	/* Enable FIFOs by default, reset them */
  57:../../lpc11cx4-library/lpc_chip_11cxx_lib/src/uart_11xx.c **** 	Chip_UART_SetupFIFOS(pUART, (UART_FCR_FIFO_EN | UART_FCR_RX_RS | UART_FCR_TX_RS));
  58:../../lpc11cx4-library/lpc_chip_11cxx_lib/src/uart_11xx.c **** 
  59:../../lpc11cx4-library/lpc_chip_11cxx_lib/src/uart_11xx.c **** 	/* Default 8N1, with DLAB disabled */
  60:../../lpc11cx4-library/lpc_chip_11cxx_lib/src/uart_11xx.c **** 	Chip_UART_ConfigData(pUART, (UART_LCR_WLEN8 | UART_LCR_SBS_1BIT | UART_LCR_PARITY_DIS));
  61:../../lpc11cx4-library/lpc_chip_11cxx_lib/src/uart_11xx.c **** 
  62:../../lpc11cx4-library/lpc_chip_11cxx_lib/src/uart_11xx.c **** 	/* Disable fractional divider */
  63:../../lpc11cx4-library/lpc_chip_11cxx_lib/src/uart_11xx.c **** 	pUART->FDR = 0x10;
 131              		.loc 1 63 0
 132 001e 0D33     		add	r3, r3, #13	@ tmp125,
 133 0020 8362     		str	r3, [r0, #40]	@ tmp125, pUART_4(D)->FDR
  64:../../lpc11cx4-library/lpc_chip_11cxx_lib/src/uart_11xx.c **** }
 134              		.loc 1 64 0
 135              		@ sp needed	@
 136 0022 10BD     		pop	{r4, pc}
 137              	.L3:
 138              		.align	2
 139              	.L2:
 140 0024 00800440 		.word	1074036736
 141              		.cfi_endproc
 142              	.LFE198:
ARM GAS  /tmp/ccSBomBp.s 			page 18


 143              		.size	Chip_UART_Init, .-Chip_UART_Init
 144              		.section	.text.Chip_UART_DeInit,"ax",%progbits
 145              		.align	1
 146              		.global	Chip_UART_DeInit
 147              		.code	16
 148              		.thumb_func
 149              		.type	Chip_UART_DeInit, %function
 150              	Chip_UART_DeInit:
 151              	.LFB199:
  65:../../lpc11cx4-library/lpc_chip_11cxx_lib/src/uart_11xx.c **** 
  66:../../lpc11cx4-library/lpc_chip_11cxx_lib/src/uart_11xx.c **** /* De-initializes the pUART peripheral */
  67:../../lpc11cx4-library/lpc_chip_11cxx_lib/src/uart_11xx.c **** void Chip_UART_DeInit(LPC_USART_T *pUART)
  68:../../lpc11cx4-library/lpc_chip_11cxx_lib/src/uart_11xx.c **** {
 152              		.loc 1 68 0
 153              		.cfi_startproc
 154              	.LVL4:
 155              	.LBB67:
 156              	.LBB68:
 307:../../lpc11cx4-library/lpc_chip_11cxx_lib/inc/clock_11xx.h **** }
 157              		.loc 2 307 0
 158 0000 024A     		ldr	r2, .L5	@ tmp114,
 159 0002 034B     		ldr	r3, .L5+4	@ tmp115,
 160 0004 D16F     		ldr	r1, [r2, #124]	@ D.6373, MEM[(struct LPC_SYSCTL_T *)1074036736B].SYSAHBCLKCTRL
 161              	.LBE68:
 162              	.LBE67:
  69:../../lpc11cx4-library/lpc_chip_11cxx_lib/src/uart_11xx.c **** 	Chip_Clock_DisablePeriphClock(SYSCTL_CLOCK_UART0);
  70:../../lpc11cx4-library/lpc_chip_11cxx_lib/src/uart_11xx.c **** }
 163              		.loc 1 70 0
 164              		@ sp needed	@
 165              	.LBB70:
 166              	.LBB69:
 307:../../lpc11cx4-library/lpc_chip_11cxx_lib/inc/clock_11xx.h **** }
 167              		.loc 2 307 0
 168 0006 0B40     		and	r3, r1	@ D.6373, D.6373
 169 0008 D367     		str	r3, [r2, #124]	@ D.6373, MEM[(struct LPC_SYSCTL_T *)1074036736B].SYSAHBCLKCTRL
 170              	.LBE69:
 171              	.LBE70:
 172              		.loc 1 70 0
 173 000a 7047     		bx	lr
 174              	.L6:
 175              		.align	2
 176              	.L5:
 177 000c 04800440 		.word	1074036740
 178 0010 FFEFFFFF 		.word	-4097
 179              		.cfi_endproc
 180              	.LFE199:
 181              		.size	Chip_UART_DeInit, .-Chip_UART_DeInit
 182              		.section	.text.Chip_UART_Send,"ax",%progbits
 183              		.align	1
 184              		.global	Chip_UART_Send
 185              		.code	16
 186              		.thumb_func
 187              		.type	Chip_UART_Send, %function
 188              	Chip_UART_Send:
 189              	.LFB200:
  71:../../lpc11cx4-library/lpc_chip_11cxx_lib/src/uart_11xx.c **** 
  72:../../lpc11cx4-library/lpc_chip_11cxx_lib/src/uart_11xx.c **** /* Transmit a byte array through the UART peripheral (non-blocking) */
ARM GAS  /tmp/ccSBomBp.s 			page 19


  73:../../lpc11cx4-library/lpc_chip_11cxx_lib/src/uart_11xx.c **** int Chip_UART_Send(LPC_USART_T *pUART, const void *data, int numBytes)
  74:../../lpc11cx4-library/lpc_chip_11cxx_lib/src/uart_11xx.c **** {
 190              		.loc 1 74 0
 191              		.cfi_startproc
 192              	.LVL5:
  75:../../lpc11cx4-library/lpc_chip_11cxx_lib/src/uart_11xx.c **** 	int sent = 0;
 193              		.loc 1 75 0
 194 0000 0023     		mov	r3, #0	@ sent,
  74:../../lpc11cx4-library/lpc_chip_11cxx_lib/src/uart_11xx.c **** 	int sent = 0;
 195              		.loc 1 74 0
 196 0002 10B5     		push	{r4, lr}	@
 197              		.cfi_def_cfa_offset 8
 198              		.cfi_offset 4, -8
 199              		.cfi_offset 14, -4
 200              	.LVL6:
 201              	.L8:
  76:../../lpc11cx4-library/lpc_chip_11cxx_lib/src/uart_11xx.c **** 	uint8_t *p8 = (uint8_t *) data;
  77:../../lpc11cx4-library/lpc_chip_11cxx_lib/src/uart_11xx.c **** 
  78:../../lpc11cx4-library/lpc_chip_11cxx_lib/src/uart_11xx.c **** 	/* Send until the transmit FIFO is full or out of bytes */
  79:../../lpc11cx4-library/lpc_chip_11cxx_lib/src/uart_11xx.c **** 	while ((sent < numBytes) &&
 202              		.loc 1 79 0
 203 0004 9342     		cmp	r3, r2	@ sent, numBytes
 204 0006 06DA     		bge	.L12	@,
 205              	.LVL7:
 206              	.LBB71:
 207              	.LBB72:
 422:../../lpc11cx4-library/lpc_chip_11cxx_lib/inc/uart_11xx.h **** }
 423:../../lpc11cx4-library/lpc_chip_11cxx_lib/inc/uart_11xx.h **** 
 424:../../lpc11cx4-library/lpc_chip_11cxx_lib/inc/uart_11xx.h **** /**
 425:../../lpc11cx4-library/lpc_chip_11cxx_lib/inc/uart_11xx.h ****  * @brief	Enable access to Divisor Latches
 426:../../lpc11cx4-library/lpc_chip_11cxx_lib/inc/uart_11xx.h ****  * @param	pUART	: Pointer to selected UART peripheral
 427:../../lpc11cx4-library/lpc_chip_11cxx_lib/inc/uart_11xx.h ****  * @return	Nothing
 428:../../lpc11cx4-library/lpc_chip_11cxx_lib/inc/uart_11xx.h ****  */
 429:../../lpc11cx4-library/lpc_chip_11cxx_lib/inc/uart_11xx.h **** STATIC INLINE void Chip_UART_EnableDivisorAccess(LPC_USART_T *pUART)
 430:../../lpc11cx4-library/lpc_chip_11cxx_lib/inc/uart_11xx.h **** {
 431:../../lpc11cx4-library/lpc_chip_11cxx_lib/inc/uart_11xx.h **** 	pUART->LCR |= UART_LCR_DLAB_EN;
 432:../../lpc11cx4-library/lpc_chip_11cxx_lib/inc/uart_11xx.h **** }
 433:../../lpc11cx4-library/lpc_chip_11cxx_lib/inc/uart_11xx.h **** 
 434:../../lpc11cx4-library/lpc_chip_11cxx_lib/inc/uart_11xx.h **** /**
 435:../../lpc11cx4-library/lpc_chip_11cxx_lib/inc/uart_11xx.h ****  * @brief	Disable access to Divisor Latches
 436:../../lpc11cx4-library/lpc_chip_11cxx_lib/inc/uart_11xx.h ****  * @param	pUART	: Pointer to selected UART peripheral
 437:../../lpc11cx4-library/lpc_chip_11cxx_lib/inc/uart_11xx.h ****  * @return	Nothing
 438:../../lpc11cx4-library/lpc_chip_11cxx_lib/inc/uart_11xx.h ****  */
 439:../../lpc11cx4-library/lpc_chip_11cxx_lib/inc/uart_11xx.h **** STATIC INLINE void Chip_UART_DisableDivisorAccess(LPC_USART_T *pUART)
 440:../../lpc11cx4-library/lpc_chip_11cxx_lib/inc/uart_11xx.h **** {
 441:../../lpc11cx4-library/lpc_chip_11cxx_lib/inc/uart_11xx.h **** 	pUART->LCR &= ~UART_LCR_DLAB_EN;
 442:../../lpc11cx4-library/lpc_chip_11cxx_lib/inc/uart_11xx.h **** }
 443:../../lpc11cx4-library/lpc_chip_11cxx_lib/inc/uart_11xx.h **** 
 444:../../lpc11cx4-library/lpc_chip_11cxx_lib/inc/uart_11xx.h **** /**
 445:../../lpc11cx4-library/lpc_chip_11cxx_lib/inc/uart_11xx.h ****  * @brief	Set LSB and MSB divisor latch registers
 446:../../lpc11cx4-library/lpc_chip_11cxx_lib/inc/uart_11xx.h ****  * @param	pUART	: Pointer to selected UART peripheral
 447:../../lpc11cx4-library/lpc_chip_11cxx_lib/inc/uart_11xx.h ****  * @param	dll		: Divisor Latch LSB value
 448:../../lpc11cx4-library/lpc_chip_11cxx_lib/inc/uart_11xx.h ****  * @param	dlm		: Divisor Latch MSB value
 449:../../lpc11cx4-library/lpc_chip_11cxx_lib/inc/uart_11xx.h ****  * @return	Nothing
 450:../../lpc11cx4-library/lpc_chip_11cxx_lib/inc/uart_11xx.h ****  * @note	The Divisor Latch Access Bit (DLAB) in LCR must be set in
 451:../../lpc11cx4-library/lpc_chip_11cxx_lib/inc/uart_11xx.h ****  *			order to access the USART Divisor Latches. This function
 452:../../lpc11cx4-library/lpc_chip_11cxx_lib/inc/uart_11xx.h ****  *			doesn't alter the DLAB state.
ARM GAS  /tmp/ccSBomBp.s 			page 20


 453:../../lpc11cx4-library/lpc_chip_11cxx_lib/inc/uart_11xx.h ****  */
 454:../../lpc11cx4-library/lpc_chip_11cxx_lib/inc/uart_11xx.h **** STATIC INLINE void Chip_UART_SetDivisorLatches(LPC_USART_T *pUART, uint8_t dll, uint8_t dlm)
 455:../../lpc11cx4-library/lpc_chip_11cxx_lib/inc/uart_11xx.h **** {
 456:../../lpc11cx4-library/lpc_chip_11cxx_lib/inc/uart_11xx.h **** 	pUART->DLL = (uint32_t) dll;
 457:../../lpc11cx4-library/lpc_chip_11cxx_lib/inc/uart_11xx.h **** 	pUART->DLM = (uint32_t) dlm;
 458:../../lpc11cx4-library/lpc_chip_11cxx_lib/inc/uart_11xx.h **** }
 459:../../lpc11cx4-library/lpc_chip_11cxx_lib/inc/uart_11xx.h **** 
 460:../../lpc11cx4-library/lpc_chip_11cxx_lib/inc/uart_11xx.h **** /**
 461:../../lpc11cx4-library/lpc_chip_11cxx_lib/inc/uart_11xx.h ****  * @brief	Return modem control register/status
 462:../../lpc11cx4-library/lpc_chip_11cxx_lib/inc/uart_11xx.h ****  * @param	pUART	: Pointer to selected UART peripheral
 463:../../lpc11cx4-library/lpc_chip_11cxx_lib/inc/uart_11xx.h ****  * @return	Modem control register (status)
 464:../../lpc11cx4-library/lpc_chip_11cxx_lib/inc/uart_11xx.h ****  * @note	Mask bits of the returned status value with UART_MCR_*
 465:../../lpc11cx4-library/lpc_chip_11cxx_lib/inc/uart_11xx.h ****  *			definitions for specific statuses.
 466:../../lpc11cx4-library/lpc_chip_11cxx_lib/inc/uart_11xx.h ****  */
 467:../../lpc11cx4-library/lpc_chip_11cxx_lib/inc/uart_11xx.h **** STATIC INLINE uint32_t Chip_UART_ReadModemControl(LPC_USART_T *pUART)
 468:../../lpc11cx4-library/lpc_chip_11cxx_lib/inc/uart_11xx.h **** {
 469:../../lpc11cx4-library/lpc_chip_11cxx_lib/inc/uart_11xx.h **** 	return pUART->MCR;
 470:../../lpc11cx4-library/lpc_chip_11cxx_lib/inc/uart_11xx.h **** }
 471:../../lpc11cx4-library/lpc_chip_11cxx_lib/inc/uart_11xx.h **** 
 472:../../lpc11cx4-library/lpc_chip_11cxx_lib/inc/uart_11xx.h **** /**
 473:../../lpc11cx4-library/lpc_chip_11cxx_lib/inc/uart_11xx.h ****  * @brief	Set modem control register/status
 474:../../lpc11cx4-library/lpc_chip_11cxx_lib/inc/uart_11xx.h ****  * @param	pUART	: Pointer to selected UART peripheral
 475:../../lpc11cx4-library/lpc_chip_11cxx_lib/inc/uart_11xx.h ****  * @param	mcr		: Modem control register flags to set
 476:../../lpc11cx4-library/lpc_chip_11cxx_lib/inc/uart_11xx.h ****  * @return	Nothing
 477:../../lpc11cx4-library/lpc_chip_11cxx_lib/inc/uart_11xx.h ****  * @note	Use an Or'ed value of UART_MCR_* definitions with this
 478:../../lpc11cx4-library/lpc_chip_11cxx_lib/inc/uart_11xx.h ****  *			call to set specific options.
 479:../../lpc11cx4-library/lpc_chip_11cxx_lib/inc/uart_11xx.h ****  */
 480:../../lpc11cx4-library/lpc_chip_11cxx_lib/inc/uart_11xx.h **** STATIC INLINE void Chip_UART_SetModemControl(LPC_USART_T *pUART, uint32_t mcr)
 481:../../lpc11cx4-library/lpc_chip_11cxx_lib/inc/uart_11xx.h **** {
 482:../../lpc11cx4-library/lpc_chip_11cxx_lib/inc/uart_11xx.h **** 	pUART->MCR |= mcr;
 483:../../lpc11cx4-library/lpc_chip_11cxx_lib/inc/uart_11xx.h **** }
 484:../../lpc11cx4-library/lpc_chip_11cxx_lib/inc/uart_11xx.h **** 
 485:../../lpc11cx4-library/lpc_chip_11cxx_lib/inc/uart_11xx.h **** /**
 486:../../lpc11cx4-library/lpc_chip_11cxx_lib/inc/uart_11xx.h ****  * @brief	Clear modem control register/status
 487:../../lpc11cx4-library/lpc_chip_11cxx_lib/inc/uart_11xx.h ****  * @param	pUART	: Pointer to selected UART peripheral
 488:../../lpc11cx4-library/lpc_chip_11cxx_lib/inc/uart_11xx.h ****  * @param	mcr		: Modem control register flags to clear
 489:../../lpc11cx4-library/lpc_chip_11cxx_lib/inc/uart_11xx.h ****  * @return	Nothing
 490:../../lpc11cx4-library/lpc_chip_11cxx_lib/inc/uart_11xx.h ****  * @note	Use an Or'ed value of UART_MCR_* definitions with this
 491:../../lpc11cx4-library/lpc_chip_11cxx_lib/inc/uart_11xx.h ****  *			call to clear specific options.
 492:../../lpc11cx4-library/lpc_chip_11cxx_lib/inc/uart_11xx.h ****  */
 493:../../lpc11cx4-library/lpc_chip_11cxx_lib/inc/uart_11xx.h **** STATIC INLINE void Chip_UART_ClearModemControl(LPC_USART_T *pUART, uint32_t mcr)
 494:../../lpc11cx4-library/lpc_chip_11cxx_lib/inc/uart_11xx.h **** {
 495:../../lpc11cx4-library/lpc_chip_11cxx_lib/inc/uart_11xx.h **** 	pUART->MCR &= ~mcr;
 496:../../lpc11cx4-library/lpc_chip_11cxx_lib/inc/uart_11xx.h **** }
 497:../../lpc11cx4-library/lpc_chip_11cxx_lib/inc/uart_11xx.h **** 
 498:../../lpc11cx4-library/lpc_chip_11cxx_lib/inc/uart_11xx.h **** /**
 499:../../lpc11cx4-library/lpc_chip_11cxx_lib/inc/uart_11xx.h ****  * @brief	Return Line Status register/status (LSR)
 500:../../lpc11cx4-library/lpc_chip_11cxx_lib/inc/uart_11xx.h ****  * @param	pUART	: Pointer to selected UART peripheral
 501:../../lpc11cx4-library/lpc_chip_11cxx_lib/inc/uart_11xx.h ****  * @return	Line Status register (status)
 502:../../lpc11cx4-library/lpc_chip_11cxx_lib/inc/uart_11xx.h ****  * @note	Mask bits of the returned status value with UART_LSR_*
 503:../../lpc11cx4-library/lpc_chip_11cxx_lib/inc/uart_11xx.h ****  *			definitions for specific statuses.
 504:../../lpc11cx4-library/lpc_chip_11cxx_lib/inc/uart_11xx.h ****  */
 505:../../lpc11cx4-library/lpc_chip_11cxx_lib/inc/uart_11xx.h **** STATIC INLINE uint32_t Chip_UART_ReadLineStatus(LPC_USART_T *pUART)
 506:../../lpc11cx4-library/lpc_chip_11cxx_lib/inc/uart_11xx.h **** {
 507:../../lpc11cx4-library/lpc_chip_11cxx_lib/inc/uart_11xx.h **** 	return pUART->LSR;
 208              		.loc 3 507 0
 209 0008 4469     		ldr	r4, [r0, #20]	@ D.6385, pUART_7(D)->LSR
ARM GAS  /tmp/ccSBomBp.s 			page 21


 210              	.LBE72:
 211              	.LBE71:
 212              		.loc 1 79 0
 213 000a A406     		lsl	r4, r4, #26	@ tmp147, D.6385,
 214 000c 03D5     		bpl	.L12	@,
 215              	.LVL8:
 216              	.LBB73:
 217              	.LBB74:
 325:../../lpc11cx4-library/lpc_chip_11cxx_lib/inc/uart_11xx.h **** }
 218              		.loc 3 325 0
 219 000e CC5C     		ldrb	r4, [r1, r3]	@ D.6383, MEM[base: data_4(D), index: _17, offset: 0B]
 220              	.LBE74:
 221              	.LBE73:
  80:../../lpc11cx4-library/lpc_chip_11cxx_lib/src/uart_11xx.c **** 		   ((Chip_UART_ReadLineStatus(pUART) & UART_LSR_THRE) != 0)) {
  81:../../lpc11cx4-library/lpc_chip_11cxx_lib/src/uart_11xx.c **** 		Chip_UART_SendByte(pUART, *p8);
  82:../../lpc11cx4-library/lpc_chip_11cxx_lib/src/uart_11xx.c **** 		p8++;
  83:../../lpc11cx4-library/lpc_chip_11cxx_lib/src/uart_11xx.c **** 		sent++;
 222              		.loc 1 83 0
 223 0010 0133     		add	r3, r3, #1	@ sent,
 224              	.LVL9:
 225              	.LBB76:
 226              	.LBB75:
 325:../../lpc11cx4-library/lpc_chip_11cxx_lib/inc/uart_11xx.h **** }
 227              		.loc 3 325 0
 228 0012 0460     		str	r4, [r0]	@ D.6383, pUART_7(D)->D.5003.THR
 229              	.LVL10:
 230 0014 F6E7     		b	.L8	@
 231              	.LVL11:
 232              	.L12:
 233              	.LBE75:
 234              	.LBE76:
  84:../../lpc11cx4-library/lpc_chip_11cxx_lib/src/uart_11xx.c **** 	}
  85:../../lpc11cx4-library/lpc_chip_11cxx_lib/src/uart_11xx.c **** 
  86:../../lpc11cx4-library/lpc_chip_11cxx_lib/src/uart_11xx.c **** 	return sent;
  87:../../lpc11cx4-library/lpc_chip_11cxx_lib/src/uart_11xx.c **** }
 235              		.loc 1 87 0
 236 0016 181C     		mov	r0, r3	@, sent
 237              	.LVL12:
 238              		@ sp needed	@
 239 0018 10BD     		pop	{r4, pc}
 240              		.cfi_endproc
 241              	.LFE200:
 242              		.size	Chip_UART_Send, .-Chip_UART_Send
 243              		.section	.text.Chip_UART_SendBlocking,"ax",%progbits
 244              		.align	1
 245              		.global	Chip_UART_SendBlocking
 246              		.code	16
 247              		.thumb_func
 248              		.type	Chip_UART_SendBlocking, %function
 249              	Chip_UART_SendBlocking:
 250              	.LFB201:
  88:../../lpc11cx4-library/lpc_chip_11cxx_lib/src/uart_11xx.c **** 
  89:../../lpc11cx4-library/lpc_chip_11cxx_lib/src/uart_11xx.c **** /* Transmit a byte array through the UART peripheral (blocking) */
  90:../../lpc11cx4-library/lpc_chip_11cxx_lib/src/uart_11xx.c **** int Chip_UART_SendBlocking(LPC_USART_T *pUART, const void *data, int numBytes)
  91:../../lpc11cx4-library/lpc_chip_11cxx_lib/src/uart_11xx.c **** {
 251              		.loc 1 91 0
 252              		.cfi_startproc
ARM GAS  /tmp/ccSBomBp.s 			page 22


 253              	.LVL13:
 254 0000 F8B5     		push	{r3, r4, r5, r6, r7, lr}	@
 255              		.cfi_def_cfa_offset 24
 256              		.cfi_offset 3, -24
 257              		.cfi_offset 4, -20
 258              		.cfi_offset 5, -16
 259              		.cfi_offset 6, -12
 260              		.cfi_offset 7, -8
 261              		.cfi_offset 14, -4
 262              		.loc 1 91 0
 263 0002 071C     		mov	r7, r0	@ pUART, pUART
 264 0004 0E1C     		mov	r6, r1	@ data, data
 265              	.LVL14:
 266 0006 141C     		mov	r4, r2	@ numBytes, numBytes
  92:../../lpc11cx4-library/lpc_chip_11cxx_lib/src/uart_11xx.c **** 	int pass, sent = 0;
 267              		.loc 1 92 0
 268 0008 0025     		mov	r5, #0	@ sent,
 269              	.LVL15:
 270              	.L15:
  93:../../lpc11cx4-library/lpc_chip_11cxx_lib/src/uart_11xx.c **** 	uint8_t *p8 = (uint8_t *) data;
  94:../../lpc11cx4-library/lpc_chip_11cxx_lib/src/uart_11xx.c **** 
  95:../../lpc11cx4-library/lpc_chip_11cxx_lib/src/uart_11xx.c **** 	while (numBytes > 0) {
 271              		.loc 1 95 0
 272 000a 002C     		cmp	r4, #0	@ numBytes,
 273 000c 08DD     		ble	.L17	@,
  96:../../lpc11cx4-library/lpc_chip_11cxx_lib/src/uart_11xx.c **** 		pass = Chip_UART_Send(pUART, p8, numBytes);
 274              		.loc 1 96 0
 275 000e 311C     		mov	r1, r6	@, data
 276 0010 221C     		mov	r2, r4	@, numBytes
 277 0012 381C     		mov	r0, r7	@, pUART
 278 0014 FFF7FEFF 		bl	Chip_UART_Send	@
 279              	.LVL16:
  97:../../lpc11cx4-library/lpc_chip_11cxx_lib/src/uart_11xx.c **** 		numBytes -= pass;
 280              		.loc 1 97 0
 281 0018 241A     		sub	r4, r4, r0	@ numBytes, numBytes, pass
 282              	.LVL17:
  98:../../lpc11cx4-library/lpc_chip_11cxx_lib/src/uart_11xx.c **** 		sent += pass;
 283              		.loc 1 98 0
 284 001a 2D18     		add	r5, r5, r0	@ sent, sent, pass
 285              	.LVL18:
  99:../../lpc11cx4-library/lpc_chip_11cxx_lib/src/uart_11xx.c **** 		p8 += pass;
 286              		.loc 1 99 0
 287 001c 3618     		add	r6, r6, r0	@ data, data, pass
 288              	.LVL19:
 289 001e F4E7     		b	.L15	@
 290              	.LVL20:
 291              	.L17:
 100:../../lpc11cx4-library/lpc_chip_11cxx_lib/src/uart_11xx.c **** 	}
 101:../../lpc11cx4-library/lpc_chip_11cxx_lib/src/uart_11xx.c **** 
 102:../../lpc11cx4-library/lpc_chip_11cxx_lib/src/uart_11xx.c **** 	return sent;
 103:../../lpc11cx4-library/lpc_chip_11cxx_lib/src/uart_11xx.c **** }
 292              		.loc 1 103 0
 293 0020 281C     		mov	r0, r5	@, sent
 294              		@ sp needed	@
 295              	.LVL21:
 296              	.LVL22:
 297              	.LVL23:
ARM GAS  /tmp/ccSBomBp.s 			page 23


 298              	.LVL24:
 299 0022 F8BD     		pop	{r3, r4, r5, r6, r7, pc}
 300              		.cfi_endproc
 301              	.LFE201:
 302              		.size	Chip_UART_SendBlocking, .-Chip_UART_SendBlocking
 303              		.section	.text.Chip_UART_Read,"ax",%progbits
 304              		.align	1
 305              		.global	Chip_UART_Read
 306              		.code	16
 307              		.thumb_func
 308              		.type	Chip_UART_Read, %function
 309              	Chip_UART_Read:
 310              	.LFB202:
 104:../../lpc11cx4-library/lpc_chip_11cxx_lib/src/uart_11xx.c **** 
 105:../../lpc11cx4-library/lpc_chip_11cxx_lib/src/uart_11xx.c **** /* Read data through the UART peripheral (non-blocking) */
 106:../../lpc11cx4-library/lpc_chip_11cxx_lib/src/uart_11xx.c **** int Chip_UART_Read(LPC_USART_T *pUART, void *data, int numBytes)
 107:../../lpc11cx4-library/lpc_chip_11cxx_lib/src/uart_11xx.c **** {
 311              		.loc 1 107 0
 312              		.cfi_startproc
 313              	.LVL25:
 108:../../lpc11cx4-library/lpc_chip_11cxx_lib/src/uart_11xx.c **** 	int readBytes = 0;
 314              		.loc 1 108 0
 315 0000 0023     		mov	r3, #0	@ readBytes,
 107:../../lpc11cx4-library/lpc_chip_11cxx_lib/src/uart_11xx.c **** 	int readBytes = 0;
 316              		.loc 1 107 0
 317 0002 10B5     		push	{r4, lr}	@
 318              		.cfi_def_cfa_offset 8
 319              		.cfi_offset 4, -8
 320              		.cfi_offset 14, -4
 321              	.LVL26:
 322              	.L19:
 109:../../lpc11cx4-library/lpc_chip_11cxx_lib/src/uart_11xx.c **** 	uint8_t *p8 = (uint8_t *) data;
 110:../../lpc11cx4-library/lpc_chip_11cxx_lib/src/uart_11xx.c **** 
 111:../../lpc11cx4-library/lpc_chip_11cxx_lib/src/uart_11xx.c **** 	/* Send until the transmit FIFO is full or out of bytes */
 112:../../lpc11cx4-library/lpc_chip_11cxx_lib/src/uart_11xx.c **** 	while ((readBytes < numBytes) &&
 323              		.loc 1 112 0
 324 0004 9342     		cmp	r3, r2	@ readBytes, numBytes
 325 0006 06DA     		bge	.L23	@,
 326              	.LVL27:
 327              	.LBB77:
 328              	.LBB78:
 329              		.loc 3 507 0
 330 0008 4469     		ldr	r4, [r0, #20]	@ D.6397, pUART_7(D)->LSR
 331              	.LBE78:
 332              	.LBE77:
 333              		.loc 1 112 0
 334 000a E407     		lsl	r4, r4, #31	@ tmp124, D.6397,
 335 000c 03D5     		bpl	.L23	@,
 336              	.LVL28:
 337              	.LBB79:
 338              	.LBB80:
 338:../../lpc11cx4-library/lpc_chip_11cxx_lib/inc/uart_11xx.h **** }
 339              		.loc 3 338 0
 340 000e 0468     		ldr	r4, [r0]	@ D.6396, pUART_7(D)->D.5003.RBR
 341              	.LBE80:
 342              	.LBE79:
 113:../../lpc11cx4-library/lpc_chip_11cxx_lib/src/uart_11xx.c **** 		   ((Chip_UART_ReadLineStatus(pUART) & UART_LSR_RDR) != 0)) {
ARM GAS  /tmp/ccSBomBp.s 			page 24


 114:../../lpc11cx4-library/lpc_chip_11cxx_lib/src/uart_11xx.c **** 		*p8 = Chip_UART_ReadByte(pUART);
 343              		.loc 1 114 0
 344 0010 CC54     		strb	r4, [r1, r3]	@ D.6396, MEM[base: data_4(D), index: _17, offset: 0B]
 345              	.LVL29:
 115:../../lpc11cx4-library/lpc_chip_11cxx_lib/src/uart_11xx.c **** 		p8++;
 116:../../lpc11cx4-library/lpc_chip_11cxx_lib/src/uart_11xx.c **** 		readBytes++;
 346              		.loc 1 116 0
 347 0012 0133     		add	r3, r3, #1	@ readBytes,
 348              	.LVL30:
 349 0014 F6E7     		b	.L19	@
 350              	.LVL31:
 351              	.L23:
 117:../../lpc11cx4-library/lpc_chip_11cxx_lib/src/uart_11xx.c **** 	}
 118:../../lpc11cx4-library/lpc_chip_11cxx_lib/src/uart_11xx.c **** 
 119:../../lpc11cx4-library/lpc_chip_11cxx_lib/src/uart_11xx.c **** 	return readBytes;
 120:../../lpc11cx4-library/lpc_chip_11cxx_lib/src/uart_11xx.c **** }
 352              		.loc 1 120 0
 353 0016 181C     		mov	r0, r3	@, readBytes
 354              	.LVL32:
 355              		@ sp needed	@
 356 0018 10BD     		pop	{r4, pc}
 357              		.cfi_endproc
 358              	.LFE202:
 359              		.size	Chip_UART_Read, .-Chip_UART_Read
 360              		.section	.text.Chip_UART_ReadBlocking,"ax",%progbits
 361              		.align	1
 362              		.global	Chip_UART_ReadBlocking
 363              		.code	16
 364              		.thumb_func
 365              		.type	Chip_UART_ReadBlocking, %function
 366              	Chip_UART_ReadBlocking:
 367              	.LFB203:
 121:../../lpc11cx4-library/lpc_chip_11cxx_lib/src/uart_11xx.c **** 
 122:../../lpc11cx4-library/lpc_chip_11cxx_lib/src/uart_11xx.c **** /* Read data through the UART peripheral (blocking) */
 123:../../lpc11cx4-library/lpc_chip_11cxx_lib/src/uart_11xx.c **** int Chip_UART_ReadBlocking(LPC_USART_T *pUART, void *data, int numBytes)
 124:../../lpc11cx4-library/lpc_chip_11cxx_lib/src/uart_11xx.c **** {
 368              		.loc 1 124 0
 369              		.cfi_startproc
 370              	.LVL33:
 371 0000 F8B5     		push	{r3, r4, r5, r6, r7, lr}	@
 372              		.cfi_def_cfa_offset 24
 373              		.cfi_offset 3, -24
 374              		.cfi_offset 4, -20
 375              		.cfi_offset 5, -16
 376              		.cfi_offset 6, -12
 377              		.cfi_offset 7, -8
 378              		.cfi_offset 14, -4
 379              		.loc 1 124 0
 380 0002 071C     		mov	r7, r0	@ pUART, pUART
 381 0004 0E1C     		mov	r6, r1	@ data, data
 382              	.LVL34:
 383 0006 151C     		mov	r5, r2	@ numBytes, numBytes
 125:../../lpc11cx4-library/lpc_chip_11cxx_lib/src/uart_11xx.c **** 	int pass, readBytes = 0;
 384              		.loc 1 125 0
 385 0008 0024     		mov	r4, #0	@ readBytes,
 386              	.LVL35:
 387              	.L25:
ARM GAS  /tmp/ccSBomBp.s 			page 25


 126:../../lpc11cx4-library/lpc_chip_11cxx_lib/src/uart_11xx.c **** 	uint8_t *p8 = (uint8_t *) data;
 127:../../lpc11cx4-library/lpc_chip_11cxx_lib/src/uart_11xx.c **** 
 128:../../lpc11cx4-library/lpc_chip_11cxx_lib/src/uart_11xx.c **** 	while (readBytes < numBytes) {
 388              		.loc 1 128 0
 389 000a AC42     		cmp	r4, r5	@ readBytes, numBytes
 390 000c 08DA     		bge	.L27	@,
 129:../../lpc11cx4-library/lpc_chip_11cxx_lib/src/uart_11xx.c **** 		pass = Chip_UART_Read(pUART, p8, numBytes);
 391              		.loc 1 129 0
 392 000e 311C     		mov	r1, r6	@, data
 393 0010 2A1C     		mov	r2, r5	@, numBytes
 394 0012 381C     		mov	r0, r7	@, pUART
 395 0014 FFF7FEFF 		bl	Chip_UART_Read	@
 396              	.LVL36:
 130:../../lpc11cx4-library/lpc_chip_11cxx_lib/src/uart_11xx.c **** 		numBytes -= pass;
 397              		.loc 1 130 0
 398 0018 2D1A     		sub	r5, r5, r0	@ numBytes, numBytes, pass
 399              	.LVL37:
 131:../../lpc11cx4-library/lpc_chip_11cxx_lib/src/uart_11xx.c **** 		readBytes += pass;
 400              		.loc 1 131 0
 401 001a 2418     		add	r4, r4, r0	@ readBytes, readBytes, pass
 402              	.LVL38:
 132:../../lpc11cx4-library/lpc_chip_11cxx_lib/src/uart_11xx.c **** 		p8 += pass;
 403              		.loc 1 132 0
 404 001c 3618     		add	r6, r6, r0	@ data, data, pass
 405              	.LVL39:
 406 001e F4E7     		b	.L25	@
 407              	.LVL40:
 408              	.L27:
 133:../../lpc11cx4-library/lpc_chip_11cxx_lib/src/uart_11xx.c **** 	}
 134:../../lpc11cx4-library/lpc_chip_11cxx_lib/src/uart_11xx.c **** 
 135:../../lpc11cx4-library/lpc_chip_11cxx_lib/src/uart_11xx.c **** 	return readBytes;
 136:../../lpc11cx4-library/lpc_chip_11cxx_lib/src/uart_11xx.c **** }
 409              		.loc 1 136 0
 410 0020 201C     		mov	r0, r4	@, readBytes
 411              		@ sp needed	@
 412              	.LVL41:
 413              	.LVL42:
 414              	.LVL43:
 415              	.LVL44:
 416 0022 F8BD     		pop	{r3, r4, r5, r6, r7, pc}
 417              		.cfi_endproc
 418              	.LFE203:
 419              		.size	Chip_UART_ReadBlocking, .-Chip_UART_ReadBlocking
 420              		.global	__aeabi_uidiv
 421              		.section	.text.Chip_UART_SetBaud,"ax",%progbits
 422              		.align	1
 423              		.global	Chip_UART_SetBaud
 424              		.code	16
 425              		.thumb_func
 426              		.type	Chip_UART_SetBaud, %function
 427              	Chip_UART_SetBaud:
 428              	.LFB204:
 137:../../lpc11cx4-library/lpc_chip_11cxx_lib/src/uart_11xx.c **** 
 138:../../lpc11cx4-library/lpc_chip_11cxx_lib/src/uart_11xx.c **** /* Determines and sets best dividers to get a target bit rate */
 139:../../lpc11cx4-library/lpc_chip_11cxx_lib/src/uart_11xx.c **** uint32_t Chip_UART_SetBaud(LPC_USART_T *pUART, uint32_t baudrate)
 140:../../lpc11cx4-library/lpc_chip_11cxx_lib/src/uart_11xx.c **** {
 429              		.loc 1 140 0
ARM GAS  /tmp/ccSBomBp.s 			page 26


 430              		.cfi_startproc
 431              	.LVL45:
 432 0000 70B5     		push	{r4, r5, r6, lr}	@
 433              		.cfi_def_cfa_offset 16
 434              		.cfi_offset 4, -16
 435              		.cfi_offset 5, -12
 436              		.cfi_offset 6, -8
 437              		.cfi_offset 14, -4
 438              		.loc 1 140 0
 439 0002 0E1C     		mov	r6, r1	@ baudrate, baudrate
 440 0004 041C     		mov	r4, r0	@ pUART, pUART
 141:../../lpc11cx4-library/lpc_chip_11cxx_lib/src/uart_11xx.c **** 	uint32_t div, divh, divl, clkin;
 142:../../lpc11cx4-library/lpc_chip_11cxx_lib/src/uart_11xx.c **** 
 143:../../lpc11cx4-library/lpc_chip_11cxx_lib/src/uart_11xx.c **** 	/* Determine UART clock in rate without FDR */
 144:../../lpc11cx4-library/lpc_chip_11cxx_lib/src/uart_11xx.c **** 	clkin = Chip_Clock_GetMainClockRate();
 441              		.loc 1 144 0
 442 0006 FFF7FEFF 		bl	Chip_Clock_GetMainClockRate	@
 443              	.LVL46:
 145:../../lpc11cx4-library/lpc_chip_11cxx_lib/src/uart_11xx.c **** 	div = clkin / (baudrate * 16);
 444              		.loc 1 145 0
 445 000a 3101     		lsl	r1, r6, #4	@ D.6405, baudrate,
 144:../../lpc11cx4-library/lpc_chip_11cxx_lib/src/uart_11xx.c **** 	div = clkin / (baudrate * 16);
 446              		.loc 1 144 0
 447 000c 051C     		mov	r5, r0	@ clkin,
 448              	.LVL47:
 449              		.loc 1 145 0
 450 000e FFF7FEFF 		bl	__aeabi_uidiv	@
 451              	.LVL48:
 452              	.LBB81:
 453              	.LBB82:
 431:../../lpc11cx4-library/lpc_chip_11cxx_lib/inc/uart_11xx.h **** }
 454              		.loc 3 431 0
 455 0012 8022     		mov	r2, #128	@ tmp130,
 456              	.LBE82:
 457              	.LBE81:
 458              		.loc 1 145 0
 459 0014 011C     		mov	r1, r0	@ tmp129,
 460              	.LVL49:
 461              	.LBB85:
 462              	.LBB83:
 431:../../lpc11cx4-library/lpc_chip_11cxx_lib/inc/uart_11xx.h **** }
 463              		.loc 3 431 0
 464 0016 E368     		ldr	r3, [r4, #12]	@ D.6405, pUART_10(D)->LCR
 465              	.LBE83:
 466              	.LBE85:
 467              	.LBB86:
 468              	.LBB87:
 456:../../lpc11cx4-library/lpc_chip_11cxx_lib/inc/uart_11xx.h **** 	pUART->DLM = (uint32_t) dlm;
 469              		.loc 3 456 0
 470 0018 0E1C     		mov	r6, r1	@ D.6405, tmp129
 471              	.LVL50:
 472              	.LBE87:
 473              	.LBE86:
 474              	.LBB90:
 475              	.LBB84:
 431:../../lpc11cx4-library/lpc_chip_11cxx_lib/inc/uart_11xx.h **** }
 476              		.loc 3 431 0
ARM GAS  /tmp/ccSBomBp.s 			page 27


 477 001a 1343     		orr	r3, r2	@ D.6405, tmp130
 478 001c E360     		str	r3, [r4, #12]	@ D.6405, pUART_10(D)->LCR
 479              	.LVL51:
 480              	.LBE84:
 481              	.LBE90:
 482              	.LBB91:
 483              	.LBB88:
 456:../../lpc11cx4-library/lpc_chip_11cxx_lib/inc/uart_11xx.h **** 	pUART->DLM = (uint32_t) dlm;
 484              		.loc 3 456 0
 485 001e FF23     		mov	r3, #255	@ tmp133,
 486              	.LBE88:
 487              	.LBE91:
 146:../../lpc11cx4-library/lpc_chip_11cxx_lib/src/uart_11xx.c **** 
 147:../../lpc11cx4-library/lpc_chip_11cxx_lib/src/uart_11xx.c **** 	/* High and low halves of the divider */
 148:../../lpc11cx4-library/lpc_chip_11cxx_lib/src/uart_11xx.c **** 	divh = div / 256;
 149:../../lpc11cx4-library/lpc_chip_11cxx_lib/src/uart_11xx.c **** 	divl = div - (divh * 256);
 488              		.loc 1 149 0
 489 0020 000A     		lsr	r0, r0, #8	@ divh, tmp129,
 490              	.LVL52:
 491              	.LBB92:
 492              	.LBB89:
 456:../../lpc11cx4-library/lpc_chip_11cxx_lib/inc/uart_11xx.h **** 	pUART->DLM = (uint32_t) dlm;
 493              		.loc 3 456 0
 494 0022 1E40     		and	r6, r3	@ D.6405, tmp133
 457:../../lpc11cx4-library/lpc_chip_11cxx_lib/inc/uart_11xx.h **** }
 495              		.loc 3 457 0
 496 0024 0340     		and	r3, r0	@ D.6405, divh
 456:../../lpc11cx4-library/lpc_chip_11cxx_lib/inc/uart_11xx.h **** 	pUART->DLM = (uint32_t) dlm;
 497              		.loc 3 456 0
 498 0026 2660     		str	r6, [r4]	@ D.6405, pUART_10(D)->D.5003.DLL
 457:../../lpc11cx4-library/lpc_chip_11cxx_lib/inc/uart_11xx.h **** }
 499              		.loc 3 457 0
 500 0028 6360     		str	r3, [r4, #4]	@ D.6405, pUART_10(D)->D.5007.DLM
 501              	.LVL53:
 502              	.LBE89:
 503              	.LBE92:
 504              	.LBB93:
 505              	.LBB94:
 441:../../lpc11cx4-library/lpc_chip_11cxx_lib/inc/uart_11xx.h **** }
 506              		.loc 3 441 0
 507 002a E368     		ldr	r3, [r4, #12]	@ D.6405, pUART_10(D)->LCR
 508              	.LBE94:
 509              	.LBE93:
 150:../../lpc11cx4-library/lpc_chip_11cxx_lib/src/uart_11xx.c **** 
 151:../../lpc11cx4-library/lpc_chip_11cxx_lib/src/uart_11xx.c **** 	Chip_UART_EnableDivisorAccess(pUART);
 152:../../lpc11cx4-library/lpc_chip_11cxx_lib/src/uart_11xx.c **** 	Chip_UART_SetDivisorLatches(pUART, divl, divh);
 153:../../lpc11cx4-library/lpc_chip_11cxx_lib/src/uart_11xx.c **** 	Chip_UART_DisableDivisorAccess(pUART);
 154:../../lpc11cx4-library/lpc_chip_11cxx_lib/src/uart_11xx.c **** 
 155:../../lpc11cx4-library/lpc_chip_11cxx_lib/src/uart_11xx.c **** 	/* Fractional FDR alreadt setup for 1 in UART init */
 156:../../lpc11cx4-library/lpc_chip_11cxx_lib/src/uart_11xx.c **** 
 157:../../lpc11cx4-library/lpc_chip_11cxx_lib/src/uart_11xx.c **** 	return clkin / div;
 510              		.loc 1 157 0
 511 002c 281C     		mov	r0, r5	@, clkin
 512              	.LVL54:
 513              	.LBB96:
 514              	.LBB95:
 441:../../lpc11cx4-library/lpc_chip_11cxx_lib/inc/uart_11xx.h **** }
ARM GAS  /tmp/ccSBomBp.s 			page 28


 515              		.loc 3 441 0
 516 002e 9343     		bic	r3, r2	@ D.6405, tmp130
 517 0030 E360     		str	r3, [r4, #12]	@ D.6405, pUART_10(D)->LCR
 518              	.LBE95:
 519              	.LBE96:
 520              		.loc 1 157 0
 521 0032 FFF7FEFF 		bl	__aeabi_uidiv	@
 522              	.LVL55:
 158:../../lpc11cx4-library/lpc_chip_11cxx_lib/src/uart_11xx.c **** }
 523              		.loc 1 158 0
 524              		@ sp needed	@
 525              	.LVL56:
 526              	.LVL57:
 527 0036 70BD     		pop	{r4, r5, r6, pc}
 528              		.cfi_endproc
 529              	.LFE204:
 530              		.size	Chip_UART_SetBaud, .-Chip_UART_SetBaud
 531              		.section	.text.Chip_UART_RXIntHandlerRB,"ax",%progbits
 532              		.align	1
 533              		.global	Chip_UART_RXIntHandlerRB
 534              		.code	16
 535              		.thumb_func
 536              		.type	Chip_UART_RXIntHandlerRB, %function
 537              	Chip_UART_RXIntHandlerRB:
 538              	.LFB205:
 159:../../lpc11cx4-library/lpc_chip_11cxx_lib/src/uart_11xx.c **** 
 160:../../lpc11cx4-library/lpc_chip_11cxx_lib/src/uart_11xx.c **** /* UART receive-only interrupt handler for ring buffers */
 161:../../lpc11cx4-library/lpc_chip_11cxx_lib/src/uart_11xx.c **** void Chip_UART_RXIntHandlerRB(LPC_USART_T *pUART, RINGBUFF_T *pRB)
 162:../../lpc11cx4-library/lpc_chip_11cxx_lib/src/uart_11xx.c **** {
 539              		.loc 1 162 0
 540              		.cfi_startproc
 541              	.LVL58:
 542 0000 37B5     		push	{r0, r1, r2, r4, r5, lr}	@
 543              		.cfi_def_cfa_offset 24
 544              		.cfi_offset 0, -24
 545              		.cfi_offset 1, -20
 546              		.cfi_offset 2, -16
 547              		.cfi_offset 4, -12
 548              		.cfi_offset 5, -8
 549              		.cfi_offset 14, -4
 550 0002 041C     		mov	r4, r0	@ pUART, pUART
 551 0004 0D1C     		mov	r5, r1	@ pRB, pRB
 552              	.LVL59:
 553              	.L30:
 554              	.LBB97:
 555              	.LBB98:
 556              		.loc 3 507 0
 557 0006 6369     		ldr	r3, [r4, #20]	@ D.6410, pUART_3(D)->LSR
 558              	.LBE98:
 559              	.LBE97:
 163:../../lpc11cx4-library/lpc_chip_11cxx_lib/src/uart_11xx.c **** 	/* New data will be ignored if data not popped in time */
 164:../../lpc11cx4-library/lpc_chip_11cxx_lib/src/uart_11xx.c **** 	while (Chip_UART_ReadLineStatus(pUART) & UART_LSR_RDR) {
 560              		.loc 1 164 0
 561 0008 DB07     		lsl	r3, r3, #31	@ tmp121, D.6410,
 562 000a 07D5     		bpl	.L32	@,
 563              	.LVL60:
 564              	.LBB99:
ARM GAS  /tmp/ccSBomBp.s 			page 29


 165:../../lpc11cx4-library/lpc_chip_11cxx_lib/src/uart_11xx.c **** 		uint8_t ch = Chip_UART_ReadByte(pUART);
 565              		.loc 1 165 0
 566 000c 6A46     		mov	r2, sp	@ tmp122,
 567              	.LBB100:
 568              	.LBB101:
 338:../../lpc11cx4-library/lpc_chip_11cxx_lib/inc/uart_11xx.h **** }
 569              		.loc 3 338 0
 570 000e 2368     		ldr	r3, [r4]	@ D.6409, pUART_3(D)->D.5003.RBR
 571              	.LBE101:
 572              	.LBE100:
 573              		.loc 1 165 0
 574 0010 D11D     		add	r1, r2, #7	@ tmp116, tmp122,
 166:../../lpc11cx4-library/lpc_chip_11cxx_lib/src/uart_11xx.c **** 		RingBuffer_Insert(pRB, &ch);
 575              		.loc 1 166 0
 576 0012 281C     		mov	r0, r5	@, pRB
 165:../../lpc11cx4-library/lpc_chip_11cxx_lib/src/uart_11xx.c **** 		uint8_t ch = Chip_UART_ReadByte(pUART);
 577              		.loc 1 165 0
 578 0014 0B70     		strb	r3, [r1]	@ D.6409, ch
 579              		.loc 1 166 0
 580 0016 FFF7FEFF 		bl	RingBuffer_Insert	@
 581              	.LVL61:
 582 001a F4E7     		b	.L30	@
 583              	.LVL62:
 584              	.L32:
 585              	.LBE99:
 167:../../lpc11cx4-library/lpc_chip_11cxx_lib/src/uart_11xx.c **** 	}
 168:../../lpc11cx4-library/lpc_chip_11cxx_lib/src/uart_11xx.c **** }
 586              		.loc 1 168 0
 587              		@ sp needed	@
 588              	.LVL63:
 589              	.LVL64:
 590 001c 37BD     		pop	{r0, r1, r2, r4, r5, pc}
 591              		.cfi_endproc
 592              	.LFE205:
 593              		.size	Chip_UART_RXIntHandlerRB, .-Chip_UART_RXIntHandlerRB
 594              		.section	.text.Chip_UART_TXIntHandlerRB,"ax",%progbits
 595              		.align	1
 596              		.global	Chip_UART_TXIntHandlerRB
 597              		.code	16
 598              		.thumb_func
 599              		.type	Chip_UART_TXIntHandlerRB, %function
 600              	Chip_UART_TXIntHandlerRB:
 601              	.LFB206:
 169:../../lpc11cx4-library/lpc_chip_11cxx_lib/src/uart_11xx.c **** 
 170:../../lpc11cx4-library/lpc_chip_11cxx_lib/src/uart_11xx.c **** /* UART transmit-only interrupt handler for ring buffers */
 171:../../lpc11cx4-library/lpc_chip_11cxx_lib/src/uart_11xx.c **** void Chip_UART_TXIntHandlerRB(LPC_USART_T *pUART, RINGBUFF_T *pRB)
 172:../../lpc11cx4-library/lpc_chip_11cxx_lib/src/uart_11xx.c **** {
 602              		.loc 1 172 0
 603              		.cfi_startproc
 604              	.LVL65:
 605 0000 73B5     		push	{r0, r1, r4, r5, r6, lr}	@
 606              		.cfi_def_cfa_offset 24
 607              		.cfi_offset 0, -24
 608              		.cfi_offset 1, -20
 609              		.cfi_offset 4, -16
 610              		.cfi_offset 5, -12
 611              		.cfi_offset 6, -8
ARM GAS  /tmp/ccSBomBp.s 			page 30


 612              		.cfi_offset 14, -4
 613 0002 051C     		mov	r5, r0	@ pUART, pUART
 614 0004 0E1C     		mov	r6, r1	@ pRB, pRB
 615              	.LVL66:
 616              	.L34:
 617              	.LBB102:
 618              	.LBB103:
 619              		.loc 3 507 0
 620 0006 6B69     		ldr	r3, [r5, #20]	@ D.6417, pUART_4(D)->LSR
 621              	.LBE103:
 622              	.LBE102:
 173:../../lpc11cx4-library/lpc_chip_11cxx_lib/src/uart_11xx.c **** 	uint8_t ch;
 174:../../lpc11cx4-library/lpc_chip_11cxx_lib/src/uart_11xx.c **** 
 175:../../lpc11cx4-library/lpc_chip_11cxx_lib/src/uart_11xx.c **** 	/* Fill FIFO until full or until TX ring buffer is empty */
 176:../../lpc11cx4-library/lpc_chip_11cxx_lib/src/uart_11xx.c **** 	while ((Chip_UART_ReadLineStatus(pUART) & UART_LSR_THRE) != 0 &&
 623              		.loc 1 176 0
 624 0008 9B06     		lsl	r3, r3, #26	@ tmp121, D.6417,
 625 000a 0AD5     		bpl	.L33	@,
 177:../../lpc11cx4-library/lpc_chip_11cxx_lib/src/uart_11xx.c **** 		   RingBuffer_Pop(pRB, &ch)) {
 626              		.loc 1 177 0 discriminator 1
 627 000c 6B46     		mov	r3, sp	@ tmp122,
 628 000e DC1D     		add	r4, r3, #7	@ tmp120, tmp122,
 629 0010 301C     		mov	r0, r6	@, pRB
 630 0012 211C     		mov	r1, r4	@, tmp120
 631 0014 FFF7FEFF 		bl	RingBuffer_Pop	@
 632              	.LVL67:
 176:../../lpc11cx4-library/lpc_chip_11cxx_lib/src/uart_11xx.c **** 		   RingBuffer_Pop(pRB, &ch)) {
 633              		.loc 1 176 0 discriminator 1
 634 0018 0028     		cmp	r0, #0	@ D.6415,
 635 001a 02D0     		beq	.L33	@,
 636              	.LVL68:
 637              	.LBB104:
 638              	.LBB105:
 325:../../lpc11cx4-library/lpc_chip_11cxx_lib/inc/uart_11xx.h **** }
 639              		.loc 3 325 0
 640 001c 2378     		ldrb	r3, [r4]	@ D.6414, ch
 641 001e 2B60     		str	r3, [r5]	@ D.6414, pUART_4(D)->D.5003.THR
 642 0020 F1E7     		b	.L34	@
 643              	.LVL69:
 644              	.L33:
 645              	.LBE105:
 646              	.LBE104:
 178:../../lpc11cx4-library/lpc_chip_11cxx_lib/src/uart_11xx.c **** 		Chip_UART_SendByte(pUART, ch);
 179:../../lpc11cx4-library/lpc_chip_11cxx_lib/src/uart_11xx.c **** 	}
 180:../../lpc11cx4-library/lpc_chip_11cxx_lib/src/uart_11xx.c **** }
 647              		.loc 1 180 0
 648              		@ sp needed	@
 649              	.LVL70:
 650              	.LVL71:
 651 0022 73BD     		pop	{r0, r1, r4, r5, r6, pc}
 652              		.cfi_endproc
 653              	.LFE206:
 654              		.size	Chip_UART_TXIntHandlerRB, .-Chip_UART_TXIntHandlerRB
 655              		.section	.text.Chip_UART_SendRB,"ax",%progbits
 656              		.align	1
 657              		.global	Chip_UART_SendRB
 658              		.code	16
ARM GAS  /tmp/ccSBomBp.s 			page 31


 659              		.thumb_func
 660              		.type	Chip_UART_SendRB, %function
 661              	Chip_UART_SendRB:
 662              	.LFB207:
 181:../../lpc11cx4-library/lpc_chip_11cxx_lib/src/uart_11xx.c **** 
 182:../../lpc11cx4-library/lpc_chip_11cxx_lib/src/uart_11xx.c **** /* Populate a transmit ring buffer and start UART transmit */
 183:../../lpc11cx4-library/lpc_chip_11cxx_lib/src/uart_11xx.c **** uint32_t Chip_UART_SendRB(LPC_USART_T *pUART, RINGBUFF_T *pRB, const void *data, int bytes)
 184:../../lpc11cx4-library/lpc_chip_11cxx_lib/src/uart_11xx.c **** {
 663              		.loc 1 184 0
 664              		.cfi_startproc
 665              	.LVL72:
 666 0000 F7B5     		push	{r0, r1, r2, r4, r5, r6, r7, lr}	@
 667              		.cfi_def_cfa_offset 32
 668              		.cfi_offset 0, -32
 669              		.cfi_offset 1, -28
 670              		.cfi_offset 2, -24
 671              		.cfi_offset 4, -20
 672              		.cfi_offset 5, -16
 673              		.cfi_offset 6, -12
 674              		.cfi_offset 7, -8
 675              		.cfi_offset 14, -4
 676              		.loc 1 184 0
 677 0002 161C     		mov	r6, r2	@ data, data
 678              	.LVL73:
 679              	.LBB106:
 680              	.LBB107:
 368:../../lpc11cx4-library/lpc_chip_11cxx_lib/inc/uart_11xx.h **** }
 681              		.loc 3 368 0
 682 0004 0222     		mov	r2, #2	@ tmp133,
 683              	.LVL74:
 684              	.LBE107:
 685              	.LBE106:
 686              		.loc 1 184 0
 687 0006 0193     		str	r3, [sp, #4]	@ bytes, %sfp
 688              	.LBB111:
 689              	.LBB108:
 368:../../lpc11cx4-library/lpc_chip_11cxx_lib/inc/uart_11xx.h **** }
 690              		.loc 3 368 0
 691 0008 4368     		ldr	r3, [r0, #4]	@ D.6420, pUART_3(D)->D.5007.IER
 692              	.LVL75:
 693              	.LBE108:
 694              	.LBE111:
 695              		.loc 1 184 0
 696 000a 051C     		mov	r5, r0	@ pUART, pUART
 697              	.LBB112:
 698              	.LBB109:
 368:../../lpc11cx4-library/lpc_chip_11cxx_lib/inc/uart_11xx.h **** }
 699              		.loc 3 368 0
 700 000c 9343     		bic	r3, r2	@ D.6420, tmp133
 701              	.LBE109:
 702              	.LBE112:
 703              		.loc 1 184 0
 704 000e 0F1C     		mov	r7, r1	@ pRB, pRB
 705              	.LBB113:
 706              	.LBB110:
 368:../../lpc11cx4-library/lpc_chip_11cxx_lib/inc/uart_11xx.h **** }
 707              		.loc 3 368 0
ARM GAS  /tmp/ccSBomBp.s 			page 32


 708 0010 4360     		str	r3, [r0, #4]	@ D.6420, pUART_3(D)->D.5007.IER
 709              	.LBE110:
 710              	.LBE113:
 185:../../lpc11cx4-library/lpc_chip_11cxx_lib/src/uart_11xx.c **** 	uint32_t ret;
 186:../../lpc11cx4-library/lpc_chip_11cxx_lib/src/uart_11xx.c **** 	uint8_t *p8 = (uint8_t *) data;
 187:../../lpc11cx4-library/lpc_chip_11cxx_lib/src/uart_11xx.c **** 
 188:../../lpc11cx4-library/lpc_chip_11cxx_lib/src/uart_11xx.c **** 	/* Don't let UART transmit ring buffer change in the UART IRQ handler */
 189:../../lpc11cx4-library/lpc_chip_11cxx_lib/src/uart_11xx.c **** 	Chip_UART_IntDisable(pUART, UART_IER_THREINT);
 190:../../lpc11cx4-library/lpc_chip_11cxx_lib/src/uart_11xx.c **** 
 191:../../lpc11cx4-library/lpc_chip_11cxx_lib/src/uart_11xx.c **** 	/* Move as much data as possible into transmit ring buffer */
 192:../../lpc11cx4-library/lpc_chip_11cxx_lib/src/uart_11xx.c **** 	ret = RingBuffer_InsertMult(pRB, p8, bytes);
 711              		.loc 1 192 0
 712 0012 019A     		ldr	r2, [sp, #4]	@, %sfp
 713 0014 081C     		mov	r0, r1	@, pRB
 714              	.LVL76:
 715 0016 311C     		mov	r1, r6	@, data
 716              	.LVL77:
 717 0018 FFF7FEFF 		bl	RingBuffer_InsertMult	@
 718              	.LVL78:
 719 001c 041C     		mov	r4, r0	@ D.6421,
 720              	.LVL79:
 193:../../lpc11cx4-library/lpc_chip_11cxx_lib/src/uart_11xx.c **** 	Chip_UART_TXIntHandlerRB(pUART, pRB);
 721              		.loc 1 193 0
 722 001e 391C     		mov	r1, r7	@, pRB
 723 0020 281C     		mov	r0, r5	@, pUART
 724              	.LVL80:
 725 0022 FFF7FEFF 		bl	Chip_UART_TXIntHandlerRB	@
 726              	.LVL81:
 194:../../lpc11cx4-library/lpc_chip_11cxx_lib/src/uart_11xx.c **** 
 195:../../lpc11cx4-library/lpc_chip_11cxx_lib/src/uart_11xx.c **** 	/* Add additional data to transmit ring buffer if possible */
 196:../../lpc11cx4-library/lpc_chip_11cxx_lib/src/uart_11xx.c **** 	ret += RingBuffer_InsertMult(pRB, (p8 + ret), (bytes - ret));
 727              		.loc 1 196 0
 728 0026 019B     		ldr	r3, [sp, #4]	@ bytes, %sfp
 729 0028 3119     		add	r1, r6, r4	@ D.6422, data, D.6421
 730 002a 1A1B     		sub	r2, r3, r4	@ D.6420, bytes, D.6421
 731 002c 381C     		mov	r0, r7	@, pRB
 732 002e FFF7FEFF 		bl	RingBuffer_InsertMult	@
 733              	.LVL82:
 734              	.LBB114:
 735              	.LBB115:
 353:../../lpc11cx4-library/lpc_chip_11cxx_lib/inc/uart_11xx.h **** }
 736              		.loc 3 353 0
 737 0032 0222     		mov	r2, #2	@ tmp135,
 738 0034 6B68     		ldr	r3, [r5, #4]	@ D.6420, pUART_3(D)->D.5007.IER
 739              	.LBE115:
 740              	.LBE114:
 741              		.loc 1 196 0
 742 0036 0019     		add	r0, r0, r4	@ ret, D.6421, D.6421
 743              	.LVL83:
 744              	.LBB117:
 745              	.LBB116:
 353:../../lpc11cx4-library/lpc_chip_11cxx_lib/inc/uart_11xx.h **** }
 746              		.loc 3 353 0
 747 0038 1343     		orr	r3, r2	@ D.6420, tmp135
 748 003a 6B60     		str	r3, [r5, #4]	@ D.6420, pUART_3(D)->D.5007.IER
 749              	.LBE116:
 750              	.LBE117:
ARM GAS  /tmp/ccSBomBp.s 			page 33


 197:../../lpc11cx4-library/lpc_chip_11cxx_lib/src/uart_11xx.c **** 
 198:../../lpc11cx4-library/lpc_chip_11cxx_lib/src/uart_11xx.c **** 	/* Enable UART transmit interrupt */
 199:../../lpc11cx4-library/lpc_chip_11cxx_lib/src/uart_11xx.c **** 	Chip_UART_IntEnable(pUART, UART_IER_THREINT);
 200:../../lpc11cx4-library/lpc_chip_11cxx_lib/src/uart_11xx.c **** 
 201:../../lpc11cx4-library/lpc_chip_11cxx_lib/src/uart_11xx.c **** 	return ret;
 202:../../lpc11cx4-library/lpc_chip_11cxx_lib/src/uart_11xx.c **** }
 751              		.loc 1 202 0
 752              		@ sp needed	@
 753              	.LVL84:
 754              	.LVL85:
 755              	.LVL86:
 756 003c FEBD     		pop	{r1, r2, r3, r4, r5, r6, r7, pc}
 757              		.cfi_endproc
 758              	.LFE207:
 759              		.size	Chip_UART_SendRB, .-Chip_UART_SendRB
 760              		.section	.text.Chip_UART_ReadRB,"ax",%progbits
 761              		.align	1
 762              		.global	Chip_UART_ReadRB
 763              		.code	16
 764              		.thumb_func
 765              		.type	Chip_UART_ReadRB, %function
 766              	Chip_UART_ReadRB:
 767              	.LFB208:
 203:../../lpc11cx4-library/lpc_chip_11cxx_lib/src/uart_11xx.c **** 
 204:../../lpc11cx4-library/lpc_chip_11cxx_lib/src/uart_11xx.c **** /* Copy data from a receive ring buffer */
 205:../../lpc11cx4-library/lpc_chip_11cxx_lib/src/uart_11xx.c **** int Chip_UART_ReadRB(LPC_USART_T *pUART, RINGBUFF_T *pRB, void *data, int bytes)
 206:../../lpc11cx4-library/lpc_chip_11cxx_lib/src/uart_11xx.c **** {
 768              		.loc 1 206 0
 769              		.cfi_startproc
 770              	.LVL87:
 771 0000 08B5     		push	{r3, lr}	@
 772              		.cfi_def_cfa_offset 8
 773              		.cfi_offset 3, -8
 774              		.cfi_offset 14, -4
 207:../../lpc11cx4-library/lpc_chip_11cxx_lib/src/uart_11xx.c **** 	(void) pUART;
 208:../../lpc11cx4-library/lpc_chip_11cxx_lib/src/uart_11xx.c **** 
 209:../../lpc11cx4-library/lpc_chip_11cxx_lib/src/uart_11xx.c **** 	return RingBuffer_PopMult(pRB, (uint8_t *) data, bytes);
 775              		.loc 1 209 0
 776 0002 081C     		mov	r0, r1	@, pRB
 777              	.LVL88:
 778 0004 111C     		mov	r1, r2	@, data
 779              	.LVL89:
 780 0006 1A1C     		mov	r2, r3	@, bytes
 781              	.LVL90:
 782 0008 FFF7FEFF 		bl	RingBuffer_PopMult	@
 783              	.LVL91:
 210:../../lpc11cx4-library/lpc_chip_11cxx_lib/src/uart_11xx.c **** }
 784              		.loc 1 210 0
 785              		@ sp needed	@
 786 000c 08BD     		pop	{r3, pc}
 787              		.cfi_endproc
 788              	.LFE208:
 789              		.size	Chip_UART_ReadRB, .-Chip_UART_ReadRB
 790              		.section	.text.Chip_UART_IRQRBHandler,"ax",%progbits
 791              		.align	1
 792              		.global	Chip_UART_IRQRBHandler
 793              		.code	16
ARM GAS  /tmp/ccSBomBp.s 			page 34


 794              		.thumb_func
 795              		.type	Chip_UART_IRQRBHandler, %function
 796              	Chip_UART_IRQRBHandler:
 797              	.LFB209:
 211:../../lpc11cx4-library/lpc_chip_11cxx_lib/src/uart_11xx.c **** 
 212:../../lpc11cx4-library/lpc_chip_11cxx_lib/src/uart_11xx.c **** /* UART receive/transmit interrupt handler for ring buffers */
 213:../../lpc11cx4-library/lpc_chip_11cxx_lib/src/uart_11xx.c **** void Chip_UART_IRQRBHandler(LPC_USART_T *pUART, RINGBUFF_T *pRXRB, RINGBUFF_T *pTXRB)
 214:../../lpc11cx4-library/lpc_chip_11cxx_lib/src/uart_11xx.c **** {
 798              		.loc 1 214 0
 799              		.cfi_startproc
 800              	.LVL92:
 801 0000 F8B5     		push	{r3, r4, r5, r6, r7, lr}	@
 802              		.cfi_def_cfa_offset 24
 803              		.cfi_offset 3, -24
 804              		.cfi_offset 4, -20
 805              		.cfi_offset 5, -16
 806              		.cfi_offset 6, -12
 807              		.cfi_offset 7, -8
 808              		.cfi_offset 14, -4
 215:../../lpc11cx4-library/lpc_chip_11cxx_lib/src/uart_11xx.c **** 	/* Handle transmit interrupt if enabled */
 216:../../lpc11cx4-library/lpc_chip_11cxx_lib/src/uart_11xx.c **** 	if (pUART->IER & UART_IER_THREINT) {
 809              		.loc 1 216 0
 810 0002 0226     		mov	r6, #2	@ tmp120,
 811 0004 4368     		ldr	r3, [r0, #4]	@ D.6429, pUART_3(D)->D.5007.IER
 214:../../lpc11cx4-library/lpc_chip_11cxx_lib/src/uart_11xx.c **** 	/* Handle transmit interrupt if enabled */
 812              		.loc 1 214 0
 813 0006 041C     		mov	r4, r0	@ pUART, pUART
 814 0008 0D1C     		mov	r5, r1	@ pRXRB, pRXRB
 815 000a 171C     		mov	r7, r2	@ pTXRB, pTXRB
 816              		.loc 1 216 0
 817 000c 3342     		tst	r3, r6	@ D.6429, tmp120
 818 000e 09D0     		beq	.L42	@,
 217:../../lpc11cx4-library/lpc_chip_11cxx_lib/src/uart_11xx.c **** 		Chip_UART_TXIntHandlerRB(pUART, pTXRB);
 819              		.loc 1 217 0
 820 0010 111C     		mov	r1, r2	@, pTXRB
 821              	.LVL93:
 822 0012 FFF7FEFF 		bl	Chip_UART_TXIntHandlerRB	@
 823              	.LVL94:
 824              	.LBB118:
 825              	.LBB119:
 826              		.file 4 "../../lpc11cx4-library/lpc_chip_11cxx_lib/inc/ring_buffer.h"
   1:../../lpc11cx4-library/lpc_chip_11cxx_lib/inc/ring_buffer.h **** /*
   2:../../lpc11cx4-library/lpc_chip_11cxx_lib/inc/ring_buffer.h ****  * @brief Common ring buffer support functions
   3:../../lpc11cx4-library/lpc_chip_11cxx_lib/inc/ring_buffer.h ****  *
   4:../../lpc11cx4-library/lpc_chip_11cxx_lib/inc/ring_buffer.h ****  * @note
   5:../../lpc11cx4-library/lpc_chip_11cxx_lib/inc/ring_buffer.h ****  * Copyright(C) NXP Semiconductors, 2012
   6:../../lpc11cx4-library/lpc_chip_11cxx_lib/inc/ring_buffer.h ****  * All rights reserved.
   7:../../lpc11cx4-library/lpc_chip_11cxx_lib/inc/ring_buffer.h ****  *
   8:../../lpc11cx4-library/lpc_chip_11cxx_lib/inc/ring_buffer.h ****  * @par
   9:../../lpc11cx4-library/lpc_chip_11cxx_lib/inc/ring_buffer.h ****  * Software that is described herein is for illustrative purposes only
  10:../../lpc11cx4-library/lpc_chip_11cxx_lib/inc/ring_buffer.h ****  * which provides customers with programming information regarding the
  11:../../lpc11cx4-library/lpc_chip_11cxx_lib/inc/ring_buffer.h ****  * LPC products.  This software is supplied "AS IS" without any warranties of
  12:../../lpc11cx4-library/lpc_chip_11cxx_lib/inc/ring_buffer.h ****  * any kind, and NXP Semiconductors and its licensor disclaim any and
  13:../../lpc11cx4-library/lpc_chip_11cxx_lib/inc/ring_buffer.h ****  * all warranties, express or implied, including all implied warranties of
  14:../../lpc11cx4-library/lpc_chip_11cxx_lib/inc/ring_buffer.h ****  * merchantability, fitness for a particular purpose and non-infringement of
  15:../../lpc11cx4-library/lpc_chip_11cxx_lib/inc/ring_buffer.h ****  * intellectual property rights.  NXP Semiconductors assumes no responsibility
  16:../../lpc11cx4-library/lpc_chip_11cxx_lib/inc/ring_buffer.h ****  * or liability for the use of the software, conveys no license or rights under any
ARM GAS  /tmp/ccSBomBp.s 			page 35


  17:../../lpc11cx4-library/lpc_chip_11cxx_lib/inc/ring_buffer.h ****  * patent, copyright, mask work right, or any other intellectual property rights in
  18:../../lpc11cx4-library/lpc_chip_11cxx_lib/inc/ring_buffer.h ****  * or to any products. NXP Semiconductors reserves the right to make changes
  19:../../lpc11cx4-library/lpc_chip_11cxx_lib/inc/ring_buffer.h ****  * in the software without notification. NXP Semiconductors also makes no
  20:../../lpc11cx4-library/lpc_chip_11cxx_lib/inc/ring_buffer.h ****  * representation or warranty that such application will be suitable for the
  21:../../lpc11cx4-library/lpc_chip_11cxx_lib/inc/ring_buffer.h ****  * specified use without further testing or modification.
  22:../../lpc11cx4-library/lpc_chip_11cxx_lib/inc/ring_buffer.h ****  *
  23:../../lpc11cx4-library/lpc_chip_11cxx_lib/inc/ring_buffer.h ****  * @par
  24:../../lpc11cx4-library/lpc_chip_11cxx_lib/inc/ring_buffer.h ****  * Permission to use, copy, modify, and distribute this software and its
  25:../../lpc11cx4-library/lpc_chip_11cxx_lib/inc/ring_buffer.h ****  * documentation is hereby granted, under NXP Semiconductors' and its
  26:../../lpc11cx4-library/lpc_chip_11cxx_lib/inc/ring_buffer.h ****  * licensor's relevant copyrights in the software, without fee, provided that it
  27:../../lpc11cx4-library/lpc_chip_11cxx_lib/inc/ring_buffer.h ****  * is used in conjunction with NXP Semiconductors microcontrollers.  This
  28:../../lpc11cx4-library/lpc_chip_11cxx_lib/inc/ring_buffer.h ****  * copyright, permission, and disclaimer notice must appear in all copies of
  29:../../lpc11cx4-library/lpc_chip_11cxx_lib/inc/ring_buffer.h ****  * this code.
  30:../../lpc11cx4-library/lpc_chip_11cxx_lib/inc/ring_buffer.h ****  */
  31:../../lpc11cx4-library/lpc_chip_11cxx_lib/inc/ring_buffer.h **** 
  32:../../lpc11cx4-library/lpc_chip_11cxx_lib/inc/ring_buffer.h **** #ifndef __RING_BUFFER_H_
  33:../../lpc11cx4-library/lpc_chip_11cxx_lib/inc/ring_buffer.h **** #define __RING_BUFFER_H_
  34:../../lpc11cx4-library/lpc_chip_11cxx_lib/inc/ring_buffer.h **** 
  35:../../lpc11cx4-library/lpc_chip_11cxx_lib/inc/ring_buffer.h **** #include "lpc_types.h"
  36:../../lpc11cx4-library/lpc_chip_11cxx_lib/inc/ring_buffer.h **** 
  37:../../lpc11cx4-library/lpc_chip_11cxx_lib/inc/ring_buffer.h **** /** @defgroup Ring_Buffer CHIP: Simple ring buffer implementation
  38:../../lpc11cx4-library/lpc_chip_11cxx_lib/inc/ring_buffer.h ****  * @ingroup CHIP_Common
  39:../../lpc11cx4-library/lpc_chip_11cxx_lib/inc/ring_buffer.h ****  * @{
  40:../../lpc11cx4-library/lpc_chip_11cxx_lib/inc/ring_buffer.h ****  */
  41:../../lpc11cx4-library/lpc_chip_11cxx_lib/inc/ring_buffer.h **** 
  42:../../lpc11cx4-library/lpc_chip_11cxx_lib/inc/ring_buffer.h **** /**
  43:../../lpc11cx4-library/lpc_chip_11cxx_lib/inc/ring_buffer.h ****  * @brief Ring buffer structure
  44:../../lpc11cx4-library/lpc_chip_11cxx_lib/inc/ring_buffer.h ****  */
  45:../../lpc11cx4-library/lpc_chip_11cxx_lib/inc/ring_buffer.h **** typedef struct {
  46:../../lpc11cx4-library/lpc_chip_11cxx_lib/inc/ring_buffer.h **** 	void *data;
  47:../../lpc11cx4-library/lpc_chip_11cxx_lib/inc/ring_buffer.h **** 	int count;
  48:../../lpc11cx4-library/lpc_chip_11cxx_lib/inc/ring_buffer.h **** 	int itemSz;
  49:../../lpc11cx4-library/lpc_chip_11cxx_lib/inc/ring_buffer.h **** 	uint32_t head;
  50:../../lpc11cx4-library/lpc_chip_11cxx_lib/inc/ring_buffer.h **** 	uint32_t tail;
  51:../../lpc11cx4-library/lpc_chip_11cxx_lib/inc/ring_buffer.h **** } RINGBUFF_T;
  52:../../lpc11cx4-library/lpc_chip_11cxx_lib/inc/ring_buffer.h **** 
  53:../../lpc11cx4-library/lpc_chip_11cxx_lib/inc/ring_buffer.h **** /**
  54:../../lpc11cx4-library/lpc_chip_11cxx_lib/inc/ring_buffer.h ****  * @def		RB_VHEAD(rb)
  55:../../lpc11cx4-library/lpc_chip_11cxx_lib/inc/ring_buffer.h ****  * volatile typecasted head index
  56:../../lpc11cx4-library/lpc_chip_11cxx_lib/inc/ring_buffer.h ****  */
  57:../../lpc11cx4-library/lpc_chip_11cxx_lib/inc/ring_buffer.h **** #define RB_VHEAD(rb)              (*(volatile uint32_t *) &(rb)->head)
  58:../../lpc11cx4-library/lpc_chip_11cxx_lib/inc/ring_buffer.h **** 
  59:../../lpc11cx4-library/lpc_chip_11cxx_lib/inc/ring_buffer.h **** /**
  60:../../lpc11cx4-library/lpc_chip_11cxx_lib/inc/ring_buffer.h ****  * @def		RB_VTAIL(rb)
  61:../../lpc11cx4-library/lpc_chip_11cxx_lib/inc/ring_buffer.h ****  * volatile typecasted tail index
  62:../../lpc11cx4-library/lpc_chip_11cxx_lib/inc/ring_buffer.h ****  */
  63:../../lpc11cx4-library/lpc_chip_11cxx_lib/inc/ring_buffer.h **** #define RB_VTAIL(rb)              (*(volatile uint32_t *) &(rb)->tail)
  64:../../lpc11cx4-library/lpc_chip_11cxx_lib/inc/ring_buffer.h **** 
  65:../../lpc11cx4-library/lpc_chip_11cxx_lib/inc/ring_buffer.h **** /**
  66:../../lpc11cx4-library/lpc_chip_11cxx_lib/inc/ring_buffer.h ****  * @brief	Initialize ring buffer
  67:../../lpc11cx4-library/lpc_chip_11cxx_lib/inc/ring_buffer.h ****  * @param	RingBuff	: Pointer to ring buffer to initialize
  68:../../lpc11cx4-library/lpc_chip_11cxx_lib/inc/ring_buffer.h ****  * @param	buffer		: Pointer to buffer to associate with RingBuff
  69:../../lpc11cx4-library/lpc_chip_11cxx_lib/inc/ring_buffer.h ****  * @param	itemSize	: Size of each buffer item size
  70:../../lpc11cx4-library/lpc_chip_11cxx_lib/inc/ring_buffer.h ****  * @param	count		: Size of ring buffer
  71:../../lpc11cx4-library/lpc_chip_11cxx_lib/inc/ring_buffer.h ****  * @note	Memory pointed by @a buffer must have correct alignment of
  72:../../lpc11cx4-library/lpc_chip_11cxx_lib/inc/ring_buffer.h ****  * 			@a itemSize, and @a count must be a power of 2 and must at
  73:../../lpc11cx4-library/lpc_chip_11cxx_lib/inc/ring_buffer.h ****  * 			least be 2 or greater.
ARM GAS  /tmp/ccSBomBp.s 			page 36


  74:../../lpc11cx4-library/lpc_chip_11cxx_lib/inc/ring_buffer.h ****  * @return	Nothing
  75:../../lpc11cx4-library/lpc_chip_11cxx_lib/inc/ring_buffer.h ****  */
  76:../../lpc11cx4-library/lpc_chip_11cxx_lib/inc/ring_buffer.h **** int RingBuffer_Init(RINGBUFF_T *RingBuff, void *buffer, int itemSize, int count);
  77:../../lpc11cx4-library/lpc_chip_11cxx_lib/inc/ring_buffer.h **** 
  78:../../lpc11cx4-library/lpc_chip_11cxx_lib/inc/ring_buffer.h **** /**
  79:../../lpc11cx4-library/lpc_chip_11cxx_lib/inc/ring_buffer.h ****  * @brief	Resets the ring buffer to empty
  80:../../lpc11cx4-library/lpc_chip_11cxx_lib/inc/ring_buffer.h ****  * @param	RingBuff	: Pointer to ring buffer
  81:../../lpc11cx4-library/lpc_chip_11cxx_lib/inc/ring_buffer.h ****  * @return	Nothing
  82:../../lpc11cx4-library/lpc_chip_11cxx_lib/inc/ring_buffer.h ****  */
  83:../../lpc11cx4-library/lpc_chip_11cxx_lib/inc/ring_buffer.h **** STATIC INLINE void RingBuffer_Flush(RINGBUFF_T *RingBuff)
  84:../../lpc11cx4-library/lpc_chip_11cxx_lib/inc/ring_buffer.h **** {
  85:../../lpc11cx4-library/lpc_chip_11cxx_lib/inc/ring_buffer.h **** 	RingBuff->head = RingBuff->tail = 0;
  86:../../lpc11cx4-library/lpc_chip_11cxx_lib/inc/ring_buffer.h **** }
  87:../../lpc11cx4-library/lpc_chip_11cxx_lib/inc/ring_buffer.h **** 
  88:../../lpc11cx4-library/lpc_chip_11cxx_lib/inc/ring_buffer.h **** /**
  89:../../lpc11cx4-library/lpc_chip_11cxx_lib/inc/ring_buffer.h ****  * @brief	Return size the ring buffer
  90:../../lpc11cx4-library/lpc_chip_11cxx_lib/inc/ring_buffer.h ****  * @param	RingBuff	: Pointer to ring buffer
  91:../../lpc11cx4-library/lpc_chip_11cxx_lib/inc/ring_buffer.h ****  * @return	Size of the ring buffer in bytes
  92:../../lpc11cx4-library/lpc_chip_11cxx_lib/inc/ring_buffer.h ****  */
  93:../../lpc11cx4-library/lpc_chip_11cxx_lib/inc/ring_buffer.h **** STATIC INLINE int RingBuffer_GetSize(RINGBUFF_T *RingBuff)
  94:../../lpc11cx4-library/lpc_chip_11cxx_lib/inc/ring_buffer.h **** {
  95:../../lpc11cx4-library/lpc_chip_11cxx_lib/inc/ring_buffer.h **** 	return RingBuff->count;
  96:../../lpc11cx4-library/lpc_chip_11cxx_lib/inc/ring_buffer.h **** }
  97:../../lpc11cx4-library/lpc_chip_11cxx_lib/inc/ring_buffer.h **** 
  98:../../lpc11cx4-library/lpc_chip_11cxx_lib/inc/ring_buffer.h **** /**
  99:../../lpc11cx4-library/lpc_chip_11cxx_lib/inc/ring_buffer.h ****  * @brief	Return number of items in the ring buffer
 100:../../lpc11cx4-library/lpc_chip_11cxx_lib/inc/ring_buffer.h ****  * @param	RingBuff	: Pointer to ring buffer
 101:../../lpc11cx4-library/lpc_chip_11cxx_lib/inc/ring_buffer.h ****  * @return	Number of items in the ring buffer
 102:../../lpc11cx4-library/lpc_chip_11cxx_lib/inc/ring_buffer.h ****  */
 103:../../lpc11cx4-library/lpc_chip_11cxx_lib/inc/ring_buffer.h **** STATIC INLINE int RingBuffer_GetCount(RINGBUFF_T *RingBuff)
 104:../../lpc11cx4-library/lpc_chip_11cxx_lib/inc/ring_buffer.h **** {
 105:../../lpc11cx4-library/lpc_chip_11cxx_lib/inc/ring_buffer.h **** 	return RB_VHEAD(RingBuff) - RB_VTAIL(RingBuff);
 106:../../lpc11cx4-library/lpc_chip_11cxx_lib/inc/ring_buffer.h **** }
 107:../../lpc11cx4-library/lpc_chip_11cxx_lib/inc/ring_buffer.h **** 
 108:../../lpc11cx4-library/lpc_chip_11cxx_lib/inc/ring_buffer.h **** /**
 109:../../lpc11cx4-library/lpc_chip_11cxx_lib/inc/ring_buffer.h ****  * @brief	Return number of free items in the ring buffer
 110:../../lpc11cx4-library/lpc_chip_11cxx_lib/inc/ring_buffer.h ****  * @param	RingBuff	: Pointer to ring buffer
 111:../../lpc11cx4-library/lpc_chip_11cxx_lib/inc/ring_buffer.h ****  * @return	Number of free items in the ring buffer
 112:../../lpc11cx4-library/lpc_chip_11cxx_lib/inc/ring_buffer.h ****  */
 113:../../lpc11cx4-library/lpc_chip_11cxx_lib/inc/ring_buffer.h **** STATIC INLINE int RingBuffer_GetFree(RINGBUFF_T *RingBuff)
 114:../../lpc11cx4-library/lpc_chip_11cxx_lib/inc/ring_buffer.h **** {
 115:../../lpc11cx4-library/lpc_chip_11cxx_lib/inc/ring_buffer.h **** 	return RingBuff->count - RingBuffer_GetCount(RingBuff);
 116:../../lpc11cx4-library/lpc_chip_11cxx_lib/inc/ring_buffer.h **** }
 117:../../lpc11cx4-library/lpc_chip_11cxx_lib/inc/ring_buffer.h **** 
 118:../../lpc11cx4-library/lpc_chip_11cxx_lib/inc/ring_buffer.h **** /**
 119:../../lpc11cx4-library/lpc_chip_11cxx_lib/inc/ring_buffer.h ****  * @brief	Return number of items in the ring buffer
 120:../../lpc11cx4-library/lpc_chip_11cxx_lib/inc/ring_buffer.h ****  * @param	RingBuff	: Pointer to ring buffer
 121:../../lpc11cx4-library/lpc_chip_11cxx_lib/inc/ring_buffer.h ****  * @return	1 if the ring buffer is full, otherwise 0
 122:../../lpc11cx4-library/lpc_chip_11cxx_lib/inc/ring_buffer.h ****  */
 123:../../lpc11cx4-library/lpc_chip_11cxx_lib/inc/ring_buffer.h **** STATIC INLINE int RingBuffer_IsFull(RINGBUFF_T *RingBuff)
 124:../../lpc11cx4-library/lpc_chip_11cxx_lib/inc/ring_buffer.h **** {
 125:../../lpc11cx4-library/lpc_chip_11cxx_lib/inc/ring_buffer.h **** 	return (RingBuffer_GetCount(RingBuff) >= RingBuff->count);
 126:../../lpc11cx4-library/lpc_chip_11cxx_lib/inc/ring_buffer.h **** }
 127:../../lpc11cx4-library/lpc_chip_11cxx_lib/inc/ring_buffer.h **** 
 128:../../lpc11cx4-library/lpc_chip_11cxx_lib/inc/ring_buffer.h **** /**
 129:../../lpc11cx4-library/lpc_chip_11cxx_lib/inc/ring_buffer.h ****  * @brief	Return empty status of ring buffer
 130:../../lpc11cx4-library/lpc_chip_11cxx_lib/inc/ring_buffer.h ****  * @param	RingBuff	: Pointer to ring buffer
ARM GAS  /tmp/ccSBomBp.s 			page 37


 131:../../lpc11cx4-library/lpc_chip_11cxx_lib/inc/ring_buffer.h ****  * @return	1 if the ring buffer is empty, otherwise 0
 132:../../lpc11cx4-library/lpc_chip_11cxx_lib/inc/ring_buffer.h ****  */
 133:../../lpc11cx4-library/lpc_chip_11cxx_lib/inc/ring_buffer.h **** STATIC INLINE int RingBuffer_IsEmpty(RINGBUFF_T *RingBuff)
 134:../../lpc11cx4-library/lpc_chip_11cxx_lib/inc/ring_buffer.h **** {
 135:../../lpc11cx4-library/lpc_chip_11cxx_lib/inc/ring_buffer.h **** 	return RB_VHEAD(RingBuff) == RB_VTAIL(RingBuff);
 827              		.loc 4 135 0
 828 0016 FA68     		ldr	r2, [r7, #12]	@ D.6429, MEM[(volatile uint32_t *)pTXRB_6(D) + 12B]
 829 0018 3B69     		ldr	r3, [r7, #16]	@ D.6429, MEM[(volatile uint32_t *)pTXRB_6(D) + 16B]
 830              	.LBE119:
 831              	.LBE118:
 218:../../lpc11cx4-library/lpc_chip_11cxx_lib/src/uart_11xx.c **** 
 219:../../lpc11cx4-library/lpc_chip_11cxx_lib/src/uart_11xx.c **** 		/* Disable transmit interrupt if the ring buffer is empty */
 220:../../lpc11cx4-library/lpc_chip_11cxx_lib/src/uart_11xx.c **** 		if (RingBuffer_IsEmpty(pTXRB)) {
 832              		.loc 1 220 0
 833 001a 9A42     		cmp	r2, r3	@ D.6429, D.6429
 834 001c 02D1     		bne	.L42	@,
 835              	.LVL95:
 836              	.LBB120:
 837              	.LBB121:
 368:../../lpc11cx4-library/lpc_chip_11cxx_lib/inc/uart_11xx.h **** }
 838              		.loc 3 368 0
 839 001e 6368     		ldr	r3, [r4, #4]	@ D.6429, pUART_3(D)->D.5007.IER
 840 0020 B343     		bic	r3, r6	@ D.6429, tmp120
 841 0022 6360     		str	r3, [r4, #4]	@ D.6429, pUART_3(D)->D.5007.IER
 842              	.LVL96:
 843              	.L42:
 844              	.LBE121:
 845              	.LBE120:
 221:../../lpc11cx4-library/lpc_chip_11cxx_lib/src/uart_11xx.c **** 			Chip_UART_IntDisable(pUART, UART_IER_THREINT);
 222:../../lpc11cx4-library/lpc_chip_11cxx_lib/src/uart_11xx.c **** 		}
 223:../../lpc11cx4-library/lpc_chip_11cxx_lib/src/uart_11xx.c **** 	}
 224:../../lpc11cx4-library/lpc_chip_11cxx_lib/src/uart_11xx.c **** 
 225:../../lpc11cx4-library/lpc_chip_11cxx_lib/src/uart_11xx.c **** 	/* Handle receive interrupt */
 226:../../lpc11cx4-library/lpc_chip_11cxx_lib/src/uart_11xx.c **** 	Chip_UART_RXIntHandlerRB(pUART, pRXRB);
 846              		.loc 1 226 0
 847 0024 291C     		mov	r1, r5	@, pRXRB
 848 0026 201C     		mov	r0, r4	@, pUART
 849 0028 FFF7FEFF 		bl	Chip_UART_RXIntHandlerRB	@
 850              	.LVL97:
 227:../../lpc11cx4-library/lpc_chip_11cxx_lib/src/uart_11xx.c **** }
 851              		.loc 1 227 0
 852              		@ sp needed	@
 853              	.LVL98:
 854              	.LVL99:
 855              	.LVL100:
 856 002c F8BD     		pop	{r3, r4, r5, r6, r7, pc}
 857              		.cfi_endproc
 858              	.LFE209:
 859              		.size	Chip_UART_IRQRBHandler, .-Chip_UART_IRQRBHandler
 860              		.global	__aeabi_uidivmod
 861              		.section	.text.Chip_UART_SetBaudFDR,"ax",%progbits
 862              		.align	1
 863              		.global	Chip_UART_SetBaudFDR
 864              		.code	16
 865              		.thumb_func
 866              		.type	Chip_UART_SetBaudFDR, %function
 867              	Chip_UART_SetBaudFDR:
ARM GAS  /tmp/ccSBomBp.s 			page 38


 868              	.LFB210:
 228:../../lpc11cx4-library/lpc_chip_11cxx_lib/src/uart_11xx.c **** 
 229:../../lpc11cx4-library/lpc_chip_11cxx_lib/src/uart_11xx.c **** /* Determines and sets best dividers to get a target baud rate */
 230:../../lpc11cx4-library/lpc_chip_11cxx_lib/src/uart_11xx.c **** uint32_t Chip_UART_SetBaudFDR(LPC_USART_T *pUART, uint32_t baudrate)
 231:../../lpc11cx4-library/lpc_chip_11cxx_lib/src/uart_11xx.c **** 
 232:../../lpc11cx4-library/lpc_chip_11cxx_lib/src/uart_11xx.c **** {
 869              		.loc 1 232 0
 870              		.cfi_startproc
 871              	.LVL101:
 872 0000 F7B5     		push	{r0, r1, r2, r4, r5, r6, r7, lr}	@
 873              		.cfi_def_cfa_offset 32
 874              		.cfi_offset 0, -32
 875              		.cfi_offset 1, -28
 876              		.cfi_offset 2, -24
 877              		.cfi_offset 4, -20
 878              		.cfi_offset 5, -16
 879              		.cfi_offset 6, -12
 880              		.cfi_offset 7, -8
 881              		.cfi_offset 14, -4
 233:../../lpc11cx4-library/lpc_chip_11cxx_lib/src/uart_11xx.c **** 	uint32_t uClk;
 234:../../lpc11cx4-library/lpc_chip_11cxx_lib/src/uart_11xx.c ****     uint32_t dval;
 235:../../lpc11cx4-library/lpc_chip_11cxx_lib/src/uart_11xx.c ****     uint32_t mval = 0;
 236:../../lpc11cx4-library/lpc_chip_11cxx_lib/src/uart_11xx.c ****     uint32_t dl;
 237:../../lpc11cx4-library/lpc_chip_11cxx_lib/src/uart_11xx.c ****     uint32_t rate16 = 16 * baudrate;
 882              		.loc 1 237 0
 883 0002 0D01     		lsl	r5, r1, #4	@ rate16, baudrate,
 884              	.LVL102:
 232:../../lpc11cx4-library/lpc_chip_11cxx_lib/src/uart_11xx.c **** 	uint32_t uClk;
 885              		.loc 1 232 0
 886 0004 061C     		mov	r6, r0	@ pUART, pUART
 238:../../lpc11cx4-library/lpc_chip_11cxx_lib/src/uart_11xx.c **** 	uint32_t actualRate = 0;
 239:../../lpc11cx4-library/lpc_chip_11cxx_lib/src/uart_11xx.c **** 
 240:../../lpc11cx4-library/lpc_chip_11cxx_lib/src/uart_11xx.c **** 	/* Get Clock rate */
 241:../../lpc11cx4-library/lpc_chip_11cxx_lib/src/uart_11xx.c **** 	uClk = Chip_Clock_GetMainClockRate();
 887              		.loc 1 241 0
 888 0006 FFF7FEFF 		bl	Chip_Clock_GetMainClockRate	@
 889              	.LVL103:
 242:../../lpc11cx4-library/lpc_chip_11cxx_lib/src/uart_11xx.c **** 
 243:../../lpc11cx4-library/lpc_chip_11cxx_lib/src/uart_11xx.c ****     /* The fractional is calculated as (PCLK  % (16 * Baudrate)) / (16 * Baudrate)
 244:../../lpc11cx4-library/lpc_chip_11cxx_lib/src/uart_11xx.c ****      * Let's make it to be the ratio DivVal / MulVal
 245:../../lpc11cx4-library/lpc_chip_11cxx_lib/src/uart_11xx.c ****      */
 246:../../lpc11cx4-library/lpc_chip_11cxx_lib/src/uart_11xx.c **** 	dval = uClk % rate16;
 890              		.loc 1 246 0
 891 000a 291C     		mov	r1, r5	@, rate16
 241:../../lpc11cx4-library/lpc_chip_11cxx_lib/src/uart_11xx.c **** 
 892              		.loc 1 241 0
 893 000c 071C     		mov	r7, r0	@ uClk,
 894              	.LVL104:
 895              		.loc 1 246 0
 896 000e FFF7FEFF 		bl	__aeabi_uidivmod	@
 897              	.LVL105:
 235:../../lpc11cx4-library/lpc_chip_11cxx_lib/src/uart_11xx.c ****     uint32_t dl;
 898              		.loc 1 235 0
 899 0012 0020     		mov	r0, #0	@ mval,
 900              		.loc 1 246 0
 901 0014 0C1E     		sub	r4, r1, #0	@ dval,,
 902              	.LVL106:
ARM GAS  /tmp/ccSBomBp.s 			page 39


 247:../../lpc11cx4-library/lpc_chip_11cxx_lib/src/uart_11xx.c **** 
 248:../../lpc11cx4-library/lpc_chip_11cxx_lib/src/uart_11xx.c ****    /* The PCLK / (16 * Baudrate) is fractional
 249:../../lpc11cx4-library/lpc_chip_11cxx_lib/src/uart_11xx.c ****     * => dval = pclk % rate16
 250:../../lpc11cx4-library/lpc_chip_11cxx_lib/src/uart_11xx.c ****     * mval = rate16;
 251:../../lpc11cx4-library/lpc_chip_11cxx_lib/src/uart_11xx.c ****     * now mormalize the ratio
 252:../../lpc11cx4-library/lpc_chip_11cxx_lib/src/uart_11xx.c ****     * dval / mval = 1 / new_mval
 253:../../lpc11cx4-library/lpc_chip_11cxx_lib/src/uart_11xx.c ****     * new_mval = mval / dval
 254:../../lpc11cx4-library/lpc_chip_11cxx_lib/src/uart_11xx.c ****     * new_dval = 1
 255:../../lpc11cx4-library/lpc_chip_11cxx_lib/src/uart_11xx.c ****     */
 256:../../lpc11cx4-library/lpc_chip_11cxx_lib/src/uart_11xx.c ****     if (dval > 0) {
 903              		.loc 1 256 0
 904 0016 8442     		cmp	r4, r0	@ dval,
 905 0018 06D0     		beq	.L45	@,
 257:../../lpc11cx4-library/lpc_chip_11cxx_lib/src/uart_11xx.c ****         mval = rate16 / dval;
 906              		.loc 1 257 0
 907 001a 281C     		mov	r0, r5	@, rate16
 908 001c FFF7FEFF 		bl	__aeabi_uidiv	@
 909              	.LVL107:
 258:../../lpc11cx4-library/lpc_chip_11cxx_lib/src/uart_11xx.c ****         dval = 1;
 259:../../lpc11cx4-library/lpc_chip_11cxx_lib/src/uart_11xx.c **** 
 260:../../lpc11cx4-library/lpc_chip_11cxx_lib/src/uart_11xx.c ****         /* In case mval still bigger then 4 bits
 261:../../lpc11cx4-library/lpc_chip_11cxx_lib/src/uart_11xx.c ****         * no adjustment require
 262:../../lpc11cx4-library/lpc_chip_11cxx_lib/src/uart_11xx.c ****         */
 263:../../lpc11cx4-library/lpc_chip_11cxx_lib/src/uart_11xx.c ****         if (mval > 12) {
 910              		.loc 1 263 0
 911 0020 0024     		mov	r4, #0	@ tmp149,
 912 0022 0C23     		mov	r3, #12	@ tmp148,
 913 0024 8342     		cmp	r3, r0	@ tmp148, mval
 914 0026 6441     		adc	r4, r4, r4	@ dval, tmp149, tmp149
 915              	.LVL108:
 916              	.L45:
 264:../../lpc11cx4-library/lpc_chip_11cxx_lib/src/uart_11xx.c ****          dval = 0;
 265:../../lpc11cx4-library/lpc_chip_11cxx_lib/src/uart_11xx.c ****       }
 266:../../lpc11cx4-library/lpc_chip_11cxx_lib/src/uart_11xx.c ****     }
 267:../../lpc11cx4-library/lpc_chip_11cxx_lib/src/uart_11xx.c ****     dval &= 0xf;
 268:../../lpc11cx4-library/lpc_chip_11cxx_lib/src/uart_11xx.c ****     mval &= 0xf;
 917              		.loc 1 268 0
 918 0028 0F23     		mov	r3, #15	@ tmp150,
 919 002a 1840     		and	r0, r3	@ mval, tmp150
 920              	.LVL109:
 921 002c 0190     		str	r0, [sp, #4]	@ mval, %sfp
 922              	.LVL110:
 269:../../lpc11cx4-library/lpc_chip_11cxx_lib/src/uart_11xx.c ****     dl = uClk / (rate16 + rate16 *dval / mval);
 923              		.loc 1 269 0
 924 002e 281C     		mov	r0, r5	@ D.6432, rate16
 925              	.LVL111:
 926 0030 0199     		ldr	r1, [sp, #4]	@, %sfp
 927 0032 6043     		mul	r0, r4	@ D.6432, dval
 928 0034 FFF7FEFF 		bl	__aeabi_uidiv	@
 929              	.LVL112:
 930 0038 4119     		add	r1, r0, r5	@ D.6432, D.6432, rate16
 931 003a 381C     		mov	r0, r7	@, uClk
 932 003c FFF7FEFF 		bl	__aeabi_uidiv	@
 933              	.LVL113:
 934              	.LBB122:
 935              	.LBB123:
 431:../../lpc11cx4-library/lpc_chip_11cxx_lib/inc/uart_11xx.h **** }
ARM GAS  /tmp/ccSBomBp.s 			page 40


 936              		.loc 3 431 0
 937 0040 8022     		mov	r2, #128	@ tmp160,
 938 0042 F368     		ldr	r3, [r6, #12]	@ D.6432, pUART_16(D)->LCR
 939              	.LBE123:
 940              	.LBE122:
 941              	.LBB125:
 942              	.LBB126:
 456:../../lpc11cx4-library/lpc_chip_11cxx_lib/inc/uart_11xx.h **** 	pUART->DLM = (uint32_t) dlm;
 943              		.loc 3 456 0
 944 0044 011C     		mov	r1, r0	@ D.6432, tmp159
 945              	.LBE126:
 946              	.LBE125:
 947              	.LBB130:
 948              	.LBB124:
 431:../../lpc11cx4-library/lpc_chip_11cxx_lib/inc/uart_11xx.h **** }
 949              		.loc 3 431 0
 950 0046 1343     		orr	r3, r2	@ D.6432, tmp160
 951 0048 F360     		str	r3, [r6, #12]	@ D.6432, pUART_16(D)->LCR
 952              	.LBE124:
 953              	.LBE130:
 954              	.LBB131:
 955              	.LBB127:
 456:../../lpc11cx4-library/lpc_chip_11cxx_lib/inc/uart_11xx.h **** 	pUART->DLM = (uint32_t) dlm;
 956              		.loc 3 456 0
 957 004a FF23     		mov	r3, #255	@ tmp161,
 958              	.LBE127:
 959              	.LBE131:
 960              		.loc 1 269 0
 961 004c 051C     		mov	r5, r0	@ tmp159,
 962              	.LVL114:
 963              	.LBB132:
 964              	.LBB128:
 456:../../lpc11cx4-library/lpc_chip_11cxx_lib/inc/uart_11xx.h **** 	pUART->DLM = (uint32_t) dlm;
 965              		.loc 3 456 0
 966 004e 1940     		and	r1, r3	@ D.6432, tmp161
 967 0050 3160     		str	r1, [r6]	@ D.6432, pUART_16(D)->D.5003.DLL
 968              	.LBE128:
 969              	.LBE132:
 270:../../lpc11cx4-library/lpc_chip_11cxx_lib/src/uart_11xx.c **** 
 271:../../lpc11cx4-library/lpc_chip_11cxx_lib/src/uart_11xx.c ****     /* Update UART registers */
 272:../../lpc11cx4-library/lpc_chip_11cxx_lib/src/uart_11xx.c ****     Chip_UART_EnableDivisorAccess(pUART);
 273:../../lpc11cx4-library/lpc_chip_11cxx_lib/src/uart_11xx.c **** 	Chip_UART_SetDivisorLatches(pUART, UART_LOAD_DLL(dl), UART_LOAD_DLM(dl));
 970              		.loc 1 273 0
 971 0052 010A     		lsr	r1, r0, #8	@ D.6432, tmp159,
 972              	.LBB133:
 973              	.LBB129:
 457:../../lpc11cx4-library/lpc_chip_11cxx_lib/inc/uart_11xx.h **** }
 974              		.loc 3 457 0
 975 0054 0B40     		and	r3, r1	@ D.6432, D.6432
 976 0056 7360     		str	r3, [r6, #4]	@ D.6432, pUART_16(D)->D.5007.DLM
 977              	.LVL115:
 978              	.LBE129:
 979              	.LBE133:
 980              	.LBB134:
 981              	.LBB135:
 441:../../lpc11cx4-library/lpc_chip_11cxx_lib/inc/uart_11xx.h **** }
 982              		.loc 3 441 0
ARM GAS  /tmp/ccSBomBp.s 			page 41


 983 0058 F368     		ldr	r3, [r6, #12]	@ D.6432, pUART_16(D)->LCR
 984 005a 2001     		lsl	r0, r4, #4	@ D.6432, dval,
 985              	.LVL116:
 986 005c 9343     		bic	r3, r2	@ D.6432, tmp160
 987 005e F360     		str	r3, [r6, #12]	@ D.6432, pUART_16(D)->LCR
 988              	.LBE135:
 989              	.LBE134:
 274:../../lpc11cx4-library/lpc_chip_11cxx_lib/src/uart_11xx.c **** 	Chip_UART_DisableDivisorAccess(pUART);
 275:../../lpc11cx4-library/lpc_chip_11cxx_lib/src/uart_11xx.c **** 
 276:../../lpc11cx4-library/lpc_chip_11cxx_lib/src/uart_11xx.c **** 	/* Set best fractional divider */
 277:../../lpc11cx4-library/lpc_chip_11cxx_lib/src/uart_11xx.c **** 	pUART->FDR = (UART_FDR_MULVAL(mval) | UART_FDR_DIVADDVAL(dval));
 990              		.loc 1 277 0
 991 0060 019B     		ldr	r3, [sp, #4]	@ mval, %sfp
 278:../../lpc11cx4-library/lpc_chip_11cxx_lib/src/uart_11xx.c **** 
 279:../../lpc11cx4-library/lpc_chip_11cxx_lib/src/uart_11xx.c **** 	/* Return actual baud rate */
 280:../../lpc11cx4-library/lpc_chip_11cxx_lib/src/uart_11xx.c **** 	actualRate = uClk / (16 * dl + 16 * dl * dval / mval);
 992              		.loc 1 280 0
 993 0062 0199     		ldr	r1, [sp, #4]	@, %sfp
 277:../../lpc11cx4-library/lpc_chip_11cxx_lib/src/uart_11xx.c **** 
 994              		.loc 1 277 0
 995 0064 1B01     		lsl	r3, r3, #4	@ D.6432, mval,
 996 0066 2343     		orr	r3, r4	@ D.6432, dval
 997 0068 B362     		str	r3, [r6, #40]	@ D.6432, pUART_16(D)->FDR
 998              	.LVL117:
 999              		.loc 1 280 0
 1000 006a 6843     		mul	r0, r5	@ D.6432, tmp159
 1001              	.LVL118:
 1002 006c FFF7FEFF 		bl	__aeabi_uidiv	@
 1003              	.LVL119:
 1004 0070 2D01     		lsl	r5, r5, #4	@ D.6432, tmp159,
 1005              	.LVL120:
 1006 0072 4119     		add	r1, r0, r5	@ D.6432, D.6432, D.6432
 1007 0074 381C     		mov	r0, r7	@, uClk
 1008 0076 FFF7FEFF 		bl	__aeabi_uidiv	@
 1009              	.LVL121:
 281:../../lpc11cx4-library/lpc_chip_11cxx_lib/src/uart_11xx.c **** 	return actualRate;
 282:../../lpc11cx4-library/lpc_chip_11cxx_lib/src/uart_11xx.c **** }
 1010              		.loc 1 282 0
 1011              		@ sp needed	@
 1012              	.LVL122:
 1013              	.LVL123:
 1014              	.LVL124:
 1015 007a FEBD     		pop	{r1, r2, r3, r4, r5, r6, r7, pc}
 1016              		.cfi_endproc
 1017              	.LFE210:
 1018              		.size	Chip_UART_SetBaudFDR, .-Chip_UART_SetBaudFDR
 1019              		.text
 1020              	.Letext0:
 1021              		.file 5 "/usr/arm-none-eabi/include/machine/_default_types.h"
 1022              		.file 6 "/usr/arm-none-eabi/include/sys/_stdint.h"
 1023              		.file 7 "../../lpc11cx4-library/lpc_chip_11cxx_lib/inc/sysctl_11xx.h"
 1024              		.file 8 "../../lpc11cx4-library/lpc_chip_11cxx_lib/inc/chip.h"
 1025              		.section	.debug_info,"",%progbits
 1026              	.Ldebug_info0:
 1027 0000 57120000 		.4byte	0x1257
 1028 0004 0400     		.2byte	0x4
 1029 0006 00000000 		.4byte	.Ldebug_abbrev0
ARM GAS  /tmp/ccSBomBp.s 			page 42


 1030 000a 04       		.byte	0x4
 1031 000b 01       		.uleb128 0x1
 1032 000c 291E0000 		.4byte	.LASF1186
 1033 0010 01       		.byte	0x1
 1034 0011 5B550000 		.4byte	.LASF1187
 1035 0015 CF3A0000 		.4byte	.LASF1188
 1036 0019 38010000 		.4byte	.Ldebug_ranges0+0x138
 1037 001d 00000000 		.4byte	0
 1038 0021 00000000 		.4byte	.Ldebug_line0
 1039 0025 00000000 		.4byte	.Ldebug_macro0
 1040 0029 02       		.uleb128 0x2
 1041 002a 04       		.byte	0x4
 1042 002b 07       		.byte	0x7
 1043 002c FE460000 		.4byte	.LASF1020
 1044 0030 02       		.uleb128 0x2
 1045 0031 01       		.byte	0x1
 1046 0032 06       		.byte	0x6
 1047 0033 7D1A0000 		.4byte	.LASF1021
 1048 0037 03       		.uleb128 0x3
 1049 0038 340F0000 		.4byte	.LASF1026
 1050 003c 05       		.byte	0x5
 1051 003d 1D       		.byte	0x1d
 1052 003e 42000000 		.4byte	0x42
 1053 0042 02       		.uleb128 0x2
 1054 0043 01       		.byte	0x1
 1055 0044 08       		.byte	0x8
 1056 0045 DF1D0000 		.4byte	.LASF1022
 1057 0049 02       		.uleb128 0x2
 1058 004a 02       		.byte	0x2
 1059 004b 05       		.byte	0x5
 1060 004c 20650000 		.4byte	.LASF1023
 1061 0050 02       		.uleb128 0x2
 1062 0051 02       		.byte	0x2
 1063 0052 07       		.byte	0x7
 1064 0053 FC710000 		.4byte	.LASF1024
 1065 0057 02       		.uleb128 0x2
 1066 0058 04       		.byte	0x4
 1067 0059 05       		.byte	0x5
 1068 005a 19130000 		.4byte	.LASF1025
 1069 005e 03       		.uleb128 0x3
 1070 005f 183F0000 		.4byte	.LASF1027
 1071 0063 05       		.byte	0x5
 1072 0064 41       		.byte	0x41
 1073 0065 69000000 		.4byte	0x69
 1074 0069 02       		.uleb128 0x2
 1075 006a 04       		.byte	0x4
 1076 006b 07       		.byte	0x7
 1077 006c F4360000 		.4byte	.LASF1028
 1078 0070 02       		.uleb128 0x2
 1079 0071 08       		.byte	0x8
 1080 0072 05       		.byte	0x5
 1081 0073 7F3F0000 		.4byte	.LASF1029
 1082 0077 02       		.uleb128 0x2
 1083 0078 08       		.byte	0x8
 1084 0079 07       		.byte	0x7
 1085 007a 46560000 		.4byte	.LASF1030
 1086 007e 04       		.uleb128 0x4
ARM GAS  /tmp/ccSBomBp.s 			page 43


 1087 007f 04       		.byte	0x4
 1088 0080 05       		.byte	0x5
 1089 0081 696E7400 		.ascii	"int\000"
 1090 0085 03       		.uleb128 0x3
 1091 0086 D31A0000 		.4byte	.LASF1031
 1092 008a 06       		.byte	0x6
 1093 008b 14       		.byte	0x14
 1094 008c 37000000 		.4byte	0x37
 1095 0090 03       		.uleb128 0x3
 1096 0091 FC6E0000 		.4byte	.LASF1032
 1097 0095 06       		.byte	0x6
 1098 0096 20       		.byte	0x20
 1099 0097 5E000000 		.4byte	0x5e
 1100 009b 02       		.uleb128 0x2
 1101 009c 01       		.byte	0x1
 1102 009d 08       		.byte	0x8
 1103 009e AF230000 		.4byte	.LASF371
 1104 00a2 02       		.uleb128 0x2
 1105 00a3 01       		.byte	0x1
 1106 00a4 02       		.byte	0x2
 1107 00a5 42220000 		.4byte	.LASF1033
 1108 00a9 05       		.uleb128 0x5
 1109 00aa 90000000 		.4byte	0x90
 1110 00ae B9000000 		.4byte	0xb9
 1111 00b2 06       		.uleb128 0x6
 1112 00b3 B9000000 		.4byte	0xb9
 1113 00b7 00       		.byte	0
 1114 00b8 00       		.byte	0
 1115 00b9 02       		.uleb128 0x2
 1116 00ba 04       		.byte	0x4
 1117 00bb 07       		.byte	0x7
 1118 00bc 95010000 		.4byte	.LASF1034
 1119 00c0 05       		.uleb128 0x5
 1120 00c1 90000000 		.4byte	0x90
 1121 00c5 D0000000 		.4byte	0xd0
 1122 00c9 06       		.uleb128 0x6
 1123 00ca B9000000 		.4byte	0xb9
 1124 00ce 07       		.byte	0x7
 1125 00cf 00       		.byte	0
 1126 00d0 07       		.uleb128 0x7
 1127 00d1 D5000000 		.4byte	0xd5
 1128 00d5 08       		.uleb128 0x8
 1129 00d6 90000000 		.4byte	0x90
 1130 00da 05       		.uleb128 0x5
 1131 00db 90000000 		.4byte	0x90
 1132 00df EA000000 		.4byte	0xea
 1133 00e3 06       		.uleb128 0x6
 1134 00e4 B9000000 		.4byte	0xb9
 1135 00e8 01       		.byte	0x1
 1136 00e9 00       		.byte	0
 1137 00ea 05       		.uleb128 0x5
 1138 00eb 90000000 		.4byte	0x90
 1139 00ef FA000000 		.4byte	0xfa
 1140 00f3 06       		.uleb128 0x6
 1141 00f4 B9000000 		.4byte	0xb9
 1142 00f8 03       		.byte	0x3
 1143 00f9 00       		.byte	0
ARM GAS  /tmp/ccSBomBp.s 			page 44


 1144 00fa 05       		.uleb128 0x5
 1145 00fb 90000000 		.4byte	0x90
 1146 00ff 0A010000 		.4byte	0x10a
 1147 0103 06       		.uleb128 0x6
 1148 0104 B9000000 		.4byte	0xb9
 1149 0108 02       		.byte	0x2
 1150 0109 00       		.byte	0
 1151 010a 09       		.uleb128 0x9
 1152 010b F803     		.2byte	0x3f8
 1153 010d 07       		.byte	0x7
 1154 010e 2F       		.byte	0x2f
 1155 010f 1F040000 		.4byte	0x41f
 1156 0113 0A       		.uleb128 0xa
 1157 0114 AA2E0000 		.4byte	.LASF1035
 1158 0118 07       		.byte	0x7
 1159 0119 30       		.byte	0x30
 1160 011a D5000000 		.4byte	0xd5
 1161 011e 00       		.byte	0
 1162 011f 0A       		.uleb128 0xa
 1163 0120 0F5B0000 		.4byte	.LASF1036
 1164 0124 07       		.byte	0x7
 1165 0125 31       		.byte	0x31
 1166 0126 D5000000 		.4byte	0xd5
 1167 012a 04       		.byte	0x4
 1168 012b 0A       		.uleb128 0xa
 1169 012c 4D2E0000 		.4byte	.LASF1037
 1170 0130 07       		.byte	0x7
 1171 0131 32       		.byte	0x32
 1172 0132 D5000000 		.4byte	0xd5
 1173 0136 08       		.byte	0x8
 1174 0137 0A       		.uleb128 0xa
 1175 0138 A36B0000 		.4byte	.LASF1038
 1176 013c 07       		.byte	0x7
 1177 013d 33       		.byte	0x33
 1178 013e D0000000 		.4byte	0xd0
 1179 0142 0C       		.byte	0xc
 1180 0143 0A       		.uleb128 0xa
 1181 0144 8A6B0000 		.4byte	.LASF1039
 1182 0148 07       		.byte	0x7
 1183 0149 34       		.byte	0x34
 1184 014a D5000000 		.4byte	0xd5
 1185 014e 10       		.byte	0x10
 1186 014f 0A       		.uleb128 0xa
 1187 0150 9A340000 		.4byte	.LASF1040
 1188 0154 07       		.byte	0x7
 1189 0155 35       		.byte	0x35
 1190 0156 D0000000 		.4byte	0xd0
 1191 015a 14       		.byte	0x14
 1192 015b 0A       		.uleb128 0xa
 1193 015c D51D0000 		.4byte	.LASF1041
 1194 0160 07       		.byte	0x7
 1195 0161 36       		.byte	0x36
 1196 0162 1F040000 		.4byte	0x41f
 1197 0166 18       		.byte	0x18
 1198 0167 0A       		.uleb128 0xa
 1199 0168 FA510000 		.4byte	.LASF1042
 1200 016c 07       		.byte	0x7
ARM GAS  /tmp/ccSBomBp.s 			page 45


 1201 016d 37       		.byte	0x37
 1202 016e D5000000 		.4byte	0xd5
 1203 0172 20       		.byte	0x20
 1204 0173 0A       		.uleb128 0xa
 1205 0174 C6700000 		.4byte	.LASF1043
 1206 0178 07       		.byte	0x7
 1207 0179 38       		.byte	0x38
 1208 017a D5000000 		.4byte	0xd5
 1209 017e 24       		.byte	0x24
 1210 017f 0A       		.uleb128 0xa
 1211 0180 1F5A0000 		.4byte	.LASF1044
 1212 0184 07       		.byte	0x7
 1213 0185 39       		.byte	0x39
 1214 0186 D5000000 		.4byte	0xd5
 1215 018a 28       		.byte	0x28
 1216 018b 0A       		.uleb128 0xa
 1217 018c 19630000 		.4byte	.LASF1045
 1218 0190 07       		.byte	0x7
 1219 0191 3A       		.byte	0x3a
 1220 0192 D5000000 		.4byte	0xd5
 1221 0196 2C       		.byte	0x2c
 1222 0197 0A       		.uleb128 0xa
 1223 0198 AF410000 		.4byte	.LASF1046
 1224 019c 07       		.byte	0x7
 1225 019d 3B       		.byte	0x3b
 1226 019e D5000000 		.4byte	0xd5
 1227 01a2 30       		.byte	0x30
 1228 01a3 0A       		.uleb128 0xa
 1229 01a4 D2220000 		.4byte	.LASF1047
 1230 01a8 07       		.byte	0x7
 1231 01a9 3C       		.byte	0x3c
 1232 01aa 29040000 		.4byte	0x429
 1233 01ae 34       		.byte	0x34
 1234 01af 0A       		.uleb128 0xa
 1235 01b0 76140000 		.4byte	.LASF1048
 1236 01b4 07       		.byte	0x7
 1237 01b5 3D       		.byte	0x3d
 1238 01b6 D5000000 		.4byte	0xd5
 1239 01ba 40       		.byte	0x40
 1240 01bb 0A       		.uleb128 0xa
 1241 01bc 25470000 		.4byte	.LASF1049
 1242 01c0 07       		.byte	0x7
 1243 01c1 3E       		.byte	0x3e
 1244 01c2 D5000000 		.4byte	0xd5
 1245 01c6 44       		.byte	0x44
 1246 01c7 0A       		.uleb128 0xa
 1247 01c8 FE1A0000 		.4byte	.LASF1050
 1248 01cc 07       		.byte	0x7
 1249 01cd 3F       		.byte	0x3f
 1250 01ce D5000000 		.4byte	0xd5
 1251 01d2 48       		.byte	0x48
 1252 01d3 0A       		.uleb128 0xa
 1253 01d4 594D0000 		.4byte	.LASF1051
 1254 01d8 07       		.byte	0x7
 1255 01d9 40       		.byte	0x40
 1256 01da D5000000 		.4byte	0xd5
 1257 01de 4C       		.byte	0x4c
ARM GAS  /tmp/ccSBomBp.s 			page 46


 1258 01df 0A       		.uleb128 0xa
 1259 01e0 ED1D0000 		.4byte	.LASF1052
 1260 01e4 07       		.byte	0x7
 1261 01e5 41       		.byte	0x41
 1262 01e6 33040000 		.4byte	0x433
 1263 01ea 50       		.byte	0x50
 1264 01eb 0A       		.uleb128 0xa
 1265 01ec FD1E0000 		.4byte	.LASF1053
 1266 01f0 07       		.byte	0x7
 1267 01f1 42       		.byte	0x42
 1268 01f2 D5000000 		.4byte	0xd5
 1269 01f6 70       		.byte	0x70
 1270 01f7 0A       		.uleb128 0xa
 1271 01f8 71500000 		.4byte	.LASF1054
 1272 01fc 07       		.byte	0x7
 1273 01fd 43       		.byte	0x43
 1274 01fe D5000000 		.4byte	0xd5
 1275 0202 74       		.byte	0x74
 1276 0203 0A       		.uleb128 0xa
 1277 0204 DE490000 		.4byte	.LASF1055
 1278 0208 07       		.byte	0x7
 1279 0209 44       		.byte	0x44
 1280 020a D5000000 		.4byte	0xd5
 1281 020e 78       		.byte	0x78
 1282 020f 0A       		.uleb128 0xa
 1283 0210 F71D0000 		.4byte	.LASF1056
 1284 0214 07       		.byte	0x7
 1285 0215 45       		.byte	0x45
 1286 0216 D0000000 		.4byte	0xd0
 1287 021a 7C       		.byte	0x7c
 1288 021b 0A       		.uleb128 0xa
 1289 021c D9590000 		.4byte	.LASF1057
 1290 0220 07       		.byte	0x7
 1291 0221 46       		.byte	0x46
 1292 0222 D5000000 		.4byte	0xd5
 1293 0226 80       		.byte	0x80
 1294 0227 0A       		.uleb128 0xa
 1295 0228 011E0000 		.4byte	.LASF1058
 1296 022c 07       		.byte	0x7
 1297 022d 47       		.byte	0x47
 1298 022e 3D040000 		.4byte	0x43d
 1299 0232 84       		.byte	0x84
 1300 0233 0A       		.uleb128 0xa
 1301 0234 6C6C0000 		.4byte	.LASF1059
 1302 0238 07       		.byte	0x7
 1303 0239 48       		.byte	0x48
 1304 023a D5000000 		.4byte	0xd5
 1305 023e 94       		.byte	0x94
 1306 023f 0A       		.uleb128 0xa
 1307 0240 45240000 		.4byte	.LASF1060
 1308 0244 07       		.byte	0x7
 1309 0245 49       		.byte	0x49
 1310 0246 D5000000 		.4byte	0xd5
 1311 024a 98       		.byte	0x98
 1312 024b 0A       		.uleb128 0xa
 1313 024c A3710000 		.4byte	.LASF1061
 1314 0250 07       		.byte	0x7
ARM GAS  /tmp/ccSBomBp.s 			page 47


 1315 0251 4A       		.byte	0x4a
 1316 0252 D5000000 		.4byte	0xd5
 1317 0256 9C       		.byte	0x9c
 1318 0257 0A       		.uleb128 0xa
 1319 0258 0B1E0000 		.4byte	.LASF1062
 1320 025c 07       		.byte	0x7
 1321 025d 4B       		.byte	0x4b
 1322 025e 47040000 		.4byte	0x447
 1323 0262 A0       		.byte	0xa0
 1324 0263 0A       		.uleb128 0xa
 1325 0264 28760000 		.4byte	.LASF1063
 1326 0268 07       		.byte	0x7
 1327 0269 4C       		.byte	0x4c
 1328 026a D5000000 		.4byte	0xd5
 1329 026e C0       		.byte	0xc0
 1330 026f 0A       		.uleb128 0xa
 1331 0270 5E300000 		.4byte	.LASF1064
 1332 0274 07       		.byte	0x7
 1333 0275 4D       		.byte	0x4d
 1334 0276 D5000000 		.4byte	0xd5
 1335 027a C4       		.byte	0xc4
 1336 027b 0A       		.uleb128 0xa
 1337 027c 170A0000 		.4byte	.LASF1065
 1338 0280 07       		.byte	0x7
 1339 0281 4E       		.byte	0x4e
 1340 0282 D5000000 		.4byte	0xd5
 1341 0286 C8       		.byte	0xc8
 1342 0287 0A       		.uleb128 0xa
 1343 0288 151E0000 		.4byte	.LASF1066
 1344 028c 07       		.byte	0x7
 1345 028d 4F       		.byte	0x4f
 1346 028e D0000000 		.4byte	0xd0
 1347 0292 CC       		.byte	0xcc
 1348 0293 0A       		.uleb128 0xa
 1349 0294 745D0000 		.4byte	.LASF1067
 1350 0298 07       		.byte	0x7
 1351 0299 50       		.byte	0x50
 1352 029a D5000000 		.4byte	0xd5
 1353 029e D0       		.byte	0xd0
 1354 029f 0A       		.uleb128 0xa
 1355 02a0 93140000 		.4byte	.LASF1068
 1356 02a4 07       		.byte	0x7
 1357 02a5 51       		.byte	0x51
 1358 02a6 D5000000 		.4byte	0xd5
 1359 02aa D4       		.byte	0xd4
 1360 02ab 0A       		.uleb128 0xa
 1361 02ac D26A0000 		.4byte	.LASF1069
 1362 02b0 07       		.byte	0x7
 1363 02b1 52       		.byte	0x52
 1364 02b2 D5000000 		.4byte	0xd5
 1365 02b6 D8       		.byte	0xd8
 1366 02b7 0A       		.uleb128 0xa
 1367 02b8 1F1E0000 		.4byte	.LASF1070
 1368 02bc 07       		.byte	0x7
 1369 02bd 53       		.byte	0x53
 1370 02be D0000000 		.4byte	0xd0
 1371 02c2 DC       		.byte	0xdc
ARM GAS  /tmp/ccSBomBp.s 			page 48


 1372 02c3 0A       		.uleb128 0xa
 1373 02c4 9F640000 		.4byte	.LASF1071
 1374 02c8 07       		.byte	0x7
 1375 02c9 54       		.byte	0x54
 1376 02ca D5000000 		.4byte	0xd5
 1377 02ce E0       		.byte	0xe0
 1378 02cf 0A       		.uleb128 0xa
 1379 02d0 B31B0000 		.4byte	.LASF1072
 1380 02d4 07       		.byte	0x7
 1381 02d5 55       		.byte	0x55
 1382 02d6 D5000000 		.4byte	0xd5
 1383 02da E4       		.byte	0xe4
 1384 02db 0A       		.uleb128 0xa
 1385 02dc 06710000 		.4byte	.LASF1073
 1386 02e0 07       		.byte	0x7
 1387 02e1 56       		.byte	0x56
 1388 02e2 D5000000 		.4byte	0xd5
 1389 02e6 E8       		.byte	0xe8
 1390 02e7 0A       		.uleb128 0xa
 1391 02e8 61280000 		.4byte	.LASF1074
 1392 02ec 07       		.byte	0x7
 1393 02ed 57       		.byte	0x57
 1394 02ee 61040000 		.4byte	0x461
 1395 02f2 EC       		.byte	0xec
 1396 02f3 0B       		.uleb128 0xb
 1397 02f4 01140000 		.4byte	.LASF1075
 1398 02f8 07       		.byte	0x7
 1399 02f9 58       		.byte	0x58
 1400 02fa 6B040000 		.4byte	0x46b
 1401 02fe 0001     		.2byte	0x100
 1402 0300 0B       		.uleb128 0xb
 1403 0301 90580000 		.4byte	.LASF1076
 1404 0305 07       		.byte	0x7
 1405 0306 59       		.byte	0x59
 1406 0307 85040000 		.4byte	0x485
 1407 030b 0801     		.2byte	0x108
 1408 030d 0B       		.uleb128 0xb
 1409 030e 77060000 		.4byte	.LASF1077
 1410 0312 07       		.byte	0x7
 1411 0313 5A       		.byte	0x5a
 1412 0314 D5000000 		.4byte	0xd5
 1413 0318 5001     		.2byte	0x150
 1414 031a 0B       		.uleb128 0xb
 1415 031b 73750000 		.4byte	.LASF1078
 1416 031f 07       		.byte	0x7
 1417 0320 5B       		.byte	0x5b
 1418 0321 D5000000 		.4byte	0xd5
 1419 0325 5401     		.2byte	0x154
 1420 0327 0B       		.uleb128 0xb
 1421 0328 9B580000 		.4byte	.LASF1079
 1422 032c 07       		.byte	0x7
 1423 032d 5C       		.byte	0x5c
 1424 032e 9F040000 		.4byte	0x49f
 1425 0332 5801     		.2byte	0x158
 1426 0334 0B       		.uleb128 0xb
 1427 0335 5E3B0000 		.4byte	.LASF1080
 1428 0339 07       		.byte	0x7
ARM GAS  /tmp/ccSBomBp.s 			page 49


 1429 033a 5D       		.byte	0x5d
 1430 033b D5000000 		.4byte	0xd5
 1431 033f 7001     		.2byte	0x170
 1432 0341 0B       		.uleb128 0xb
 1433 0342 7D690000 		.4byte	.LASF1081
 1434 0346 07       		.byte	0x7
 1435 0347 5E       		.byte	0x5e
 1436 0348 D5000000 		.4byte	0xd5
 1437 034c 7401     		.2byte	0x174
 1438 034e 0B       		.uleb128 0xb
 1439 034f E8100000 		.4byte	.LASF1082
 1440 0353 07       		.byte	0x7
 1441 0354 5F       		.byte	0x5f
 1442 0355 A9040000 		.4byte	0x4a9
 1443 0359 7801     		.2byte	0x178
 1444 035b 0B       		.uleb128 0xb
 1445 035c 5B310000 		.4byte	.LASF1083
 1446 0360 07       		.byte	0x7
 1447 0361 60       		.byte	0x60
 1448 0362 D5000000 		.4byte	0xd5
 1449 0366 9801     		.2byte	0x198
 1450 0368 0B       		.uleb128 0xb
 1451 0369 065B0000 		.4byte	.LASF1084
 1452 036d 07       		.byte	0x7
 1453 036e 61       		.byte	0x61
 1454 036f D0000000 		.4byte	0xd0
 1455 0373 9C01     		.2byte	0x19c
 1456 0375 0B       		.uleb128 0xb
 1457 0376 A6580000 		.4byte	.LASF1085
 1458 037a 07       		.byte	0x7
 1459 037b 62       		.byte	0x62
 1460 037c BE040000 		.4byte	0x4be
 1461 0380 A001     		.2byte	0x1a0
 1462 0382 0B       		.uleb128 0xb
 1463 0383 1A4C0000 		.4byte	.LASF1086
 1464 0387 07       		.byte	0x7
 1465 0388 63       		.byte	0x63
 1466 0389 D5000000 		.4byte	0xd5
 1467 038d 0002     		.2byte	0x200
 1468 038f 0B       		.uleb128 0xb
 1469 0390 4B670000 		.4byte	.LASF1087
 1470 0394 07       		.byte	0x7
 1471 0395 64       		.byte	0x64
 1472 0396 D5000000 		.4byte	0xd5
 1473 039a 0402     		.2byte	0x204
 1474 039c 0B       		.uleb128 0xb
 1475 039d 956B0000 		.4byte	.LASF1088
 1476 03a1 07       		.byte	0x7
 1477 03a2 65       		.byte	0x65
 1478 03a3 D5000000 		.4byte	0xd5
 1479 03a7 0802     		.2byte	0x208
 1480 03a9 0B       		.uleb128 0xb
 1481 03aa 336F0000 		.4byte	.LASF1089
 1482 03ae 07       		.byte	0x7
 1483 03af 66       		.byte	0x66
 1484 03b0 D5000000 		.4byte	0xd5
 1485 03b4 0C02     		.2byte	0x20c
ARM GAS  /tmp/ccSBomBp.s 			page 50


 1486 03b6 0B       		.uleb128 0xb
 1487 03b7 B1580000 		.4byte	.LASF1090
 1488 03bb 07       		.byte	0x7
 1489 03bc 67       		.byte	0x67
 1490 03bd D0000000 		.4byte	0xd0
 1491 03c1 1002     		.2byte	0x210
 1492 03c3 0B       		.uleb128 0xb
 1493 03c4 55670000 		.4byte	.LASF1091
 1494 03c8 07       		.byte	0x7
 1495 03c9 68       		.byte	0x68
 1496 03ca D5000000 		.4byte	0xd5
 1497 03ce 1402     		.2byte	0x214
 1498 03d0 0B       		.uleb128 0xb
 1499 03d1 BC580000 		.4byte	.LASF1092
 1500 03d5 07       		.byte	0x7
 1501 03d6 69       		.byte	0x69
 1502 03d7 C8040000 		.4byte	0x4c8
 1503 03db 1802     		.2byte	0x218
 1504 03dd 0B       		.uleb128 0xb
 1505 03de A74A0000 		.4byte	.LASF1093
 1506 03e2 07       		.byte	0x7
 1507 03e3 6A       		.byte	0x6a
 1508 03e4 D5000000 		.4byte	0xd5
 1509 03e8 3002     		.2byte	0x230
 1510 03ea 0B       		.uleb128 0xb
 1511 03eb EE5A0000 		.4byte	.LASF1094
 1512 03ef 07       		.byte	0x7
 1513 03f0 6B       		.byte	0x6b
 1514 03f1 D5000000 		.4byte	0xd5
 1515 03f5 3402     		.2byte	0x234
 1516 03f7 0B       		.uleb128 0xb
 1517 03f8 64190000 		.4byte	.LASF1095
 1518 03fc 07       		.byte	0x7
 1519 03fd 6C       		.byte	0x6c
 1520 03fe D5000000 		.4byte	0xd5
 1521 0402 3802     		.2byte	0x238
 1522 0404 0B       		.uleb128 0xb
 1523 0405 C7580000 		.4byte	.LASF1096
 1524 0409 07       		.byte	0x7
 1525 040a 6D       		.byte	0x6d
 1526 040b E2040000 		.4byte	0x4e2
 1527 040f 3C02     		.2byte	0x23c
 1528 0411 0B       		.uleb128 0xb
 1529 0412 24640000 		.4byte	.LASF1097
 1530 0416 07       		.byte	0x7
 1531 0417 6E       		.byte	0x6e
 1532 0418 D0000000 		.4byte	0xd0
 1533 041c F403     		.2byte	0x3f4
 1534 041e 00       		.byte	0
 1535 041f 07       		.uleb128 0x7
 1536 0420 24040000 		.4byte	0x424
 1537 0424 08       		.uleb128 0x8
 1538 0425 DA000000 		.4byte	0xda
 1539 0429 07       		.uleb128 0x7
 1540 042a 2E040000 		.4byte	0x42e
 1541 042e 08       		.uleb128 0x8
 1542 042f FA000000 		.4byte	0xfa
ARM GAS  /tmp/ccSBomBp.s 			page 51


 1543 0433 07       		.uleb128 0x7
 1544 0434 38040000 		.4byte	0x438
 1545 0438 08       		.uleb128 0x8
 1546 0439 C0000000 		.4byte	0xc0
 1547 043d 07       		.uleb128 0x7
 1548 043e 42040000 		.4byte	0x442
 1549 0442 08       		.uleb128 0x8
 1550 0443 EA000000 		.4byte	0xea
 1551 0447 07       		.uleb128 0x7
 1552 0448 4C040000 		.4byte	0x44c
 1553 044c 08       		.uleb128 0x8
 1554 044d C0000000 		.4byte	0xc0
 1555 0451 05       		.uleb128 0x5
 1556 0452 90000000 		.4byte	0x90
 1557 0456 61040000 		.4byte	0x461
 1558 045a 06       		.uleb128 0x6
 1559 045b B9000000 		.4byte	0xb9
 1560 045f 04       		.byte	0x4
 1561 0460 00       		.byte	0
 1562 0461 07       		.uleb128 0x7
 1563 0462 66040000 		.4byte	0x466
 1564 0466 08       		.uleb128 0x8
 1565 0467 51040000 		.4byte	0x451
 1566 046b 07       		.uleb128 0x7
 1567 046c 70040000 		.4byte	0x470
 1568 0470 08       		.uleb128 0x8
 1569 0471 DA000000 		.4byte	0xda
 1570 0475 05       		.uleb128 0x5
 1571 0476 90000000 		.4byte	0x90
 1572 047a 85040000 		.4byte	0x485
 1573 047e 06       		.uleb128 0x6
 1574 047f B9000000 		.4byte	0xb9
 1575 0483 11       		.byte	0x11
 1576 0484 00       		.byte	0
 1577 0485 07       		.uleb128 0x7
 1578 0486 8A040000 		.4byte	0x48a
 1579 048a 08       		.uleb128 0x8
 1580 048b 75040000 		.4byte	0x475
 1581 048f 05       		.uleb128 0x5
 1582 0490 90000000 		.4byte	0x90
 1583 0494 9F040000 		.4byte	0x49f
 1584 0498 06       		.uleb128 0x6
 1585 0499 B9000000 		.4byte	0xb9
 1586 049d 05       		.byte	0x5
 1587 049e 00       		.byte	0
 1588 049f 07       		.uleb128 0x7
 1589 04a0 A4040000 		.4byte	0x4a4
 1590 04a4 08       		.uleb128 0x8
 1591 04a5 8F040000 		.4byte	0x48f
 1592 04a9 08       		.uleb128 0x8
 1593 04aa C0000000 		.4byte	0xc0
 1594 04ae 05       		.uleb128 0x5
 1595 04af 90000000 		.4byte	0x90
 1596 04b3 BE040000 		.4byte	0x4be
 1597 04b7 06       		.uleb128 0x6
 1598 04b8 B9000000 		.4byte	0xb9
 1599 04bc 17       		.byte	0x17
ARM GAS  /tmp/ccSBomBp.s 			page 52


 1600 04bd 00       		.byte	0
 1601 04be 07       		.uleb128 0x7
 1602 04bf C3040000 		.4byte	0x4c3
 1603 04c3 08       		.uleb128 0x8
 1604 04c4 AE040000 		.4byte	0x4ae
 1605 04c8 07       		.uleb128 0x7
 1606 04c9 CD040000 		.4byte	0x4cd
 1607 04cd 08       		.uleb128 0x8
 1608 04ce 8F040000 		.4byte	0x48f
 1609 04d2 05       		.uleb128 0x5
 1610 04d3 90000000 		.4byte	0x90
 1611 04d7 E2040000 		.4byte	0x4e2
 1612 04db 06       		.uleb128 0x6
 1613 04dc B9000000 		.4byte	0xb9
 1614 04e0 6D       		.byte	0x6d
 1615 04e1 00       		.byte	0
 1616 04e2 07       		.uleb128 0x7
 1617 04e3 E7040000 		.4byte	0x4e7
 1618 04e7 08       		.uleb128 0x8
 1619 04e8 D2040000 		.4byte	0x4d2
 1620 04ec 03       		.uleb128 0x3
 1621 04ed 890F0000 		.4byte	.LASF1098
 1622 04f1 07       		.byte	0x7
 1623 04f2 6F       		.byte	0x6f
 1624 04f3 0A010000 		.4byte	0x10a
 1625 04f7 0C       		.uleb128 0xc
 1626 04f8 4C3B0000 		.4byte	.LASF1189
 1627 04fc 01       		.byte	0x1
 1628 04fd 02       		.byte	0x2
 1629 04fe E4       		.byte	0xe4
 1630 04ff 76050000 		.4byte	0x576
 1631 0503 0D       		.uleb128 0xd
 1632 0504 A5000000 		.4byte	.LASF1099
 1633 0508 00       		.sleb128 0
 1634 0509 0D       		.uleb128 0xd
 1635 050a 153D0000 		.4byte	.LASF1100
 1636 050e 01       		.sleb128 1
 1637 050f 0D       		.uleb128 0xd
 1638 0510 72010000 		.4byte	.LASF1101
 1639 0514 02       		.sleb128 2
 1640 0515 0D       		.uleb128 0xd
 1641 0516 85530000 		.4byte	.LASF1102
 1642 051a 03       		.sleb128 3
 1643 051b 0D       		.uleb128 0xd
 1644 051c 2D330000 		.4byte	.LASF1103
 1645 0520 04       		.sleb128 4
 1646 0521 0D       		.uleb128 0xd
 1647 0522 55570000 		.4byte	.LASF1104
 1648 0526 05       		.sleb128 5
 1649 0527 0D       		.uleb128 0xd
 1650 0528 DA330000 		.4byte	.LASF1105
 1651 052c 06       		.sleb128 6
 1652 052d 0D       		.uleb128 0xd
 1653 052e E86E0000 		.4byte	.LASF1106
 1654 0532 07       		.sleb128 7
 1655 0533 0D       		.uleb128 0xd
 1656 0534 4C070000 		.4byte	.LASF1107
ARM GAS  /tmp/ccSBomBp.s 			page 53


 1657 0538 08       		.sleb128 8
 1658 0539 0D       		.uleb128 0xd
 1659 053a 6E0D0000 		.4byte	.LASF1108
 1660 053e 09       		.sleb128 9
 1661 053f 0D       		.uleb128 0xd
 1662 0540 820D0000 		.4byte	.LASF1109
 1663 0544 0A       		.sleb128 10
 1664 0545 0D       		.uleb128 0xd
 1665 0546 94240000 		.4byte	.LASF1110
 1666 054a 0B       		.sleb128 11
 1667 054b 0D       		.uleb128 0xd
 1668 054c 42570000 		.4byte	.LASF1111
 1669 0550 0C       		.sleb128 12
 1670 0551 0D       		.uleb128 0xd
 1671 0552 36550000 		.4byte	.LASF1112
 1672 0556 0D       		.sleb128 13
 1673 0557 0D       		.uleb128 0xd
 1674 0558 B1560000 		.4byte	.LASF1113
 1675 055c 0E       		.sleb128 14
 1676 055d 0D       		.uleb128 0xd
 1677 055e F30E0000 		.4byte	.LASF1114
 1678 0562 0F       		.sleb128 15
 1679 0563 0D       		.uleb128 0xd
 1680 0564 813B0000 		.4byte	.LASF1115
 1681 0568 10       		.sleb128 16
 1682 0569 0D       		.uleb128 0xd
 1683 056a E4780000 		.4byte	.LASF1116
 1684 056e 11       		.sleb128 17
 1685 056f 0D       		.uleb128 0xd
 1686 0570 A6240000 		.4byte	.LASF1117
 1687 0574 12       		.sleb128 18
 1688 0575 00       		.byte	0
 1689 0576 0E       		.uleb128 0xe
 1690 0577 4D060000 		.4byte	.LASF1118
 1691 057b 02       		.byte	0x2
 1692 057c 2001     		.2byte	0x120
 1693 057e F7040000 		.4byte	0x4f7
 1694 0582 0F       		.uleb128 0xf
 1695 0583 14       		.byte	0x14
 1696 0584 04       		.byte	0x4
 1697 0585 2D       		.byte	0x2d
 1698 0586 C7050000 		.4byte	0x5c7
 1699 058a 0A       		.uleb128 0xa
 1700 058b DB770000 		.4byte	.LASF1119
 1701 058f 04       		.byte	0x4
 1702 0590 2E       		.byte	0x2e
 1703 0591 C7050000 		.4byte	0x5c7
 1704 0595 00       		.byte	0
 1705 0596 0A       		.uleb128 0xa
 1706 0597 57450000 		.4byte	.LASF1120
 1707 059b 04       		.byte	0x4
 1708 059c 2F       		.byte	0x2f
 1709 059d 7E000000 		.4byte	0x7e
 1710 05a1 04       		.byte	0x4
 1711 05a2 0A       		.uleb128 0xa
 1712 05a3 A2610000 		.4byte	.LASF1121
 1713 05a7 04       		.byte	0x4
ARM GAS  /tmp/ccSBomBp.s 			page 54


 1714 05a8 30       		.byte	0x30
 1715 05a9 7E000000 		.4byte	0x7e
 1716 05ad 08       		.byte	0x8
 1717 05ae 0A       		.uleb128 0xa
 1718 05af 9A170000 		.4byte	.LASF1122
 1719 05b3 04       		.byte	0x4
 1720 05b4 31       		.byte	0x31
 1721 05b5 90000000 		.4byte	0x90
 1722 05b9 0C       		.byte	0xc
 1723 05ba 0A       		.uleb128 0xa
 1724 05bb 7F030000 		.4byte	.LASF1123
 1725 05bf 04       		.byte	0x4
 1726 05c0 32       		.byte	0x32
 1727 05c1 90000000 		.4byte	0x90
 1728 05c5 10       		.byte	0x10
 1729 05c6 00       		.byte	0
 1730 05c7 10       		.uleb128 0x10
 1731 05c8 04       		.byte	0x4
 1732 05c9 03       		.uleb128 0x3
 1733 05ca 46500000 		.4byte	.LASF1124
 1734 05ce 04       		.byte	0x4
 1735 05cf 33       		.byte	0x33
 1736 05d0 82050000 		.4byte	0x582
 1737 05d4 11       		.uleb128 0x11
 1738 05d5 04       		.byte	0x4
 1739 05d6 03       		.byte	0x3
 1740 05d7 33       		.byte	0x33
 1741 05d8 FE050000 		.4byte	0x5fe
 1742 05dc 12       		.uleb128 0x12
 1743 05dd 444C4C00 		.ascii	"DLL\000"
 1744 05e1 03       		.byte	0x3
 1745 05e2 34       		.byte	0x34
 1746 05e3 D5000000 		.4byte	0xd5
 1747 05e7 12       		.uleb128 0x12
 1748 05e8 54485200 		.ascii	"THR\000"
 1749 05ec 03       		.byte	0x3
 1750 05ed 35       		.byte	0x35
 1751 05ee D5000000 		.4byte	0xd5
 1752 05f2 12       		.uleb128 0x12
 1753 05f3 52425200 		.ascii	"RBR\000"
 1754 05f7 03       		.byte	0x3
 1755 05f8 36       		.byte	0x36
 1756 05f9 D0000000 		.4byte	0xd0
 1757 05fd 00       		.byte	0
 1758 05fe 11       		.uleb128 0x11
 1759 05ff 04       		.byte	0x4
 1760 0600 03       		.byte	0x3
 1761 0601 39       		.byte	0x39
 1762 0602 1D060000 		.4byte	0x61d
 1763 0606 12       		.uleb128 0x12
 1764 0607 49455200 		.ascii	"IER\000"
 1765 060b 03       		.byte	0x3
 1766 060c 3A       		.byte	0x3a
 1767 060d D5000000 		.4byte	0xd5
 1768 0611 12       		.uleb128 0x12
 1769 0612 444C4D00 		.ascii	"DLM\000"
 1770 0616 03       		.byte	0x3
ARM GAS  /tmp/ccSBomBp.s 			page 55


 1771 0617 3B       		.byte	0x3b
 1772 0618 D5000000 		.4byte	0xd5
 1773 061c 00       		.byte	0
 1774 061d 11       		.uleb128 0x11
 1775 061e 04       		.byte	0x4
 1776 061f 03       		.byte	0x3
 1777 0620 3E       		.byte	0x3e
 1778 0621 3C060000 		.4byte	0x63c
 1779 0625 12       		.uleb128 0x12
 1780 0626 46435200 		.ascii	"FCR\000"
 1781 062a 03       		.byte	0x3
 1782 062b 3F       		.byte	0x3f
 1783 062c D5000000 		.4byte	0xd5
 1784 0630 12       		.uleb128 0x12
 1785 0631 49495200 		.ascii	"IIR\000"
 1786 0635 03       		.byte	0x3
 1787 0636 40       		.byte	0x40
 1788 0637 D0000000 		.4byte	0xd0
 1789 063b 00       		.byte	0
 1790 063c 11       		.uleb128 0x11
 1791 063d 04       		.byte	0x4
 1792 063e 03       		.byte	0x3
 1793 063f 56       		.byte	0x56
 1794 0640 5B060000 		.4byte	0x65b
 1795 0644 13       		.uleb128 0x13
 1796 0645 B8540000 		.4byte	.LASF1125
 1797 0649 03       		.byte	0x3
 1798 064a 57       		.byte	0x57
 1799 064b D5000000 		.4byte	0xd5
 1800 064f 13       		.uleb128 0x13
 1801 0650 C3160000 		.4byte	.LASF1126
 1802 0654 03       		.byte	0x3
 1803 0655 58       		.byte	0x58
 1804 0656 D0000000 		.4byte	0xd0
 1805 065a 00       		.byte	0
 1806 065b 0F       		.uleb128 0xf
 1807 065c 60       		.byte	0x60
 1808 065d 03       		.byte	0x3
 1809 065e 31       		.byte	0x31
 1810 065f 54070000 		.4byte	0x754
 1811 0663 14       		.uleb128 0x14
 1812 0664 D4050000 		.4byte	0x5d4
 1813 0668 00       		.byte	0
 1814 0669 14       		.uleb128 0x14
 1815 066a FE050000 		.4byte	0x5fe
 1816 066e 04       		.byte	0x4
 1817 066f 14       		.uleb128 0x14
 1818 0670 1D060000 		.4byte	0x61d
 1819 0674 08       		.byte	0x8
 1820 0675 15       		.uleb128 0x15
 1821 0676 4C435200 		.ascii	"LCR\000"
 1822 067a 03       		.byte	0x3
 1823 067b 43       		.byte	0x43
 1824 067c D5000000 		.4byte	0xd5
 1825 0680 0C       		.byte	0xc
 1826 0681 15       		.uleb128 0x15
 1827 0682 4D435200 		.ascii	"MCR\000"
ARM GAS  /tmp/ccSBomBp.s 			page 56


 1828 0686 03       		.byte	0x3
 1829 0687 44       		.byte	0x44
 1830 0688 D5000000 		.4byte	0xd5
 1831 068c 10       		.byte	0x10
 1832 068d 15       		.uleb128 0x15
 1833 068e 4C535200 		.ascii	"LSR\000"
 1834 0692 03       		.byte	0x3
 1835 0693 45       		.byte	0x45
 1836 0694 D0000000 		.4byte	0xd0
 1837 0698 14       		.byte	0x14
 1838 0699 15       		.uleb128 0x15
 1839 069a 4D535200 		.ascii	"MSR\000"
 1840 069e 03       		.byte	0x3
 1841 069f 46       		.byte	0x46
 1842 06a0 D0000000 		.4byte	0xd0
 1843 06a4 18       		.byte	0x18
 1844 06a5 15       		.uleb128 0x15
 1845 06a6 53435200 		.ascii	"SCR\000"
 1846 06aa 03       		.byte	0x3
 1847 06ab 47       		.byte	0x47
 1848 06ac D5000000 		.4byte	0xd5
 1849 06b0 1C       		.byte	0x1c
 1850 06b1 15       		.uleb128 0x15
 1851 06b2 41435200 		.ascii	"ACR\000"
 1852 06b6 03       		.byte	0x3
 1853 06b7 48       		.byte	0x48
 1854 06b8 D5000000 		.4byte	0xd5
 1855 06bc 20       		.byte	0x20
 1856 06bd 15       		.uleb128 0x15
 1857 06be 49435200 		.ascii	"ICR\000"
 1858 06c2 03       		.byte	0x3
 1859 06c3 49       		.byte	0x49
 1860 06c4 D5000000 		.4byte	0xd5
 1861 06c8 24       		.byte	0x24
 1862 06c9 15       		.uleb128 0x15
 1863 06ca 46445200 		.ascii	"FDR\000"
 1864 06ce 03       		.byte	0x3
 1865 06cf 4A       		.byte	0x4a
 1866 06d0 D5000000 		.4byte	0xd5
 1867 06d4 28       		.byte	0x28
 1868 06d5 15       		.uleb128 0x15
 1869 06d6 4F535200 		.ascii	"OSR\000"
 1870 06da 03       		.byte	0x3
 1871 06db 4B       		.byte	0x4b
 1872 06dc D5000000 		.4byte	0xd5
 1873 06e0 2C       		.byte	0x2c
 1874 06e1 0A       		.uleb128 0xa
 1875 06e2 E00D0000 		.4byte	.LASF1127
 1876 06e6 03       		.byte	0x3
 1877 06e7 4C       		.byte	0x4c
 1878 06e8 D5000000 		.4byte	0xd5
 1879 06ec 30       		.byte	0x30
 1880 06ed 0A       		.uleb128 0xa
 1881 06ee CB1D0000 		.4byte	.LASF1128
 1882 06f2 03       		.byte	0x3
 1883 06f3 4D       		.byte	0x4d
 1884 06f4 FA000000 		.4byte	0xfa
ARM GAS  /tmp/ccSBomBp.s 			page 57


 1885 06f8 34       		.byte	0x34
 1886 06f9 0A       		.uleb128 0xa
 1887 06fa 95390000 		.4byte	.LASF1129
 1888 06fe 03       		.byte	0x3
 1889 06ff 4E       		.byte	0x4e
 1890 0700 D5000000 		.4byte	0xd5
 1891 0704 40       		.byte	0x40
 1892 0705 0A       		.uleb128 0xa
 1893 0706 D51D0000 		.4byte	.LASF1041
 1894 070a 03       		.byte	0x3
 1895 070b 4F       		.byte	0x4f
 1896 070c 54070000 		.4byte	0x754
 1897 0710 44       		.byte	0x44
 1898 0711 0A       		.uleb128 0xa
 1899 0712 035E0000 		.4byte	.LASF1130
 1900 0716 03       		.byte	0x3
 1901 0717 50       		.byte	0x50
 1902 0718 D5000000 		.4byte	0xd5
 1903 071c 48       		.byte	0x48
 1904 071d 0A       		.uleb128 0xa
 1905 071e 95550000 		.4byte	.LASF1131
 1906 0722 03       		.byte	0x3
 1907 0723 52       		.byte	0x52
 1908 0724 D5000000 		.4byte	0xd5
 1909 0728 4C       		.byte	0x4c
 1910 0729 0A       		.uleb128 0xa
 1911 072a EA0D0000 		.4byte	.LASF1132
 1912 072e 03       		.byte	0x3
 1913 072f 53       		.byte	0x53
 1914 0730 D5000000 		.4byte	0xd5
 1915 0734 50       		.byte	0x50
 1916 0735 0A       		.uleb128 0xa
 1917 0736 672F0000 		.4byte	.LASF1133
 1918 073a 03       		.byte	0x3
 1919 073b 54       		.byte	0x54
 1920 073c D5000000 		.4byte	0xd5
 1921 0740 54       		.byte	0x54
 1922 0741 14       		.uleb128 0x14
 1923 0742 3C060000 		.4byte	0x63c
 1924 0746 58       		.byte	0x58
 1925 0747 0A       		.uleb128 0xa
 1926 0748 E50D0000 		.4byte	.LASF1134
 1927 074c 03       		.byte	0x3
 1928 074d 5B       		.byte	0x5b
 1929 074e D5000000 		.4byte	0xd5
 1930 0752 5C       		.byte	0x5c
 1931 0753 00       		.byte	0
 1932 0754 07       		.uleb128 0x7
 1933 0755 59070000 		.4byte	0x759
 1934 0759 08       		.uleb128 0x8
 1935 075a A9000000 		.4byte	0xa9
 1936 075e 03       		.uleb128 0x3
 1937 075f 440C0000 		.4byte	.LASF1135
 1938 0763 03       		.byte	0x3
 1939 0764 5C       		.byte	0x5c
 1940 0765 5B060000 		.4byte	0x65b
 1941 0769 07       		.uleb128 0x7
ARM GAS  /tmp/ccSBomBp.s 			page 58


 1942 076a 90000000 		.4byte	0x90
 1943 076e 16       		.uleb128 0x16
 1944 076f 04       		.byte	0x4
 1945 0770 85000000 		.4byte	0x85
 1946 0774 17       		.uleb128 0x17
 1947 0775 B0180000 		.4byte	.LASF1136
 1948 0779 02       		.byte	0x2
 1949 077a 5301     		.2byte	0x153
 1950 077c 03       		.byte	0x3
 1951 077d 8E070000 		.4byte	0x78e
 1952 0781 18       		.uleb128 0x18
 1953 0782 64697600 		.ascii	"div\000"
 1954 0786 02       		.byte	0x2
 1955 0787 5301     		.2byte	0x153
 1956 0789 90000000 		.4byte	0x90
 1957 078d 00       		.byte	0
 1958 078e 17       		.uleb128 0x17
 1959 078f F4220000 		.4byte	.LASF1137
 1960 0793 03       		.byte	0x3
 1961 0794 9401     		.2byte	0x194
 1962 0796 03       		.byte	0x3
 1963 0797 B4070000 		.4byte	0x7b4
 1964 079b 19       		.uleb128 0x19
 1965 079c 49780000 		.4byte	.LASF1138
 1966 07a0 03       		.byte	0x3
 1967 07a1 9401     		.2byte	0x194
 1968 07a3 B4070000 		.4byte	0x7b4
 1969 07a7 18       		.uleb128 0x18
 1970 07a8 66637200 		.ascii	"fcr\000"
 1971 07ac 03       		.byte	0x3
 1972 07ad 9401     		.2byte	0x194
 1973 07af 90000000 		.4byte	0x90
 1974 07b3 00       		.byte	0
 1975 07b4 16       		.uleb128 0x16
 1976 07b5 04       		.byte	0x4
 1977 07b6 5E070000 		.4byte	0x75e
 1978 07ba 17       		.uleb128 0x17
 1979 07bb 186A0000 		.4byte	.LASF1139
 1980 07bf 03       		.byte	0x3
 1981 07c0 A301     		.2byte	0x1a3
 1982 07c2 03       		.byte	0x3
 1983 07c3 E0070000 		.4byte	0x7e0
 1984 07c7 19       		.uleb128 0x19
 1985 07c8 49780000 		.4byte	.LASF1138
 1986 07cc 03       		.byte	0x3
 1987 07cd A301     		.2byte	0x1a3
 1988 07cf B4070000 		.4byte	0x7b4
 1989 07d3 19       		.uleb128 0x19
 1990 07d4 100A0000 		.4byte	.LASF1140
 1991 07d8 03       		.byte	0x3
 1992 07d9 A301     		.2byte	0x1a3
 1993 07db 90000000 		.4byte	0x90
 1994 07df 00       		.byte	0
 1995 07e0 17       		.uleb128 0x17
 1996 07e1 E6760000 		.4byte	.LASF1141
 1997 07e5 03       		.byte	0x3
 1998 07e6 4301     		.2byte	0x143
ARM GAS  /tmp/ccSBomBp.s 			page 59


 1999 07e8 03       		.byte	0x3
 2000 07e9 06080000 		.4byte	0x806
 2001 07ed 19       		.uleb128 0x19
 2002 07ee 49780000 		.4byte	.LASF1138
 2003 07f2 03       		.byte	0x3
 2004 07f3 4301     		.2byte	0x143
 2005 07f5 B4070000 		.4byte	0x7b4
 2006 07f9 19       		.uleb128 0x19
 2007 07fa DB770000 		.4byte	.LASF1119
 2008 07fe 03       		.byte	0x3
 2009 07ff 4301     		.2byte	0x143
 2010 0801 85000000 		.4byte	0x85
 2011 0805 00       		.byte	0
 2012 0806 1A       		.uleb128 0x1a
 2013 0807 3A420000 		.4byte	.LASF1142
 2014 080b 03       		.byte	0x3
 2015 080c F901     		.2byte	0x1f9
 2016 080e 90000000 		.4byte	0x90
 2017 0812 03       		.byte	0x3
 2018 0813 24080000 		.4byte	0x824
 2019 0817 19       		.uleb128 0x19
 2020 0818 49780000 		.4byte	.LASF1138
 2021 081c 03       		.byte	0x3
 2022 081d F901     		.2byte	0x1f9
 2023 081f B4070000 		.4byte	0x7b4
 2024 0823 00       		.byte	0
 2025 0824 1A       		.uleb128 0x1a
 2026 0825 8E040000 		.4byte	.LASF1143
 2027 0829 03       		.byte	0x3
 2028 082a 5001     		.2byte	0x150
 2029 082c 85000000 		.4byte	0x85
 2030 0830 03       		.byte	0x3
 2031 0831 42080000 		.4byte	0x842
 2032 0835 19       		.uleb128 0x19
 2033 0836 49780000 		.4byte	.LASF1138
 2034 083a 03       		.byte	0x3
 2035 083b 5001     		.2byte	0x150
 2036 083d B4070000 		.4byte	0x7b4
 2037 0841 00       		.byte	0
 2038 0842 17       		.uleb128 0x17
 2039 0843 4E6C0000 		.4byte	.LASF1144
 2040 0847 03       		.byte	0x3
 2041 0848 AD01     		.2byte	0x1ad
 2042 084a 03       		.byte	0x3
 2043 084b 5C080000 		.4byte	0x85c
 2044 084f 19       		.uleb128 0x19
 2045 0850 49780000 		.4byte	.LASF1138
 2046 0854 03       		.byte	0x3
 2047 0855 AD01     		.2byte	0x1ad
 2048 0857 B4070000 		.4byte	0x7b4
 2049 085b 00       		.byte	0
 2050 085c 17       		.uleb128 0x17
 2051 085d B71A0000 		.4byte	.LASF1145
 2052 0861 03       		.byte	0x3
 2053 0862 C601     		.2byte	0x1c6
 2054 0864 03       		.byte	0x3
 2055 0865 8E080000 		.4byte	0x88e
ARM GAS  /tmp/ccSBomBp.s 			page 60


 2056 0869 19       		.uleb128 0x19
 2057 086a 49780000 		.4byte	.LASF1138
 2058 086e 03       		.byte	0x3
 2059 086f C601     		.2byte	0x1c6
 2060 0871 B4070000 		.4byte	0x7b4
 2061 0875 18       		.uleb128 0x18
 2062 0876 646C6C00 		.ascii	"dll\000"
 2063 087a 03       		.byte	0x3
 2064 087b C601     		.2byte	0x1c6
 2065 087d 85000000 		.4byte	0x85
 2066 0881 18       		.uleb128 0x18
 2067 0882 646C6D00 		.ascii	"dlm\000"
 2068 0886 03       		.byte	0x3
 2069 0887 C601     		.2byte	0x1c6
 2070 0889 85000000 		.4byte	0x85
 2071 088d 00       		.byte	0
 2072 088e 17       		.uleb128 0x17
 2073 088f A6440000 		.4byte	.LASF1146
 2074 0893 03       		.byte	0x3
 2075 0894 B701     		.2byte	0x1b7
 2076 0896 03       		.byte	0x3
 2077 0897 A8080000 		.4byte	0x8a8
 2078 089b 19       		.uleb128 0x19
 2079 089c 49780000 		.4byte	.LASF1138
 2080 08a0 03       		.byte	0x3
 2081 08a1 B701     		.2byte	0x1b7
 2082 08a3 B4070000 		.4byte	0x7b4
 2083 08a7 00       		.byte	0
 2084 08a8 17       		.uleb128 0x17
 2085 08a9 0B5E0000 		.4byte	.LASF1147
 2086 08ad 03       		.byte	0x3
 2087 08ae 6E01     		.2byte	0x16e
 2088 08b0 03       		.byte	0x3
 2089 08b1 CE080000 		.4byte	0x8ce
 2090 08b5 19       		.uleb128 0x19
 2091 08b6 49780000 		.4byte	.LASF1138
 2092 08ba 03       		.byte	0x3
 2093 08bb 6E01     		.2byte	0x16e
 2094 08bd B4070000 		.4byte	0x7b4
 2095 08c1 19       		.uleb128 0x19
 2096 08c2 0C270000 		.4byte	.LASF1148
 2097 08c6 03       		.byte	0x3
 2098 08c7 6E01     		.2byte	0x16e
 2099 08c9 90000000 		.4byte	0x90
 2100 08cd 00       		.byte	0
 2101 08ce 17       		.uleb128 0x17
 2102 08cf 45050000 		.4byte	.LASF1149
 2103 08d3 03       		.byte	0x3
 2104 08d4 5F01     		.2byte	0x15f
 2105 08d6 03       		.byte	0x3
 2106 08d7 F4080000 		.4byte	0x8f4
 2107 08db 19       		.uleb128 0x19
 2108 08dc 49780000 		.4byte	.LASF1138
 2109 08e0 03       		.byte	0x3
 2110 08e1 5F01     		.2byte	0x15f
 2111 08e3 B4070000 		.4byte	0x7b4
 2112 08e7 19       		.uleb128 0x19
ARM GAS  /tmp/ccSBomBp.s 			page 61


 2113 08e8 0C270000 		.4byte	.LASF1148
 2114 08ec 03       		.byte	0x3
 2115 08ed 5F01     		.2byte	0x15f
 2116 08ef 90000000 		.4byte	0x90
 2117 08f3 00       		.byte	0
 2118 08f4 1B       		.uleb128 0x1b
 2119 08f5 214E0000 		.4byte	.LASF1150
 2120 08f9 04       		.byte	0x4
 2121 08fa 85       		.byte	0x85
 2122 08fb 7E000000 		.4byte	0x7e
 2123 08ff 03       		.byte	0x3
 2124 0900 10090000 		.4byte	0x910
 2125 0904 1C       		.uleb128 0x1c
 2126 0905 FC2C0000 		.4byte	.LASF1151
 2127 0909 04       		.byte	0x4
 2128 090a 85       		.byte	0x85
 2129 090b 10090000 		.4byte	0x910
 2130 090f 00       		.byte	0
 2131 0910 16       		.uleb128 0x16
 2132 0911 04       		.byte	0x4
 2133 0912 C9050000 		.4byte	0x5c9
 2134 0916 17       		.uleb128 0x17
 2135 0917 EC560000 		.4byte	.LASF1152
 2136 091b 02       		.byte	0x2
 2137 091c 2701     		.2byte	0x127
 2138 091e 03       		.byte	0x3
 2139 091f 30090000 		.4byte	0x930
 2140 0923 18       		.uleb128 0x18
 2141 0924 636C6B00 		.ascii	"clk\000"
 2142 0928 02       		.byte	0x2
 2143 0929 2701     		.2byte	0x127
 2144 092b 76050000 		.4byte	0x576
 2145 092f 00       		.byte	0
 2146 0930 17       		.uleb128 0x17
 2147 0931 39340000 		.4byte	.LASF1153
 2148 0935 02       		.byte	0x2
 2149 0936 3101     		.2byte	0x131
 2150 0938 03       		.byte	0x3
 2151 0939 4A090000 		.4byte	0x94a
 2152 093d 18       		.uleb128 0x18
 2153 093e 636C6B00 		.ascii	"clk\000"
 2154 0942 02       		.byte	0x2
 2155 0943 3101     		.2byte	0x131
 2156 0945 76050000 		.4byte	0x576
 2157 0949 00       		.byte	0
 2158 094a 1D       		.uleb128 0x1d
 2159 094b 3A430000 		.4byte	.LASF1154
 2160 094f 01       		.byte	0x1
 2161 0950 33       		.byte	0x33
 2162 0951 00000000 		.4byte	.LFB198
 2163 0955 28000000 		.4byte	.LFE198-.LFB198
 2164 0959 01       		.uleb128 0x1
 2165 095a 9C       		.byte	0x9c
 2166 095b DF090000 		.4byte	0x9df
 2167 095f 1E       		.uleb128 0x1e
 2168 0960 49780000 		.4byte	.LASF1138
 2169 0964 01       		.byte	0x1
ARM GAS  /tmp/ccSBomBp.s 			page 62


 2170 0965 33       		.byte	0x33
 2171 0966 B4070000 		.4byte	0x7b4
 2172 096a 01       		.uleb128 0x1
 2173 096b 50       		.byte	0x50
 2174 096c 1F       		.uleb128 0x1f
 2175 096d 16090000 		.4byte	0x916
 2176 0971 02000000 		.4byte	.LBB53
 2177 0975 00000000 		.4byte	.Ldebug_ranges0+0
 2178 0979 01       		.byte	0x1
 2179 097a 35       		.byte	0x35
 2180 097b 86090000 		.4byte	0x986
 2181 097f 20       		.uleb128 0x20
 2182 0980 23090000 		.4byte	0x923
 2183 0984 0C       		.byte	0xc
 2184 0985 00       		.byte	0
 2185 0986 1F       		.uleb128 0x1f
 2186 0987 74070000 		.4byte	0x774
 2187 098b 0C000000 		.4byte	.LBB56
 2188 098f 18000000 		.4byte	.Ldebug_ranges0+0x18
 2189 0993 01       		.byte	0x1
 2190 0994 36       		.byte	0x36
 2191 0995 A0090000 		.4byte	0x9a0
 2192 0999 20       		.uleb128 0x20
 2193 099a 81070000 		.4byte	0x781
 2194 099e 01       		.byte	0x1
 2195 099f 00       		.byte	0
 2196 09a0 21       		.uleb128 0x21
 2197 09a1 8E070000 		.4byte	0x78e
 2198 09a5 16000000 		.4byte	.LBB61
 2199 09a9 04000000 		.4byte	.LBE61-.LBB61
 2200 09ad 01       		.byte	0x1
 2201 09ae 39       		.byte	0x39
 2202 09af C1090000 		.4byte	0x9c1
 2203 09b3 20       		.uleb128 0x20
 2204 09b4 A7070000 		.4byte	0x7a7
 2205 09b8 07       		.byte	0x7
 2206 09b9 22       		.uleb128 0x22
 2207 09ba 9B070000 		.4byte	0x79b
 2208 09be 01       		.uleb128 0x1
 2209 09bf 50       		.byte	0x50
 2210 09c0 00       		.byte	0
 2211 09c1 23       		.uleb128 0x23
 2212 09c2 BA070000 		.4byte	0x7ba
 2213 09c6 1A000000 		.4byte	.LBB63
 2214 09ca 04000000 		.4byte	.LBE63-.LBB63
 2215 09ce 01       		.byte	0x1
 2216 09cf 3C       		.byte	0x3c
 2217 09d0 20       		.uleb128 0x20
 2218 09d1 D3070000 		.4byte	0x7d3
 2219 09d5 03       		.byte	0x3
 2220 09d6 22       		.uleb128 0x22
 2221 09d7 C7070000 		.4byte	0x7c7
 2222 09db 01       		.uleb128 0x1
 2223 09dc 50       		.byte	0x50
 2224 09dd 00       		.byte	0
 2225 09de 00       		.byte	0
 2226 09df 1D       		.uleb128 0x1d
ARM GAS  /tmp/ccSBomBp.s 			page 63


 2227 09e0 1C330000 		.4byte	.LASF1155
 2228 09e4 01       		.byte	0x1
 2229 09e5 43       		.byte	0x43
 2230 09e6 00000000 		.4byte	.LFB199
 2231 09ea 14000000 		.4byte	.LFE199-.LFB199
 2232 09ee 01       		.uleb128 0x1
 2233 09ef 9C       		.byte	0x9c
 2234 09f0 180A0000 		.4byte	0xa18
 2235 09f4 1E       		.uleb128 0x1e
 2236 09f5 49780000 		.4byte	.LASF1138
 2237 09f9 01       		.byte	0x1
 2238 09fa 43       		.byte	0x43
 2239 09fb B4070000 		.4byte	0x7b4
 2240 09ff 01       		.uleb128 0x1
 2241 0a00 50       		.byte	0x50
 2242 0a01 24       		.uleb128 0x24
 2243 0a02 30090000 		.4byte	0x930
 2244 0a06 00000000 		.4byte	.LBB67
 2245 0a0a 30000000 		.4byte	.Ldebug_ranges0+0x30
 2246 0a0e 01       		.byte	0x1
 2247 0a0f 45       		.byte	0x45
 2248 0a10 20       		.uleb128 0x20
 2249 0a11 3D090000 		.4byte	0x93d
 2250 0a15 0C       		.byte	0xc
 2251 0a16 00       		.byte	0
 2252 0a17 00       		.byte	0
 2253 0a18 25       		.uleb128 0x25
 2254 0a19 3F710000 		.4byte	.LASF1158
 2255 0a1d 01       		.byte	0x1
 2256 0a1e 49       		.byte	0x49
 2257 0a1f 7E000000 		.4byte	0x7e
 2258 0a23 00000000 		.4byte	.LFB200
 2259 0a27 1A000000 		.4byte	.LFE200-.LFB200
 2260 0a2b 01       		.uleb128 0x1
 2261 0a2c 9C       		.byte	0x9c
 2262 0a2d B70A0000 		.4byte	0xab7
 2263 0a31 26       		.uleb128 0x26
 2264 0a32 49780000 		.4byte	.LASF1138
 2265 0a36 01       		.byte	0x1
 2266 0a37 49       		.byte	0x49
 2267 0a38 B4070000 		.4byte	0x7b4
 2268 0a3c 00000000 		.4byte	.LLST0
 2269 0a40 1E       		.uleb128 0x1e
 2270 0a41 DB770000 		.4byte	.LASF1119
 2271 0a45 01       		.byte	0x1
 2272 0a46 49       		.byte	0x49
 2273 0a47 B70A0000 		.4byte	0xab7
 2274 0a4b 01       		.uleb128 0x1
 2275 0a4c 51       		.byte	0x51
 2276 0a4d 1E       		.uleb128 0x1e
 2277 0a4e D0590000 		.4byte	.LASF1156
 2278 0a52 01       		.byte	0x1
 2279 0a53 49       		.byte	0x49
 2280 0a54 7E000000 		.4byte	0x7e
 2281 0a58 01       		.uleb128 0x1
 2282 0a59 52       		.byte	0x52
 2283 0a5a 27       		.uleb128 0x27
ARM GAS  /tmp/ccSBomBp.s 			page 64


 2284 0a5b 493F0000 		.4byte	.LASF1157
 2285 0a5f 01       		.byte	0x1
 2286 0a60 4B       		.byte	0x4b
 2287 0a61 7E000000 		.4byte	0x7e
 2288 0a65 21000000 		.4byte	.LLST1
 2289 0a69 28       		.uleb128 0x28
 2290 0a6a 703800   		.ascii	"p8\000"
 2291 0a6d 01       		.byte	0x1
 2292 0a6e 4C       		.byte	0x4c
 2293 0a6f 6E070000 		.4byte	0x76e
 2294 0a73 58000000 		.4byte	.LLST2
 2295 0a77 21       		.uleb128 0x21
 2296 0a78 06080000 		.4byte	0x806
 2297 0a7c 08000000 		.4byte	.LBB71
 2298 0a80 02000000 		.4byte	.LBE71-.LBB71
 2299 0a84 01       		.byte	0x1
 2300 0a85 50       		.byte	0x50
 2301 0a86 940A0000 		.4byte	0xa94
 2302 0a8a 29       		.uleb128 0x29
 2303 0a8b 17080000 		.4byte	0x817
 2304 0a8f 9D000000 		.4byte	.LLST3
 2305 0a93 00       		.byte	0
 2306 0a94 24       		.uleb128 0x24
 2307 0a95 E0070000 		.4byte	0x7e0
 2308 0a99 0E000000 		.4byte	.LBB73
 2309 0a9d 48000000 		.4byte	.Ldebug_ranges0+0x48
 2310 0aa1 01       		.byte	0x1
 2311 0aa2 51       		.byte	0x51
 2312 0aa3 29       		.uleb128 0x29
 2313 0aa4 F9070000 		.4byte	0x7f9
 2314 0aa8 B0000000 		.4byte	.LLST4
 2315 0aac 29       		.uleb128 0x29
 2316 0aad ED070000 		.4byte	0x7ed
 2317 0ab1 E3000000 		.4byte	.LLST5
 2318 0ab5 00       		.byte	0
 2319 0ab6 00       		.byte	0
 2320 0ab7 16       		.uleb128 0x16
 2321 0ab8 04       		.byte	0x4
 2322 0ab9 BD0A0000 		.4byte	0xabd
 2323 0abd 2A       		.uleb128 0x2a
 2324 0abe 25       		.uleb128 0x25
 2325 0abf 6F510000 		.4byte	.LASF1159
 2326 0ac3 01       		.byte	0x1
 2327 0ac4 5A       		.byte	0x5a
 2328 0ac5 7E000000 		.4byte	0x7e
 2329 0ac9 00000000 		.4byte	.LFB201
 2330 0acd 24000000 		.4byte	.LFE201-.LFB201
 2331 0ad1 01       		.uleb128 0x1
 2332 0ad2 9C       		.byte	0x9c
 2333 0ad3 4D0B0000 		.4byte	0xb4d
 2334 0ad7 26       		.uleb128 0x26
 2335 0ad8 49780000 		.4byte	.LASF1138
 2336 0adc 01       		.byte	0x1
 2337 0add 5A       		.byte	0x5a
 2338 0ade B4070000 		.4byte	0x7b4
 2339 0ae2 F6000000 		.4byte	.LLST6
 2340 0ae6 26       		.uleb128 0x26
ARM GAS  /tmp/ccSBomBp.s 			page 65


 2341 0ae7 DB770000 		.4byte	.LASF1119
 2342 0aeb 01       		.byte	0x1
 2343 0aec 5A       		.byte	0x5a
 2344 0aed B70A0000 		.4byte	0xab7
 2345 0af1 22010000 		.4byte	.LLST7
 2346 0af5 26       		.uleb128 0x26
 2347 0af6 D0590000 		.4byte	.LASF1156
 2348 0afa 01       		.byte	0x1
 2349 0afb 5A       		.byte	0x5a
 2350 0afc 7E000000 		.4byte	0x7e
 2351 0b00 43010000 		.4byte	.LLST8
 2352 0b04 27       		.uleb128 0x27
 2353 0b05 00020000 		.4byte	.LASF1160
 2354 0b09 01       		.byte	0x1
 2355 0b0a 5C       		.byte	0x5c
 2356 0b0b 7E000000 		.4byte	0x7e
 2357 0b0f 61010000 		.4byte	.LLST9
 2358 0b13 27       		.uleb128 0x27
 2359 0b14 493F0000 		.4byte	.LASF1157
 2360 0b18 01       		.byte	0x1
 2361 0b19 5C       		.byte	0x5c
 2362 0b1a 7E000000 		.4byte	0x7e
 2363 0b1e 74010000 		.4byte	.LLST10
 2364 0b22 28       		.uleb128 0x28
 2365 0b23 703800   		.ascii	"p8\000"
 2366 0b26 01       		.byte	0x1
 2367 0b27 5D       		.byte	0x5d
 2368 0b28 6E070000 		.4byte	0x76e
 2369 0b2c 9E010000 		.4byte	.LLST11
 2370 0b30 2B       		.uleb128 0x2b
 2371 0b31 18000000 		.4byte	.LVL16
 2372 0b35 180A0000 		.4byte	0xa18
 2373 0b39 2C       		.uleb128 0x2c
 2374 0b3a 01       		.uleb128 0x1
 2375 0b3b 52       		.byte	0x52
 2376 0b3c 02       		.uleb128 0x2
 2377 0b3d 74       		.byte	0x74
 2378 0b3e 00       		.sleb128 0
 2379 0b3f 2C       		.uleb128 0x2c
 2380 0b40 01       		.uleb128 0x1
 2381 0b41 51       		.byte	0x51
 2382 0b42 02       		.uleb128 0x2
 2383 0b43 76       		.byte	0x76
 2384 0b44 00       		.sleb128 0
 2385 0b45 2C       		.uleb128 0x2c
 2386 0b46 01       		.uleb128 0x1
 2387 0b47 50       		.byte	0x50
 2388 0b48 02       		.uleb128 0x2
 2389 0b49 77       		.byte	0x77
 2390 0b4a 00       		.sleb128 0
 2391 0b4b 00       		.byte	0
 2392 0b4c 00       		.byte	0
 2393 0b4d 25       		.uleb128 0x25
 2394 0b4e 09790000 		.4byte	.LASF1161
 2395 0b52 01       		.byte	0x1
 2396 0b53 6A       		.byte	0x6a
 2397 0b54 7E000000 		.4byte	0x7e
ARM GAS  /tmp/ccSBomBp.s 			page 66


 2398 0b58 00000000 		.4byte	.LFB202
 2399 0b5c 1A000000 		.4byte	.LFE202-.LFB202
 2400 0b60 01       		.uleb128 0x1
 2401 0b61 9C       		.byte	0x9c
 2402 0b62 E30B0000 		.4byte	0xbe3
 2403 0b66 26       		.uleb128 0x26
 2404 0b67 49780000 		.4byte	.LASF1138
 2405 0b6b 01       		.byte	0x1
 2406 0b6c 6A       		.byte	0x6a
 2407 0b6d B4070000 		.4byte	0x7b4
 2408 0b71 BC010000 		.4byte	.LLST12
 2409 0b75 1E       		.uleb128 0x1e
 2410 0b76 DB770000 		.4byte	.LASF1119
 2411 0b7a 01       		.byte	0x1
 2412 0b7b 6A       		.byte	0x6a
 2413 0b7c C7050000 		.4byte	0x5c7
 2414 0b80 01       		.uleb128 0x1
 2415 0b81 51       		.byte	0x51
 2416 0b82 1E       		.uleb128 0x1e
 2417 0b83 D0590000 		.4byte	.LASF1156
 2418 0b87 01       		.byte	0x1
 2419 0b88 6A       		.byte	0x6a
 2420 0b89 7E000000 		.4byte	0x7e
 2421 0b8d 01       		.uleb128 0x1
 2422 0b8e 52       		.byte	0x52
 2423 0b8f 27       		.uleb128 0x27
 2424 0b90 EF070000 		.4byte	.LASF1162
 2425 0b94 01       		.byte	0x1
 2426 0b95 6C       		.byte	0x6c
 2427 0b96 7E000000 		.4byte	0x7e
 2428 0b9a DD010000 		.4byte	.LLST13
 2429 0b9e 28       		.uleb128 0x28
 2430 0b9f 703800   		.ascii	"p8\000"
 2431 0ba2 01       		.byte	0x1
 2432 0ba3 6D       		.byte	0x6d
 2433 0ba4 6E070000 		.4byte	0x76e
 2434 0ba8 FC010000 		.4byte	.LLST14
 2435 0bac 21       		.uleb128 0x21
 2436 0bad 06080000 		.4byte	0x806
 2437 0bb1 08000000 		.4byte	.LBB77
 2438 0bb5 02000000 		.4byte	.LBE77-.LBB77
 2439 0bb9 01       		.byte	0x1
 2440 0bba 71       		.byte	0x71
 2441 0bbb C90B0000 		.4byte	0xbc9
 2442 0bbf 29       		.uleb128 0x29
 2443 0bc0 17080000 		.4byte	0x817
 2444 0bc4 41020000 		.4byte	.LLST15
 2445 0bc8 00       		.byte	0
 2446 0bc9 23       		.uleb128 0x23
 2447 0bca 24080000 		.4byte	0x824
 2448 0bce 0E000000 		.4byte	.LBB79
 2449 0bd2 02000000 		.4byte	.LBE79-.LBB79
 2450 0bd6 01       		.byte	0x1
 2451 0bd7 72       		.byte	0x72
 2452 0bd8 29       		.uleb128 0x29
 2453 0bd9 35080000 		.4byte	0x835
 2454 0bdd 54020000 		.4byte	.LLST16
ARM GAS  /tmp/ccSBomBp.s 			page 67


 2455 0be1 00       		.byte	0
 2456 0be2 00       		.byte	0
 2457 0be3 25       		.uleb128 0x25
 2458 0be4 936C0000 		.4byte	.LASF1163
 2459 0be8 01       		.byte	0x1
 2460 0be9 7B       		.byte	0x7b
 2461 0bea 7E000000 		.4byte	0x7e
 2462 0bee 00000000 		.4byte	.LFB203
 2463 0bf2 24000000 		.4byte	.LFE203-.LFB203
 2464 0bf6 01       		.uleb128 0x1
 2465 0bf7 9C       		.byte	0x9c
 2466 0bf8 720C0000 		.4byte	0xc72
 2467 0bfc 26       		.uleb128 0x26
 2468 0bfd 49780000 		.4byte	.LASF1138
 2469 0c01 01       		.byte	0x1
 2470 0c02 7B       		.byte	0x7b
 2471 0c03 B4070000 		.4byte	0x7b4
 2472 0c07 67020000 		.4byte	.LLST17
 2473 0c0b 26       		.uleb128 0x26
 2474 0c0c DB770000 		.4byte	.LASF1119
 2475 0c10 01       		.byte	0x1
 2476 0c11 7B       		.byte	0x7b
 2477 0c12 C7050000 		.4byte	0x5c7
 2478 0c16 93020000 		.4byte	.LLST18
 2479 0c1a 26       		.uleb128 0x26
 2480 0c1b D0590000 		.4byte	.LASF1156
 2481 0c1f 01       		.byte	0x1
 2482 0c20 7B       		.byte	0x7b
 2483 0c21 7E000000 		.4byte	0x7e
 2484 0c25 B4020000 		.4byte	.LLST19
 2485 0c29 27       		.uleb128 0x27
 2486 0c2a 00020000 		.4byte	.LASF1160
 2487 0c2e 01       		.byte	0x1
 2488 0c2f 7D       		.byte	0x7d
 2489 0c30 7E000000 		.4byte	0x7e
 2490 0c34 D2020000 		.4byte	.LLST20
 2491 0c38 27       		.uleb128 0x27
 2492 0c39 EF070000 		.4byte	.LASF1162
 2493 0c3d 01       		.byte	0x1
 2494 0c3e 7D       		.byte	0x7d
 2495 0c3f 7E000000 		.4byte	0x7e
 2496 0c43 E5020000 		.4byte	.LLST21
 2497 0c47 28       		.uleb128 0x28
 2498 0c48 703800   		.ascii	"p8\000"
 2499 0c4b 01       		.byte	0x1
 2500 0c4c 7E       		.byte	0x7e
 2501 0c4d 6E070000 		.4byte	0x76e
 2502 0c51 0F030000 		.4byte	.LLST22
 2503 0c55 2B       		.uleb128 0x2b
 2504 0c56 18000000 		.4byte	.LVL36
 2505 0c5a 4D0B0000 		.4byte	0xb4d
 2506 0c5e 2C       		.uleb128 0x2c
 2507 0c5f 01       		.uleb128 0x1
 2508 0c60 52       		.byte	0x52
 2509 0c61 02       		.uleb128 0x2
 2510 0c62 75       		.byte	0x75
 2511 0c63 00       		.sleb128 0
ARM GAS  /tmp/ccSBomBp.s 			page 68


 2512 0c64 2C       		.uleb128 0x2c
 2513 0c65 01       		.uleb128 0x1
 2514 0c66 51       		.byte	0x51
 2515 0c67 02       		.uleb128 0x2
 2516 0c68 76       		.byte	0x76
 2517 0c69 00       		.sleb128 0
 2518 0c6a 2C       		.uleb128 0x2c
 2519 0c6b 01       		.uleb128 0x1
 2520 0c6c 50       		.byte	0x50
 2521 0c6d 02       		.uleb128 0x2
 2522 0c6e 77       		.byte	0x77
 2523 0c6f 00       		.sleb128 0
 2524 0c70 00       		.byte	0
 2525 0c71 00       		.byte	0
 2526 0c72 2D       		.uleb128 0x2d
 2527 0c73 B8170000 		.4byte	.LASF1164
 2528 0c77 01       		.byte	0x1
 2529 0c78 8B       		.byte	0x8b
 2530 0c79 90000000 		.4byte	0x90
 2531 0c7d 00000000 		.4byte	.LFB204
 2532 0c81 38000000 		.4byte	.LFE204-.LFB204
 2533 0c85 01       		.uleb128 0x1
 2534 0c86 9C       		.byte	0x9c
 2535 0c87 580D0000 		.4byte	0xd58
 2536 0c8b 26       		.uleb128 0x26
 2537 0c8c 49780000 		.4byte	.LASF1138
 2538 0c90 01       		.byte	0x1
 2539 0c91 8B       		.byte	0x8b
 2540 0c92 B4070000 		.4byte	0x7b4
 2541 0c96 2D030000 		.4byte	.LLST23
 2542 0c9a 26       		.uleb128 0x26
 2543 0c9b 5A6A0000 		.4byte	.LASF1165
 2544 0c9f 01       		.byte	0x1
 2545 0ca0 8B       		.byte	0x8b
 2546 0ca1 90000000 		.4byte	0x90
 2547 0ca5 59030000 		.4byte	.LLST24
 2548 0ca9 28       		.uleb128 0x28
 2549 0caa 64697600 		.ascii	"div\000"
 2550 0cae 01       		.byte	0x1
 2551 0caf 8D       		.byte	0x8d
 2552 0cb0 90000000 		.4byte	0x90
 2553 0cb4 85030000 		.4byte	.LLST25
 2554 0cb8 27       		.uleb128 0x27
 2555 0cb9 4B530000 		.4byte	.LASF1166
 2556 0cbd 01       		.byte	0x1
 2557 0cbe 8D       		.byte	0x8d
 2558 0cbf 90000000 		.4byte	0x90
 2559 0cc3 A3030000 		.4byte	.LLST26
 2560 0cc7 27       		.uleb128 0x27
 2561 0cc8 80530000 		.4byte	.LASF1167
 2562 0ccc 01       		.byte	0x1
 2563 0ccd 8D       		.byte	0x8d
 2564 0cce 90000000 		.4byte	0x90
 2565 0cd2 D4030000 		.4byte	.LLST27
 2566 0cd6 27       		.uleb128 0x27
 2567 0cd7 3D690000 		.4byte	.LASF1168
 2568 0cdb 01       		.byte	0x1
ARM GAS  /tmp/ccSBomBp.s 			page 69


 2569 0cdc 8D       		.byte	0x8d
 2570 0cdd 90000000 		.4byte	0x90
 2571 0ce1 04040000 		.4byte	.LLST28
 2572 0ce5 1F       		.uleb128 0x1f
 2573 0ce6 42080000 		.4byte	0x842
 2574 0cea 12000000 		.4byte	.LBB81
 2575 0cee 60000000 		.4byte	.Ldebug_ranges0+0x60
 2576 0cf2 01       		.byte	0x1
 2577 0cf3 97       		.byte	0x97
 2578 0cf4 020D0000 		.4byte	0xd02
 2579 0cf8 29       		.uleb128 0x29
 2580 0cf9 4F080000 		.4byte	0x84f
 2581 0cfd 22040000 		.4byte	.LLST29
 2582 0d01 00       		.byte	0
 2583 0d02 1F       		.uleb128 0x1f
 2584 0d03 5C080000 		.4byte	0x85c
 2585 0d07 18000000 		.4byte	.LBB86
 2586 0d0b 80000000 		.4byte	.Ldebug_ranges0+0x80
 2587 0d0f 01       		.byte	0x1
 2588 0d10 98       		.byte	0x98
 2589 0d11 310D0000 		.4byte	0xd31
 2590 0d15 29       		.uleb128 0x29
 2591 0d16 81080000 		.4byte	0x881
 2592 0d1a 43040000 		.4byte	.LLST30
 2593 0d1e 29       		.uleb128 0x29
 2594 0d1f 75080000 		.4byte	0x875
 2595 0d23 69040000 		.4byte	.LLST31
 2596 0d27 29       		.uleb128 0x29
 2597 0d28 69080000 		.4byte	0x869
 2598 0d2c 99040000 		.4byte	.LLST32
 2599 0d30 00       		.byte	0
 2600 0d31 1F       		.uleb128 0x1f
 2601 0d32 8E080000 		.4byte	0x88e
 2602 0d36 2A000000 		.4byte	.LBB93
 2603 0d3a A0000000 		.4byte	.Ldebug_ranges0+0xa0
 2604 0d3e 01       		.byte	0x1
 2605 0d3f 99       		.byte	0x99
 2606 0d40 4E0D0000 		.4byte	0xd4e
 2607 0d44 29       		.uleb128 0x29
 2608 0d45 9B080000 		.4byte	0x89b
 2609 0d49 BA040000 		.4byte	.LLST33
 2610 0d4d 00       		.byte	0
 2611 0d4e 2E       		.uleb128 0x2e
 2612 0d4f 0A000000 		.4byte	.LVL46
 2613 0d53 E0110000 		.4byte	0x11e0
 2614 0d57 00       		.byte	0
 2615 0d58 1D       		.uleb128 0x1d
 2616 0d59 194F0000 		.4byte	.LASF1169
 2617 0d5d 01       		.byte	0x1
 2618 0d5e A1       		.byte	0xa1
 2619 0d5f 00000000 		.4byte	.LFB205
 2620 0d63 1E000000 		.4byte	.LFE205-.LFB205
 2621 0d67 01       		.uleb128 0x1
 2622 0d68 9C       		.byte	0x9c
 2623 0d69 F30D0000 		.4byte	0xdf3
 2624 0d6d 26       		.uleb128 0x26
 2625 0d6e 49780000 		.4byte	.LASF1138
ARM GAS  /tmp/ccSBomBp.s 			page 70


 2626 0d72 01       		.byte	0x1
 2627 0d73 A1       		.byte	0xa1
 2628 0d74 B4070000 		.4byte	0x7b4
 2629 0d78 DB040000 		.4byte	.LLST34
 2630 0d7c 2F       		.uleb128 0x2f
 2631 0d7d 70524200 		.ascii	"pRB\000"
 2632 0d81 01       		.byte	0x1
 2633 0d82 A1       		.byte	0xa1
 2634 0d83 10090000 		.4byte	0x910
 2635 0d87 07050000 		.4byte	.LLST35
 2636 0d8b 21       		.uleb128 0x21
 2637 0d8c 06080000 		.4byte	0x806
 2638 0d90 06000000 		.4byte	.LBB97
 2639 0d94 02000000 		.4byte	.LBE97-.LBB97
 2640 0d98 01       		.byte	0x1
 2641 0d99 A4       		.byte	0xa4
 2642 0d9a A80D0000 		.4byte	0xda8
 2643 0d9e 29       		.uleb128 0x29
 2644 0d9f 17080000 		.4byte	0x817
 2645 0da3 33050000 		.4byte	.LLST36
 2646 0da7 00       		.byte	0
 2647 0da8 30       		.uleb128 0x30
 2648 0da9 0C000000 		.4byte	.LBB99
 2649 0dad 10000000 		.4byte	.LBE99-.LBB99
 2650 0db1 31       		.uleb128 0x31
 2651 0db2 636800   		.ascii	"ch\000"
 2652 0db5 01       		.byte	0x1
 2653 0db6 A5       		.byte	0xa5
 2654 0db7 85000000 		.4byte	0x85
 2655 0dbb 02       		.uleb128 0x2
 2656 0dbc 91       		.byte	0x91
 2657 0dbd 6F       		.sleb128 -17
 2658 0dbe 21       		.uleb128 0x21
 2659 0dbf 24080000 		.4byte	0x824
 2660 0dc3 0E000000 		.4byte	.LBB100
 2661 0dc7 02000000 		.4byte	.LBE100-.LBB100
 2662 0dcb 01       		.byte	0x1
 2663 0dcc A5       		.byte	0xa5
 2664 0dcd DB0D0000 		.4byte	0xddb
 2665 0dd1 29       		.uleb128 0x29
 2666 0dd2 35080000 		.4byte	0x835
 2667 0dd6 54050000 		.4byte	.LLST37
 2668 0dda 00       		.byte	0
 2669 0ddb 2B       		.uleb128 0x2b
 2670 0ddc 1A000000 		.4byte	.LVL61
 2671 0de0 EC110000 		.4byte	0x11ec
 2672 0de4 2C       		.uleb128 0x2c
 2673 0de5 01       		.uleb128 0x1
 2674 0de6 51       		.byte	0x51
 2675 0de7 02       		.uleb128 0x2
 2676 0de8 7D       		.byte	0x7d
 2677 0de9 07       		.sleb128 7
 2678 0dea 2C       		.uleb128 0x2c
 2679 0deb 01       		.uleb128 0x1
 2680 0dec 50       		.byte	0x50
 2681 0ded 02       		.uleb128 0x2
 2682 0dee 75       		.byte	0x75
ARM GAS  /tmp/ccSBomBp.s 			page 71


 2683 0def 00       		.sleb128 0
 2684 0df0 00       		.byte	0
 2685 0df1 00       		.byte	0
 2686 0df2 00       		.byte	0
 2687 0df3 1D       		.uleb128 0x1d
 2688 0df4 B5150000 		.4byte	.LASF1170
 2689 0df8 01       		.byte	0x1
 2690 0df9 AB       		.byte	0xab
 2691 0dfa 00000000 		.4byte	.LFB206
 2692 0dfe 24000000 		.4byte	.LFE206-.LFB206
 2693 0e02 01       		.uleb128 0x1
 2694 0e03 9C       		.byte	0x9c
 2695 0e04 8D0E0000 		.4byte	0xe8d
 2696 0e08 26       		.uleb128 0x26
 2697 0e09 49780000 		.4byte	.LASF1138
 2698 0e0d 01       		.byte	0x1
 2699 0e0e AB       		.byte	0xab
 2700 0e0f B4070000 		.4byte	0x7b4
 2701 0e13 67050000 		.4byte	.LLST38
 2702 0e17 2F       		.uleb128 0x2f
 2703 0e18 70524200 		.ascii	"pRB\000"
 2704 0e1c 01       		.byte	0x1
 2705 0e1d AB       		.byte	0xab
 2706 0e1e 10090000 		.4byte	0x910
 2707 0e22 93050000 		.4byte	.LLST39
 2708 0e26 31       		.uleb128 0x31
 2709 0e27 636800   		.ascii	"ch\000"
 2710 0e2a 01       		.byte	0x1
 2711 0e2b AD       		.byte	0xad
 2712 0e2c 85000000 		.4byte	0x85
 2713 0e30 02       		.uleb128 0x2
 2714 0e31 91       		.byte	0x91
 2715 0e32 6F       		.sleb128 -17
 2716 0e33 21       		.uleb128 0x21
 2717 0e34 06080000 		.4byte	0x806
 2718 0e38 06000000 		.4byte	.LBB102
 2719 0e3c 02000000 		.4byte	.LBE102-.LBB102
 2720 0e40 01       		.byte	0x1
 2721 0e41 B0       		.byte	0xb0
 2722 0e42 500E0000 		.4byte	0xe50
 2723 0e46 29       		.uleb128 0x29
 2724 0e47 17080000 		.4byte	0x817
 2725 0e4b BF050000 		.4byte	.LLST40
 2726 0e4f 00       		.byte	0
 2727 0e50 21       		.uleb128 0x21
 2728 0e51 E0070000 		.4byte	0x7e0
 2729 0e55 1C000000 		.4byte	.LBB104
 2730 0e59 06000000 		.4byte	.LBE104-.LBB104
 2731 0e5d 01       		.byte	0x1
 2732 0e5e B2       		.byte	0xb2
 2733 0e5f 760E0000 		.4byte	0xe76
 2734 0e63 29       		.uleb128 0x29
 2735 0e64 F9070000 		.4byte	0x7f9
 2736 0e68 E0050000 		.4byte	.LLST41
 2737 0e6c 29       		.uleb128 0x29
 2738 0e6d ED070000 		.4byte	0x7ed
 2739 0e71 F4050000 		.4byte	.LLST42
ARM GAS  /tmp/ccSBomBp.s 			page 72


 2740 0e75 00       		.byte	0
 2741 0e76 2B       		.uleb128 0x2b
 2742 0e77 18000000 		.4byte	.LVL67
 2743 0e7b 06120000 		.4byte	0x1206
 2744 0e7f 2C       		.uleb128 0x2c
 2745 0e80 01       		.uleb128 0x1
 2746 0e81 51       		.byte	0x51
 2747 0e82 02       		.uleb128 0x2
 2748 0e83 74       		.byte	0x74
 2749 0e84 00       		.sleb128 0
 2750 0e85 2C       		.uleb128 0x2c
 2751 0e86 01       		.uleb128 0x1
 2752 0e87 50       		.byte	0x50
 2753 0e88 02       		.uleb128 0x2
 2754 0e89 76       		.byte	0x76
 2755 0e8a 00       		.sleb128 0
 2756 0e8b 00       		.byte	0
 2757 0e8c 00       		.byte	0
 2758 0e8d 25       		.uleb128 0x25
 2759 0e8e C65A0000 		.4byte	.LASF1171
 2760 0e92 01       		.byte	0x1
 2761 0e93 B7       		.byte	0xb7
 2762 0e94 90000000 		.4byte	0x90
 2763 0e98 00000000 		.4byte	.LFB207
 2764 0e9c 3E000000 		.4byte	.LFE207-.LFB207
 2765 0ea0 01       		.uleb128 0x1
 2766 0ea1 9C       		.byte	0x9c
 2767 0ea2 A40F0000 		.4byte	0xfa4
 2768 0ea6 26       		.uleb128 0x26
 2769 0ea7 49780000 		.4byte	.LASF1138
 2770 0eab 01       		.byte	0x1
 2771 0eac B7       		.byte	0xb7
 2772 0ead B4070000 		.4byte	0x7b4
 2773 0eb1 07060000 		.4byte	.LLST43
 2774 0eb5 2F       		.uleb128 0x2f
 2775 0eb6 70524200 		.ascii	"pRB\000"
 2776 0eba 01       		.byte	0x1
 2777 0ebb B7       		.byte	0xb7
 2778 0ebc 10090000 		.4byte	0x910
 2779 0ec0 33060000 		.4byte	.LLST44
 2780 0ec4 26       		.uleb128 0x26
 2781 0ec5 DB770000 		.4byte	.LASF1119
 2782 0ec9 01       		.byte	0x1
 2783 0eca B7       		.byte	0xb7
 2784 0ecb B70A0000 		.4byte	0xab7
 2785 0ecf 6A060000 		.4byte	.LLST45
 2786 0ed3 26       		.uleb128 0x26
 2787 0ed4 60220000 		.4byte	.LASF1172
 2788 0ed8 01       		.byte	0x1
 2789 0ed9 B7       		.byte	0xb7
 2790 0eda 7E000000 		.4byte	0x7e
 2791 0ede 96060000 		.4byte	.LLST46
 2792 0ee2 28       		.uleb128 0x28
 2793 0ee3 72657400 		.ascii	"ret\000"
 2794 0ee7 01       		.byte	0x1
 2795 0ee8 B9       		.byte	0xb9
 2796 0ee9 90000000 		.4byte	0x90
ARM GAS  /tmp/ccSBomBp.s 			page 73


 2797 0eed B5060000 		.4byte	.LLST47
 2798 0ef1 28       		.uleb128 0x28
 2799 0ef2 703800   		.ascii	"p8\000"
 2800 0ef5 01       		.byte	0x1
 2801 0ef6 BA       		.byte	0xba
 2802 0ef7 6E070000 		.4byte	0x76e
 2803 0efb EE060000 		.4byte	.LLST48
 2804 0eff 1F       		.uleb128 0x1f
 2805 0f00 A8080000 		.4byte	0x8a8
 2806 0f04 04000000 		.4byte	.LBB106
 2807 0f08 B8000000 		.4byte	.Ldebug_ranges0+0xb8
 2808 0f0c 01       		.byte	0x1
 2809 0f0d BD       		.byte	0xbd
 2810 0f0e 220F0000 		.4byte	0xf22
 2811 0f12 20       		.uleb128 0x20
 2812 0f13 C1080000 		.4byte	0x8c1
 2813 0f17 02       		.byte	0x2
 2814 0f18 29       		.uleb128 0x29
 2815 0f19 B5080000 		.4byte	0x8b5
 2816 0f1d 1A070000 		.4byte	.LLST49
 2817 0f21 00       		.byte	0
 2818 0f22 1F       		.uleb128 0x1f
 2819 0f23 CE080000 		.4byte	0x8ce
 2820 0f27 32000000 		.4byte	.LBB114
 2821 0f2b E0000000 		.4byte	.Ldebug_ranges0+0xe0
 2822 0f2f 01       		.byte	0x1
 2823 0f30 C7       		.byte	0xc7
 2824 0f31 450F0000 		.4byte	0xf45
 2825 0f35 20       		.uleb128 0x20
 2826 0f36 E7080000 		.4byte	0x8e7
 2827 0f3a 02       		.byte	0x2
 2828 0f3b 29       		.uleb128 0x29
 2829 0f3c DB080000 		.4byte	0x8db
 2830 0f40 46070000 		.4byte	.LLST50
 2831 0f44 00       		.byte	0
 2832 0f45 32       		.uleb128 0x32
 2833 0f46 1C000000 		.4byte	.LVL78
 2834 0f4a 20120000 		.4byte	0x1220
 2835 0f4e 660F0000 		.4byte	0xf66
 2836 0f52 2C       		.uleb128 0x2c
 2837 0f53 01       		.uleb128 0x1
 2838 0f54 52       		.byte	0x52
 2839 0f55 03       		.uleb128 0x3
 2840 0f56 91       		.byte	0x91
 2841 0f57 64       		.sleb128 -28
 2842 0f58 06       		.byte	0x6
 2843 0f59 2C       		.uleb128 0x2c
 2844 0f5a 01       		.uleb128 0x1
 2845 0f5b 51       		.byte	0x51
 2846 0f5c 02       		.uleb128 0x2
 2847 0f5d 76       		.byte	0x76
 2848 0f5e 00       		.sleb128 0
 2849 0f5f 2C       		.uleb128 0x2c
 2850 0f60 01       		.uleb128 0x1
 2851 0f61 50       		.byte	0x50
 2852 0f62 02       		.uleb128 0x2
 2853 0f63 77       		.byte	0x77
ARM GAS  /tmp/ccSBomBp.s 			page 74


 2854 0f64 00       		.sleb128 0
 2855 0f65 00       		.byte	0
 2856 0f66 32       		.uleb128 0x32
 2857 0f67 26000000 		.4byte	.LVL81
 2858 0f6b F30D0000 		.4byte	0xdf3
 2859 0f6f 800F0000 		.4byte	0xf80
 2860 0f73 2C       		.uleb128 0x2c
 2861 0f74 01       		.uleb128 0x1
 2862 0f75 51       		.byte	0x51
 2863 0f76 02       		.uleb128 0x2
 2864 0f77 77       		.byte	0x77
 2865 0f78 00       		.sleb128 0
 2866 0f79 2C       		.uleb128 0x2c
 2867 0f7a 01       		.uleb128 0x1
 2868 0f7b 50       		.byte	0x50
 2869 0f7c 02       		.uleb128 0x2
 2870 0f7d 75       		.byte	0x75
 2871 0f7e 00       		.sleb128 0
 2872 0f7f 00       		.byte	0
 2873 0f80 2B       		.uleb128 0x2b
 2874 0f81 32000000 		.4byte	.LVL82
 2875 0f85 20120000 		.4byte	0x1220
 2876 0f89 2C       		.uleb128 0x2c
 2877 0f8a 01       		.uleb128 0x1
 2878 0f8b 52       		.byte	0x52
 2879 0f8c 06       		.uleb128 0x6
 2880 0f8d 91       		.byte	0x91
 2881 0f8e 64       		.sleb128 -28
 2882 0f8f 06       		.byte	0x6
 2883 0f90 74       		.byte	0x74
 2884 0f91 00       		.sleb128 0
 2885 0f92 1C       		.byte	0x1c
 2886 0f93 2C       		.uleb128 0x2c
 2887 0f94 01       		.uleb128 0x1
 2888 0f95 51       		.byte	0x51
 2889 0f96 05       		.uleb128 0x5
 2890 0f97 76       		.byte	0x76
 2891 0f98 00       		.sleb128 0
 2892 0f99 74       		.byte	0x74
 2893 0f9a 00       		.sleb128 0
 2894 0f9b 22       		.byte	0x22
 2895 0f9c 2C       		.uleb128 0x2c
 2896 0f9d 01       		.uleb128 0x1
 2897 0f9e 50       		.byte	0x50
 2898 0f9f 02       		.uleb128 0x2
 2899 0fa0 77       		.byte	0x77
 2900 0fa1 00       		.sleb128 0
 2901 0fa2 00       		.byte	0
 2902 0fa3 00       		.byte	0
 2903 0fa4 25       		.uleb128 0x25
 2904 0fa5 12750000 		.4byte	.LASF1173
 2905 0fa9 01       		.byte	0x1
 2906 0faa CD       		.byte	0xcd
 2907 0fab 7E000000 		.4byte	0x7e
 2908 0faf 00000000 		.4byte	.LFB208
 2909 0fb3 0E000000 		.4byte	.LFE208-.LFB208
 2910 0fb7 01       		.uleb128 0x1
ARM GAS  /tmp/ccSBomBp.s 			page 75


 2911 0fb8 9C       		.byte	0x9c
 2912 0fb9 19100000 		.4byte	0x1019
 2913 0fbd 26       		.uleb128 0x26
 2914 0fbe 49780000 		.4byte	.LASF1138
 2915 0fc2 01       		.byte	0x1
 2916 0fc3 CD       		.byte	0xcd
 2917 0fc4 B4070000 		.4byte	0x7b4
 2918 0fc8 67070000 		.4byte	.LLST51
 2919 0fcc 2F       		.uleb128 0x2f
 2920 0fcd 70524200 		.ascii	"pRB\000"
 2921 0fd1 01       		.byte	0x1
 2922 0fd2 CD       		.byte	0xcd
 2923 0fd3 10090000 		.4byte	0x910
 2924 0fd7 88070000 		.4byte	.LLST52
 2925 0fdb 26       		.uleb128 0x26
 2926 0fdc DB770000 		.4byte	.LASF1119
 2927 0fe0 01       		.byte	0x1
 2928 0fe1 CD       		.byte	0xcd
 2929 0fe2 C7050000 		.4byte	0x5c7
 2930 0fe6 B4070000 		.4byte	.LLST53
 2931 0fea 26       		.uleb128 0x26
 2932 0feb 60220000 		.4byte	.LASF1172
 2933 0fef 01       		.byte	0x1
 2934 0ff0 CD       		.byte	0xcd
 2935 0ff1 7E000000 		.4byte	0x7e
 2936 0ff5 E0070000 		.4byte	.LLST54
 2937 0ff9 2B       		.uleb128 0x2b
 2938 0ffa 0C000000 		.4byte	.LVL91
 2939 0ffe 3F120000 		.4byte	0x123f
 2940 1002 2C       		.uleb128 0x2c
 2941 1003 01       		.uleb128 0x1
 2942 1004 52       		.byte	0x52
 2943 1005 03       		.uleb128 0x3
 2944 1006 F3       		.byte	0xf3
 2945 1007 01       		.uleb128 0x1
 2946 1008 53       		.byte	0x53
 2947 1009 2C       		.uleb128 0x2c
 2948 100a 01       		.uleb128 0x1
 2949 100b 51       		.byte	0x51
 2950 100c 03       		.uleb128 0x3
 2951 100d F3       		.byte	0xf3
 2952 100e 01       		.uleb128 0x1
 2953 100f 52       		.byte	0x52
 2954 1010 2C       		.uleb128 0x2c
 2955 1011 01       		.uleb128 0x1
 2956 1012 50       		.byte	0x50
 2957 1013 03       		.uleb128 0x3
 2958 1014 F3       		.byte	0xf3
 2959 1015 01       		.uleb128 0x1
 2960 1016 51       		.byte	0x51
 2961 1017 00       		.byte	0
 2962 1018 00       		.byte	0
 2963 1019 1D       		.uleb128 0x1d
 2964 101a 68030000 		.4byte	.LASF1174
 2965 101e 01       		.byte	0x1
 2966 101f D5       		.byte	0xd5
 2967 1020 00000000 		.4byte	.LFB209
ARM GAS  /tmp/ccSBomBp.s 			page 76


 2968 1024 2E000000 		.4byte	.LFE209-.LFB209
 2969 1028 01       		.uleb128 0x1
 2970 1029 9C       		.byte	0x9c
 2971 102a CF100000 		.4byte	0x10cf
 2972 102e 26       		.uleb128 0x26
 2973 102f 49780000 		.4byte	.LASF1138
 2974 1033 01       		.byte	0x1
 2975 1034 D5       		.byte	0xd5
 2976 1035 B4070000 		.4byte	0x7b4
 2977 1039 01080000 		.4byte	.LLST55
 2978 103d 26       		.uleb128 0x26
 2979 103e 630B0000 		.4byte	.LASF1175
 2980 1042 01       		.byte	0x1
 2981 1043 D5       		.byte	0xd5
 2982 1044 10090000 		.4byte	0x910
 2983 1048 2D080000 		.4byte	.LLST56
 2984 104c 26       		.uleb128 0x26
 2985 104d 440D0000 		.4byte	.LASF1176
 2986 1051 01       		.byte	0x1
 2987 1052 D5       		.byte	0xd5
 2988 1053 10090000 		.4byte	0x910
 2989 1057 59080000 		.4byte	.LLST57
 2990 105b 21       		.uleb128 0x21
 2991 105c F4080000 		.4byte	0x8f4
 2992 1060 16000000 		.4byte	.LBB118
 2993 1064 04000000 		.4byte	.LBE118-.LBB118
 2994 1068 01       		.byte	0x1
 2995 1069 DC       		.byte	0xdc
 2996 106a 78100000 		.4byte	0x1078
 2997 106e 29       		.uleb128 0x29
 2998 106f 04090000 		.4byte	0x904
 2999 1073 85080000 		.4byte	.LLST58
 3000 1077 00       		.byte	0
 3001 1078 21       		.uleb128 0x21
 3002 1079 A8080000 		.4byte	0x8a8
 3003 107d 1E000000 		.4byte	.LBB120
 3004 1081 06000000 		.4byte	.LBE120-.LBB120
 3005 1085 01       		.byte	0x1
 3006 1086 DD       		.byte	0xdd
 3007 1087 9E100000 		.4byte	0x109e
 3008 108b 29       		.uleb128 0x29
 3009 108c C1080000 		.4byte	0x8c1
 3010 1090 98080000 		.4byte	.LLST59
 3011 1094 29       		.uleb128 0x29
 3012 1095 B5080000 		.4byte	0x8b5
 3013 1099 AC080000 		.4byte	.LLST60
 3014 109d 00       		.byte	0
 3015 109e 32       		.uleb128 0x32
 3016 109f 16000000 		.4byte	.LVL94
 3017 10a3 F30D0000 		.4byte	0xdf3
 3018 10a7 B8100000 		.4byte	0x10b8
 3019 10ab 2C       		.uleb128 0x2c
 3020 10ac 01       		.uleb128 0x1
 3021 10ad 51       		.byte	0x51
 3022 10ae 02       		.uleb128 0x2
 3023 10af 77       		.byte	0x77
 3024 10b0 00       		.sleb128 0
ARM GAS  /tmp/ccSBomBp.s 			page 77


 3025 10b1 2C       		.uleb128 0x2c
 3026 10b2 01       		.uleb128 0x1
 3027 10b3 50       		.byte	0x50
 3028 10b4 02       		.uleb128 0x2
 3029 10b5 74       		.byte	0x74
 3030 10b6 00       		.sleb128 0
 3031 10b7 00       		.byte	0
 3032 10b8 2B       		.uleb128 0x2b
 3033 10b9 2C000000 		.4byte	.LVL97
 3034 10bd 580D0000 		.4byte	0xd58
 3035 10c1 2C       		.uleb128 0x2c
 3036 10c2 01       		.uleb128 0x1
 3037 10c3 51       		.byte	0x51
 3038 10c4 02       		.uleb128 0x2
 3039 10c5 75       		.byte	0x75
 3040 10c6 00       		.sleb128 0
 3041 10c7 2C       		.uleb128 0x2c
 3042 10c8 01       		.uleb128 0x1
 3043 10c9 50       		.byte	0x50
 3044 10ca 02       		.uleb128 0x2
 3045 10cb 74       		.byte	0x74
 3046 10cc 00       		.sleb128 0
 3047 10cd 00       		.byte	0
 3048 10ce 00       		.byte	0
 3049 10cf 2D       		.uleb128 0x2d
 3050 10d0 3F1B0000 		.4byte	.LASF1177
 3051 10d4 01       		.byte	0x1
 3052 10d5 E6       		.byte	0xe6
 3053 10d6 90000000 		.4byte	0x90
 3054 10da 00000000 		.4byte	.LFB210
 3055 10de 7C000000 		.4byte	.LFE210-.LFB210
 3056 10e2 01       		.uleb128 0x1
 3057 10e3 9C       		.byte	0x9c
 3058 10e4 D5110000 		.4byte	0x11d5
 3059 10e8 26       		.uleb128 0x26
 3060 10e9 49780000 		.4byte	.LASF1138
 3061 10ed 01       		.byte	0x1
 3062 10ee E6       		.byte	0xe6
 3063 10ef B4070000 		.4byte	0x7b4
 3064 10f3 BF080000 		.4byte	.LLST61
 3065 10f7 26       		.uleb128 0x26
 3066 10f8 5A6A0000 		.4byte	.LASF1165
 3067 10fc 01       		.byte	0x1
 3068 10fd E6       		.byte	0xe6
 3069 10fe 90000000 		.4byte	0x90
 3070 1102 EB080000 		.4byte	.LLST62
 3071 1106 27       		.uleb128 0x27
 3072 1107 71490000 		.4byte	.LASF1178
 3073 110b 01       		.byte	0x1
 3074 110c E9       		.byte	0xe9
 3075 110d 90000000 		.4byte	0x90
 3076 1111 0C090000 		.4byte	.LLST63
 3077 1115 27       		.uleb128 0x27
 3078 1116 CC4A0000 		.4byte	.LASF1179
 3079 111a 01       		.byte	0x1
 3080 111b EA       		.byte	0xea
 3081 111c 90000000 		.4byte	0x90
ARM GAS  /tmp/ccSBomBp.s 			page 78


 3082 1120 2A090000 		.4byte	.LLST64
 3083 1124 27       		.uleb128 0x27
 3084 1125 43110000 		.4byte	.LASF1180
 3085 1129 01       		.byte	0x1
 3086 112a EB       		.byte	0xeb
 3087 112b 90000000 		.4byte	0x90
 3088 112f 5F090000 		.4byte	.LLST65
 3089 1133 28       		.uleb128 0x28
 3090 1134 646C00   		.ascii	"dl\000"
 3091 1137 01       		.byte	0x1
 3092 1138 EC       		.byte	0xec
 3093 1139 90000000 		.4byte	0x90
 3094 113d 95090000 		.4byte	.LLST66
 3095 1141 27       		.uleb128 0x27
 3096 1142 7D080000 		.4byte	.LASF1181
 3097 1146 01       		.byte	0x1
 3098 1147 ED       		.byte	0xed
 3099 1148 90000000 		.4byte	0x90
 3100 114c B3090000 		.4byte	.LLST67
 3101 1150 27       		.uleb128 0x27
 3102 1151 390D0000 		.4byte	.LASF1182
 3103 1155 01       		.byte	0x1
 3104 1156 EE       		.byte	0xee
 3105 1157 90000000 		.4byte	0x90
 3106 115b D6090000 		.4byte	.LLST68
 3107 115f 33       		.uleb128 0x33
 3108 1160 42080000 		.4byte	0x842
 3109 1164 40000000 		.4byte	.LBB122
 3110 1168 F8000000 		.4byte	.Ldebug_ranges0+0xf8
 3111 116c 01       		.byte	0x1
 3112 116d 1001     		.2byte	0x110
 3113 116f 7D110000 		.4byte	0x117d
 3114 1173 29       		.uleb128 0x29
 3115 1174 4F080000 		.4byte	0x84f
 3116 1178 3C0A0000 		.4byte	.LLST69
 3117 117c 00       		.byte	0
 3118 117d 33       		.uleb128 0x33
 3119 117e 5C080000 		.4byte	0x85c
 3120 1182 44000000 		.4byte	.LBB125
 3121 1186 10010000 		.4byte	.Ldebug_ranges0+0x110
 3122 118a 01       		.byte	0x1
 3123 118b 1101     		.2byte	0x111
 3124 118d AD110000 		.4byte	0x11ad
 3125 1191 29       		.uleb128 0x29
 3126 1192 81080000 		.4byte	0x881
 3127 1196 5D0A0000 		.4byte	.LLST70
 3128 119a 29       		.uleb128 0x29
 3129 119b 75080000 		.4byte	0x875
 3130 119f 830A0000 		.4byte	.LLST71
 3131 11a3 29       		.uleb128 0x29
 3132 11a4 69080000 		.4byte	0x869
 3133 11a8 3C0A0000 		.4byte	.LLST69
 3134 11ac 00       		.byte	0
 3135 11ad 34       		.uleb128 0x34
 3136 11ae 8E080000 		.4byte	0x88e
 3137 11b2 58000000 		.4byte	.LBB134
 3138 11b6 08000000 		.4byte	.LBE134-.LBB134
ARM GAS  /tmp/ccSBomBp.s 			page 79


 3139 11ba 01       		.byte	0x1
 3140 11bb 1201     		.2byte	0x112
 3141 11bd CB110000 		.4byte	0x11cb
 3142 11c1 29       		.uleb128 0x29
 3143 11c2 9B080000 		.4byte	0x89b
 3144 11c6 960A0000 		.4byte	.LLST73
 3145 11ca 00       		.byte	0
 3146 11cb 2E       		.uleb128 0x2e
 3147 11cc 0A000000 		.4byte	.LVL103
 3148 11d0 E0110000 		.4byte	0x11e0
 3149 11d4 00       		.byte	0
 3150 11d5 35       		.uleb128 0x35
 3151 11d6 06540000 		.4byte	.LASF1190
 3152 11da 08       		.byte	0x8
 3153 11db D4       		.byte	0xd4
 3154 11dc 69070000 		.4byte	0x769
 3155 11e0 36       		.uleb128 0x36
 3156 11e1 34410000 		.4byte	.LASF1191
 3157 11e5 02       		.byte	0x2
 3158 11e6 1302     		.2byte	0x213
 3159 11e8 90000000 		.4byte	0x90
 3160 11ec 37       		.uleb128 0x37
 3161 11ed 06260000 		.4byte	.LASF1183
 3162 11f1 04       		.byte	0x4
 3163 11f2 93       		.byte	0x93
 3164 11f3 7E000000 		.4byte	0x7e
 3165 11f7 06120000 		.4byte	0x1206
 3166 11fb 38       		.uleb128 0x38
 3167 11fc 10090000 		.4byte	0x910
 3168 1200 38       		.uleb128 0x38
 3169 1201 B70A0000 		.4byte	0xab7
 3170 1205 00       		.byte	0
 3171 1206 37       		.uleb128 0x37
 3172 1207 6A5E0000 		.4byte	.LASF1184
 3173 120b 04       		.byte	0x4
 3174 120c AA       		.byte	0xaa
 3175 120d 7E000000 		.4byte	0x7e
 3176 1211 20120000 		.4byte	0x1220
 3177 1215 38       		.uleb128 0x38
 3178 1216 10090000 		.4byte	0x910
 3179 121a 38       		.uleb128 0x38
 3180 121b C7050000 		.4byte	0x5c7
 3181 121f 00       		.byte	0
 3182 1220 37       		.uleb128 0x37
 3183 1221 00350000 		.4byte	.LASF1185
 3184 1225 04       		.byte	0x4
 3185 1226 9F       		.byte	0x9f
 3186 1227 7E000000 		.4byte	0x7e
 3187 122b 3F120000 		.4byte	0x123f
 3188 122f 38       		.uleb128 0x38
 3189 1230 10090000 		.4byte	0x910
 3190 1234 38       		.uleb128 0x38
 3191 1235 B70A0000 		.4byte	0xab7
 3192 1239 38       		.uleb128 0x38
 3193 123a 7E000000 		.4byte	0x7e
 3194 123e 00       		.byte	0
 3195 123f 39       		.uleb128 0x39
ARM GAS  /tmp/ccSBomBp.s 			page 80


 3196 1240 640C0000 		.4byte	.LASF1192
 3197 1244 04       		.byte	0x4
 3198 1245 B5       		.byte	0xb5
 3199 1246 7E000000 		.4byte	0x7e
 3200 124a 38       		.uleb128 0x38
 3201 124b 10090000 		.4byte	0x910
 3202 124f 38       		.uleb128 0x38
 3203 1250 C7050000 		.4byte	0x5c7
 3204 1254 38       		.uleb128 0x38
 3205 1255 7E000000 		.4byte	0x7e
 3206 1259 00       		.byte	0
 3207 125a 00       		.byte	0
 3208              		.section	.debug_abbrev,"",%progbits
 3209              	.Ldebug_abbrev0:
 3210 0000 01       		.uleb128 0x1
 3211 0001 11       		.uleb128 0x11
 3212 0002 01       		.byte	0x1
 3213 0003 25       		.uleb128 0x25
 3214 0004 0E       		.uleb128 0xe
 3215 0005 13       		.uleb128 0x13
 3216 0006 0B       		.uleb128 0xb
 3217 0007 03       		.uleb128 0x3
 3218 0008 0E       		.uleb128 0xe
 3219 0009 1B       		.uleb128 0x1b
 3220 000a 0E       		.uleb128 0xe
 3221 000b 55       		.uleb128 0x55
 3222 000c 17       		.uleb128 0x17
 3223 000d 11       		.uleb128 0x11
 3224 000e 01       		.uleb128 0x1
 3225 000f 10       		.uleb128 0x10
 3226 0010 17       		.uleb128 0x17
 3227 0011 9942     		.uleb128 0x2119
 3228 0013 17       		.uleb128 0x17
 3229 0014 00       		.byte	0
 3230 0015 00       		.byte	0
 3231 0016 02       		.uleb128 0x2
 3232 0017 24       		.uleb128 0x24
 3233 0018 00       		.byte	0
 3234 0019 0B       		.uleb128 0xb
 3235 001a 0B       		.uleb128 0xb
 3236 001b 3E       		.uleb128 0x3e
 3237 001c 0B       		.uleb128 0xb
 3238 001d 03       		.uleb128 0x3
 3239 001e 0E       		.uleb128 0xe
 3240 001f 00       		.byte	0
 3241 0020 00       		.byte	0
 3242 0021 03       		.uleb128 0x3
 3243 0022 16       		.uleb128 0x16
 3244 0023 00       		.byte	0
 3245 0024 03       		.uleb128 0x3
 3246 0025 0E       		.uleb128 0xe
 3247 0026 3A       		.uleb128 0x3a
 3248 0027 0B       		.uleb128 0xb
 3249 0028 3B       		.uleb128 0x3b
 3250 0029 0B       		.uleb128 0xb
 3251 002a 49       		.uleb128 0x49
 3252 002b 13       		.uleb128 0x13
ARM GAS  /tmp/ccSBomBp.s 			page 81


 3253 002c 00       		.byte	0
 3254 002d 00       		.byte	0
 3255 002e 04       		.uleb128 0x4
 3256 002f 24       		.uleb128 0x24
 3257 0030 00       		.byte	0
 3258 0031 0B       		.uleb128 0xb
 3259 0032 0B       		.uleb128 0xb
 3260 0033 3E       		.uleb128 0x3e
 3261 0034 0B       		.uleb128 0xb
 3262 0035 03       		.uleb128 0x3
 3263 0036 08       		.uleb128 0x8
 3264 0037 00       		.byte	0
 3265 0038 00       		.byte	0
 3266 0039 05       		.uleb128 0x5
 3267 003a 01       		.uleb128 0x1
 3268 003b 01       		.byte	0x1
 3269 003c 49       		.uleb128 0x49
 3270 003d 13       		.uleb128 0x13
 3271 003e 01       		.uleb128 0x1
 3272 003f 13       		.uleb128 0x13
 3273 0040 00       		.byte	0
 3274 0041 00       		.byte	0
 3275 0042 06       		.uleb128 0x6
 3276 0043 21       		.uleb128 0x21
 3277 0044 00       		.byte	0
 3278 0045 49       		.uleb128 0x49
 3279 0046 13       		.uleb128 0x13
 3280 0047 2F       		.uleb128 0x2f
 3281 0048 0B       		.uleb128 0xb
 3282 0049 00       		.byte	0
 3283 004a 00       		.byte	0
 3284 004b 07       		.uleb128 0x7
 3285 004c 26       		.uleb128 0x26
 3286 004d 00       		.byte	0
 3287 004e 49       		.uleb128 0x49
 3288 004f 13       		.uleb128 0x13
 3289 0050 00       		.byte	0
 3290 0051 00       		.byte	0
 3291 0052 08       		.uleb128 0x8
 3292 0053 35       		.uleb128 0x35
 3293 0054 00       		.byte	0
 3294 0055 49       		.uleb128 0x49
 3295 0056 13       		.uleb128 0x13
 3296 0057 00       		.byte	0
 3297 0058 00       		.byte	0
 3298 0059 09       		.uleb128 0x9
 3299 005a 13       		.uleb128 0x13
 3300 005b 01       		.byte	0x1
 3301 005c 0B       		.uleb128 0xb
 3302 005d 05       		.uleb128 0x5
 3303 005e 3A       		.uleb128 0x3a
 3304 005f 0B       		.uleb128 0xb
 3305 0060 3B       		.uleb128 0x3b
 3306 0061 0B       		.uleb128 0xb
 3307 0062 01       		.uleb128 0x1
 3308 0063 13       		.uleb128 0x13
 3309 0064 00       		.byte	0
ARM GAS  /tmp/ccSBomBp.s 			page 82


 3310 0065 00       		.byte	0
 3311 0066 0A       		.uleb128 0xa
 3312 0067 0D       		.uleb128 0xd
 3313 0068 00       		.byte	0
 3314 0069 03       		.uleb128 0x3
 3315 006a 0E       		.uleb128 0xe
 3316 006b 3A       		.uleb128 0x3a
 3317 006c 0B       		.uleb128 0xb
 3318 006d 3B       		.uleb128 0x3b
 3319 006e 0B       		.uleb128 0xb
 3320 006f 49       		.uleb128 0x49
 3321 0070 13       		.uleb128 0x13
 3322 0071 38       		.uleb128 0x38
 3323 0072 0B       		.uleb128 0xb
 3324 0073 00       		.byte	0
 3325 0074 00       		.byte	0
 3326 0075 0B       		.uleb128 0xb
 3327 0076 0D       		.uleb128 0xd
 3328 0077 00       		.byte	0
 3329 0078 03       		.uleb128 0x3
 3330 0079 0E       		.uleb128 0xe
 3331 007a 3A       		.uleb128 0x3a
 3332 007b 0B       		.uleb128 0xb
 3333 007c 3B       		.uleb128 0x3b
 3334 007d 0B       		.uleb128 0xb
 3335 007e 49       		.uleb128 0x49
 3336 007f 13       		.uleb128 0x13
 3337 0080 38       		.uleb128 0x38
 3338 0081 05       		.uleb128 0x5
 3339 0082 00       		.byte	0
 3340 0083 00       		.byte	0
 3341 0084 0C       		.uleb128 0xc
 3342 0085 04       		.uleb128 0x4
 3343 0086 01       		.byte	0x1
 3344 0087 03       		.uleb128 0x3
 3345 0088 0E       		.uleb128 0xe
 3346 0089 0B       		.uleb128 0xb
 3347 008a 0B       		.uleb128 0xb
 3348 008b 3A       		.uleb128 0x3a
 3349 008c 0B       		.uleb128 0xb
 3350 008d 3B       		.uleb128 0x3b
 3351 008e 0B       		.uleb128 0xb
 3352 008f 01       		.uleb128 0x1
 3353 0090 13       		.uleb128 0x13
 3354 0091 00       		.byte	0
 3355 0092 00       		.byte	0
 3356 0093 0D       		.uleb128 0xd
 3357 0094 28       		.uleb128 0x28
 3358 0095 00       		.byte	0
 3359 0096 03       		.uleb128 0x3
 3360 0097 0E       		.uleb128 0xe
 3361 0098 1C       		.uleb128 0x1c
 3362 0099 0D       		.uleb128 0xd
 3363 009a 00       		.byte	0
 3364 009b 00       		.byte	0
 3365 009c 0E       		.uleb128 0xe
 3366 009d 16       		.uleb128 0x16
ARM GAS  /tmp/ccSBomBp.s 			page 83


 3367 009e 00       		.byte	0
 3368 009f 03       		.uleb128 0x3
 3369 00a0 0E       		.uleb128 0xe
 3370 00a1 3A       		.uleb128 0x3a
 3371 00a2 0B       		.uleb128 0xb
 3372 00a3 3B       		.uleb128 0x3b
 3373 00a4 05       		.uleb128 0x5
 3374 00a5 49       		.uleb128 0x49
 3375 00a6 13       		.uleb128 0x13
 3376 00a7 00       		.byte	0
 3377 00a8 00       		.byte	0
 3378 00a9 0F       		.uleb128 0xf
 3379 00aa 13       		.uleb128 0x13
 3380 00ab 01       		.byte	0x1
 3381 00ac 0B       		.uleb128 0xb
 3382 00ad 0B       		.uleb128 0xb
 3383 00ae 3A       		.uleb128 0x3a
 3384 00af 0B       		.uleb128 0xb
 3385 00b0 3B       		.uleb128 0x3b
 3386 00b1 0B       		.uleb128 0xb
 3387 00b2 01       		.uleb128 0x1
 3388 00b3 13       		.uleb128 0x13
 3389 00b4 00       		.byte	0
 3390 00b5 00       		.byte	0
 3391 00b6 10       		.uleb128 0x10
 3392 00b7 0F       		.uleb128 0xf
 3393 00b8 00       		.byte	0
 3394 00b9 0B       		.uleb128 0xb
 3395 00ba 0B       		.uleb128 0xb
 3396 00bb 00       		.byte	0
 3397 00bc 00       		.byte	0
 3398 00bd 11       		.uleb128 0x11
 3399 00be 17       		.uleb128 0x17
 3400 00bf 01       		.byte	0x1
 3401 00c0 0B       		.uleb128 0xb
 3402 00c1 0B       		.uleb128 0xb
 3403 00c2 3A       		.uleb128 0x3a
 3404 00c3 0B       		.uleb128 0xb
 3405 00c4 3B       		.uleb128 0x3b
 3406 00c5 0B       		.uleb128 0xb
 3407 00c6 01       		.uleb128 0x1
 3408 00c7 13       		.uleb128 0x13
 3409 00c8 00       		.byte	0
 3410 00c9 00       		.byte	0
 3411 00ca 12       		.uleb128 0x12
 3412 00cb 0D       		.uleb128 0xd
 3413 00cc 00       		.byte	0
 3414 00cd 03       		.uleb128 0x3
 3415 00ce 08       		.uleb128 0x8
 3416 00cf 3A       		.uleb128 0x3a
 3417 00d0 0B       		.uleb128 0xb
 3418 00d1 3B       		.uleb128 0x3b
 3419 00d2 0B       		.uleb128 0xb
 3420 00d3 49       		.uleb128 0x49
 3421 00d4 13       		.uleb128 0x13
 3422 00d5 00       		.byte	0
 3423 00d6 00       		.byte	0
ARM GAS  /tmp/ccSBomBp.s 			page 84


 3424 00d7 13       		.uleb128 0x13
 3425 00d8 0D       		.uleb128 0xd
 3426 00d9 00       		.byte	0
 3427 00da 03       		.uleb128 0x3
 3428 00db 0E       		.uleb128 0xe
 3429 00dc 3A       		.uleb128 0x3a
 3430 00dd 0B       		.uleb128 0xb
 3431 00de 3B       		.uleb128 0x3b
 3432 00df 0B       		.uleb128 0xb
 3433 00e0 49       		.uleb128 0x49
 3434 00e1 13       		.uleb128 0x13
 3435 00e2 00       		.byte	0
 3436 00e3 00       		.byte	0
 3437 00e4 14       		.uleb128 0x14
 3438 00e5 0D       		.uleb128 0xd
 3439 00e6 00       		.byte	0
 3440 00e7 49       		.uleb128 0x49
 3441 00e8 13       		.uleb128 0x13
 3442 00e9 38       		.uleb128 0x38
 3443 00ea 0B       		.uleb128 0xb
 3444 00eb 00       		.byte	0
 3445 00ec 00       		.byte	0
 3446 00ed 15       		.uleb128 0x15
 3447 00ee 0D       		.uleb128 0xd
 3448 00ef 00       		.byte	0
 3449 00f0 03       		.uleb128 0x3
 3450 00f1 08       		.uleb128 0x8
 3451 00f2 3A       		.uleb128 0x3a
 3452 00f3 0B       		.uleb128 0xb
 3453 00f4 3B       		.uleb128 0x3b
 3454 00f5 0B       		.uleb128 0xb
 3455 00f6 49       		.uleb128 0x49
 3456 00f7 13       		.uleb128 0x13
 3457 00f8 38       		.uleb128 0x38
 3458 00f9 0B       		.uleb128 0xb
 3459 00fa 00       		.byte	0
 3460 00fb 00       		.byte	0
 3461 00fc 16       		.uleb128 0x16
 3462 00fd 0F       		.uleb128 0xf
 3463 00fe 00       		.byte	0
 3464 00ff 0B       		.uleb128 0xb
 3465 0100 0B       		.uleb128 0xb
 3466 0101 49       		.uleb128 0x49
 3467 0102 13       		.uleb128 0x13
 3468 0103 00       		.byte	0
 3469 0104 00       		.byte	0
 3470 0105 17       		.uleb128 0x17
 3471 0106 2E       		.uleb128 0x2e
 3472 0107 01       		.byte	0x1
 3473 0108 03       		.uleb128 0x3
 3474 0109 0E       		.uleb128 0xe
 3475 010a 3A       		.uleb128 0x3a
 3476 010b 0B       		.uleb128 0xb
 3477 010c 3B       		.uleb128 0x3b
 3478 010d 05       		.uleb128 0x5
 3479 010e 27       		.uleb128 0x27
 3480 010f 19       		.uleb128 0x19
ARM GAS  /tmp/ccSBomBp.s 			page 85


 3481 0110 20       		.uleb128 0x20
 3482 0111 0B       		.uleb128 0xb
 3483 0112 01       		.uleb128 0x1
 3484 0113 13       		.uleb128 0x13
 3485 0114 00       		.byte	0
 3486 0115 00       		.byte	0
 3487 0116 18       		.uleb128 0x18
 3488 0117 05       		.uleb128 0x5
 3489 0118 00       		.byte	0
 3490 0119 03       		.uleb128 0x3
 3491 011a 08       		.uleb128 0x8
 3492 011b 3A       		.uleb128 0x3a
 3493 011c 0B       		.uleb128 0xb
 3494 011d 3B       		.uleb128 0x3b
 3495 011e 05       		.uleb128 0x5
 3496 011f 49       		.uleb128 0x49
 3497 0120 13       		.uleb128 0x13
 3498 0121 00       		.byte	0
 3499 0122 00       		.byte	0
 3500 0123 19       		.uleb128 0x19
 3501 0124 05       		.uleb128 0x5
 3502 0125 00       		.byte	0
 3503 0126 03       		.uleb128 0x3
 3504 0127 0E       		.uleb128 0xe
 3505 0128 3A       		.uleb128 0x3a
 3506 0129 0B       		.uleb128 0xb
 3507 012a 3B       		.uleb128 0x3b
 3508 012b 05       		.uleb128 0x5
 3509 012c 49       		.uleb128 0x49
 3510 012d 13       		.uleb128 0x13
 3511 012e 00       		.byte	0
 3512 012f 00       		.byte	0
 3513 0130 1A       		.uleb128 0x1a
 3514 0131 2E       		.uleb128 0x2e
 3515 0132 01       		.byte	0x1
 3516 0133 03       		.uleb128 0x3
 3517 0134 0E       		.uleb128 0xe
 3518 0135 3A       		.uleb128 0x3a
 3519 0136 0B       		.uleb128 0xb
 3520 0137 3B       		.uleb128 0x3b
 3521 0138 05       		.uleb128 0x5
 3522 0139 27       		.uleb128 0x27
 3523 013a 19       		.uleb128 0x19
 3524 013b 49       		.uleb128 0x49
 3525 013c 13       		.uleb128 0x13
 3526 013d 20       		.uleb128 0x20
 3527 013e 0B       		.uleb128 0xb
 3528 013f 01       		.uleb128 0x1
 3529 0140 13       		.uleb128 0x13
 3530 0141 00       		.byte	0
 3531 0142 00       		.byte	0
 3532 0143 1B       		.uleb128 0x1b
 3533 0144 2E       		.uleb128 0x2e
 3534 0145 01       		.byte	0x1
 3535 0146 03       		.uleb128 0x3
 3536 0147 0E       		.uleb128 0xe
 3537 0148 3A       		.uleb128 0x3a
ARM GAS  /tmp/ccSBomBp.s 			page 86


 3538 0149 0B       		.uleb128 0xb
 3539 014a 3B       		.uleb128 0x3b
 3540 014b 0B       		.uleb128 0xb
 3541 014c 27       		.uleb128 0x27
 3542 014d 19       		.uleb128 0x19
 3543 014e 49       		.uleb128 0x49
 3544 014f 13       		.uleb128 0x13
 3545 0150 20       		.uleb128 0x20
 3546 0151 0B       		.uleb128 0xb
 3547 0152 01       		.uleb128 0x1
 3548 0153 13       		.uleb128 0x13
 3549 0154 00       		.byte	0
 3550 0155 00       		.byte	0
 3551 0156 1C       		.uleb128 0x1c
 3552 0157 05       		.uleb128 0x5
 3553 0158 00       		.byte	0
 3554 0159 03       		.uleb128 0x3
 3555 015a 0E       		.uleb128 0xe
 3556 015b 3A       		.uleb128 0x3a
 3557 015c 0B       		.uleb128 0xb
 3558 015d 3B       		.uleb128 0x3b
 3559 015e 0B       		.uleb128 0xb
 3560 015f 49       		.uleb128 0x49
 3561 0160 13       		.uleb128 0x13
 3562 0161 00       		.byte	0
 3563 0162 00       		.byte	0
 3564 0163 1D       		.uleb128 0x1d
 3565 0164 2E       		.uleb128 0x2e
 3566 0165 01       		.byte	0x1
 3567 0166 3F       		.uleb128 0x3f
 3568 0167 19       		.uleb128 0x19
 3569 0168 03       		.uleb128 0x3
 3570 0169 0E       		.uleb128 0xe
 3571 016a 3A       		.uleb128 0x3a
 3572 016b 0B       		.uleb128 0xb
 3573 016c 3B       		.uleb128 0x3b
 3574 016d 0B       		.uleb128 0xb
 3575 016e 27       		.uleb128 0x27
 3576 016f 19       		.uleb128 0x19
 3577 0170 11       		.uleb128 0x11
 3578 0171 01       		.uleb128 0x1
 3579 0172 12       		.uleb128 0x12
 3580 0173 06       		.uleb128 0x6
 3581 0174 40       		.uleb128 0x40
 3582 0175 18       		.uleb128 0x18
 3583 0176 9742     		.uleb128 0x2117
 3584 0178 19       		.uleb128 0x19
 3585 0179 01       		.uleb128 0x1
 3586 017a 13       		.uleb128 0x13
 3587 017b 00       		.byte	0
 3588 017c 00       		.byte	0
 3589 017d 1E       		.uleb128 0x1e
 3590 017e 05       		.uleb128 0x5
 3591 017f 00       		.byte	0
 3592 0180 03       		.uleb128 0x3
 3593 0181 0E       		.uleb128 0xe
 3594 0182 3A       		.uleb128 0x3a
ARM GAS  /tmp/ccSBomBp.s 			page 87


 3595 0183 0B       		.uleb128 0xb
 3596 0184 3B       		.uleb128 0x3b
 3597 0185 0B       		.uleb128 0xb
 3598 0186 49       		.uleb128 0x49
 3599 0187 13       		.uleb128 0x13
 3600 0188 02       		.uleb128 0x2
 3601 0189 18       		.uleb128 0x18
 3602 018a 00       		.byte	0
 3603 018b 00       		.byte	0
 3604 018c 1F       		.uleb128 0x1f
 3605 018d 1D       		.uleb128 0x1d
 3606 018e 01       		.byte	0x1
 3607 018f 31       		.uleb128 0x31
 3608 0190 13       		.uleb128 0x13
 3609 0191 52       		.uleb128 0x52
 3610 0192 01       		.uleb128 0x1
 3611 0193 55       		.uleb128 0x55
 3612 0194 17       		.uleb128 0x17
 3613 0195 58       		.uleb128 0x58
 3614 0196 0B       		.uleb128 0xb
 3615 0197 59       		.uleb128 0x59
 3616 0198 0B       		.uleb128 0xb
 3617 0199 01       		.uleb128 0x1
 3618 019a 13       		.uleb128 0x13
 3619 019b 00       		.byte	0
 3620 019c 00       		.byte	0
 3621 019d 20       		.uleb128 0x20
 3622 019e 05       		.uleb128 0x5
 3623 019f 00       		.byte	0
 3624 01a0 31       		.uleb128 0x31
 3625 01a1 13       		.uleb128 0x13
 3626 01a2 1C       		.uleb128 0x1c
 3627 01a3 0B       		.uleb128 0xb
 3628 01a4 00       		.byte	0
 3629 01a5 00       		.byte	0
 3630 01a6 21       		.uleb128 0x21
 3631 01a7 1D       		.uleb128 0x1d
 3632 01a8 01       		.byte	0x1
 3633 01a9 31       		.uleb128 0x31
 3634 01aa 13       		.uleb128 0x13
 3635 01ab 11       		.uleb128 0x11
 3636 01ac 01       		.uleb128 0x1
 3637 01ad 12       		.uleb128 0x12
 3638 01ae 06       		.uleb128 0x6
 3639 01af 58       		.uleb128 0x58
 3640 01b0 0B       		.uleb128 0xb
 3641 01b1 59       		.uleb128 0x59
 3642 01b2 0B       		.uleb128 0xb
 3643 01b3 01       		.uleb128 0x1
 3644 01b4 13       		.uleb128 0x13
 3645 01b5 00       		.byte	0
 3646 01b6 00       		.byte	0
 3647 01b7 22       		.uleb128 0x22
 3648 01b8 05       		.uleb128 0x5
 3649 01b9 00       		.byte	0
 3650 01ba 31       		.uleb128 0x31
 3651 01bb 13       		.uleb128 0x13
ARM GAS  /tmp/ccSBomBp.s 			page 88


 3652 01bc 02       		.uleb128 0x2
 3653 01bd 18       		.uleb128 0x18
 3654 01be 00       		.byte	0
 3655 01bf 00       		.byte	0
 3656 01c0 23       		.uleb128 0x23
 3657 01c1 1D       		.uleb128 0x1d
 3658 01c2 01       		.byte	0x1
 3659 01c3 31       		.uleb128 0x31
 3660 01c4 13       		.uleb128 0x13
 3661 01c5 11       		.uleb128 0x11
 3662 01c6 01       		.uleb128 0x1
 3663 01c7 12       		.uleb128 0x12
 3664 01c8 06       		.uleb128 0x6
 3665 01c9 58       		.uleb128 0x58
 3666 01ca 0B       		.uleb128 0xb
 3667 01cb 59       		.uleb128 0x59
 3668 01cc 0B       		.uleb128 0xb
 3669 01cd 00       		.byte	0
 3670 01ce 00       		.byte	0
 3671 01cf 24       		.uleb128 0x24
 3672 01d0 1D       		.uleb128 0x1d
 3673 01d1 01       		.byte	0x1
 3674 01d2 31       		.uleb128 0x31
 3675 01d3 13       		.uleb128 0x13
 3676 01d4 52       		.uleb128 0x52
 3677 01d5 01       		.uleb128 0x1
 3678 01d6 55       		.uleb128 0x55
 3679 01d7 17       		.uleb128 0x17
 3680 01d8 58       		.uleb128 0x58
 3681 01d9 0B       		.uleb128 0xb
 3682 01da 59       		.uleb128 0x59
 3683 01db 0B       		.uleb128 0xb
 3684 01dc 00       		.byte	0
 3685 01dd 00       		.byte	0
 3686 01de 25       		.uleb128 0x25
 3687 01df 2E       		.uleb128 0x2e
 3688 01e0 01       		.byte	0x1
 3689 01e1 3F       		.uleb128 0x3f
 3690 01e2 19       		.uleb128 0x19
 3691 01e3 03       		.uleb128 0x3
 3692 01e4 0E       		.uleb128 0xe
 3693 01e5 3A       		.uleb128 0x3a
 3694 01e6 0B       		.uleb128 0xb
 3695 01e7 3B       		.uleb128 0x3b
 3696 01e8 0B       		.uleb128 0xb
 3697 01e9 27       		.uleb128 0x27
 3698 01ea 19       		.uleb128 0x19
 3699 01eb 49       		.uleb128 0x49
 3700 01ec 13       		.uleb128 0x13
 3701 01ed 11       		.uleb128 0x11
 3702 01ee 01       		.uleb128 0x1
 3703 01ef 12       		.uleb128 0x12
 3704 01f0 06       		.uleb128 0x6
 3705 01f1 40       		.uleb128 0x40
 3706 01f2 18       		.uleb128 0x18
 3707 01f3 9742     		.uleb128 0x2117
 3708 01f5 19       		.uleb128 0x19
ARM GAS  /tmp/ccSBomBp.s 			page 89


 3709 01f6 01       		.uleb128 0x1
 3710 01f7 13       		.uleb128 0x13
 3711 01f8 00       		.byte	0
 3712 01f9 00       		.byte	0
 3713 01fa 26       		.uleb128 0x26
 3714 01fb 05       		.uleb128 0x5
 3715 01fc 00       		.byte	0
 3716 01fd 03       		.uleb128 0x3
 3717 01fe 0E       		.uleb128 0xe
 3718 01ff 3A       		.uleb128 0x3a
 3719 0200 0B       		.uleb128 0xb
 3720 0201 3B       		.uleb128 0x3b
 3721 0202 0B       		.uleb128 0xb
 3722 0203 49       		.uleb128 0x49
 3723 0204 13       		.uleb128 0x13
 3724 0205 02       		.uleb128 0x2
 3725 0206 17       		.uleb128 0x17
 3726 0207 00       		.byte	0
 3727 0208 00       		.byte	0
 3728 0209 27       		.uleb128 0x27
 3729 020a 34       		.uleb128 0x34
 3730 020b 00       		.byte	0
 3731 020c 03       		.uleb128 0x3
 3732 020d 0E       		.uleb128 0xe
 3733 020e 3A       		.uleb128 0x3a
 3734 020f 0B       		.uleb128 0xb
 3735 0210 3B       		.uleb128 0x3b
 3736 0211 0B       		.uleb128 0xb
 3737 0212 49       		.uleb128 0x49
 3738 0213 13       		.uleb128 0x13
 3739 0214 02       		.uleb128 0x2
 3740 0215 17       		.uleb128 0x17
 3741 0216 00       		.byte	0
 3742 0217 00       		.byte	0
 3743 0218 28       		.uleb128 0x28
 3744 0219 34       		.uleb128 0x34
 3745 021a 00       		.byte	0
 3746 021b 03       		.uleb128 0x3
 3747 021c 08       		.uleb128 0x8
 3748 021d 3A       		.uleb128 0x3a
 3749 021e 0B       		.uleb128 0xb
 3750 021f 3B       		.uleb128 0x3b
 3751 0220 0B       		.uleb128 0xb
 3752 0221 49       		.uleb128 0x49
 3753 0222 13       		.uleb128 0x13
 3754 0223 02       		.uleb128 0x2
 3755 0224 17       		.uleb128 0x17
 3756 0225 00       		.byte	0
 3757 0226 00       		.byte	0
 3758 0227 29       		.uleb128 0x29
 3759 0228 05       		.uleb128 0x5
 3760 0229 00       		.byte	0
 3761 022a 31       		.uleb128 0x31
 3762 022b 13       		.uleb128 0x13
 3763 022c 02       		.uleb128 0x2
 3764 022d 17       		.uleb128 0x17
 3765 022e 00       		.byte	0
ARM GAS  /tmp/ccSBomBp.s 			page 90


 3766 022f 00       		.byte	0
 3767 0230 2A       		.uleb128 0x2a
 3768 0231 26       		.uleb128 0x26
 3769 0232 00       		.byte	0
 3770 0233 00       		.byte	0
 3771 0234 00       		.byte	0
 3772 0235 2B       		.uleb128 0x2b
 3773 0236 898201   		.uleb128 0x4109
 3774 0239 01       		.byte	0x1
 3775 023a 11       		.uleb128 0x11
 3776 023b 01       		.uleb128 0x1
 3777 023c 31       		.uleb128 0x31
 3778 023d 13       		.uleb128 0x13
 3779 023e 00       		.byte	0
 3780 023f 00       		.byte	0
 3781 0240 2C       		.uleb128 0x2c
 3782 0241 8A8201   		.uleb128 0x410a
 3783 0244 00       		.byte	0
 3784 0245 02       		.uleb128 0x2
 3785 0246 18       		.uleb128 0x18
 3786 0247 9142     		.uleb128 0x2111
 3787 0249 18       		.uleb128 0x18
 3788 024a 00       		.byte	0
 3789 024b 00       		.byte	0
 3790 024c 2D       		.uleb128 0x2d
 3791 024d 2E       		.uleb128 0x2e
 3792 024e 01       		.byte	0x1
 3793 024f 3F       		.uleb128 0x3f
 3794 0250 19       		.uleb128 0x19
 3795 0251 03       		.uleb128 0x3
 3796 0252 0E       		.uleb128 0xe
 3797 0253 3A       		.uleb128 0x3a
 3798 0254 0B       		.uleb128 0xb
 3799 0255 3B       		.uleb128 0x3b
 3800 0256 0B       		.uleb128 0xb
 3801 0257 27       		.uleb128 0x27
 3802 0258 19       		.uleb128 0x19
 3803 0259 49       		.uleb128 0x49
 3804 025a 13       		.uleb128 0x13
 3805 025b 11       		.uleb128 0x11
 3806 025c 01       		.uleb128 0x1
 3807 025d 12       		.uleb128 0x12
 3808 025e 06       		.uleb128 0x6
 3809 025f 40       		.uleb128 0x40
 3810 0260 18       		.uleb128 0x18
 3811 0261 9642     		.uleb128 0x2116
 3812 0263 19       		.uleb128 0x19
 3813 0264 01       		.uleb128 0x1
 3814 0265 13       		.uleb128 0x13
 3815 0266 00       		.byte	0
 3816 0267 00       		.byte	0
 3817 0268 2E       		.uleb128 0x2e
 3818 0269 898201   		.uleb128 0x4109
 3819 026c 00       		.byte	0
 3820 026d 11       		.uleb128 0x11
 3821 026e 01       		.uleb128 0x1
 3822 026f 31       		.uleb128 0x31
ARM GAS  /tmp/ccSBomBp.s 			page 91


 3823 0270 13       		.uleb128 0x13
 3824 0271 00       		.byte	0
 3825 0272 00       		.byte	0
 3826 0273 2F       		.uleb128 0x2f
 3827 0274 05       		.uleb128 0x5
 3828 0275 00       		.byte	0
 3829 0276 03       		.uleb128 0x3
 3830 0277 08       		.uleb128 0x8
 3831 0278 3A       		.uleb128 0x3a
 3832 0279 0B       		.uleb128 0xb
 3833 027a 3B       		.uleb128 0x3b
 3834 027b 0B       		.uleb128 0xb
 3835 027c 49       		.uleb128 0x49
 3836 027d 13       		.uleb128 0x13
 3837 027e 02       		.uleb128 0x2
 3838 027f 17       		.uleb128 0x17
 3839 0280 00       		.byte	0
 3840 0281 00       		.byte	0
 3841 0282 30       		.uleb128 0x30
 3842 0283 0B       		.uleb128 0xb
 3843 0284 01       		.byte	0x1
 3844 0285 11       		.uleb128 0x11
 3845 0286 01       		.uleb128 0x1
 3846 0287 12       		.uleb128 0x12
 3847 0288 06       		.uleb128 0x6
 3848 0289 00       		.byte	0
 3849 028a 00       		.byte	0
 3850 028b 31       		.uleb128 0x31
 3851 028c 34       		.uleb128 0x34
 3852 028d 00       		.byte	0
 3853 028e 03       		.uleb128 0x3
 3854 028f 08       		.uleb128 0x8
 3855 0290 3A       		.uleb128 0x3a
 3856 0291 0B       		.uleb128 0xb
 3857 0292 3B       		.uleb128 0x3b
 3858 0293 0B       		.uleb128 0xb
 3859 0294 49       		.uleb128 0x49
 3860 0295 13       		.uleb128 0x13
 3861 0296 02       		.uleb128 0x2
 3862 0297 18       		.uleb128 0x18
 3863 0298 00       		.byte	0
 3864 0299 00       		.byte	0
 3865 029a 32       		.uleb128 0x32
 3866 029b 898201   		.uleb128 0x4109
 3867 029e 01       		.byte	0x1
 3868 029f 11       		.uleb128 0x11
 3869 02a0 01       		.uleb128 0x1
 3870 02a1 31       		.uleb128 0x31
 3871 02a2 13       		.uleb128 0x13
 3872 02a3 01       		.uleb128 0x1
 3873 02a4 13       		.uleb128 0x13
 3874 02a5 00       		.byte	0
 3875 02a6 00       		.byte	0
 3876 02a7 33       		.uleb128 0x33
 3877 02a8 1D       		.uleb128 0x1d
 3878 02a9 01       		.byte	0x1
 3879 02aa 31       		.uleb128 0x31
ARM GAS  /tmp/ccSBomBp.s 			page 92


 3880 02ab 13       		.uleb128 0x13
 3881 02ac 52       		.uleb128 0x52
 3882 02ad 01       		.uleb128 0x1
 3883 02ae 55       		.uleb128 0x55
 3884 02af 17       		.uleb128 0x17
 3885 02b0 58       		.uleb128 0x58
 3886 02b1 0B       		.uleb128 0xb
 3887 02b2 59       		.uleb128 0x59
 3888 02b3 05       		.uleb128 0x5
 3889 02b4 01       		.uleb128 0x1
 3890 02b5 13       		.uleb128 0x13
 3891 02b6 00       		.byte	0
 3892 02b7 00       		.byte	0
 3893 02b8 34       		.uleb128 0x34
 3894 02b9 1D       		.uleb128 0x1d
 3895 02ba 01       		.byte	0x1
 3896 02bb 31       		.uleb128 0x31
 3897 02bc 13       		.uleb128 0x13
 3898 02bd 11       		.uleb128 0x11
 3899 02be 01       		.uleb128 0x1
 3900 02bf 12       		.uleb128 0x12
 3901 02c0 06       		.uleb128 0x6
 3902 02c1 58       		.uleb128 0x58
 3903 02c2 0B       		.uleb128 0xb
 3904 02c3 59       		.uleb128 0x59
 3905 02c4 05       		.uleb128 0x5
 3906 02c5 01       		.uleb128 0x1
 3907 02c6 13       		.uleb128 0x13
 3908 02c7 00       		.byte	0
 3909 02c8 00       		.byte	0
 3910 02c9 35       		.uleb128 0x35
 3911 02ca 34       		.uleb128 0x34
 3912 02cb 00       		.byte	0
 3913 02cc 03       		.uleb128 0x3
 3914 02cd 0E       		.uleb128 0xe
 3915 02ce 3A       		.uleb128 0x3a
 3916 02cf 0B       		.uleb128 0xb
 3917 02d0 3B       		.uleb128 0x3b
 3918 02d1 0B       		.uleb128 0xb
 3919 02d2 49       		.uleb128 0x49
 3920 02d3 13       		.uleb128 0x13
 3921 02d4 3F       		.uleb128 0x3f
 3922 02d5 19       		.uleb128 0x19
 3923 02d6 3C       		.uleb128 0x3c
 3924 02d7 19       		.uleb128 0x19
 3925 02d8 00       		.byte	0
 3926 02d9 00       		.byte	0
 3927 02da 36       		.uleb128 0x36
 3928 02db 2E       		.uleb128 0x2e
 3929 02dc 00       		.byte	0
 3930 02dd 3F       		.uleb128 0x3f
 3931 02de 19       		.uleb128 0x19
 3932 02df 03       		.uleb128 0x3
 3933 02e0 0E       		.uleb128 0xe
 3934 02e1 3A       		.uleb128 0x3a
 3935 02e2 0B       		.uleb128 0xb
 3936 02e3 3B       		.uleb128 0x3b
ARM GAS  /tmp/ccSBomBp.s 			page 93


 3937 02e4 05       		.uleb128 0x5
 3938 02e5 27       		.uleb128 0x27
 3939 02e6 19       		.uleb128 0x19
 3940 02e7 49       		.uleb128 0x49
 3941 02e8 13       		.uleb128 0x13
 3942 02e9 3C       		.uleb128 0x3c
 3943 02ea 19       		.uleb128 0x19
 3944 02eb 00       		.byte	0
 3945 02ec 00       		.byte	0
 3946 02ed 37       		.uleb128 0x37
 3947 02ee 2E       		.uleb128 0x2e
 3948 02ef 01       		.byte	0x1
 3949 02f0 3F       		.uleb128 0x3f
 3950 02f1 19       		.uleb128 0x19
 3951 02f2 03       		.uleb128 0x3
 3952 02f3 0E       		.uleb128 0xe
 3953 02f4 3A       		.uleb128 0x3a
 3954 02f5 0B       		.uleb128 0xb
 3955 02f6 3B       		.uleb128 0x3b
 3956 02f7 0B       		.uleb128 0xb
 3957 02f8 27       		.uleb128 0x27
 3958 02f9 19       		.uleb128 0x19
 3959 02fa 49       		.uleb128 0x49
 3960 02fb 13       		.uleb128 0x13
 3961 02fc 3C       		.uleb128 0x3c
 3962 02fd 19       		.uleb128 0x19
 3963 02fe 01       		.uleb128 0x1
 3964 02ff 13       		.uleb128 0x13
 3965 0300 00       		.byte	0
 3966 0301 00       		.byte	0
 3967 0302 38       		.uleb128 0x38
 3968 0303 05       		.uleb128 0x5
 3969 0304 00       		.byte	0
 3970 0305 49       		.uleb128 0x49
 3971 0306 13       		.uleb128 0x13
 3972 0307 00       		.byte	0
 3973 0308 00       		.byte	0
 3974 0309 39       		.uleb128 0x39
 3975 030a 2E       		.uleb128 0x2e
 3976 030b 01       		.byte	0x1
 3977 030c 3F       		.uleb128 0x3f
 3978 030d 19       		.uleb128 0x19
 3979 030e 03       		.uleb128 0x3
 3980 030f 0E       		.uleb128 0xe
 3981 0310 3A       		.uleb128 0x3a
 3982 0311 0B       		.uleb128 0xb
 3983 0312 3B       		.uleb128 0x3b
 3984 0313 0B       		.uleb128 0xb
 3985 0314 27       		.uleb128 0x27
 3986 0315 19       		.uleb128 0x19
 3987 0316 49       		.uleb128 0x49
 3988 0317 13       		.uleb128 0x13
 3989 0318 3C       		.uleb128 0x3c
 3990 0319 19       		.uleb128 0x19
 3991 031a 00       		.byte	0
 3992 031b 00       		.byte	0
 3993 031c 00       		.byte	0
ARM GAS  /tmp/ccSBomBp.s 			page 94


 3994              		.section	.debug_loc,"",%progbits
 3995              	.Ldebug_loc0:
 3996              	.LLST0:
 3997 0000 00000000 		.4byte	.LVL5
 3998 0004 18000000 		.4byte	.LVL12
 3999 0008 0100     		.2byte	0x1
 4000 000a 50       		.byte	0x50
 4001 000b 18000000 		.4byte	.LVL12
 4002 000f 1A000000 		.4byte	.LFE200
 4003 0013 0400     		.2byte	0x4
 4004 0015 F3       		.byte	0xf3
 4005 0016 01       		.uleb128 0x1
 4006 0017 50       		.byte	0x50
 4007 0018 9F       		.byte	0x9f
 4008 0019 00000000 		.4byte	0
 4009 001d 00000000 		.4byte	0
 4010              	.LLST1:
 4011 0021 00000000 		.4byte	.LVL5
 4012 0025 04000000 		.4byte	.LVL6
 4013 0029 0200     		.2byte	0x2
 4014 002b 30       		.byte	0x30
 4015 002c 9F       		.byte	0x9f
 4016 002d 04000000 		.4byte	.LVL6
 4017 0031 12000000 		.4byte	.LVL9
 4018 0035 0100     		.2byte	0x1
 4019 0037 53       		.byte	0x53
 4020 0038 12000000 		.4byte	.LVL9
 4021 003c 14000000 		.4byte	.LVL10
 4022 0040 0300     		.2byte	0x3
 4023 0042 73       		.byte	0x73
 4024 0043 7F       		.sleb128 -1
 4025 0044 9F       		.byte	0x9f
 4026 0045 14000000 		.4byte	.LVL10
 4027 0049 1A000000 		.4byte	.LFE200
 4028 004d 0100     		.2byte	0x1
 4029 004f 53       		.byte	0x53
 4030 0050 00000000 		.4byte	0
 4031 0054 00000000 		.4byte	0
 4032              	.LLST2:
 4033 0058 00000000 		.4byte	.LVL5
 4034 005c 04000000 		.4byte	.LVL6
 4035 0060 0100     		.2byte	0x1
 4036 0062 51       		.byte	0x51
 4037 0063 04000000 		.4byte	.LVL6
 4038 0067 12000000 		.4byte	.LVL9
 4039 006b 0600     		.2byte	0x6
 4040 006d 71       		.byte	0x71
 4041 006e 00       		.sleb128 0
 4042 006f 73       		.byte	0x73
 4043 0070 00       		.sleb128 0
 4044 0071 22       		.byte	0x22
 4045 0072 9F       		.byte	0x9f
 4046 0073 12000000 		.4byte	.LVL9
 4047 0077 14000000 		.4byte	.LVL10
 4048 007b 0800     		.2byte	0x8
 4049 007d 71       		.byte	0x71
 4050 007e 00       		.sleb128 0
ARM GAS  /tmp/ccSBomBp.s 			page 95


 4051 007f 73       		.byte	0x73
 4052 0080 00       		.sleb128 0
 4053 0081 22       		.byte	0x22
 4054 0082 31       		.byte	0x31
 4055 0083 1C       		.byte	0x1c
 4056 0084 9F       		.byte	0x9f
 4057 0085 16000000 		.4byte	.LVL11
 4058 0089 1A000000 		.4byte	.LFE200
 4059 008d 0600     		.2byte	0x6
 4060 008f 71       		.byte	0x71
 4061 0090 00       		.sleb128 0
 4062 0091 73       		.byte	0x73
 4063 0092 00       		.sleb128 0
 4064 0093 22       		.byte	0x22
 4065 0094 9F       		.byte	0x9f
 4066 0095 00000000 		.4byte	0
 4067 0099 00000000 		.4byte	0
 4068              	.LLST3:
 4069 009d 08000000 		.4byte	.LVL7
 4070 00a1 16000000 		.4byte	.LVL11
 4071 00a5 0100     		.2byte	0x1
 4072 00a7 50       		.byte	0x50
 4073 00a8 00000000 		.4byte	0
 4074 00ac 00000000 		.4byte	0
 4075              	.LLST4:
 4076 00b0 0E000000 		.4byte	.LVL8
 4077 00b4 12000000 		.4byte	.LVL9
 4078 00b8 0500     		.2byte	0x5
 4079 00ba 71       		.byte	0x71
 4080 00bb 00       		.sleb128 0
 4081 00bc 73       		.byte	0x73
 4082 00bd 00       		.sleb128 0
 4083 00be 22       		.byte	0x22
 4084 00bf 12000000 		.4byte	.LVL9
 4085 00c3 14000000 		.4byte	.LVL10
 4086 00c7 0700     		.2byte	0x7
 4087 00c9 71       		.byte	0x71
 4088 00ca 00       		.sleb128 0
 4089 00cb 73       		.byte	0x73
 4090 00cc 00       		.sleb128 0
 4091 00cd 22       		.byte	0x22
 4092 00ce 31       		.byte	0x31
 4093 00cf 1C       		.byte	0x1c
 4094 00d0 14000000 		.4byte	.LVL10
 4095 00d4 16000000 		.4byte	.LVL11
 4096 00d8 0100     		.2byte	0x1
 4097 00da 54       		.byte	0x54
 4098 00db 00000000 		.4byte	0
 4099 00df 00000000 		.4byte	0
 4100              	.LLST5:
 4101 00e3 0E000000 		.4byte	.LVL8
 4102 00e7 16000000 		.4byte	.LVL11
 4103 00eb 0100     		.2byte	0x1
 4104 00ed 50       		.byte	0x50
 4105 00ee 00000000 		.4byte	0
 4106 00f2 00000000 		.4byte	0
 4107              	.LLST6:
ARM GAS  /tmp/ccSBomBp.s 			page 96


 4108 00f6 00000000 		.4byte	.LVL13
 4109 00fa 0A000000 		.4byte	.LVL15
 4110 00fe 0100     		.2byte	0x1
 4111 0100 50       		.byte	0x50
 4112 0101 0A000000 		.4byte	.LVL15
 4113 0105 22000000 		.4byte	.LVL24
 4114 0109 0100     		.2byte	0x1
 4115 010b 57       		.byte	0x57
 4116 010c 22000000 		.4byte	.LVL24
 4117 0110 24000000 		.4byte	.LFE201
 4118 0114 0400     		.2byte	0x4
 4119 0116 F3       		.byte	0xf3
 4120 0117 01       		.uleb128 0x1
 4121 0118 50       		.byte	0x50
 4122 0119 9F       		.byte	0x9f
 4123 011a 00000000 		.4byte	0
 4124 011e 00000000 		.4byte	0
 4125              	.LLST7:
 4126 0122 00000000 		.4byte	.LVL13
 4127 0126 0A000000 		.4byte	.LVL15
 4128 012a 0100     		.2byte	0x1
 4129 012c 51       		.byte	0x51
 4130 012d 0A000000 		.4byte	.LVL15
 4131 0131 24000000 		.4byte	.LFE201
 4132 0135 0400     		.2byte	0x4
 4133 0137 F3       		.byte	0xf3
 4134 0138 01       		.uleb128 0x1
 4135 0139 51       		.byte	0x51
 4136 013a 9F       		.byte	0x9f
 4137 013b 00000000 		.4byte	0
 4138 013f 00000000 		.4byte	0
 4139              	.LLST8:
 4140 0143 00000000 		.4byte	.LVL13
 4141 0147 0A000000 		.4byte	.LVL15
 4142 014b 0100     		.2byte	0x1
 4143 014d 52       		.byte	0x52
 4144 014e 0A000000 		.4byte	.LVL15
 4145 0152 22000000 		.4byte	.LVL21
 4146 0156 0100     		.2byte	0x1
 4147 0158 54       		.byte	0x54
 4148 0159 00000000 		.4byte	0
 4149 015d 00000000 		.4byte	0
 4150              	.LLST9:
 4151 0161 18000000 		.4byte	.LVL16
 4152 0165 20000000 		.4byte	.LVL20
 4153 0169 0100     		.2byte	0x1
 4154 016b 50       		.byte	0x50
 4155 016c 00000000 		.4byte	0
 4156 0170 00000000 		.4byte	0
 4157              	.LLST10:
 4158 0174 00000000 		.4byte	.LVL13
 4159 0178 0A000000 		.4byte	.LVL15
 4160 017c 0200     		.2byte	0x2
 4161 017e 30       		.byte	0x30
 4162 017f 9F       		.byte	0x9f
 4163 0180 0A000000 		.4byte	.LVL15
 4164 0184 22000000 		.4byte	.LVL22
ARM GAS  /tmp/ccSBomBp.s 			page 97


 4165 0188 0100     		.2byte	0x1
 4166 018a 55       		.byte	0x55
 4167 018b 22000000 		.4byte	.LVL22
 4168 018f 24000000 		.4byte	.LFE201
 4169 0193 0100     		.2byte	0x1
 4170 0195 50       		.byte	0x50
 4171 0196 00000000 		.4byte	0
 4172 019a 00000000 		.4byte	0
 4173              	.LLST11:
 4174 019e 06000000 		.4byte	.LVL14
 4175 01a2 0A000000 		.4byte	.LVL15
 4176 01a6 0100     		.2byte	0x1
 4177 01a8 51       		.byte	0x51
 4178 01a9 0A000000 		.4byte	.LVL15
 4179 01ad 22000000 		.4byte	.LVL23
 4180 01b1 0100     		.2byte	0x1
 4181 01b3 56       		.byte	0x56
 4182 01b4 00000000 		.4byte	0
 4183 01b8 00000000 		.4byte	0
 4184              	.LLST12:
 4185 01bc 00000000 		.4byte	.LVL25
 4186 01c0 18000000 		.4byte	.LVL32
 4187 01c4 0100     		.2byte	0x1
 4188 01c6 50       		.byte	0x50
 4189 01c7 18000000 		.4byte	.LVL32
 4190 01cb 1A000000 		.4byte	.LFE202
 4191 01cf 0400     		.2byte	0x4
 4192 01d1 F3       		.byte	0xf3
 4193 01d2 01       		.uleb128 0x1
 4194 01d3 50       		.byte	0x50
 4195 01d4 9F       		.byte	0x9f
 4196 01d5 00000000 		.4byte	0
 4197 01d9 00000000 		.4byte	0
 4198              	.LLST13:
 4199 01dd 00000000 		.4byte	.LVL25
 4200 01e1 04000000 		.4byte	.LVL26
 4201 01e5 0200     		.2byte	0x2
 4202 01e7 30       		.byte	0x30
 4203 01e8 9F       		.byte	0x9f
 4204 01e9 04000000 		.4byte	.LVL26
 4205 01ed 1A000000 		.4byte	.LFE202
 4206 01f1 0100     		.2byte	0x1
 4207 01f3 53       		.byte	0x53
 4208 01f4 00000000 		.4byte	0
 4209 01f8 00000000 		.4byte	0
 4210              	.LLST14:
 4211 01fc 00000000 		.4byte	.LVL25
 4212 0200 04000000 		.4byte	.LVL26
 4213 0204 0100     		.2byte	0x1
 4214 0206 51       		.byte	0x51
 4215 0207 04000000 		.4byte	.LVL26
 4216 020b 12000000 		.4byte	.LVL29
 4217 020f 0600     		.2byte	0x6
 4218 0211 71       		.byte	0x71
 4219 0212 00       		.sleb128 0
 4220 0213 73       		.byte	0x73
 4221 0214 00       		.sleb128 0
ARM GAS  /tmp/ccSBomBp.s 			page 98


 4222 0215 22       		.byte	0x22
 4223 0216 9F       		.byte	0x9f
 4224 0217 12000000 		.4byte	.LVL29
 4225 021b 14000000 		.4byte	.LVL30
 4226 021f 0800     		.2byte	0x8
 4227 0221 71       		.byte	0x71
 4228 0222 00       		.sleb128 0
 4229 0223 73       		.byte	0x73
 4230 0224 00       		.sleb128 0
 4231 0225 22       		.byte	0x22
 4232 0226 23       		.byte	0x23
 4233 0227 01       		.uleb128 0x1
 4234 0228 9F       		.byte	0x9f
 4235 0229 14000000 		.4byte	.LVL30
 4236 022d 1A000000 		.4byte	.LFE202
 4237 0231 0600     		.2byte	0x6
 4238 0233 71       		.byte	0x71
 4239 0234 00       		.sleb128 0
 4240 0235 73       		.byte	0x73
 4241 0236 00       		.sleb128 0
 4242 0237 22       		.byte	0x22
 4243 0238 9F       		.byte	0x9f
 4244 0239 00000000 		.4byte	0
 4245 023d 00000000 		.4byte	0
 4246              	.LLST15:
 4247 0241 08000000 		.4byte	.LVL27
 4248 0245 16000000 		.4byte	.LVL31
 4249 0249 0100     		.2byte	0x1
 4250 024b 50       		.byte	0x50
 4251 024c 00000000 		.4byte	0
 4252 0250 00000000 		.4byte	0
 4253              	.LLST16:
 4254 0254 0E000000 		.4byte	.LVL28
 4255 0258 16000000 		.4byte	.LVL31
 4256 025c 0100     		.2byte	0x1
 4257 025e 50       		.byte	0x50
 4258 025f 00000000 		.4byte	0
 4259 0263 00000000 		.4byte	0
 4260              	.LLST17:
 4261 0267 00000000 		.4byte	.LVL33
 4262 026b 0A000000 		.4byte	.LVL35
 4263 026f 0100     		.2byte	0x1
 4264 0271 50       		.byte	0x50
 4265 0272 0A000000 		.4byte	.LVL35
 4266 0276 22000000 		.4byte	.LVL44
 4267 027a 0100     		.2byte	0x1
 4268 027c 57       		.byte	0x57
 4269 027d 22000000 		.4byte	.LVL44
 4270 0281 24000000 		.4byte	.LFE203
 4271 0285 0400     		.2byte	0x4
 4272 0287 F3       		.byte	0xf3
 4273 0288 01       		.uleb128 0x1
 4274 0289 50       		.byte	0x50
 4275 028a 9F       		.byte	0x9f
 4276 028b 00000000 		.4byte	0
 4277 028f 00000000 		.4byte	0
 4278              	.LLST18:
ARM GAS  /tmp/ccSBomBp.s 			page 99


 4279 0293 00000000 		.4byte	.LVL33
 4280 0297 0A000000 		.4byte	.LVL35
 4281 029b 0100     		.2byte	0x1
 4282 029d 51       		.byte	0x51
 4283 029e 0A000000 		.4byte	.LVL35
 4284 02a2 24000000 		.4byte	.LFE203
 4285 02a6 0400     		.2byte	0x4
 4286 02a8 F3       		.byte	0xf3
 4287 02a9 01       		.uleb128 0x1
 4288 02aa 51       		.byte	0x51
 4289 02ab 9F       		.byte	0x9f
 4290 02ac 00000000 		.4byte	0
 4291 02b0 00000000 		.4byte	0
 4292              	.LLST19:
 4293 02b4 00000000 		.4byte	.LVL33
 4294 02b8 0A000000 		.4byte	.LVL35
 4295 02bc 0100     		.2byte	0x1
 4296 02be 52       		.byte	0x52
 4297 02bf 0A000000 		.4byte	.LVL35
 4298 02c3 22000000 		.4byte	.LVL42
 4299 02c7 0100     		.2byte	0x1
 4300 02c9 55       		.byte	0x55
 4301 02ca 00000000 		.4byte	0
 4302 02ce 00000000 		.4byte	0
 4303              	.LLST20:
 4304 02d2 18000000 		.4byte	.LVL36
 4305 02d6 20000000 		.4byte	.LVL40
 4306 02da 0100     		.2byte	0x1
 4307 02dc 50       		.byte	0x50
 4308 02dd 00000000 		.4byte	0
 4309 02e1 00000000 		.4byte	0
 4310              	.LLST21:
 4311 02e5 00000000 		.4byte	.LVL33
 4312 02e9 0A000000 		.4byte	.LVL35
 4313 02ed 0200     		.2byte	0x2
 4314 02ef 30       		.byte	0x30
 4315 02f0 9F       		.byte	0x9f
 4316 02f1 0A000000 		.4byte	.LVL35
 4317 02f5 22000000 		.4byte	.LVL41
 4318 02f9 0100     		.2byte	0x1
 4319 02fb 54       		.byte	0x54
 4320 02fc 22000000 		.4byte	.LVL41
 4321 0300 24000000 		.4byte	.LFE203
 4322 0304 0100     		.2byte	0x1
 4323 0306 50       		.byte	0x50
 4324 0307 00000000 		.4byte	0
 4325 030b 00000000 		.4byte	0
 4326              	.LLST22:
 4327 030f 06000000 		.4byte	.LVL34
 4328 0313 0A000000 		.4byte	.LVL35
 4329 0317 0100     		.2byte	0x1
 4330 0319 51       		.byte	0x51
 4331 031a 0A000000 		.4byte	.LVL35
 4332 031e 22000000 		.4byte	.LVL43
 4333 0322 0100     		.2byte	0x1
 4334 0324 56       		.byte	0x56
 4335 0325 00000000 		.4byte	0
ARM GAS  /tmp/ccSBomBp.s 			page 100


 4336 0329 00000000 		.4byte	0
 4337              	.LLST23:
 4338 032d 00000000 		.4byte	.LVL45
 4339 0331 09000000 		.4byte	.LVL46-1
 4340 0335 0100     		.2byte	0x1
 4341 0337 50       		.byte	0x50
 4342 0338 09000000 		.4byte	.LVL46-1
 4343 033c 36000000 		.4byte	.LVL56
 4344 0340 0100     		.2byte	0x1
 4345 0342 54       		.byte	0x54
 4346 0343 36000000 		.4byte	.LVL56
 4347 0347 38000000 		.4byte	.LFE204
 4348 034b 0400     		.2byte	0x4
 4349 034d F3       		.byte	0xf3
 4350 034e 01       		.uleb128 0x1
 4351 034f 50       		.byte	0x50
 4352 0350 9F       		.byte	0x9f
 4353 0351 00000000 		.4byte	0
 4354 0355 00000000 		.4byte	0
 4355              	.LLST24:
 4356 0359 00000000 		.4byte	.LVL45
 4357 035d 09000000 		.4byte	.LVL46-1
 4358 0361 0100     		.2byte	0x1
 4359 0363 51       		.byte	0x51
 4360 0364 09000000 		.4byte	.LVL46-1
 4361 0368 1A000000 		.4byte	.LVL50
 4362 036c 0100     		.2byte	0x1
 4363 036e 56       		.byte	0x56
 4364 036f 1A000000 		.4byte	.LVL50
 4365 0373 38000000 		.4byte	.LFE204
 4366 0377 0400     		.2byte	0x4
 4367 0379 F3       		.byte	0xf3
 4368 037a 01       		.uleb128 0x1
 4369 037b 51       		.byte	0x51
 4370 037c 9F       		.byte	0x9f
 4371 037d 00000000 		.4byte	0
 4372 0381 00000000 		.4byte	0
 4373              	.LLST25:
 4374 0385 16000000 		.4byte	.LVL49
 4375 0389 22000000 		.4byte	.LVL52
 4376 038d 0100     		.2byte	0x1
 4377 038f 50       		.byte	0x50
 4378 0390 22000000 		.4byte	.LVL52
 4379 0394 35000000 		.4byte	.LVL55-1
 4380 0398 0100     		.2byte	0x1
 4381 039a 51       		.byte	0x51
 4382 039b 00000000 		.4byte	0
 4383 039f 00000000 		.4byte	0
 4384              	.LLST26:
 4385 03a3 16000000 		.4byte	.LVL49
 4386 03a7 22000000 		.4byte	.LVL52
 4387 03ab 0500     		.2byte	0x5
 4388 03ad 70       		.byte	0x70
 4389 03ae 00       		.sleb128 0
 4390 03af 38       		.byte	0x38
 4391 03b0 25       		.byte	0x25
 4392 03b1 9F       		.byte	0x9f
ARM GAS  /tmp/ccSBomBp.s 			page 101


 4393 03b2 22000000 		.4byte	.LVL52
 4394 03b6 2E000000 		.4byte	.LVL54
 4395 03ba 0100     		.2byte	0x1
 4396 03bc 50       		.byte	0x50
 4397 03bd 2E000000 		.4byte	.LVL54
 4398 03c1 35000000 		.4byte	.LVL55-1
 4399 03c5 0500     		.2byte	0x5
 4400 03c7 71       		.byte	0x71
 4401 03c8 00       		.sleb128 0
 4402 03c9 38       		.byte	0x38
 4403 03ca 25       		.byte	0x25
 4404 03cb 9F       		.byte	0x9f
 4405 03cc 00000000 		.4byte	0
 4406 03d0 00000000 		.4byte	0
 4407              	.LLST27:
 4408 03d4 16000000 		.4byte	.LVL49
 4409 03d8 22000000 		.4byte	.LVL52
 4410 03dc 0A00     		.2byte	0xa
 4411 03de 70       		.byte	0x70
 4412 03df 00       		.sleb128 0
 4413 03e0 70       		.byte	0x70
 4414 03e1 00       		.sleb128 0
 4415 03e2 38       		.byte	0x38
 4416 03e3 25       		.byte	0x25
 4417 03e4 38       		.byte	0x38
 4418 03e5 24       		.byte	0x24
 4419 03e6 1C       		.byte	0x1c
 4420 03e7 9F       		.byte	0x9f
 4421 03e8 22000000 		.4byte	.LVL52
 4422 03ec 35000000 		.4byte	.LVL55-1
 4423 03f0 0A00     		.2byte	0xa
 4424 03f2 71       		.byte	0x71
 4425 03f3 00       		.sleb128 0
 4426 03f4 71       		.byte	0x71
 4427 03f5 00       		.sleb128 0
 4428 03f6 38       		.byte	0x38
 4429 03f7 25       		.byte	0x25
 4430 03f8 38       		.byte	0x38
 4431 03f9 24       		.byte	0x24
 4432 03fa 1C       		.byte	0x1c
 4433 03fb 9F       		.byte	0x9f
 4434 03fc 00000000 		.4byte	0
 4435 0400 00000000 		.4byte	0
 4436              	.LLST28:
 4437 0404 0E000000 		.4byte	.LVL47
 4438 0408 11000000 		.4byte	.LVL48-1
 4439 040c 0100     		.2byte	0x1
 4440 040e 50       		.byte	0x50
 4441 040f 11000000 		.4byte	.LVL48-1
 4442 0413 36000000 		.4byte	.LVL57
 4443 0417 0100     		.2byte	0x1
 4444 0419 55       		.byte	0x55
 4445 041a 00000000 		.4byte	0
 4446 041e 00000000 		.4byte	0
 4447              	.LLST29:
 4448 0422 16000000 		.4byte	.LVL49
 4449 0426 36000000 		.4byte	.LVL56
ARM GAS  /tmp/ccSBomBp.s 			page 102


 4450 042a 0100     		.2byte	0x1
 4451 042c 54       		.byte	0x54
 4452 042d 36000000 		.4byte	.LVL56
 4453 0431 38000000 		.4byte	.LFE204
 4454 0435 0400     		.2byte	0x4
 4455 0437 F3       		.byte	0xf3
 4456 0438 01       		.uleb128 0x1
 4457 0439 50       		.byte	0x50
 4458 043a 9F       		.byte	0x9f
 4459 043b 00000000 		.4byte	0
 4460 043f 00000000 		.4byte	0
 4461              	.LLST30:
 4462 0443 1E000000 		.4byte	.LVL51
 4463 0447 22000000 		.4byte	.LVL52
 4464 044b 0500     		.2byte	0x5
 4465 044d 70       		.byte	0x70
 4466 044e 00       		.sleb128 0
 4467 044f 38       		.byte	0x38
 4468 0450 25       		.byte	0x25
 4469 0451 9F       		.byte	0x9f
 4470 0452 22000000 		.4byte	.LVL52
 4471 0456 35000000 		.4byte	.LVL55-1
 4472 045a 0500     		.2byte	0x5
 4473 045c 71       		.byte	0x71
 4474 045d 00       		.sleb128 0
 4475 045e 38       		.byte	0x38
 4476 045f 25       		.byte	0x25
 4477 0460 9F       		.byte	0x9f
 4478 0461 00000000 		.4byte	0
 4479 0465 00000000 		.4byte	0
 4480              	.LLST31:
 4481 0469 1E000000 		.4byte	.LVL51
 4482 046d 22000000 		.4byte	.LVL52
 4483 0471 0A00     		.2byte	0xa
 4484 0473 70       		.byte	0x70
 4485 0474 00       		.sleb128 0
 4486 0475 70       		.byte	0x70
 4487 0476 00       		.sleb128 0
 4488 0477 38       		.byte	0x38
 4489 0478 25       		.byte	0x25
 4490 0479 38       		.byte	0x38
 4491 047a 24       		.byte	0x24
 4492 047b 1C       		.byte	0x1c
 4493 047c 9F       		.byte	0x9f
 4494 047d 22000000 		.4byte	.LVL52
 4495 0481 35000000 		.4byte	.LVL55-1
 4496 0485 0A00     		.2byte	0xa
 4497 0487 71       		.byte	0x71
 4498 0488 00       		.sleb128 0
 4499 0489 71       		.byte	0x71
 4500 048a 00       		.sleb128 0
 4501 048b 38       		.byte	0x38
 4502 048c 25       		.byte	0x25
 4503 048d 38       		.byte	0x38
 4504 048e 24       		.byte	0x24
 4505 048f 1C       		.byte	0x1c
 4506 0490 9F       		.byte	0x9f
ARM GAS  /tmp/ccSBomBp.s 			page 103


 4507 0491 00000000 		.4byte	0
 4508 0495 00000000 		.4byte	0
 4509              	.LLST32:
 4510 0499 1E000000 		.4byte	.LVL51
 4511 049d 36000000 		.4byte	.LVL56
 4512 04a1 0100     		.2byte	0x1
 4513 04a3 54       		.byte	0x54
 4514 04a4 36000000 		.4byte	.LVL56
 4515 04a8 38000000 		.4byte	.LFE204
 4516 04ac 0400     		.2byte	0x4
 4517 04ae F3       		.byte	0xf3
 4518 04af 01       		.uleb128 0x1
 4519 04b0 50       		.byte	0x50
 4520 04b1 9F       		.byte	0x9f
 4521 04b2 00000000 		.4byte	0
 4522 04b6 00000000 		.4byte	0
 4523              	.LLST33:
 4524 04ba 2A000000 		.4byte	.LVL53
 4525 04be 36000000 		.4byte	.LVL56
 4526 04c2 0100     		.2byte	0x1
 4527 04c4 54       		.byte	0x54
 4528 04c5 36000000 		.4byte	.LVL56
 4529 04c9 38000000 		.4byte	.LFE204
 4530 04cd 0400     		.2byte	0x4
 4531 04cf F3       		.byte	0xf3
 4532 04d0 01       		.uleb128 0x1
 4533 04d1 50       		.byte	0x50
 4534 04d2 9F       		.byte	0x9f
 4535 04d3 00000000 		.4byte	0
 4536 04d7 00000000 		.4byte	0
 4537              	.LLST34:
 4538 04db 00000000 		.4byte	.LVL58
 4539 04df 06000000 		.4byte	.LVL59
 4540 04e3 0100     		.2byte	0x1
 4541 04e5 50       		.byte	0x50
 4542 04e6 06000000 		.4byte	.LVL59
 4543 04ea 1C000000 		.4byte	.LVL63
 4544 04ee 0100     		.2byte	0x1
 4545 04f0 54       		.byte	0x54
 4546 04f1 1C000000 		.4byte	.LVL63
 4547 04f5 1E000000 		.4byte	.LFE205
 4548 04f9 0400     		.2byte	0x4
 4549 04fb F3       		.byte	0xf3
 4550 04fc 01       		.uleb128 0x1
 4551 04fd 50       		.byte	0x50
 4552 04fe 9F       		.byte	0x9f
 4553 04ff 00000000 		.4byte	0
 4554 0503 00000000 		.4byte	0
 4555              	.LLST35:
 4556 0507 00000000 		.4byte	.LVL58
 4557 050b 06000000 		.4byte	.LVL59
 4558 050f 0100     		.2byte	0x1
 4559 0511 51       		.byte	0x51
 4560 0512 06000000 		.4byte	.LVL59
 4561 0516 1C000000 		.4byte	.LVL64
 4562 051a 0100     		.2byte	0x1
 4563 051c 55       		.byte	0x55
ARM GAS  /tmp/ccSBomBp.s 			page 104


 4564 051d 1C000000 		.4byte	.LVL64
 4565 0521 1E000000 		.4byte	.LFE205
 4566 0525 0400     		.2byte	0x4
 4567 0527 F3       		.byte	0xf3
 4568 0528 01       		.uleb128 0x1
 4569 0529 51       		.byte	0x51
 4570 052a 9F       		.byte	0x9f
 4571 052b 00000000 		.4byte	0
 4572 052f 00000000 		.4byte	0
 4573              	.LLST36:
 4574 0533 06000000 		.4byte	.LVL59
 4575 0537 1C000000 		.4byte	.LVL63
 4576 053b 0100     		.2byte	0x1
 4577 053d 54       		.byte	0x54
 4578 053e 1C000000 		.4byte	.LVL63
 4579 0542 1E000000 		.4byte	.LFE205
 4580 0546 0400     		.2byte	0x4
 4581 0548 F3       		.byte	0xf3
 4582 0549 01       		.uleb128 0x1
 4583 054a 50       		.byte	0x50
 4584 054b 9F       		.byte	0x9f
 4585 054c 00000000 		.4byte	0
 4586 0550 00000000 		.4byte	0
 4587              	.LLST37:
 4588 0554 0C000000 		.4byte	.LVL60
 4589 0558 1C000000 		.4byte	.LVL62
 4590 055c 0100     		.2byte	0x1
 4591 055e 54       		.byte	0x54
 4592 055f 00000000 		.4byte	0
 4593 0563 00000000 		.4byte	0
 4594              	.LLST38:
 4595 0567 00000000 		.4byte	.LVL65
 4596 056b 06000000 		.4byte	.LVL66
 4597 056f 0100     		.2byte	0x1
 4598 0571 50       		.byte	0x50
 4599 0572 06000000 		.4byte	.LVL66
 4600 0576 22000000 		.4byte	.LVL70
 4601 057a 0100     		.2byte	0x1
 4602 057c 55       		.byte	0x55
 4603 057d 22000000 		.4byte	.LVL70
 4604 0581 24000000 		.4byte	.LFE206
 4605 0585 0400     		.2byte	0x4
 4606 0587 F3       		.byte	0xf3
 4607 0588 01       		.uleb128 0x1
 4608 0589 50       		.byte	0x50
 4609 058a 9F       		.byte	0x9f
 4610 058b 00000000 		.4byte	0
 4611 058f 00000000 		.4byte	0
 4612              	.LLST39:
 4613 0593 00000000 		.4byte	.LVL65
 4614 0597 06000000 		.4byte	.LVL66
 4615 059b 0100     		.2byte	0x1
 4616 059d 51       		.byte	0x51
 4617 059e 06000000 		.4byte	.LVL66
 4618 05a2 22000000 		.4byte	.LVL71
 4619 05a6 0100     		.2byte	0x1
 4620 05a8 56       		.byte	0x56
ARM GAS  /tmp/ccSBomBp.s 			page 105


 4621 05a9 22000000 		.4byte	.LVL71
 4622 05ad 24000000 		.4byte	.LFE206
 4623 05b1 0400     		.2byte	0x4
 4624 05b3 F3       		.byte	0xf3
 4625 05b4 01       		.uleb128 0x1
 4626 05b5 51       		.byte	0x51
 4627 05b6 9F       		.byte	0x9f
 4628 05b7 00000000 		.4byte	0
 4629 05bb 00000000 		.4byte	0
 4630              	.LLST40:
 4631 05bf 06000000 		.4byte	.LVL66
 4632 05c3 22000000 		.4byte	.LVL70
 4633 05c7 0100     		.2byte	0x1
 4634 05c9 55       		.byte	0x55
 4635 05ca 22000000 		.4byte	.LVL70
 4636 05ce 24000000 		.4byte	.LFE206
 4637 05d2 0400     		.2byte	0x4
 4638 05d4 F3       		.byte	0xf3
 4639 05d5 01       		.uleb128 0x1
 4640 05d6 50       		.byte	0x50
 4641 05d7 9F       		.byte	0x9f
 4642 05d8 00000000 		.4byte	0
 4643 05dc 00000000 		.4byte	0
 4644              	.LLST41:
 4645 05e0 1C000000 		.4byte	.LVL68
 4646 05e4 22000000 		.4byte	.LVL69
 4647 05e8 0200     		.2byte	0x2
 4648 05ea 91       		.byte	0x91
 4649 05eb 6F       		.sleb128 -17
 4650 05ec 00000000 		.4byte	0
 4651 05f0 00000000 		.4byte	0
 4652              	.LLST42:
 4653 05f4 1C000000 		.4byte	.LVL68
 4654 05f8 22000000 		.4byte	.LVL69
 4655 05fc 0100     		.2byte	0x1
 4656 05fe 55       		.byte	0x55
 4657 05ff 00000000 		.4byte	0
 4658 0603 00000000 		.4byte	0
 4659              	.LLST43:
 4660 0607 00000000 		.4byte	.LVL72
 4661 060b 16000000 		.4byte	.LVL76
 4662 060f 0100     		.2byte	0x1
 4663 0611 50       		.byte	0x50
 4664 0612 16000000 		.4byte	.LVL76
 4665 0616 3C000000 		.4byte	.LVL84
 4666 061a 0100     		.2byte	0x1
 4667 061c 55       		.byte	0x55
 4668 061d 3C000000 		.4byte	.LVL84
 4669 0621 3E000000 		.4byte	.LFE207
 4670 0625 0400     		.2byte	0x4
 4671 0627 F3       		.byte	0xf3
 4672 0628 01       		.uleb128 0x1
 4673 0629 50       		.byte	0x50
 4674 062a 9F       		.byte	0x9f
 4675 062b 00000000 		.4byte	0
 4676 062f 00000000 		.4byte	0
 4677              	.LLST44:
ARM GAS  /tmp/ccSBomBp.s 			page 106


 4678 0633 00000000 		.4byte	.LVL72
 4679 0637 18000000 		.4byte	.LVL77
 4680 063b 0100     		.2byte	0x1
 4681 063d 51       		.byte	0x51
 4682 063e 18000000 		.4byte	.LVL77
 4683 0642 1B000000 		.4byte	.LVL78-1
 4684 0646 0100     		.2byte	0x1
 4685 0648 50       		.byte	0x50
 4686 0649 1B000000 		.4byte	.LVL78-1
 4687 064d 3C000000 		.4byte	.LVL86
 4688 0651 0100     		.2byte	0x1
 4689 0653 57       		.byte	0x57
 4690 0654 3C000000 		.4byte	.LVL86
 4691 0658 3E000000 		.4byte	.LFE207
 4692 065c 0400     		.2byte	0x4
 4693 065e F3       		.byte	0xf3
 4694 065f 01       		.uleb128 0x1
 4695 0660 51       		.byte	0x51
 4696 0661 9F       		.byte	0x9f
 4697 0662 00000000 		.4byte	0
 4698 0666 00000000 		.4byte	0
 4699              	.LLST45:
 4700 066a 00000000 		.4byte	.LVL72
 4701 066e 06000000 		.4byte	.LVL74
 4702 0672 0100     		.2byte	0x1
 4703 0674 52       		.byte	0x52
 4704 0675 06000000 		.4byte	.LVL74
 4705 0679 3C000000 		.4byte	.LVL85
 4706 067d 0100     		.2byte	0x1
 4707 067f 56       		.byte	0x56
 4708 0680 3C000000 		.4byte	.LVL85
 4709 0684 3E000000 		.4byte	.LFE207
 4710 0688 0400     		.2byte	0x4
 4711 068a F3       		.byte	0xf3
 4712 068b 01       		.uleb128 0x1
 4713 068c 52       		.byte	0x52
 4714 068d 9F       		.byte	0x9f
 4715 068e 00000000 		.4byte	0
 4716 0692 00000000 		.4byte	0
 4717              	.LLST46:
 4718 0696 00000000 		.4byte	.LVL72
 4719 069a 0A000000 		.4byte	.LVL75
 4720 069e 0100     		.2byte	0x1
 4721 06a0 53       		.byte	0x53
 4722 06a1 0A000000 		.4byte	.LVL75
 4723 06a5 3E000000 		.4byte	.LFE207
 4724 06a9 0200     		.2byte	0x2
 4725 06ab 91       		.byte	0x91
 4726 06ac 64       		.sleb128 -28
 4727 06ad 00000000 		.4byte	0
 4728 06b1 00000000 		.4byte	0
 4729              	.LLST47:
 4730 06b5 1E000000 		.4byte	.LVL79
 4731 06b9 22000000 		.4byte	.LVL80
 4732 06bd 0100     		.2byte	0x1
 4733 06bf 50       		.byte	0x50
 4734 06c0 22000000 		.4byte	.LVL80
ARM GAS  /tmp/ccSBomBp.s 			page 107


 4735 06c4 32000000 		.4byte	.LVL82
 4736 06c8 0100     		.2byte	0x1
 4737 06ca 54       		.byte	0x54
 4738 06cb 32000000 		.4byte	.LVL82
 4739 06cf 38000000 		.4byte	.LVL83
 4740 06d3 0600     		.2byte	0x6
 4741 06d5 70       		.byte	0x70
 4742 06d6 00       		.sleb128 0
 4743 06d7 74       		.byte	0x74
 4744 06d8 00       		.sleb128 0
 4745 06d9 22       		.byte	0x22
 4746 06da 9F       		.byte	0x9f
 4747 06db 38000000 		.4byte	.LVL83
 4748 06df 3E000000 		.4byte	.LFE207
 4749 06e3 0100     		.2byte	0x1
 4750 06e5 50       		.byte	0x50
 4751 06e6 00000000 		.4byte	0
 4752 06ea 00000000 		.4byte	0
 4753              	.LLST48:
 4754 06ee 04000000 		.4byte	.LVL73
 4755 06f2 06000000 		.4byte	.LVL74
 4756 06f6 0100     		.2byte	0x1
 4757 06f8 52       		.byte	0x52
 4758 06f9 06000000 		.4byte	.LVL74
 4759 06fd 3C000000 		.4byte	.LVL85
 4760 0701 0100     		.2byte	0x1
 4761 0703 56       		.byte	0x56
 4762 0704 3C000000 		.4byte	.LVL85
 4763 0708 3E000000 		.4byte	.LFE207
 4764 070c 0400     		.2byte	0x4
 4765 070e F3       		.byte	0xf3
 4766 070f 01       		.uleb128 0x1
 4767 0710 52       		.byte	0x52
 4768 0711 9F       		.byte	0x9f
 4769 0712 00000000 		.4byte	0
 4770 0716 00000000 		.4byte	0
 4771              	.LLST49:
 4772 071a 04000000 		.4byte	.LVL73
 4773 071e 16000000 		.4byte	.LVL76
 4774 0722 0100     		.2byte	0x1
 4775 0724 50       		.byte	0x50
 4776 0725 16000000 		.4byte	.LVL76
 4777 0729 3C000000 		.4byte	.LVL84
 4778 072d 0100     		.2byte	0x1
 4779 072f 55       		.byte	0x55
 4780 0730 3C000000 		.4byte	.LVL84
 4781 0734 3E000000 		.4byte	.LFE207
 4782 0738 0400     		.2byte	0x4
 4783 073a F3       		.byte	0xf3
 4784 073b 01       		.uleb128 0x1
 4785 073c 50       		.byte	0x50
 4786 073d 9F       		.byte	0x9f
 4787 073e 00000000 		.4byte	0
 4788 0742 00000000 		.4byte	0
 4789              	.LLST50:
 4790 0746 32000000 		.4byte	.LVL82
 4791 074a 3C000000 		.4byte	.LVL84
ARM GAS  /tmp/ccSBomBp.s 			page 108


 4792 074e 0100     		.2byte	0x1
 4793 0750 55       		.byte	0x55
 4794 0751 3C000000 		.4byte	.LVL84
 4795 0755 3E000000 		.4byte	.LFE207
 4796 0759 0400     		.2byte	0x4
 4797 075b F3       		.byte	0xf3
 4798 075c 01       		.uleb128 0x1
 4799 075d 50       		.byte	0x50
 4800 075e 9F       		.byte	0x9f
 4801 075f 00000000 		.4byte	0
 4802 0763 00000000 		.4byte	0
 4803              	.LLST51:
 4804 0767 00000000 		.4byte	.LVL87
 4805 076b 04000000 		.4byte	.LVL88
 4806 076f 0100     		.2byte	0x1
 4807 0771 50       		.byte	0x50
 4808 0772 04000000 		.4byte	.LVL88
 4809 0776 0E000000 		.4byte	.LFE208
 4810 077a 0400     		.2byte	0x4
 4811 077c F3       		.byte	0xf3
 4812 077d 01       		.uleb128 0x1
 4813 077e 50       		.byte	0x50
 4814 077f 9F       		.byte	0x9f
 4815 0780 00000000 		.4byte	0
 4816 0784 00000000 		.4byte	0
 4817              	.LLST52:
 4818 0788 00000000 		.4byte	.LVL87
 4819 078c 06000000 		.4byte	.LVL89
 4820 0790 0100     		.2byte	0x1
 4821 0792 51       		.byte	0x51
 4822 0793 06000000 		.4byte	.LVL89
 4823 0797 0B000000 		.4byte	.LVL91-1
 4824 079b 0100     		.2byte	0x1
 4825 079d 50       		.byte	0x50
 4826 079e 0B000000 		.4byte	.LVL91-1
 4827 07a2 0E000000 		.4byte	.LFE208
 4828 07a6 0400     		.2byte	0x4
 4829 07a8 F3       		.byte	0xf3
 4830 07a9 01       		.uleb128 0x1
 4831 07aa 51       		.byte	0x51
 4832 07ab 9F       		.byte	0x9f
 4833 07ac 00000000 		.4byte	0
 4834 07b0 00000000 		.4byte	0
 4835              	.LLST53:
 4836 07b4 00000000 		.4byte	.LVL87
 4837 07b8 08000000 		.4byte	.LVL90
 4838 07bc 0100     		.2byte	0x1
 4839 07be 52       		.byte	0x52
 4840 07bf 08000000 		.4byte	.LVL90
 4841 07c3 0B000000 		.4byte	.LVL91-1
 4842 07c7 0100     		.2byte	0x1
 4843 07c9 51       		.byte	0x51
 4844 07ca 0B000000 		.4byte	.LVL91-1
 4845 07ce 0E000000 		.4byte	.LFE208
 4846 07d2 0400     		.2byte	0x4
 4847 07d4 F3       		.byte	0xf3
 4848 07d5 01       		.uleb128 0x1
ARM GAS  /tmp/ccSBomBp.s 			page 109


 4849 07d6 52       		.byte	0x52
 4850 07d7 9F       		.byte	0x9f
 4851 07d8 00000000 		.4byte	0
 4852 07dc 00000000 		.4byte	0
 4853              	.LLST54:
 4854 07e0 00000000 		.4byte	.LVL87
 4855 07e4 0B000000 		.4byte	.LVL91-1
 4856 07e8 0100     		.2byte	0x1
 4857 07ea 53       		.byte	0x53
 4858 07eb 0B000000 		.4byte	.LVL91-1
 4859 07ef 0E000000 		.4byte	.LFE208
 4860 07f3 0400     		.2byte	0x4
 4861 07f5 F3       		.byte	0xf3
 4862 07f6 01       		.uleb128 0x1
 4863 07f7 53       		.byte	0x53
 4864 07f8 9F       		.byte	0x9f
 4865 07f9 00000000 		.4byte	0
 4866 07fd 00000000 		.4byte	0
 4867              	.LLST55:
 4868 0801 00000000 		.4byte	.LVL92
 4869 0805 15000000 		.4byte	.LVL94-1
 4870 0809 0100     		.2byte	0x1
 4871 080b 50       		.byte	0x50
 4872 080c 15000000 		.4byte	.LVL94-1
 4873 0810 2C000000 		.4byte	.LVL98
 4874 0814 0100     		.2byte	0x1
 4875 0816 54       		.byte	0x54
 4876 0817 2C000000 		.4byte	.LVL98
 4877 081b 2E000000 		.4byte	.LFE209
 4878 081f 0400     		.2byte	0x4
 4879 0821 F3       		.byte	0xf3
 4880 0822 01       		.uleb128 0x1
 4881 0823 50       		.byte	0x50
 4882 0824 9F       		.byte	0x9f
 4883 0825 00000000 		.4byte	0
 4884 0829 00000000 		.4byte	0
 4885              	.LLST56:
 4886 082d 00000000 		.4byte	.LVL92
 4887 0831 12000000 		.4byte	.LVL93
 4888 0835 0100     		.2byte	0x1
 4889 0837 51       		.byte	0x51
 4890 0838 12000000 		.4byte	.LVL93
 4891 083c 2C000000 		.4byte	.LVL99
 4892 0840 0100     		.2byte	0x1
 4893 0842 55       		.byte	0x55
 4894 0843 2C000000 		.4byte	.LVL99
 4895 0847 2E000000 		.4byte	.LFE209
 4896 084b 0400     		.2byte	0x4
 4897 084d F3       		.byte	0xf3
 4898 084e 01       		.uleb128 0x1
 4899 084f 51       		.byte	0x51
 4900 0850 9F       		.byte	0x9f
 4901 0851 00000000 		.4byte	0
 4902 0855 00000000 		.4byte	0
 4903              	.LLST57:
 4904 0859 00000000 		.4byte	.LVL92
 4905 085d 15000000 		.4byte	.LVL94-1
ARM GAS  /tmp/ccSBomBp.s 			page 110


 4906 0861 0100     		.2byte	0x1
 4907 0863 52       		.byte	0x52
 4908 0864 15000000 		.4byte	.LVL94-1
 4909 0868 2C000000 		.4byte	.LVL100
 4910 086c 0100     		.2byte	0x1
 4911 086e 57       		.byte	0x57
 4912 086f 2C000000 		.4byte	.LVL100
 4913 0873 2E000000 		.4byte	.LFE209
 4914 0877 0400     		.2byte	0x4
 4915 0879 F3       		.byte	0xf3
 4916 087a 01       		.uleb128 0x1
 4917 087b 52       		.byte	0x52
 4918 087c 9F       		.byte	0x9f
 4919 087d 00000000 		.4byte	0
 4920 0881 00000000 		.4byte	0
 4921              	.LLST58:
 4922 0885 16000000 		.4byte	.LVL94
 4923 0889 24000000 		.4byte	.LVL96
 4924 088d 0100     		.2byte	0x1
 4925 088f 57       		.byte	0x57
 4926 0890 00000000 		.4byte	0
 4927 0894 00000000 		.4byte	0
 4928              	.LLST59:
 4929 0898 1E000000 		.4byte	.LVL95
 4930 089c 24000000 		.4byte	.LVL96
 4931 08a0 0200     		.2byte	0x2
 4932 08a2 32       		.byte	0x32
 4933 08a3 9F       		.byte	0x9f
 4934 08a4 00000000 		.4byte	0
 4935 08a8 00000000 		.4byte	0
 4936              	.LLST60:
 4937 08ac 1E000000 		.4byte	.LVL95
 4938 08b0 24000000 		.4byte	.LVL96
 4939 08b4 0100     		.2byte	0x1
 4940 08b6 54       		.byte	0x54
 4941 08b7 00000000 		.4byte	0
 4942 08bb 00000000 		.4byte	0
 4943              	.LLST61:
 4944 08bf 00000000 		.4byte	.LVL101
 4945 08c3 09000000 		.4byte	.LVL103-1
 4946 08c7 0100     		.2byte	0x1
 4947 08c9 50       		.byte	0x50
 4948 08ca 09000000 		.4byte	.LVL103-1
 4949 08ce 7A000000 		.4byte	.LVL123
 4950 08d2 0100     		.2byte	0x1
 4951 08d4 56       		.byte	0x56
 4952 08d5 7A000000 		.4byte	.LVL123
 4953 08d9 7C000000 		.4byte	.LFE210
 4954 08dd 0400     		.2byte	0x4
 4955 08df F3       		.byte	0xf3
 4956 08e0 01       		.uleb128 0x1
 4957 08e1 50       		.byte	0x50
 4958 08e2 9F       		.byte	0x9f
 4959 08e3 00000000 		.4byte	0
 4960 08e7 00000000 		.4byte	0
 4961              	.LLST62:
 4962 08eb 00000000 		.4byte	.LVL101
ARM GAS  /tmp/ccSBomBp.s 			page 111


 4963 08ef 09000000 		.4byte	.LVL103-1
 4964 08f3 0100     		.2byte	0x1
 4965 08f5 51       		.byte	0x51
 4966 08f6 09000000 		.4byte	.LVL103-1
 4967 08fa 7C000000 		.4byte	.LFE210
 4968 08fe 0400     		.2byte	0x4
 4969 0900 F3       		.byte	0xf3
 4970 0901 01       		.uleb128 0x1
 4971 0902 51       		.byte	0x51
 4972 0903 9F       		.byte	0x9f
 4973 0904 00000000 		.4byte	0
 4974 0908 00000000 		.4byte	0
 4975              	.LLST63:
 4976 090c 0E000000 		.4byte	.LVL104
 4977 0910 11000000 		.4byte	.LVL105-1
 4978 0914 0100     		.2byte	0x1
 4979 0916 50       		.byte	0x50
 4980 0917 11000000 		.4byte	.LVL105-1
 4981 091b 7A000000 		.4byte	.LVL124
 4982 091f 0100     		.2byte	0x1
 4983 0921 57       		.byte	0x57
 4984 0922 00000000 		.4byte	0
 4985 0926 00000000 		.4byte	0
 4986              	.LLST64:
 4987 092a 16000000 		.4byte	.LVL106
 4988 092e 1F000000 		.4byte	.LVL107-1
 4989 0932 0100     		.2byte	0x1
 4990 0934 51       		.byte	0x51
 4991 0935 1F000000 		.4byte	.LVL107-1
 4992 0939 20000000 		.4byte	.LVL107
 4993 093d 0100     		.2byte	0x1
 4994 093f 54       		.byte	0x54
 4995 0940 20000000 		.4byte	.LVL107
 4996 0944 28000000 		.4byte	.LVL108
 4997 0948 0200     		.2byte	0x2
 4998 094a 31       		.byte	0x31
 4999 094b 9F       		.byte	0x9f
 5000 094c 28000000 		.4byte	.LVL108
 5001 0950 7A000000 		.4byte	.LVL122
 5002 0954 0100     		.2byte	0x1
 5003 0956 54       		.byte	0x54
 5004 0957 00000000 		.4byte	0
 5005 095b 00000000 		.4byte	0
 5006              	.LLST65:
 5007 095f 00000000 		.4byte	.LVL101
 5008 0963 20000000 		.4byte	.LVL107
 5009 0967 0200     		.2byte	0x2
 5010 0969 30       		.byte	0x30
 5011 096a 9F       		.byte	0x9f
 5012 096b 20000000 		.4byte	.LVL107
 5013 096f 2C000000 		.4byte	.LVL109
 5014 0973 0100     		.2byte	0x1
 5015 0975 50       		.byte	0x50
 5016 0976 2E000000 		.4byte	.LVL110
 5017 097a 30000000 		.4byte	.LVL111
 5018 097e 0100     		.2byte	0x1
 5019 0980 50       		.byte	0x50
ARM GAS  /tmp/ccSBomBp.s 			page 112


 5020 0981 30000000 		.4byte	.LVL111
 5021 0985 7C000000 		.4byte	.LFE210
 5022 0989 0200     		.2byte	0x2
 5023 098b 91       		.byte	0x91
 5024 098c 64       		.sleb128 -28
 5025 098d 00000000 		.4byte	0
 5026 0991 00000000 		.4byte	0
 5027              	.LLST66:
 5028 0995 4E000000 		.4byte	.LVL114
 5029 0999 5C000000 		.4byte	.LVL116
 5030 099d 0100     		.2byte	0x1
 5031 099f 50       		.byte	0x50
 5032 09a0 5C000000 		.4byte	.LVL116
 5033 09a4 72000000 		.4byte	.LVL120
 5034 09a8 0100     		.2byte	0x1
 5035 09aa 55       		.byte	0x55
 5036 09ab 00000000 		.4byte	0
 5037 09af 00000000 		.4byte	0
 5038              	.LLST67:
 5039 09b3 04000000 		.4byte	.LVL102
 5040 09b7 4E000000 		.4byte	.LVL114
 5041 09bb 0100     		.2byte	0x1
 5042 09bd 55       		.byte	0x55
 5043 09be 4E000000 		.4byte	.LVL114
 5044 09c2 7C000000 		.4byte	.LFE210
 5045 09c6 0600     		.2byte	0x6
 5046 09c8 F3       		.byte	0xf3
 5047 09c9 01       		.uleb128 0x1
 5048 09ca 51       		.byte	0x51
 5049 09cb 34       		.byte	0x34
 5050 09cc 24       		.byte	0x24
 5051 09cd 9F       		.byte	0x9f
 5052 09ce 00000000 		.4byte	0
 5053 09d2 00000000 		.4byte	0
 5054              	.LLST68:
 5055 09d6 04000000 		.4byte	.LVL102
 5056 09da 6A000000 		.4byte	.LVL117
 5057 09de 0200     		.2byte	0x2
 5058 09e0 30       		.byte	0x30
 5059 09e1 9F       		.byte	0x9f
 5060 09e2 6A000000 		.4byte	.LVL117
 5061 09e6 6C000000 		.4byte	.LVL118
 5062 09ea 1E00     		.2byte	0x1e
 5063 09ec 77       		.byte	0x77
 5064 09ed 00       		.sleb128 0
 5065 09ee F7       		.byte	0xf7
 5066 09ef 29       		.uleb128 0x29
 5067 09f0 70       		.byte	0x70
 5068 09f1 00       		.sleb128 0
 5069 09f2 75       		.byte	0x75
 5070 09f3 00       		.sleb128 0
 5071 09f4 1E       		.byte	0x1e
 5072 09f5 F7       		.byte	0xf7
 5073 09f6 29       		.uleb128 0x29
 5074 09f7 91       		.byte	0x91
 5075 09f8 64       		.sleb128 -28
 5076 09f9 06       		.byte	0x6
ARM GAS  /tmp/ccSBomBp.s 			page 113


 5077 09fa F7       		.byte	0xf7
 5078 09fb 29       		.uleb128 0x29
 5079 09fc 1B       		.byte	0x1b
 5080 09fd F7       		.byte	0xf7
 5081 09fe 00       		.uleb128 0
 5082 09ff 75       		.byte	0x75
 5083 0a00 00       		.sleb128 0
 5084 0a01 34       		.byte	0x34
 5085 0a02 24       		.byte	0x24
 5086 0a03 22       		.byte	0x22
 5087 0a04 F7       		.byte	0xf7
 5088 0a05 29       		.uleb128 0x29
 5089 0a06 1B       		.byte	0x1b
 5090 0a07 F7       		.byte	0xf7
 5091 0a08 00       		.uleb128 0
 5092 0a09 9F       		.byte	0x9f
 5093 0a0a 6C000000 		.4byte	.LVL118
 5094 0a0e 72000000 		.4byte	.LVL120
 5095 0a12 2000     		.2byte	0x20
 5096 0a14 77       		.byte	0x77
 5097 0a15 00       		.sleb128 0
 5098 0a16 F7       		.byte	0xf7
 5099 0a17 29       		.uleb128 0x29
 5100 0a18 74       		.byte	0x74
 5101 0a19 00       		.sleb128 0
 5102 0a1a 34       		.byte	0x34
 5103 0a1b 24       		.byte	0x24
 5104 0a1c 75       		.byte	0x75
 5105 0a1d 00       		.sleb128 0
 5106 0a1e 1E       		.byte	0x1e
 5107 0a1f F7       		.byte	0xf7
 5108 0a20 29       		.uleb128 0x29
 5109 0a21 91       		.byte	0x91
 5110 0a22 64       		.sleb128 -28
 5111 0a23 06       		.byte	0x6
 5112 0a24 F7       		.byte	0xf7
 5113 0a25 29       		.uleb128 0x29
 5114 0a26 1B       		.byte	0x1b
 5115 0a27 F7       		.byte	0xf7
 5116 0a28 00       		.uleb128 0
 5117 0a29 75       		.byte	0x75
 5118 0a2a 00       		.sleb128 0
 5119 0a2b 34       		.byte	0x34
 5120 0a2c 24       		.byte	0x24
 5121 0a2d 22       		.byte	0x22
 5122 0a2e F7       		.byte	0xf7
 5123 0a2f 29       		.uleb128 0x29
 5124 0a30 1B       		.byte	0x1b
 5125 0a31 F7       		.byte	0xf7
 5126 0a32 00       		.uleb128 0
 5127 0a33 9F       		.byte	0x9f
 5128 0a34 00000000 		.4byte	0
 5129 0a38 00000000 		.4byte	0
 5130              	.LLST69:
 5131 0a3c 4E000000 		.4byte	.LVL114
 5132 0a40 7A000000 		.4byte	.LVL123
 5133 0a44 0100     		.2byte	0x1
ARM GAS  /tmp/ccSBomBp.s 			page 114


 5134 0a46 56       		.byte	0x56
 5135 0a47 7A000000 		.4byte	.LVL123
 5136 0a4b 7C000000 		.4byte	.LFE210
 5137 0a4f 0400     		.2byte	0x4
 5138 0a51 F3       		.byte	0xf3
 5139 0a52 01       		.uleb128 0x1
 5140 0a53 50       		.byte	0x50
 5141 0a54 9F       		.byte	0x9f
 5142 0a55 00000000 		.4byte	0
 5143 0a59 00000000 		.4byte	0
 5144              	.LLST70:
 5145 0a5d 4E000000 		.4byte	.LVL114
 5146 0a61 5C000000 		.4byte	.LVL116
 5147 0a65 0500     		.2byte	0x5
 5148 0a67 70       		.byte	0x70
 5149 0a68 00       		.sleb128 0
 5150 0a69 38       		.byte	0x38
 5151 0a6a 25       		.byte	0x25
 5152 0a6b 9F       		.byte	0x9f
 5153 0a6c 5C000000 		.4byte	.LVL116
 5154 0a70 72000000 		.4byte	.LVL120
 5155 0a74 0500     		.2byte	0x5
 5156 0a76 75       		.byte	0x75
 5157 0a77 00       		.sleb128 0
 5158 0a78 38       		.byte	0x38
 5159 0a79 25       		.byte	0x25
 5160 0a7a 9F       		.byte	0x9f
 5161 0a7b 00000000 		.4byte	0
 5162 0a7f 00000000 		.4byte	0
 5163              	.LLST71:
 5164 0a83 4E000000 		.4byte	.LVL114
 5165 0a87 5C000000 		.4byte	.LVL116
 5166 0a8b 0100     		.2byte	0x1
 5167 0a8d 50       		.byte	0x50
 5168 0a8e 00000000 		.4byte	0
 5169 0a92 00000000 		.4byte	0
 5170              	.LLST73:
 5171 0a96 58000000 		.4byte	.LVL115
 5172 0a9a 7A000000 		.4byte	.LVL123
 5173 0a9e 0100     		.2byte	0x1
 5174 0aa0 56       		.byte	0x56
 5175 0aa1 7A000000 		.4byte	.LVL123
 5176 0aa5 7C000000 		.4byte	.LFE210
 5177 0aa9 0400     		.2byte	0x4
 5178 0aab F3       		.byte	0xf3
 5179 0aac 01       		.uleb128 0x1
 5180 0aad 50       		.byte	0x50
 5181 0aae 9F       		.byte	0x9f
 5182 0aaf 00000000 		.4byte	0
 5183 0ab3 00000000 		.4byte	0
 5184              		.section	.debug_aranges,"",%progbits
 5185 0000 7C000000 		.4byte	0x7c
 5186 0004 0200     		.2byte	0x2
 5187 0006 00000000 		.4byte	.Ldebug_info0
 5188 000a 04       		.byte	0x4
 5189 000b 00       		.byte	0
 5190 000c 0000     		.2byte	0
ARM GAS  /tmp/ccSBomBp.s 			page 115


 5191 000e 0000     		.2byte	0
 5192 0010 00000000 		.4byte	.LFB198
 5193 0014 28000000 		.4byte	.LFE198-.LFB198
 5194 0018 00000000 		.4byte	.LFB199
 5195 001c 14000000 		.4byte	.LFE199-.LFB199
 5196 0020 00000000 		.4byte	.LFB200
 5197 0024 1A000000 		.4byte	.LFE200-.LFB200
 5198 0028 00000000 		.4byte	.LFB201
 5199 002c 24000000 		.4byte	.LFE201-.LFB201
 5200 0030 00000000 		.4byte	.LFB202
 5201 0034 1A000000 		.4byte	.LFE202-.LFB202
 5202 0038 00000000 		.4byte	.LFB203
 5203 003c 24000000 		.4byte	.LFE203-.LFB203
 5204 0040 00000000 		.4byte	.LFB204
 5205 0044 38000000 		.4byte	.LFE204-.LFB204
 5206 0048 00000000 		.4byte	.LFB205
 5207 004c 1E000000 		.4byte	.LFE205-.LFB205
 5208 0050 00000000 		.4byte	.LFB206
 5209 0054 24000000 		.4byte	.LFE206-.LFB206
 5210 0058 00000000 		.4byte	.LFB207
 5211 005c 3E000000 		.4byte	.LFE207-.LFB207
 5212 0060 00000000 		.4byte	.LFB208
 5213 0064 0E000000 		.4byte	.LFE208-.LFB208
 5214 0068 00000000 		.4byte	.LFB209
 5215 006c 2E000000 		.4byte	.LFE209-.LFB209
 5216 0070 00000000 		.4byte	.LFB210
 5217 0074 7C000000 		.4byte	.LFE210-.LFB210
 5218 0078 00000000 		.4byte	0
 5219 007c 00000000 		.4byte	0
 5220              		.section	.debug_ranges,"",%progbits
 5221              	.Ldebug_ranges0:
 5222 0000 02000000 		.4byte	.LBB53
 5223 0004 0C000000 		.4byte	.LBE53
 5224 0008 0E000000 		.4byte	.LBB59
 5225 000c 12000000 		.4byte	.LBE59
 5226 0010 00000000 		.4byte	0
 5227 0014 00000000 		.4byte	0
 5228 0018 0C000000 		.4byte	.LBB56
 5229 001c 0E000000 		.4byte	.LBE56
 5230 0020 12000000 		.4byte	.LBB60
 5231 0024 16000000 		.4byte	.LBE60
 5232 0028 00000000 		.4byte	0
 5233 002c 00000000 		.4byte	0
 5234 0030 00000000 		.4byte	.LBB67
 5235 0034 06000000 		.4byte	.LBE67
 5236 0038 06000000 		.4byte	.LBB70
 5237 003c 0A000000 		.4byte	.LBE70
 5238 0040 00000000 		.4byte	0
 5239 0044 00000000 		.4byte	0
 5240 0048 0E000000 		.4byte	.LBB73
 5241 004c 10000000 		.4byte	.LBE73
 5242 0050 12000000 		.4byte	.LBB76
 5243 0054 16000000 		.4byte	.LBE76
 5244 0058 00000000 		.4byte	0
 5245 005c 00000000 		.4byte	0
 5246 0060 12000000 		.4byte	.LBB81
 5247 0064 14000000 		.4byte	.LBE81
ARM GAS  /tmp/ccSBomBp.s 			page 116


 5248 0068 16000000 		.4byte	.LBB85
 5249 006c 18000000 		.4byte	.LBE85
 5250 0070 1A000000 		.4byte	.LBB90
 5251 0074 1E000000 		.4byte	.LBE90
 5252 0078 00000000 		.4byte	0
 5253 007c 00000000 		.4byte	0
 5254 0080 18000000 		.4byte	.LBB86
 5255 0084 1A000000 		.4byte	.LBE86
 5256 0088 1E000000 		.4byte	.LBB91
 5257 008c 20000000 		.4byte	.LBE91
 5258 0090 22000000 		.4byte	.LBB92
 5259 0094 2A000000 		.4byte	.LBE92
 5260 0098 00000000 		.4byte	0
 5261 009c 00000000 		.4byte	0
 5262 00a0 2A000000 		.4byte	.LBB93
 5263 00a4 2C000000 		.4byte	.LBE93
 5264 00a8 2E000000 		.4byte	.LBB96
 5265 00ac 32000000 		.4byte	.LBE96
 5266 00b0 00000000 		.4byte	0
 5267 00b4 00000000 		.4byte	0
 5268 00b8 04000000 		.4byte	.LBB106
 5269 00bc 06000000 		.4byte	.LBE106
 5270 00c0 08000000 		.4byte	.LBB111
 5271 00c4 0A000000 		.4byte	.LBE111
 5272 00c8 0C000000 		.4byte	.LBB112
 5273 00cc 0E000000 		.4byte	.LBE112
 5274 00d0 10000000 		.4byte	.LBB113
 5275 00d4 12000000 		.4byte	.LBE113
 5276 00d8 00000000 		.4byte	0
 5277 00dc 00000000 		.4byte	0
 5278 00e0 32000000 		.4byte	.LBB114
 5279 00e4 36000000 		.4byte	.LBE114
 5280 00e8 38000000 		.4byte	.LBB117
 5281 00ec 3C000000 		.4byte	.LBE117
 5282 00f0 00000000 		.4byte	0
 5283 00f4 00000000 		.4byte	0
 5284 00f8 40000000 		.4byte	.LBB122
 5285 00fc 44000000 		.4byte	.LBE122
 5286 0100 46000000 		.4byte	.LBB130
 5287 0104 4A000000 		.4byte	.LBE130
 5288 0108 00000000 		.4byte	0
 5289 010c 00000000 		.4byte	0
 5290 0110 44000000 		.4byte	.LBB125
 5291 0114 46000000 		.4byte	.LBE125
 5292 0118 4A000000 		.4byte	.LBB131
 5293 011c 4C000000 		.4byte	.LBE131
 5294 0120 4E000000 		.4byte	.LBB132
 5295 0124 52000000 		.4byte	.LBE132
 5296 0128 54000000 		.4byte	.LBB133
 5297 012c 58000000 		.4byte	.LBE133
 5298 0130 00000000 		.4byte	0
 5299 0134 00000000 		.4byte	0
 5300 0138 00000000 		.4byte	.LFB198
 5301 013c 28000000 		.4byte	.LFE198
 5302 0140 00000000 		.4byte	.LFB199
 5303 0144 14000000 		.4byte	.LFE199
 5304 0148 00000000 		.4byte	.LFB200
ARM GAS  /tmp/ccSBomBp.s 			page 117


 5305 014c 1A000000 		.4byte	.LFE200
 5306 0150 00000000 		.4byte	.LFB201
 5307 0154 24000000 		.4byte	.LFE201
 5308 0158 00000000 		.4byte	.LFB202
 5309 015c 1A000000 		.4byte	.LFE202
 5310 0160 00000000 		.4byte	.LFB203
 5311 0164 24000000 		.4byte	.LFE203
 5312 0168 00000000 		.4byte	.LFB204
 5313 016c 38000000 		.4byte	.LFE204
 5314 0170 00000000 		.4byte	.LFB205
 5315 0174 1E000000 		.4byte	.LFE205
 5316 0178 00000000 		.4byte	.LFB206
 5317 017c 24000000 		.4byte	.LFE206
 5318 0180 00000000 		.4byte	.LFB207
 5319 0184 3E000000 		.4byte	.LFE207
 5320 0188 00000000 		.4byte	.LFB208
 5321 018c 0E000000 		.4byte	.LFE208
 5322 0190 00000000 		.4byte	.LFB209
 5323 0194 2E000000 		.4byte	.LFE209
 5324 0198 00000000 		.4byte	.LFB210
 5325 019c 7C000000 		.4byte	.LFE210
 5326 01a0 00000000 		.4byte	0
 5327 01a4 00000000 		.4byte	0
 5328              		.section	.debug_macro,"",%progbits
 5329              	.Ldebug_macro0:
 5330 0000 0400     		.2byte	0x4
 5331 0002 02       		.byte	0x2
 5332 0003 00000000 		.4byte	.Ldebug_line0
 5333 0007 07       		.byte	0x7
 5334 0008 00000000 		.4byte	.Ldebug_macro1
 5335 000c 03       		.byte	0x3
 5336 000d 00       		.uleb128 0
 5337 000e 01       		.uleb128 0x1
 5338 000f 03       		.byte	0x3
 5339 0010 20       		.uleb128 0x20
 5340 0011 08       		.uleb128 0x8
 5341 0012 05       		.byte	0x5
 5342 0013 1E       		.uleb128 0x1e
 5343 0014 B6770000 		.4byte	.LASF346
 5344              		.file 9 "../../lpc11cx4-library/lpc_chip_11cxx_lib/inc/lpc_types.h"
 5345 0018 03       		.byte	0x3
 5346 0019 20       		.uleb128 0x20
 5347 001a 09       		.uleb128 0x9
 5348 001b 05       		.byte	0x5
 5349 001c 21       		.uleb128 0x21
 5350 001d 94220000 		.4byte	.LASF347
 5351              		.file 10 "/usr/lib/gcc/arm-none-eabi/4.9.3/include/stdint.h"
 5352 0021 03       		.byte	0x3
 5353 0022 23       		.uleb128 0x23
 5354 0023 0A       		.uleb128 0xa
 5355              		.file 11 "/usr/arm-none-eabi/include/stdint.h"
 5356 0024 03       		.byte	0x3
 5357 0025 09       		.uleb128 0x9
 5358 0026 0B       		.uleb128 0xb
 5359 0027 05       		.byte	0x5
 5360 0028 0A       		.uleb128 0xa
 5361 0029 C41C0000 		.4byte	.LASF348
ARM GAS  /tmp/ccSBomBp.s 			page 118


 5362 002d 03       		.byte	0x3
 5363 002e 0C       		.uleb128 0xc
 5364 002f 05       		.uleb128 0x5
 5365 0030 05       		.byte	0x5
 5366 0031 06       		.uleb128 0x6
 5367 0032 AA4F0000 		.4byte	.LASF349
 5368              		.file 12 "/usr/arm-none-eabi/include/sys/features.h"
 5369 0036 03       		.byte	0x3
 5370 0037 08       		.uleb128 0x8
 5371 0038 0C       		.uleb128 0xc
 5372 0039 07       		.byte	0x7
 5373 003a 00000000 		.4byte	.Ldebug_macro2
 5374 003e 04       		.byte	0x4
 5375 003f 07       		.byte	0x7
 5376 0040 00000000 		.4byte	.Ldebug_macro3
 5377 0044 04       		.byte	0x4
 5378              		.file 13 "/usr/arm-none-eabi/include/sys/_intsup.h"
 5379 0045 03       		.byte	0x3
 5380 0046 0D       		.uleb128 0xd
 5381 0047 0D       		.uleb128 0xd
 5382 0048 07       		.byte	0x7
 5383 0049 00000000 		.4byte	.Ldebug_macro4
 5384 004d 04       		.byte	0x4
 5385 004e 03       		.byte	0x3
 5386 004f 0E       		.uleb128 0xe
 5387 0050 06       		.uleb128 0x6
 5388 0051 07       		.byte	0x7
 5389 0052 00000000 		.4byte	.Ldebug_macro5
 5390 0056 04       		.byte	0x4
 5391 0057 07       		.byte	0x7
 5392 0058 00000000 		.4byte	.Ldebug_macro6
 5393 005c 04       		.byte	0x4
 5394 005d 05       		.byte	0x5
 5395 005e 0D       		.uleb128 0xd
 5396 005f 73640000 		.4byte	.LASF467
 5397 0063 04       		.byte	0x4
 5398              		.file 14 "/usr/lib/gcc/arm-none-eabi/4.9.3/include/stdbool.h"
 5399 0064 03       		.byte	0x3
 5400 0065 24       		.uleb128 0x24
 5401 0066 0E       		.uleb128 0xe
 5402 0067 07       		.byte	0x7
 5403 0068 00000000 		.4byte	.Ldebug_macro7
 5404 006c 04       		.byte	0x4
 5405 006d 07       		.byte	0x7
 5406 006e 00000000 		.4byte	.Ldebug_macro8
 5407 0072 04       		.byte	0x4
 5408              		.file 15 "../../lpc11cx4-library/lpc_chip_11cxx_lib/inc/sys_config.h"
 5409 0073 03       		.byte	0x3
 5410 0074 21       		.uleb128 0x21
 5411 0075 0F       		.uleb128 0xf
 5412 0076 07       		.byte	0x7
 5413 0077 00000000 		.4byte	.Ldebug_macro9
 5414 007b 04       		.byte	0x4
 5415              		.file 16 "../../lpc11cx4-library/lpc_chip_11cxx_lib/inc/cmsis.h"
 5416 007c 03       		.byte	0x3
 5417 007d 22       		.uleb128 0x22
 5418 007e 10       		.uleb128 0x10
ARM GAS  /tmp/ccSBomBp.s 			page 119


 5419 007f 05       		.byte	0x5
 5420 0080 1E       		.uleb128 0x1e
 5421 0081 E14E0000 		.4byte	.LASF490
 5422              		.file 17 "../../lpc11cx4-library/lpc_chip_11cxx_lib/inc/cmsis_11cxx.h"
 5423 0085 03       		.byte	0x3
 5424 0086 2E       		.uleb128 0x2e
 5425 0087 11       		.uleb128 0x11
 5426 0088 07       		.byte	0x7
 5427 0089 00000000 		.4byte	.Ldebug_macro10
 5428 008d 04       		.byte	0x4
 5429              		.file 18 "../../lpc11cx4-library/lpc_chip_11cxx_lib/inc/core_cm0.h"
 5430 008e 03       		.byte	0x3
 5431 008f 3E       		.uleb128 0x3e
 5432 0090 12       		.uleb128 0x12
 5433 0091 07       		.byte	0x7
 5434 0092 00000000 		.4byte	.Ldebug_macro11
 5435              		.file 19 "../../lpc11cx4-library/lpc_chip_11cxx_lib/inc/core_cmInstr.h"
 5436 0096 03       		.byte	0x3
 5437 0097 70       		.uleb128 0x70
 5438 0098 13       		.uleb128 0x13
 5439 0099 05       		.byte	0x5
 5440 009a 19       		.uleb128 0x19
 5441 009b 321D0000 		.4byte	.LASF504
 5442 009f 04       		.byte	0x4
 5443              		.file 20 "../../lpc11cx4-library/lpc_chip_11cxx_lib/inc/core_cmFunc.h"
 5444 00a0 03       		.byte	0x3
 5445 00a1 71       		.uleb128 0x71
 5446 00a2 14       		.uleb128 0x14
 5447 00a3 05       		.byte	0x5
 5448 00a4 19       		.uleb128 0x19
 5449 00a5 870B0000 		.4byte	.LASF505
 5450 00a9 04       		.byte	0x4
 5451 00aa 07       		.byte	0x7
 5452 00ab 00000000 		.4byte	.Ldebug_macro12
 5453 00af 04       		.byte	0x4
 5454 00b0 04       		.byte	0x4
 5455 00b1 07       		.byte	0x7
 5456 00b2 00000000 		.4byte	.Ldebug_macro13
 5457              		.file 21 "../../lpc11cx4-library/lpc_chip_11cxx_lib/inc/pmu_11xx.h"
 5458 00b6 03       		.byte	0x3
 5459 00b7 E901     		.uleb128 0xe9
 5460 00b9 15       		.uleb128 0x15
 5461 00ba 07       		.byte	0x7
 5462 00bb 00000000 		.4byte	.Ldebug_macro14
 5463 00bf 04       		.byte	0x4
 5464              		.file 22 "../../lpc11cx4-library/lpc_chip_11cxx_lib/inc/fmc_11xx.h"
 5465 00c0 03       		.byte	0x3
 5466 00c1 EA01     		.uleb128 0xea
 5467 00c3 16       		.uleb128 0x16
 5468 00c4 05       		.byte	0x5
 5469 00c5 21       		.uleb128 0x21
 5470 00c6 5F660000 		.4byte	.LASF635
 5471 00ca 04       		.byte	0x4
 5472 00cb 03       		.byte	0x3
 5473 00cc EB01     		.uleb128 0xeb
 5474 00ce 07       		.uleb128 0x7
 5475 00cf 07       		.byte	0x7
ARM GAS  /tmp/ccSBomBp.s 			page 120


 5476 00d0 00000000 		.4byte	.Ldebug_macro15
 5477 00d4 04       		.byte	0x4
 5478 00d5 03       		.byte	0x3
 5479 00d6 EC01     		.uleb128 0xec
 5480 00d8 02       		.uleb128 0x2
 5481 00d9 07       		.byte	0x7
 5482 00da 00000000 		.4byte	.Ldebug_macro16
 5483 00de 04       		.byte	0x4
 5484              		.file 23 "../../lpc11cx4-library/lpc_chip_11cxx_lib/inc/iocon_11xx.h"
 5485 00df 03       		.byte	0x3
 5486 00e0 ED01     		.uleb128 0xed
 5487 00e2 17       		.uleb128 0x17
 5488 00e3 07       		.byte	0x7
 5489 00e4 00000000 		.4byte	.Ldebug_macro17
 5490 00e8 04       		.byte	0x4
 5491              		.file 24 "../../lpc11cx4-library/lpc_chip_11cxx_lib/inc/timer_11xx.h"
 5492 00e9 03       		.byte	0x3
 5493 00ea EE01     		.uleb128 0xee
 5494 00ec 18       		.uleb128 0x18
 5495 00ed 07       		.byte	0x7
 5496 00ee 00000000 		.4byte	.Ldebug_macro18
 5497 00f2 04       		.byte	0x4
 5498 00f3 03       		.byte	0x3
 5499 00f4 EF01     		.uleb128 0xef
 5500 00f6 03       		.uleb128 0x3
 5501 00f7 05       		.byte	0x5
 5502 00f8 21       		.uleb128 0x21
 5503 00f9 A0250000 		.4byte	.LASF719
 5504 00fd 03       		.byte	0x3
 5505 00fe 23       		.uleb128 0x23
 5506 00ff 04       		.uleb128 0x4
 5507 0100 07       		.byte	0x7
 5508 0101 00000000 		.4byte	.Ldebug_macro19
 5509 0105 04       		.byte	0x4
 5510 0106 07       		.byte	0x7
 5511 0107 00000000 		.4byte	.Ldebug_macro20
 5512 010b 04       		.byte	0x4
 5513              		.file 25 "../../lpc11cx4-library/lpc_chip_11cxx_lib/inc/wwdt_11xx.h"
 5514 010c 03       		.byte	0x3
 5515 010d F001     		.uleb128 0xf0
 5516 010f 19       		.uleb128 0x19
 5517 0110 07       		.byte	0x7
 5518 0111 00000000 		.4byte	.Ldebug_macro21
 5519 0115 04       		.byte	0x4
 5520              		.file 26 "../../lpc11cx4-library/lpc_chip_11cxx_lib/inc/ssp_11xx.h"
 5521 0116 03       		.byte	0x3
 5522 0117 F101     		.uleb128 0xf1
 5523 0119 1A       		.uleb128 0x1a
 5524 011a 07       		.byte	0x7
 5525 011b 00000000 		.4byte	.Ldebug_macro22
 5526 011f 04       		.byte	0x4
 5527              		.file 27 "../../lpc11cx4-library/lpc_chip_11cxx_lib/inc/romapi_11xx.h"
 5528 0120 03       		.byte	0x3
 5529 0121 F201     		.uleb128 0xf2
 5530 0123 1B       		.uleb128 0x1b
 5531 0124 05       		.byte	0x5
 5532 0125 21       		.uleb128 0x21
ARM GAS  /tmp/ccSBomBp.s 			page 121


 5533 0126 3B2E0000 		.4byte	.LASF872
 5534              		.file 28 "../../lpc11cx4-library/lpc_chip_11cxx_lib/inc/error.h"
 5535 012a 03       		.byte	0x3
 5536 012b 23       		.uleb128 0x23
 5537 012c 1C       		.uleb128 0x1c
 5538 012d 07       		.byte	0x7
 5539 012e 00000000 		.4byte	.Ldebug_macro23
 5540 0132 04       		.byte	0x4
 5541 0133 04       		.byte	0x4
 5542              		.file 29 "../../lpc11cx4-library/lpc_chip_11cxx_lib/inc/adc_11xx.h"
 5543 0134 03       		.byte	0x3
 5544 0135 F601     		.uleb128 0xf6
 5545 0137 1D       		.uleb128 0x1d
 5546 0138 07       		.byte	0x7
 5547 0139 00000000 		.4byte	.Ldebug_macro24
 5548 013d 04       		.byte	0x4
 5549              		.file 30 "../../lpc11cx4-library/lpc_chip_11cxx_lib/inc/gpio_11xx_2.h"
 5550 013e 03       		.byte	0x3
 5551 013f FF01     		.uleb128 0xff
 5552 0141 1E       		.uleb128 0x1e
 5553 0142 05       		.byte	0x5
 5554 0143 22       		.uleb128 0x22
 5555 0144 76380000 		.4byte	.LASF895
 5556 0148 04       		.byte	0x4
 5557              		.file 31 "../../lpc11cx4-library/lpc_chip_11cxx_lib/inc/i2c_11xx.h"
 5558 0149 03       		.byte	0x3
 5559 014a 8C02     		.uleb128 0x10c
 5560 014c 1F       		.uleb128 0x1f
 5561 014d 07       		.byte	0x7
 5562 014e 00000000 		.4byte	.Ldebug_macro25
 5563 0152 04       		.byte	0x4
 5564              		.file 32 "../../lpc11cx4-library/lpc_chip_11cxx_lib/inc/ccand_11xx.h"
 5565 0153 03       		.byte	0x3
 5566 0154 8F02     		.uleb128 0x10f
 5567 0156 20       		.uleb128 0x20
 5568 0157 07       		.byte	0x7
 5569 0158 00000000 		.4byte	.Ldebug_macro26
 5570 015c 04       		.byte	0x4
 5571 015d 04       		.byte	0x4
 5572 015e 04       		.byte	0x4
 5573 015f 00       		.byte	0
 5574              		.section	.debug_macro,"G",%progbits,wm4.0.d60539c8b2f01ca1b851fc35675107cd,comdat
 5575              	.Ldebug_macro1:
 5576 0000 0400     		.2byte	0x4
 5577 0002 00       		.byte	0
 5578 0003 05       		.byte	0x5
 5579 0004 00       		.uleb128 0
 5580 0005 864A0000 		.4byte	.LASF0
 5581 0009 05       		.byte	0x5
 5582 000a 00       		.uleb128 0
 5583 000b C1090000 		.4byte	.LASF1
 5584 000f 05       		.byte	0x5
 5585 0010 00       		.uleb128 0
 5586 0011 2B370000 		.4byte	.LASF2
 5587 0015 05       		.byte	0x5
 5588 0016 00       		.uleb128 0
 5589 0017 515F0000 		.4byte	.LASF3
ARM GAS  /tmp/ccSBomBp.s 			page 122


 5590 001b 05       		.byte	0x5
 5591 001c 00       		.uleb128 0
 5592 001d 471C0000 		.4byte	.LASF4
 5593 0021 05       		.byte	0x5
 5594 0022 00       		.uleb128 0
 5595 0023 69730000 		.4byte	.LASF5
 5596 0027 05       		.byte	0x5
 5597 0028 00       		.uleb128 0
 5598 0029 34660000 		.4byte	.LASF6
 5599 002d 05       		.byte	0x5
 5600 002e 00       		.uleb128 0
 5601 002f 981F0000 		.4byte	.LASF7
 5602 0033 05       		.byte	0x5
 5603 0034 00       		.uleb128 0
 5604 0035 26340000 		.4byte	.LASF8
 5605 0039 05       		.byte	0x5
 5606 003a 00       		.uleb128 0
 5607 003b 193B0000 		.4byte	.LASF9
 5608 003f 05       		.byte	0x5
 5609 0040 00       		.uleb128 0
 5610 0041 8B770000 		.4byte	.LASF10
 5611 0045 05       		.byte	0x5
 5612 0046 00       		.uleb128 0
 5613 0047 E0030000 		.4byte	.LASF11
 5614 004b 05       		.byte	0x5
 5615 004c 00       		.uleb128 0
 5616 004d D23B0000 		.4byte	.LASF12
 5617 0051 05       		.byte	0x5
 5618 0052 00       		.uleb128 0
 5619 0053 E63B0000 		.4byte	.LASF13
 5620 0057 05       		.byte	0x5
 5621 0058 00       		.uleb128 0
 5622 0059 8C590000 		.4byte	.LASF14
 5623 005d 05       		.byte	0x5
 5624 005e 00       		.uleb128 0
 5625 005f 846E0000 		.4byte	.LASF15
 5626 0063 05       		.byte	0x5
 5627 0064 00       		.uleb128 0
 5628 0065 6D1D0000 		.4byte	.LASF16
 5629 0069 05       		.byte	0x5
 5630 006a 00       		.uleb128 0
 5631 006b E3040000 		.4byte	.LASF17
 5632 006f 05       		.byte	0x5
 5633 0070 00       		.uleb128 0
 5634 0071 1A220000 		.4byte	.LASF18
 5635 0075 05       		.byte	0x5
 5636 0076 00       		.uleb128 0
 5637 0077 AA670000 		.4byte	.LASF19
 5638 007b 05       		.byte	0x5
 5639 007c 00       		.uleb128 0
 5640 007d E1170000 		.4byte	.LASF20
 5641 0081 05       		.byte	0x5
 5642 0082 00       		.uleb128 0
 5643 0083 7D750000 		.4byte	.LASF21
 5644 0087 05       		.byte	0x5
 5645 0088 00       		.uleb128 0
 5646 0089 6E630000 		.4byte	.LASF22
ARM GAS  /tmp/ccSBomBp.s 			page 123


 5647 008d 05       		.byte	0x5
 5648 008e 00       		.uleb128 0
 5649 008f 83420000 		.4byte	.LASF23
 5650 0093 05       		.byte	0x5
 5651 0094 00       		.uleb128 0
 5652 0095 C54F0000 		.4byte	.LASF24
 5653 0099 05       		.byte	0x5
 5654 009a 00       		.uleb128 0
 5655 009b 09560000 		.4byte	.LASF25
 5656 009f 05       		.byte	0x5
 5657 00a0 00       		.uleb128 0
 5658 00a1 76520000 		.4byte	.LASF26
 5659 00a5 05       		.byte	0x5
 5660 00a6 00       		.uleb128 0
 5661 00a7 33060000 		.4byte	.LASF27
 5662 00ab 05       		.byte	0x5
 5663 00ac 00       		.uleb128 0
 5664 00ad 88410000 		.4byte	.LASF28
 5665 00b1 05       		.byte	0x5
 5666 00b2 00       		.uleb128 0
 5667 00b3 D14A0000 		.4byte	.LASF29
 5668 00b7 05       		.byte	0x5
 5669 00b8 00       		.uleb128 0
 5670 00b9 D0140000 		.4byte	.LASF30
 5671 00bd 05       		.byte	0x5
 5672 00be 00       		.uleb128 0
 5673 00bf BB750000 		.4byte	.LASF31
 5674 00c3 05       		.byte	0x5
 5675 00c4 00       		.uleb128 0
 5676 00c5 C9560000 		.4byte	.LASF32
 5677 00c9 05       		.byte	0x5
 5678 00ca 00       		.uleb128 0
 5679 00cb 6D230000 		.4byte	.LASF33
 5680 00cf 05       		.byte	0x5
 5681 00d0 00       		.uleb128 0
 5682 00d1 B2450000 		.4byte	.LASF34
 5683 00d5 05       		.byte	0x5
 5684 00d6 00       		.uleb128 0
 5685 00d7 625F0000 		.4byte	.LASF35
 5686 00db 05       		.byte	0x5
 5687 00dc 00       		.uleb128 0
 5688 00dd 71480000 		.4byte	.LASF36
 5689 00e1 05       		.byte	0x5
 5690 00e2 00       		.uleb128 0
 5691 00e3 45620000 		.4byte	.LASF37
 5692 00e7 05       		.byte	0x5
 5693 00e8 00       		.uleb128 0
 5694 00e9 CB160000 		.4byte	.LASF38
 5695 00ed 05       		.byte	0x5
 5696 00ee 00       		.uleb128 0
 5697 00ef C2390000 		.4byte	.LASF39
 5698 00f3 05       		.byte	0x5
 5699 00f4 00       		.uleb128 0
 5700 00f5 CD060000 		.4byte	.LASF40
 5701 00f9 05       		.byte	0x5
 5702 00fa 00       		.uleb128 0
 5703 00fb 23080000 		.4byte	.LASF41
ARM GAS  /tmp/ccSBomBp.s 			page 124


 5704 00ff 05       		.byte	0x5
 5705 0100 00       		.uleb128 0
 5706 0101 9E770000 		.4byte	.LASF42
 5707 0105 05       		.byte	0x5
 5708 0106 00       		.uleb128 0
 5709 0107 53420000 		.4byte	.LASF43
 5710 010b 05       		.byte	0x5
 5711 010c 00       		.uleb128 0
 5712 010d 2B4B0000 		.4byte	.LASF44
 5713 0111 05       		.byte	0x5
 5714 0112 00       		.uleb128 0
 5715 0113 7F370000 		.4byte	.LASF45
 5716 0117 05       		.byte	0x5
 5717 0118 00       		.uleb128 0
 5718 0119 406D0000 		.4byte	.LASF46
 5719 011d 05       		.byte	0x5
 5720 011e 00       		.uleb128 0
 5721 011f BC630000 		.4byte	.LASF47
 5722 0123 05       		.byte	0x5
 5723 0124 00       		.uleb128 0
 5724 0125 E5140000 		.4byte	.LASF48
 5725 0129 05       		.byte	0x5
 5726 012a 00       		.uleb128 0
 5727 012b 84710000 		.4byte	.LASF49
 5728 012f 05       		.byte	0x5
 5729 0130 00       		.uleb128 0
 5730 0131 18550000 		.4byte	.LASF50
 5731 0135 05       		.byte	0x5
 5732 0136 00       		.uleb128 0
 5733 0137 48790000 		.4byte	.LASF51
 5734 013b 05       		.byte	0x5
 5735 013c 00       		.uleb128 0
 5736 013d 38120000 		.4byte	.LASF52
 5737 0141 05       		.byte	0x5
 5738 0142 00       		.uleb128 0
 5739 0143 1F580000 		.4byte	.LASF53
 5740 0147 05       		.byte	0x5
 5741 0148 00       		.uleb128 0
 5742 0149 1A5F0000 		.4byte	.LASF54
 5743 014d 05       		.byte	0x5
 5744 014e 00       		.uleb128 0
 5745 014f 013A0000 		.4byte	.LASF55
 5746 0153 05       		.byte	0x5
 5747 0154 00       		.uleb128 0
 5748 0155 5F140000 		.4byte	.LASF56
 5749 0159 05       		.byte	0x5
 5750 015a 00       		.uleb128 0
 5751 015b 88570000 		.4byte	.LASF57
 5752 015f 05       		.byte	0x5
 5753 0160 00       		.uleb128 0
 5754 0161 693B0000 		.4byte	.LASF58
 5755 0165 05       		.byte	0x5
 5756 0166 00       		.uleb128 0
 5757 0167 210A0000 		.4byte	.LASF59
 5758 016b 05       		.byte	0x5
 5759 016c 00       		.uleb128 0
 5760 016d C1380000 		.4byte	.LASF60
ARM GAS  /tmp/ccSBomBp.s 			page 125


 5761 0171 05       		.byte	0x5
 5762 0172 00       		.uleb128 0
 5763 0173 F66F0000 		.4byte	.LASF61
 5764 0177 05       		.byte	0x5
 5765 0178 00       		.uleb128 0
 5766 0179 66570000 		.4byte	.LASF62
 5767 017d 05       		.byte	0x5
 5768 017e 00       		.uleb128 0
 5769 017f 68240000 		.4byte	.LASF63
 5770 0183 05       		.byte	0x5
 5771 0184 00       		.uleb128 0
 5772 0185 31620000 		.4byte	.LASF64
 5773 0189 05       		.byte	0x5
 5774 018a 00       		.uleb128 0
 5775 018b 68620000 		.4byte	.LASF65
 5776 018f 05       		.byte	0x5
 5777 0190 00       		.uleb128 0
 5778 0191 D8340000 		.4byte	.LASF66
 5779 0195 05       		.byte	0x5
 5780 0196 00       		.uleb128 0
 5781 0197 A8290000 		.4byte	.LASF67
 5782 019b 05       		.byte	0x5
 5783 019c 00       		.uleb128 0
 5784 019d 51240000 		.4byte	.LASF68
 5785 01a1 05       		.byte	0x5
 5786 01a2 00       		.uleb128 0
 5787 01a3 920E0000 		.4byte	.LASF69
 5788 01a7 05       		.byte	0x5
 5789 01a8 00       		.uleb128 0
 5790 01a9 D5670000 		.4byte	.LASF70
 5791 01ad 05       		.byte	0x5
 5792 01ae 00       		.uleb128 0
 5793 01af EA390000 		.4byte	.LASF71
 5794 01b3 05       		.byte	0x5
 5795 01b4 00       		.uleb128 0
 5796 01b5 84690000 		.4byte	.LASF72
 5797 01b9 05       		.byte	0x5
 5798 01ba 00       		.uleb128 0
 5799 01bb 9E010000 		.4byte	.LASF73
 5800 01bf 05       		.byte	0x5
 5801 01c0 00       		.uleb128 0
 5802 01c1 0B140000 		.4byte	.LASF74
 5803 01c5 05       		.byte	0x5
 5804 01c6 00       		.uleb128 0
 5805 01c7 A73E0000 		.4byte	.LASF75
 5806 01cb 05       		.byte	0x5
 5807 01cc 00       		.uleb128 0
 5808 01cd CB3F0000 		.4byte	.LASF76
 5809 01d1 05       		.byte	0x5
 5810 01d2 00       		.uleb128 0
 5811 01d3 10710000 		.4byte	.LASF77
 5812 01d7 05       		.byte	0x5
 5813 01d8 00       		.uleb128 0
 5814 01d9 A9610000 		.4byte	.LASF78
 5815 01dd 05       		.byte	0x5
 5816 01de 00       		.uleb128 0
 5817 01df D25C0000 		.4byte	.LASF79
ARM GAS  /tmp/ccSBomBp.s 			page 126


 5818 01e3 05       		.byte	0x5
 5819 01e4 00       		.uleb128 0
 5820 01e5 FB0F0000 		.4byte	.LASF80
 5821 01e9 05       		.byte	0x5
 5822 01ea 00       		.uleb128 0
 5823 01eb D4020000 		.4byte	.LASF81
 5824 01ef 05       		.byte	0x5
 5825 01f0 00       		.uleb128 0
 5826 01f1 A75E0000 		.4byte	.LASF82
 5827 01f5 05       		.byte	0x5
 5828 01f6 00       		.uleb128 0
 5829 01f7 B8140000 		.4byte	.LASF83
 5830 01fb 05       		.byte	0x5
 5831 01fc 00       		.uleb128 0
 5832 01fd 3C4C0000 		.4byte	.LASF84
 5833 0201 05       		.byte	0x5
 5834 0202 00       		.uleb128 0
 5835 0203 A1110000 		.4byte	.LASF85
 5836 0207 05       		.byte	0x5
 5837 0208 00       		.uleb128 0
 5838 0209 5D160000 		.4byte	.LASF86
 5839 020d 05       		.byte	0x5
 5840 020e 00       		.uleb128 0
 5841 020f 750F0000 		.4byte	.LASF87
 5842 0213 05       		.byte	0x5
 5843 0214 00       		.uleb128 0
 5844 0215 66530000 		.4byte	.LASF88
 5845 0219 05       		.byte	0x5
 5846 021a 00       		.uleb128 0
 5847 021b AA2A0000 		.4byte	.LASF89
 5848 021f 05       		.byte	0x5
 5849 0220 00       		.uleb128 0
 5850 0221 84780000 		.4byte	.LASF90
 5851 0225 05       		.byte	0x5
 5852 0226 00       		.uleb128 0
 5853 0227 F4640000 		.4byte	.LASF91
 5854 022b 05       		.byte	0x5
 5855 022c 00       		.uleb128 0
 5856 022d B83E0000 		.4byte	.LASF92
 5857 0231 05       		.byte	0x5
 5858 0232 00       		.uleb128 0
 5859 0233 F20A0000 		.4byte	.LASF93
 5860 0237 05       		.byte	0x5
 5861 0238 00       		.uleb128 0
 5862 0239 CB4D0000 		.4byte	.LASF94
 5863 023d 05       		.byte	0x5
 5864 023e 00       		.uleb128 0
 5865 023f 68520000 		.4byte	.LASF95
 5866 0243 05       		.byte	0x5
 5867 0244 00       		.uleb128 0
 5868 0245 2F290000 		.4byte	.LASF96
 5869 0249 05       		.byte	0x5
 5870 024a 00       		.uleb128 0
 5871 024b D7760000 		.4byte	.LASF97
 5872 024f 05       		.byte	0x5
 5873 0250 00       		.uleb128 0
 5874 0251 995F0000 		.4byte	.LASF98
ARM GAS  /tmp/ccSBomBp.s 			page 127


 5875 0255 05       		.byte	0x5
 5876 0256 00       		.uleb128 0
 5877 0257 4A0D0000 		.4byte	.LASF99
 5878 025b 05       		.byte	0x5
 5879 025c 00       		.uleb128 0
 5880 025d CD5B0000 		.4byte	.LASF100
 5881 0261 05       		.byte	0x5
 5882 0262 00       		.uleb128 0
 5883 0263 FC630000 		.4byte	.LASF101
 5884 0267 05       		.byte	0x5
 5885 0268 00       		.uleb128 0
 5886 0269 CC780000 		.4byte	.LASF102
 5887 026d 05       		.byte	0x5
 5888 026e 00       		.uleb128 0
 5889 026f 14080000 		.4byte	.LASF103
 5890 0273 05       		.byte	0x5
 5891 0274 00       		.uleb128 0
 5892 0275 E1580000 		.4byte	.LASF104
 5893 0279 05       		.byte	0x5
 5894 027a 00       		.uleb128 0
 5895 027b B1650000 		.4byte	.LASF105
 5896 027f 05       		.byte	0x5
 5897 0280 00       		.uleb128 0
 5898 0281 7B680000 		.4byte	.LASF106
 5899 0285 05       		.byte	0x5
 5900 0286 00       		.uleb128 0
 5901 0287 272A0000 		.4byte	.LASF107
 5902 028b 05       		.byte	0x5
 5903 028c 00       		.uleb128 0
 5904 028d FE4A0000 		.4byte	.LASF108
 5905 0291 05       		.byte	0x5
 5906 0292 00       		.uleb128 0
 5907 0293 C1540000 		.4byte	.LASF109
 5908 0297 05       		.byte	0x5
 5909 0298 00       		.uleb128 0
 5910 0299 D8510000 		.4byte	.LASF110
 5911 029d 05       		.byte	0x5
 5912 029e 00       		.uleb128 0
 5913 029f 97150000 		.4byte	.LASF111
 5914 02a3 05       		.byte	0x5
 5915 02a4 00       		.uleb128 0
 5916 02a5 B6000000 		.4byte	.LASF112
 5917 02a9 05       		.byte	0x5
 5918 02aa 00       		.uleb128 0
 5919 02ab E6310000 		.4byte	.LASF113
 5920 02af 05       		.byte	0x5
 5921 02b0 00       		.uleb128 0
 5922 02b1 F9200000 		.4byte	.LASF114
 5923 02b5 05       		.byte	0x5
 5924 02b6 00       		.uleb128 0
 5925 02b7 88720000 		.4byte	.LASF115
 5926 02bb 05       		.byte	0x5
 5927 02bc 00       		.uleb128 0
 5928 02bd AC780000 		.4byte	.LASF116
 5929 02c1 05       		.byte	0x5
 5930 02c2 00       		.uleb128 0
 5931 02c3 22130000 		.4byte	.LASF117
ARM GAS  /tmp/ccSBomBp.s 			page 128


 5932 02c7 05       		.byte	0x5
 5933 02c8 00       		.uleb128 0
 5934 02c9 30490000 		.4byte	.LASF118
 5935 02cd 05       		.byte	0x5
 5936 02ce 00       		.uleb128 0
 5937 02cf 33480000 		.4byte	.LASF119
 5938 02d3 05       		.byte	0x5
 5939 02d4 00       		.uleb128 0
 5940 02d5 ED1E0000 		.4byte	.LASF120
 5941 02d9 05       		.byte	0x5
 5942 02da 00       		.uleb128 0
 5943 02db F0100000 		.4byte	.LASF121
 5944 02df 05       		.byte	0x5
 5945 02e0 00       		.uleb128 0
 5946 02e1 BD480000 		.4byte	.LASF122
 5947 02e5 05       		.byte	0x5
 5948 02e6 00       		.uleb128 0
 5949 02e7 49470000 		.4byte	.LASF123
 5950 02eb 05       		.byte	0x5
 5951 02ec 00       		.uleb128 0
 5952 02ed 4E3F0000 		.4byte	.LASF124
 5953 02f1 05       		.byte	0x5
 5954 02f2 00       		.uleb128 0
 5955 02f3 383B0000 		.4byte	.LASF125
 5956 02f7 05       		.byte	0x5
 5957 02f8 00       		.uleb128 0
 5958 02f9 63480000 		.4byte	.LASF126
 5959 02fd 05       		.byte	0x5
 5960 02fe 00       		.uleb128 0
 5961 02ff 32470000 		.4byte	.LASF127
 5962 0303 05       		.byte	0x5
 5963 0304 00       		.uleb128 0
 5964 0305 B8190000 		.4byte	.LASF128
 5965 0309 05       		.byte	0x5
 5966 030a 00       		.uleb128 0
 5967 030b 86170000 		.4byte	.LASF129
 5968 030f 05       		.byte	0x5
 5969 0310 00       		.uleb128 0
 5970 0311 CF5E0000 		.4byte	.LASF130
 5971 0315 05       		.byte	0x5
 5972 0316 00       		.uleb128 0
 5973 0317 141A0000 		.4byte	.LASF131
 5974 031b 05       		.byte	0x5
 5975 031c 00       		.uleb128 0
 5976 031d 303E0000 		.4byte	.LASF132
 5977 0321 05       		.byte	0x5
 5978 0322 00       		.uleb128 0
 5979 0323 DF240000 		.4byte	.LASF133
 5980 0327 05       		.byte	0x5
 5981 0328 00       		.uleb128 0
 5982 0329 CE2A0000 		.4byte	.LASF134
 5983 032d 05       		.byte	0x5
 5984 032e 00       		.uleb128 0
 5985 032f F6280000 		.4byte	.LASF135
 5986 0333 05       		.byte	0x5
 5987 0334 00       		.uleb128 0
 5988 0335 B8060000 		.4byte	.LASF136
ARM GAS  /tmp/ccSBomBp.s 			page 129


 5989 0339 05       		.byte	0x5
 5990 033a 00       		.uleb128 0
 5991 033b A9350000 		.4byte	.LASF137
 5992 033f 05       		.byte	0x5
 5993 0340 00       		.uleb128 0
 5994 0341 BD1B0000 		.4byte	.LASF138
 5995 0345 05       		.byte	0x5
 5996 0346 00       		.uleb128 0
 5997 0347 F5780000 		.4byte	.LASF139
 5998 034b 05       		.byte	0x5
 5999 034c 00       		.uleb128 0
 6000 034d 15370000 		.4byte	.LASF140
 6001 0351 05       		.byte	0x5
 6002 0352 00       		.uleb128 0
 6003 0353 15530000 		.4byte	.LASF141
 6004 0357 05       		.byte	0x5
 6005 0358 00       		.uleb128 0
 6006 0359 C1770000 		.4byte	.LASF142
 6007 035d 05       		.byte	0x5
 6008 035e 00       		.uleb128 0
 6009 035f E4200000 		.4byte	.LASF143
 6010 0363 05       		.byte	0x5
 6011 0364 00       		.uleb128 0
 6012 0365 FA040000 		.4byte	.LASF144
 6013 0369 05       		.byte	0x5
 6014 036a 00       		.uleb128 0
 6015 036b 11680000 		.4byte	.LASF145
 6016 036f 05       		.byte	0x5
 6017 0370 00       		.uleb128 0
 6018 0371 CD710000 		.4byte	.LASF146
 6019 0375 05       		.byte	0x5
 6020 0376 00       		.uleb128 0
 6021 0377 9F130000 		.4byte	.LASF147
 6022 037b 05       		.byte	0x5
 6023 037c 00       		.uleb128 0
 6024 037d 77350000 		.4byte	.LASF148
 6025 0381 05       		.byte	0x5
 6026 0382 00       		.uleb128 0
 6027 0383 186C0000 		.4byte	.LASF149
 6028 0387 05       		.byte	0x5
 6029 0388 00       		.uleb128 0
 6030 0389 5C270000 		.4byte	.LASF150
 6031 038d 05       		.byte	0x5
 6032 038e 00       		.uleb128 0
 6033 038f 87660000 		.4byte	.LASF151
 6034 0393 05       		.byte	0x5
 6035 0394 00       		.uleb128 0
 6036 0395 83600000 		.4byte	.LASF152
 6037 0399 05       		.byte	0x5
 6038 039a 00       		.uleb128 0
 6039 039b B6070000 		.4byte	.LASF153
 6040 039f 05       		.byte	0x5
 6041 03a0 00       		.uleb128 0
 6042 03a1 B6700000 		.4byte	.LASF154
 6043 03a5 05       		.byte	0x5
 6044 03a6 00       		.uleb128 0
 6045 03a7 9D070000 		.4byte	.LASF155
ARM GAS  /tmp/ccSBomBp.s 			page 130


 6046 03ab 05       		.byte	0x5
 6047 03ac 00       		.uleb128 0
 6048 03ad 32360000 		.4byte	.LASF156
 6049 03b1 05       		.byte	0x5
 6050 03b2 00       		.uleb128 0
 6051 03b3 E6260000 		.4byte	.LASF157
 6052 03b7 05       		.byte	0x5
 6053 03b8 00       		.uleb128 0
 6054 03b9 56460000 		.4byte	.LASF158
 6055 03bd 05       		.byte	0x5
 6056 03be 00       		.uleb128 0
 6057 03bf 53000000 		.4byte	.LASF159
 6058 03c3 05       		.byte	0x5
 6059 03c4 00       		.uleb128 0
 6060 03c5 233F0000 		.4byte	.LASF160
 6061 03c9 05       		.byte	0x5
 6062 03ca 00       		.uleb128 0
 6063 03cb A9640000 		.4byte	.LASF161
 6064 03cf 05       		.byte	0x5
 6065 03d0 00       		.uleb128 0
 6066 03d1 653A0000 		.4byte	.LASF162
 6067 03d5 05       		.byte	0x5
 6068 03d6 00       		.uleb128 0
 6069 03d7 B23C0000 		.4byte	.LASF163
 6070 03db 05       		.byte	0x5
 6071 03dc 00       		.uleb128 0
 6072 03dd 46540000 		.4byte	.LASF164
 6073 03e1 05       		.byte	0x5
 6074 03e2 00       		.uleb128 0
 6075 03e3 CC460000 		.4byte	.LASF165
 6076 03e7 05       		.byte	0x5
 6077 03e8 00       		.uleb128 0
 6078 03e9 805F0000 		.4byte	.LASF166
 6079 03ed 05       		.byte	0x5
 6080 03ee 00       		.uleb128 0
 6081 03ef 6C4F0000 		.4byte	.LASF167
 6082 03f3 05       		.byte	0x5
 6083 03f4 00       		.uleb128 0
 6084 03f5 99560000 		.4byte	.LASF168
 6085 03f9 05       		.byte	0x5
 6086 03fa 00       		.uleb128 0
 6087 03fb FC370000 		.4byte	.LASF169
 6088 03ff 05       		.byte	0x5
 6089 0400 00       		.uleb128 0
 6090 0401 E1050000 		.4byte	.LASF170
 6091 0405 05       		.byte	0x5
 6092 0406 00       		.uleb128 0
 6093 0407 08110000 		.4byte	.LASF171
 6094 040b 05       		.byte	0x5
 6095 040c 00       		.uleb128 0
 6096 040d A40E0000 		.4byte	.LASF172
 6097 0411 05       		.byte	0x5
 6098 0412 00       		.uleb128 0
 6099 0413 41030000 		.4byte	.LASF173
 6100 0417 05       		.byte	0x5
 6101 0418 00       		.uleb128 0
 6102 0419 50530000 		.4byte	.LASF174
ARM GAS  /tmp/ccSBomBp.s 			page 131


 6103 041d 05       		.byte	0x5
 6104 041e 00       		.uleb128 0
 6105 041f C5490000 		.4byte	.LASF175
 6106 0423 05       		.byte	0x5
 6107 0424 00       		.uleb128 0
 6108 0425 61060000 		.4byte	.LASF176
 6109 0429 05       		.byte	0x5
 6110 042a 00       		.uleb128 0
 6111 042b B1530000 		.4byte	.LASF177
 6112 042f 05       		.byte	0x5
 6113 0430 00       		.uleb128 0
 6114 0431 31190000 		.4byte	.LASF178
 6115 0435 05       		.byte	0x5
 6116 0436 00       		.uleb128 0
 6117 0437 4E710000 		.4byte	.LASF179
 6118 043b 05       		.byte	0x5
 6119 043c 00       		.uleb128 0
 6120 043d 66310000 		.4byte	.LASF180
 6121 0441 05       		.byte	0x5
 6122 0442 00       		.uleb128 0
 6123 0443 254C0000 		.4byte	.LASF181
 6124 0447 05       		.byte	0x5
 6125 0448 00       		.uleb128 0
 6126 0449 25140000 		.4byte	.LASF182
 6127 044d 05       		.byte	0x5
 6128 044e 00       		.uleb128 0
 6129 044f D51E0000 		.4byte	.LASF183
 6130 0453 05       		.byte	0x5
 6131 0454 00       		.uleb128 0
 6132 0455 E3630000 		.4byte	.LASF184
 6133 0459 05       		.byte	0x5
 6134 045a 00       		.uleb128 0
 6135 045b 61020000 		.4byte	.LASF185
 6136 045f 05       		.byte	0x5
 6137 0460 00       		.uleb128 0
 6138 0461 2E3A0000 		.4byte	.LASF186
 6139 0465 05       		.byte	0x5
 6140 0466 00       		.uleb128 0
 6141 0467 D4620000 		.4byte	.LASF187
 6142 046b 05       		.byte	0x5
 6143 046c 00       		.uleb128 0
 6144 046d 83010000 		.4byte	.LASF188
 6145 0471 05       		.byte	0x5
 6146 0472 00       		.uleb128 0
 6147 0473 6C740000 		.4byte	.LASF189
 6148 0477 05       		.byte	0x5
 6149 0478 00       		.uleb128 0
 6150 0479 D6360000 		.4byte	.LASF190
 6151 047d 05       		.byte	0x5
 6152 047e 00       		.uleb128 0
 6153 047f 52760000 		.4byte	.LASF191
 6154 0483 05       		.byte	0x5
 6155 0484 00       		.uleb128 0
 6156 0485 776C0000 		.4byte	.LASF192
 6157 0489 05       		.byte	0x5
 6158 048a 00       		.uleb128 0
 6159 048b 36320000 		.4byte	.LASF193
ARM GAS  /tmp/ccSBomBp.s 			page 132


 6160 048f 05       		.byte	0x5
 6161 0490 00       		.uleb128 0
 6162 0491 18260000 		.4byte	.LASF194
 6163 0495 05       		.byte	0x5
 6164 0496 00       		.uleb128 0
 6165 0497 72260000 		.4byte	.LASF195
 6166 049b 05       		.byte	0x5
 6167 049c 00       		.uleb128 0
 6168 049d 190B0000 		.4byte	.LASF196
 6169 04a1 05       		.byte	0x5
 6170 04a2 00       		.uleb128 0
 6171 04a3 97310000 		.4byte	.LASF197
 6172 04a7 05       		.byte	0x5
 6173 04a8 00       		.uleb128 0
 6174 04a9 A11B0000 		.4byte	.LASF198
 6175 04ad 05       		.byte	0x5
 6176 04ae 00       		.uleb128 0
 6177 04af 9F550000 		.4byte	.LASF199
 6178 04b3 05       		.byte	0x5
 6179 04b4 00       		.uleb128 0
 6180 04b5 87330000 		.4byte	.LASF200
 6181 04b9 05       		.byte	0x5
 6182 04ba 00       		.uleb128 0
 6183 04bb 0B470000 		.4byte	.LASF201
 6184 04bf 05       		.byte	0x5
 6185 04c0 00       		.uleb128 0
 6186 04c1 33390000 		.4byte	.LASF202
 6187 04c5 05       		.byte	0x5
 6188 04c6 00       		.uleb128 0
 6189 04c7 9E650000 		.4byte	.LASF203
 6190 04cb 05       		.byte	0x5
 6191 04cc 00       		.uleb128 0
 6192 04cd 21520000 		.4byte	.LASF204
 6193 04d1 05       		.byte	0x5
 6194 04d2 00       		.uleb128 0
 6195 04d3 33790000 		.4byte	.LASF205
 6196 04d7 05       		.byte	0x5
 6197 04d8 00       		.uleb128 0
 6198 04d9 88430000 		.4byte	.LASF206
 6199 04dd 05       		.byte	0x5
 6200 04de 00       		.uleb128 0
 6201 04df 8A3E0000 		.4byte	.LASF207
 6202 04e3 05       		.byte	0x5
 6203 04e4 00       		.uleb128 0
 6204 04e5 70420000 		.4byte	.LASF208
 6205 04e9 05       		.byte	0x5
 6206 04ea 00       		.uleb128 0
 6207 04eb 664D0000 		.4byte	.LASF209
 6208 04ef 05       		.byte	0x5
 6209 04f0 00       		.uleb128 0
 6210 04f1 F3030000 		.4byte	.LASF210
 6211 04f5 05       		.byte	0x5
 6212 04f6 00       		.uleb128 0
 6213 04f7 2C4A0000 		.4byte	.LASF211
 6214 04fb 05       		.byte	0x5
 6215 04fc 00       		.uleb128 0
 6216 04fd 784D0000 		.4byte	.LASF212
ARM GAS  /tmp/ccSBomBp.s 			page 133


 6217 0501 05       		.byte	0x5
 6218 0502 00       		.uleb128 0
 6219 0503 500C0000 		.4byte	.LASF213
 6220 0507 05       		.byte	0x5
 6221 0508 00       		.uleb128 0
 6222 0509 EC0C0000 		.4byte	.LASF214
 6223 050d 05       		.byte	0x5
 6224 050e 00       		.uleb128 0
 6225 050f D75A0000 		.4byte	.LASF215
 6226 0513 05       		.byte	0x5
 6227 0514 00       		.uleb128 0
 6228 0515 FD570000 		.4byte	.LASF216
 6229 0519 05       		.byte	0x5
 6230 051a 00       		.uleb128 0
 6231 051b 23630000 		.4byte	.LASF217
 6232 051f 05       		.byte	0x5
 6233 0520 00       		.uleb128 0
 6234 0521 0F720000 		.4byte	.LASF218
 6235 0525 05       		.byte	0x5
 6236 0526 00       		.uleb128 0
 6237 0527 956E0000 		.4byte	.LASF219
 6238 052b 05       		.byte	0x5
 6239 052c 00       		.uleb128 0
 6240 052d 696B0000 		.4byte	.LASF220
 6241 0531 05       		.byte	0x5
 6242 0532 00       		.uleb128 0
 6243 0533 DE600000 		.4byte	.LASF221
 6244 0537 05       		.byte	0x5
 6245 0538 00       		.uleb128 0
 6246 0539 265D0000 		.4byte	.LASF222
 6247 053d 05       		.byte	0x5
 6248 053e 00       		.uleb128 0
 6249 053f D3090000 		.4byte	.LASF223
 6250 0543 05       		.byte	0x5
 6251 0544 00       		.uleb128 0
 6252 0545 013D0000 		.4byte	.LASF224
 6253 0549 05       		.byte	0x5
 6254 054a 00       		.uleb128 0
 6255 054b 0F6E0000 		.4byte	.LASF225
 6256 054f 05       		.byte	0x5
 6257 0550 00       		.uleb128 0
 6258 0551 E4150000 		.4byte	.LASF226
 6259 0555 05       		.byte	0x5
 6260 0556 00       		.uleb128 0
 6261 0557 B16A0000 		.4byte	.LASF227
 6262 055b 05       		.byte	0x5
 6263 055c 00       		.uleb128 0
 6264 055d CC790000 		.4byte	.LASF228
 6265 0561 05       		.byte	0x5
 6266 0562 00       		.uleb128 0
 6267 0563 21570000 		.4byte	.LASF229
 6268 0567 05       		.byte	0x5
 6269 0568 00       		.uleb128 0
 6270 0569 DB570000 		.4byte	.LASF230
 6271 056d 05       		.byte	0x5
 6272 056e 00       		.uleb128 0
 6273 056f 16620000 		.4byte	.LASF231
ARM GAS  /tmp/ccSBomBp.s 			page 134


 6274 0573 05       		.byte	0x5
 6275 0574 00       		.uleb128 0
 6276 0575 3D6F0000 		.4byte	.LASF232
 6277 0579 05       		.byte	0x5
 6278 057a 00       		.uleb128 0
 6279 057b E92C0000 		.4byte	.LASF233
 6280 057f 05       		.byte	0x5
 6281 0580 00       		.uleb128 0
 6282 0581 EA470000 		.4byte	.LASF234
 6283 0585 05       		.byte	0x5
 6284 0586 00       		.uleb128 0
 6285 0587 FF4F0000 		.4byte	.LASF235
 6286 058b 05       		.byte	0x5
 6287 058c 00       		.uleb128 0
 6288 058d C4050000 		.4byte	.LASF236
 6289 0591 05       		.byte	0x5
 6290 0592 00       		.uleb128 0
 6291 0593 65600000 		.4byte	.LASF237
 6292 0597 05       		.byte	0x5
 6293 0598 00       		.uleb128 0
 6294 0599 78120000 		.4byte	.LASF238
 6295 059d 05       		.byte	0x5
 6296 059e 00       		.uleb128 0
 6297 059f E2640000 		.4byte	.LASF239
 6298 05a3 05       		.byte	0x5
 6299 05a4 00       		.uleb128 0
 6300 05a5 52040000 		.4byte	.LASF240
 6301 05a9 05       		.byte	0x5
 6302 05aa 00       		.uleb128 0
 6303 05ab DB350000 		.4byte	.LASF241
 6304 05af 05       		.byte	0x5
 6305 05b0 00       		.uleb128 0
 6306 05b1 7C700000 		.4byte	.LASF242
 6307 05b5 05       		.byte	0x5
 6308 05b6 00       		.uleb128 0
 6309 05b7 653E0000 		.4byte	.LASF243
 6310 05bb 05       		.byte	0x5
 6311 05bc 00       		.uleb128 0
 6312 05bd 06130000 		.4byte	.LASF244
 6313 05c1 05       		.byte	0x5
 6314 05c2 00       		.uleb128 0
 6315 05c3 702F0000 		.4byte	.LASF245
 6316 05c7 05       		.byte	0x5
 6317 05c8 00       		.uleb128 0
 6318 05c9 21030000 		.4byte	.LASF246
 6319 05cd 05       		.byte	0x5
 6320 05ce 00       		.uleb128 0
 6321 05cf 012C0000 		.4byte	.LASF247
 6322 05d3 05       		.byte	0x5
 6323 05d4 00       		.uleb128 0
 6324 05d5 B12D0000 		.4byte	.LASF248
 6325 05d9 05       		.byte	0x5
 6326 05da 00       		.uleb128 0
 6327 05db 11640000 		.4byte	.LASF249
 6328 05df 05       		.byte	0x5
 6329 05e0 00       		.uleb128 0
 6330 05e1 AE6B0000 		.4byte	.LASF250
ARM GAS  /tmp/ccSBomBp.s 			page 135


 6331 05e5 05       		.byte	0x5
 6332 05e6 00       		.uleb128 0
 6333 05e7 9A360000 		.4byte	.LASF251
 6334 05eb 05       		.byte	0x5
 6335 05ec 00       		.uleb128 0
 6336 05ed 2C020000 		.4byte	.LASF252
 6337 05f1 05       		.byte	0x5
 6338 05f2 00       		.uleb128 0
 6339 05f3 9D680000 		.4byte	.LASF253
 6340 05f7 05       		.byte	0x5
 6341 05f8 00       		.uleb128 0
 6342 05f9 85560000 		.4byte	.LASF254
 6343 05fd 05       		.byte	0x5
 6344 05fe 00       		.uleb128 0
 6345 05ff 013F0000 		.4byte	.LASF255
 6346 0603 05       		.byte	0x5
 6347 0604 00       		.uleb128 0
 6348 0605 835A0000 		.4byte	.LASF256
 6349 0609 05       		.byte	0x5
 6350 060a 00       		.uleb128 0
 6351 060b 97700000 		.4byte	.LASF257
 6352 060f 05       		.byte	0x5
 6353 0610 00       		.uleb128 0
 6354 0611 935E0000 		.4byte	.LASF258
 6355 0615 05       		.byte	0x5
 6356 0616 00       		.uleb128 0
 6357 0617 E2380000 		.4byte	.LASF259
 6358 061b 05       		.byte	0x5
 6359 061c 00       		.uleb128 0
 6360 061d 05020000 		.4byte	.LASF260
 6361 0621 05       		.byte	0x5
 6362 0622 00       		.uleb128 0
 6363 0623 49320000 		.4byte	.LASF261
 6364 0627 05       		.byte	0x5
 6365 0628 00       		.uleb128 0
 6366 0629 6D590000 		.4byte	.LASF262
 6367 062d 05       		.byte	0x5
 6368 062e 00       		.uleb128 0
 6369 062f 2D220000 		.4byte	.LASF263
 6370 0633 05       		.byte	0x5
 6371 0634 00       		.uleb128 0
 6372 0635 736A0000 		.4byte	.LASF264
 6373 0639 05       		.byte	0x5
 6374 063a 00       		.uleb128 0
 6375 063b DE790000 		.4byte	.LASF265
 6376 063f 05       		.byte	0x5
 6377 0640 00       		.uleb128 0
 6378 0641 59050000 		.4byte	.LASF266
 6379 0645 05       		.byte	0x5
 6380 0646 00       		.uleb128 0
 6381 0647 49290000 		.4byte	.LASF267
 6382 064b 05       		.byte	0x5
 6383 064c 00       		.uleb128 0
 6384 064d 9D690000 		.4byte	.LASF268
 6385 0651 05       		.byte	0x5
 6386 0652 00       		.uleb128 0
 6387 0653 E8090000 		.4byte	.LASF269
ARM GAS  /tmp/ccSBomBp.s 			page 136


 6388 0657 05       		.byte	0x5
 6389 0658 00       		.uleb128 0
 6390 0659 C5720000 		.4byte	.LASF270
 6391 065d 05       		.byte	0x5
 6392 065e 00       		.uleb128 0
 6393 065f C92C0000 		.4byte	.LASF271
 6394 0663 05       		.byte	0x5
 6395 0664 00       		.uleb128 0
 6396 0665 960D0000 		.4byte	.LASF272
 6397 0669 05       		.byte	0x5
 6398 066a 00       		.uleb128 0
 6399 066b 25060000 		.4byte	.LASF273
 6400 066f 05       		.byte	0x5
 6401 0670 00       		.uleb128 0
 6402 0671 33570000 		.4byte	.LASF274
 6403 0675 05       		.byte	0x5
 6404 0676 00       		.uleb128 0
 6405 0677 F85A0000 		.4byte	.LASF275
 6406 067b 05       		.byte	0x5
 6407 067c 00       		.uleb128 0
 6408 067d 2F210000 		.4byte	.LASF276
 6409 0681 05       		.byte	0x5
 6410 0682 00       		.uleb128 0
 6411 0683 6D190000 		.4byte	.LASF277
 6412 0687 05       		.byte	0x5
 6413 0688 00       		.uleb128 0
 6414 0689 76490000 		.4byte	.LASF278
 6415 068d 05       		.byte	0x5
 6416 068e 00       		.uleb128 0
 6417 068f D43E0000 		.4byte	.LASF279
 6418 0693 05       		.byte	0x5
 6419 0694 00       		.uleb128 0
 6420 0695 0F0E0000 		.4byte	.LASF280
 6421 0699 05       		.byte	0x5
 6422 069a 00       		.uleb128 0
 6423 069b 425F0000 		.4byte	.LASF281
 6424 069f 05       		.byte	0x5
 6425 06a0 00       		.uleb128 0
 6426 06a1 5E0D0000 		.4byte	.LASF282
 6427 06a5 05       		.byte	0x5
 6428 06a6 00       		.uleb128 0
 6429 06a7 0B5F0000 		.4byte	.LASF283
 6430 06ab 05       		.byte	0x5
 6431 06ac 00       		.uleb128 0
 6432 06ad EA450000 		.4byte	.LASF284
 6433 06b1 05       		.byte	0x5
 6434 06b2 00       		.uleb128 0
 6435 06b3 756E0000 		.4byte	.LASF285
 6436 06b7 05       		.byte	0x5
 6437 06b8 00       		.uleb128 0
 6438 06b9 FC580000 		.4byte	.LASF286
 6439 06bd 05       		.byte	0x5
 6440 06be 00       		.uleb128 0
 6441 06bf 085D0000 		.4byte	.LASF287
 6442 06c3 05       		.byte	0x5
 6443 06c4 00       		.uleb128 0
 6444 06c5 03250000 		.4byte	.LASF288
ARM GAS  /tmp/ccSBomBp.s 			page 137


 6445 06c9 05       		.byte	0x5
 6446 06ca 00       		.uleb128 0
 6447 06cb AB400000 		.4byte	.LASF289
 6448 06cf 05       		.byte	0x5
 6449 06d0 00       		.uleb128 0
 6450 06d1 175D0000 		.4byte	.LASF290
 6451 06d5 05       		.byte	0x5
 6452 06d6 00       		.uleb128 0
 6453 06d7 06370000 		.4byte	.LASF291
 6454 06db 05       		.byte	0x5
 6455 06dc 00       		.uleb128 0
 6456 06dd 6B280000 		.4byte	.LASF292
 6457 06e1 05       		.byte	0x5
 6458 06e2 00       		.uleb128 0
 6459 06e3 991C0000 		.4byte	.LASF293
 6460 06e7 05       		.byte	0x5
 6461 06e8 00       		.uleb128 0
 6462 06e9 582E0000 		.4byte	.LASF294
 6463 06ed 05       		.byte	0x5
 6464 06ee 00       		.uleb128 0
 6465 06ef 2F010000 		.4byte	.LASF295
 6466 06f3 05       		.byte	0x5
 6467 06f4 00       		.uleb128 0
 6468 06f5 85000000 		.4byte	.LASF296
 6469 06f9 05       		.byte	0x5
 6470 06fa 00       		.uleb128 0
 6471 06fb 4F700000 		.4byte	.LASF297
 6472 06ff 05       		.byte	0x5
 6473 0700 00       		.uleb128 0
 6474 0701 894C0000 		.4byte	.LASF298
 6475 0705 05       		.byte	0x5
 6476 0706 00       		.uleb128 0
 6477 0707 B4230000 		.4byte	.LASF299
 6478 070b 05       		.byte	0x5
 6479 070c 00       		.uleb128 0
 6480 070d 83140000 		.4byte	.LASF300
 6481 0711 05       		.byte	0x5
 6482 0712 00       		.uleb128 0
 6483 0713 DB650000 		.4byte	.LASF301
 6484 0717 05       		.byte	0x5
 6485 0718 00       		.uleb128 0
 6486 0719 B40D0000 		.4byte	.LASF302
 6487 071d 05       		.byte	0x5
 6488 071e 00       		.uleb128 0
 6489 071f 636A0000 		.4byte	.LASF303
 6490 0723 05       		.byte	0x5
 6491 0724 00       		.uleb128 0
 6492 0725 BF620000 		.4byte	.LASF304
 6493 0729 05       		.byte	0x5
 6494 072a 00       		.uleb128 0
 6495 072b A7320000 		.4byte	.LASF305
 6496 072f 05       		.byte	0x5
 6497 0730 00       		.uleb128 0
 6498 0731 B9400000 		.4byte	.LASF306
 6499 0735 05       		.byte	0x5
 6500 0736 00       		.uleb128 0
 6501 0737 B95F0000 		.4byte	.LASF307
ARM GAS  /tmp/ccSBomBp.s 			page 138


 6502 073b 05       		.byte	0x5
 6503 073c 00       		.uleb128 0
 6504 073d 05150000 		.4byte	.LASF308
 6505 0741 05       		.byte	0x5
 6506 0742 00       		.uleb128 0
 6507 0743 3B4D0000 		.4byte	.LASF309
 6508 0747 05       		.byte	0x5
 6509 0748 00       		.uleb128 0
 6510 0749 AD3A0000 		.4byte	.LASF310
 6511 074d 05       		.byte	0x5
 6512 074e 00       		.uleb128 0
 6513 074f EC1B0000 		.4byte	.LASF311
 6514 0753 05       		.byte	0x5
 6515 0754 00       		.uleb128 0
 6516 0755 0E010000 		.4byte	.LASF312
 6517 0759 05       		.byte	0x5
 6518 075a 00       		.uleb128 0
 6519 075b 572C0000 		.4byte	.LASF313
 6520 075f 05       		.byte	0x5
 6521 0760 00       		.uleb128 0
 6522 0761 5B120000 		.4byte	.LASF314
 6523 0765 05       		.byte	0x5
 6524 0766 00       		.uleb128 0
 6525 0767 E33E0000 		.4byte	.LASF315
 6526 076b 05       		.byte	0x5
 6527 076c 00       		.uleb128 0
 6528 076d 5A250000 		.4byte	.LASF316
 6529 0771 05       		.byte	0x5
 6530 0772 00       		.uleb128 0
 6531 0773 C0690000 		.4byte	.LASF317
 6532 0777 05       		.byte	0x5
 6533 0778 00       		.uleb128 0
 6534 0779 F4520000 		.4byte	.LASF318
 6535 077d 05       		.byte	0x5
 6536 077e 00       		.uleb128 0
 6537 077f 23150000 		.4byte	.LASF319
 6538 0783 05       		.byte	0x5
 6539 0784 00       		.uleb128 0
 6540 0785 51230000 		.4byte	.LASF320
 6541 0789 05       		.byte	0x5
 6542 078a 00       		.uleb128 0
 6543 078b 92420000 		.4byte	.LASF321
 6544 078f 05       		.byte	0x5
 6545 0790 00       		.uleb128 0
 6546 0791 FB6A0000 		.4byte	.LASF322
 6547 0795 05       		.byte	0x5
 6548 0796 00       		.uleb128 0
 6549 0797 4C4A0000 		.4byte	.LASF323
 6550 079b 05       		.byte	0x5
 6551 079c 00       		.uleb128 0
 6552 079d AF4D0000 		.4byte	.LASF324
 6553 07a1 05       		.byte	0x5
 6554 07a2 00       		.uleb128 0
 6555 07a3 A5340000 		.4byte	.LASF325
 6556 07a7 05       		.byte	0x5
 6557 07a8 00       		.uleb128 0
 6558 07a9 E7060000 		.4byte	.LASF326
ARM GAS  /tmp/ccSBomBp.s 			page 139


 6559 07ad 05       		.byte	0x5
 6560 07ae 00       		.uleb128 0
 6561 07af 344E0000 		.4byte	.LASF327
 6562 07b3 05       		.byte	0x5
 6563 07b4 00       		.uleb128 0
 6564 07b5 435A0000 		.4byte	.LASF328
 6565 07b9 05       		.byte	0x5
 6566 07ba 00       		.uleb128 0
 6567 07bb DE560000 		.4byte	.LASF329
 6568 07bf 05       		.byte	0x5
 6569 07c0 00       		.uleb128 0
 6570 07c1 63720000 		.4byte	.LASF330
 6571 07c5 05       		.byte	0x5
 6572 07c6 00       		.uleb128 0
 6573 07c7 58510000 		.4byte	.LASF331
 6574 07cb 05       		.byte	0x5
 6575 07cc 00       		.uleb128 0
 6576 07cd 205E0000 		.4byte	.LASF332
 6577 07d1 05       		.byte	0x5
 6578 07d2 00       		.uleb128 0
 6579 07d3 E55D0000 		.4byte	.LASF333
 6580 07d7 05       		.byte	0x5
 6581 07d8 00       		.uleb128 0
 6582 07d9 C3370000 		.4byte	.LASF334
 6583 07dd 05       		.byte	0x5
 6584 07de 00       		.uleb128 0
 6585 07df B90F0000 		.4byte	.LASF335
 6586 07e3 05       		.byte	0x5
 6587 07e4 00       		.uleb128 0
 6588 07e5 C65C0000 		.4byte	.LASF336
 6589 07e9 05       		.byte	0x5
 6590 07ea 00       		.uleb128 0
 6591 07eb F7050000 		.4byte	.LASF337
 6592 07ef 05       		.byte	0x5
 6593 07f0 00       		.uleb128 0
 6594 07f1 CE150000 		.4byte	.LASF338
 6595 07f5 05       		.byte	0x5
 6596 07f6 00       		.uleb128 0
 6597 07f7 5C630000 		.4byte	.LASF339
 6598 07fb 05       		.byte	0x5
 6599 07fc 00       		.uleb128 0
 6600 07fd E72E0000 		.4byte	.LASF340
 6601 0801 05       		.byte	0x5
 6602 0802 00       		.uleb128 0
 6603 0803 F06B0000 		.4byte	.LASF341
 6604 0807 05       		.byte	0x5
 6605 0808 00       		.uleb128 0
 6606 0809 1A000000 		.4byte	.LASF342
 6607 080d 05       		.byte	0x5
 6608 080e 00       		.uleb128 0
 6609 080f BC5D0000 		.4byte	.LASF343
 6610 0813 05       		.byte	0x5
 6611 0814 00       		.uleb128 0
 6612 0815 C4210000 		.4byte	.LASF344
 6613 0819 05       		.byte	0x5
 6614 081a 00       		.uleb128 0
 6615 081b 826D0000 		.4byte	.LASF345
ARM GAS  /tmp/ccSBomBp.s 			page 140


 6616 081f 00       		.byte	0
 6617              		.section	.debug_macro,"G",%progbits,wm4.features.h.22.2e382148a0560adabf236cddd4e880f4,comdat
 6618              	.Ldebug_macro2:
 6619 0000 0400     		.2byte	0x4
 6620 0002 00       		.byte	0
 6621 0003 05       		.byte	0x5
 6622 0004 16       		.uleb128 0x16
 6623 0005 A4220000 		.4byte	.LASF350
 6624 0009 05       		.byte	0x5
 6625 000a 1F       		.uleb128 0x1f
 6626 000b 57190000 		.4byte	.LASF351
 6627 000f 05       		.byte	0x5
 6628 0010 20       		.uleb128 0x20
 6629 0011 CF640000 		.4byte	.LASF352
 6630 0015 05       		.byte	0x5
 6631 0016 25       		.uleb128 0x25
 6632 0017 8A120000 		.4byte	.LASF353
 6633 001b 05       		.byte	0x5
 6634 001c 2C       		.uleb128 0x2c
 6635 001d 2D6A0000 		.4byte	.LASF354
 6636 0021 00       		.byte	0
 6637              		.section	.debug_macro,"G",%progbits,wm4._default_types.h.15.933e8edd27a65e0b69af4a865eb623d2,comda
 6638              	.Ldebug_macro3:
 6639 0000 0400     		.2byte	0x4
 6640 0002 00       		.byte	0
 6641 0003 05       		.byte	0x5
 6642 0004 0F       		.uleb128 0xf
 6643 0005 91440000 		.4byte	.LASF355
 6644 0009 05       		.byte	0x5
 6645 000a 21       		.uleb128 0x21
 6646 000b C2360000 		.4byte	.LASF356
 6647 000f 05       		.byte	0x5
 6648 0010 2F       		.uleb128 0x2f
 6649 0011 D1260000 		.4byte	.LASF357
 6650 0015 05       		.byte	0x5
 6651 0016 45       		.uleb128 0x45
 6652 0017 BA410000 		.4byte	.LASF358
 6653 001b 05       		.byte	0x5
 6654 001c 5F       		.uleb128 0x5f
 6655 001d 31540000 		.4byte	.LASF359
 6656 0021 05       		.byte	0x5
 6657 0022 7E       		.uleb128 0x7e
 6658 0023 B24A0000 		.4byte	.LASF360
 6659 0027 05       		.byte	0x5
 6660 0028 9801     		.uleb128 0x98
 6661 002a A4280000 		.4byte	.LASF361
 6662 002e 05       		.byte	0x5
 6663 002f AE01     		.uleb128 0xae
 6664 0031 4A600000 		.4byte	.LASF362
 6665 0035 05       		.byte	0x5
 6666 0036 C001     		.uleb128 0xc0
 6667 0038 B3430000 		.4byte	.LASF363
 6668 003c 06       		.byte	0x6
 6669 003d D601     		.uleb128 0xd6
 6670 003f 10540000 		.4byte	.LASF364
 6671 0043 00       		.byte	0
 6672              		.section	.debug_macro,"G",%progbits,wm4._intsup.h.10.35a45952db64d30146faa63a55c20c1c,comdat
ARM GAS  /tmp/ccSBomBp.s 			page 141


 6673              	.Ldebug_macro4:
 6674 0000 0400     		.2byte	0x4
 6675 0002 00       		.byte	0
 6676 0003 05       		.byte	0x5
 6677 0004 0A       		.uleb128 0xa
 6678 0005 236F0000 		.4byte	.LASF365
 6679 0009 05       		.byte	0x5
 6680 000a 10       		.uleb128 0x10
 6681 000b 75440000 		.4byte	.LASF366
 6682 000f 05       		.byte	0x5
 6683 0010 1A       		.uleb128 0x1a
 6684 0011 BC590000 		.4byte	.LASF367
 6685 0015 05       		.byte	0x5
 6686 0016 21       		.uleb128 0x21
 6687 0017 42680000 		.4byte	.LASF368
 6688 001b 06       		.byte	0x6
 6689 001c 37       		.uleb128 0x37
 6690 001d 24370000 		.4byte	.LASF369
 6691 0021 06       		.byte	0x6
 6692 0022 38       		.uleb128 0x38
 6693 0023 3C080000 		.4byte	.LASF370
 6694 0027 06       		.byte	0x6
 6695 0028 39       		.uleb128 0x39
 6696 0029 AF230000 		.4byte	.LASF371
 6697 002d 06       		.byte	0x6
 6698 002e 3A       		.uleb128 0x3a
 6699 002f 05520000 		.4byte	.LASF372
 6700 0033 02       		.byte	0x2
 6701 0034 3B       		.uleb128 0x3b
 6702 0035 696E7400 		.ascii	"int\000"
 6703 0039 06       		.byte	0x6
 6704 003a 3C       		.uleb128 0x3c
 6705 003b F5510000 		.4byte	.LASF373
 6706 003f 05       		.byte	0x5
 6707 0040 3D       		.uleb128 0x3d
 6708 0041 990A0000 		.4byte	.LASF374
 6709 0045 05       		.byte	0x5
 6710 0046 3E       		.uleb128 0x3e
 6711 0047 2C3B0000 		.4byte	.LASF375
 6712 004b 05       		.byte	0x5
 6713 004c 3F       		.uleb128 0x3f
 6714 004d 244A0000 		.4byte	.LASF376
 6715 0051 05       		.byte	0x5
 6716 0052 40       		.uleb128 0x40
 6717 0053 14770000 		.4byte	.LASF377
 6718 0057 05       		.byte	0x5
 6719 0058 41       		.uleb128 0x41
 6720 0059 6F380000 		.4byte	.LASF378
 6721 005d 05       		.byte	0x5
 6722 005e 42       		.uleb128 0x42
 6723 005f 854E0000 		.4byte	.LASF379
 6724 0063 05       		.byte	0x5
 6725 0064 4D       		.uleb128 0x4d
 6726 0065 1C730000 		.4byte	.LASF380
 6727 0069 05       		.byte	0x5
 6728 006a 55       		.uleb128 0x55
 6729 006b 7F090000 		.4byte	.LASF381
ARM GAS  /tmp/ccSBomBp.s 			page 142


 6730 006f 05       		.byte	0x5
 6731 0070 60       		.uleb128 0x60
 6732 0071 24490000 		.4byte	.LASF382
 6733 0075 05       		.byte	0x5
 6734 0076 6B       		.uleb128 0x6b
 6735 0077 C26C0000 		.4byte	.LASF383
 6736 007b 05       		.byte	0x5
 6737 007c 74       		.uleb128 0x74
 6738 007d D40F0000 		.4byte	.LASF384
 6739 0081 05       		.byte	0x5
 6740 0082 7B       		.uleb128 0x7b
 6741 0083 74690000 		.4byte	.LASF385
 6742 0087 05       		.byte	0x5
 6743 0088 8401     		.uleb128 0x84
 6744 008a F5180000 		.4byte	.LASF386
 6745 008e 05       		.byte	0x5
 6746 008f 8B01     		.uleb128 0x8b
 6747 0091 4A3C0000 		.4byte	.LASF387
 6748 0095 05       		.byte	0x5
 6749 0096 9601     		.uleb128 0x96
 6750 0098 0B3B0000 		.4byte	.LASF388
 6751 009c 05       		.byte	0x5
 6752 009d 9A01     		.uleb128 0x9a
 6753 009f 21290000 		.4byte	.LASF389
 6754 00a3 05       		.byte	0x5
 6755 00a4 A501     		.uleb128 0xa5
 6756 00a6 EB650000 		.4byte	.LASF390
 6757 00aa 05       		.byte	0x5
 6758 00ab B001     		.uleb128 0xb0
 6759 00ad C60F0000 		.4byte	.LASF391
 6760 00b1 05       		.byte	0x5
 6761 00b2 B901     		.uleb128 0xb9
 6762 00b4 62500000 		.4byte	.LASF392
 6763 00b8 06       		.byte	0x6
 6764 00b9 BB01     		.uleb128 0xbb
 6765 00bb 24370000 		.4byte	.LASF369
 6766 00bf 06       		.byte	0x6
 6767 00c0 BC01     		.uleb128 0xbc
 6768 00c2 3C080000 		.4byte	.LASF370
 6769 00c6 06       		.byte	0x6
 6770 00c7 BD01     		.uleb128 0xbd
 6771 00c9 AF230000 		.4byte	.LASF371
 6772 00cd 06       		.byte	0x6
 6773 00ce BE01     		.uleb128 0xbe
 6774 00d0 05520000 		.4byte	.LASF372
 6775 00d4 02       		.byte	0x2
 6776 00d5 BF01     		.uleb128 0xbf
 6777 00d7 696E7400 		.ascii	"int\000"
 6778 00db 06       		.byte	0x6
 6779 00dc C001     		.uleb128 0xc0
 6780 00de F5510000 		.4byte	.LASF373
 6781 00e2 00       		.byte	0
 6782              		.section	.debug_macro,"G",%progbits,wm4._stdint.h.10.f76354baea1c7088202064e6f3d4f5e3,comdat
 6783              	.Ldebug_macro5:
 6784 0000 0400     		.2byte	0x4
 6785 0002 00       		.byte	0
 6786 0003 05       		.byte	0x5
ARM GAS  /tmp/ccSBomBp.s 			page 143


 6787 0004 0A       		.uleb128 0xa
 6788 0005 DA390000 		.4byte	.LASF393
 6789 0009 05       		.byte	0x5
 6790 000a 15       		.uleb128 0x15
 6791 000b 2D270000 		.4byte	.LASF394
 6792 000f 05       		.byte	0x5
 6793 0010 1B       		.uleb128 0x1b
 6794 0011 7E740000 		.4byte	.LASF395
 6795 0015 05       		.byte	0x5
 6796 0016 21       		.uleb128 0x21
 6797 0017 D0370000 		.4byte	.LASF396
 6798 001b 05       		.byte	0x5
 6799 001c 27       		.uleb128 0x27
 6800 001d 0F690000 		.4byte	.LASF397
 6801 0021 00       		.byte	0
 6802              		.section	.debug_macro,"G",%progbits,wm4.stdint.h.23.373a9d32a9e4c2e88fd347156532d281,comdat
 6803              	.Ldebug_macro6:
 6804 0000 0400     		.2byte	0x4
 6805 0002 00       		.byte	0
 6806 0003 05       		.byte	0x5
 6807 0004 17       		.uleb128 0x17
 6808 0005 B6740000 		.4byte	.LASF398
 6809 0009 05       		.byte	0x5
 6810 000a 1D       		.uleb128 0x1d
 6811 000b E72B0000 		.4byte	.LASF399
 6812 000f 05       		.byte	0x5
 6813 0010 23       		.uleb128 0x23
 6814 0011 8D320000 		.4byte	.LASF400
 6815 0015 05       		.byte	0x5
 6816 0016 29       		.uleb128 0x29
 6817 0017 28310000 		.4byte	.LASF401
 6818 001b 05       		.byte	0x5
 6819 001c 35       		.uleb128 0x35
 6820 001d 864B0000 		.4byte	.LASF402
 6821 0021 05       		.byte	0x5
 6822 0022 3F       		.uleb128 0x3f
 6823 0023 24460000 		.4byte	.LASF403
 6824 0027 05       		.byte	0x5
 6825 0028 49       		.uleb128 0x49
 6826 0029 980C0000 		.4byte	.LASF404
 6827 002d 05       		.byte	0x5
 6828 002e 53       		.uleb128 0x53
 6829 002f 173E0000 		.4byte	.LASF405
 6830 0033 05       		.byte	0x5
 6831 0034 9301     		.uleb128 0x93
 6832 0036 892E0000 		.4byte	.LASF406
 6833 003a 05       		.byte	0x5
 6834 003b 9401     		.uleb128 0x94
 6835 003d F9650000 		.4byte	.LASF407
 6836 0041 05       		.byte	0x5
 6837 0042 9501     		.uleb128 0x95
 6838 0044 79150000 		.4byte	.LASF408
 6839 0048 05       		.byte	0x5
 6840 0049 AB01     		.uleb128 0xab
 6841 004b A2330000 		.4byte	.LASF409
 6842 004f 05       		.byte	0x5
 6843 0050 AC01     		.uleb128 0xac
ARM GAS  /tmp/ccSBomBp.s 			page 144


 6844 0052 5D0A0000 		.4byte	.LASF410
 6845 0056 05       		.byte	0x5
 6846 0057 AD01     		.uleb128 0xad
 6847 0059 52740000 		.4byte	.LASF411
 6848 005d 05       		.byte	0x5
 6849 005e B501     		.uleb128 0xb5
 6850 0060 52680000 		.4byte	.LASF412
 6851 0064 05       		.byte	0x5
 6852 0065 B601     		.uleb128 0xb6
 6853 0067 040F0000 		.4byte	.LASF413
 6854 006b 05       		.byte	0x5
 6855 006c B701     		.uleb128 0xb7
 6856 006e E55E0000 		.4byte	.LASF414
 6857 0072 05       		.byte	0x5
 6858 0073 C101     		.uleb128 0xc1
 6859 0075 FA4E0000 		.4byte	.LASF415
 6860 0079 05       		.byte	0x5
 6861 007a C201     		.uleb128 0xc2
 6862 007c 0D0C0000 		.4byte	.LASF416
 6863 0080 05       		.byte	0x5
 6864 0081 C301     		.uleb128 0xc3
 6865 0083 BC340000 		.4byte	.LASF417
 6866 0087 05       		.byte	0x5
 6867 0088 CB01     		.uleb128 0xcb
 6868 008a C1420000 		.4byte	.LASF418
 6869 008e 05       		.byte	0x5
 6870 008f CC01     		.uleb128 0xcc
 6871 0091 9B090000 		.4byte	.LASF419
 6872 0095 05       		.byte	0x5
 6873 0096 CD01     		.uleb128 0xcd
 6874 0098 FF290000 		.4byte	.LASF420
 6875 009c 05       		.byte	0x5
 6876 009d D701     		.uleb128 0xd7
 6877 009f C65D0000 		.4byte	.LASF421
 6878 00a3 05       		.byte	0x5
 6879 00a4 D801     		.uleb128 0xd8
 6880 00a6 2B280000 		.4byte	.LASF422
 6881 00aa 05       		.byte	0x5
 6882 00ab D901     		.uleb128 0xd9
 6883 00ad 973F0000 		.4byte	.LASF423
 6884 00b1 05       		.byte	0x5
 6885 00b2 E701     		.uleb128 0xe7
 6886 00b4 2D640000 		.4byte	.LASF424
 6887 00b8 05       		.byte	0x5
 6888 00b9 E801     		.uleb128 0xe8
 6889 00bb 312C0000 		.4byte	.LASF425
 6890 00bf 05       		.byte	0x5
 6891 00c0 E901     		.uleb128 0xe9
 6892 00c2 48610000 		.4byte	.LASF426
 6893 00c6 05       		.byte	0x5
 6894 00c7 F901     		.uleb128 0xf9
 6895 00c9 15660000 		.4byte	.LASF427
 6896 00cd 05       		.byte	0x5
 6897 00ce FA01     		.uleb128 0xfa
 6898 00d0 8E460000 		.4byte	.LASF428
 6899 00d4 05       		.byte	0x5
 6900 00d5 FB01     		.uleb128 0xfb
ARM GAS  /tmp/ccSBomBp.s 			page 145


 6901 00d7 DC660000 		.4byte	.LASF429
 6902 00db 05       		.byte	0x5
 6903 00dc 8902     		.uleb128 0x109
 6904 00de 30100000 		.4byte	.LASF430
 6905 00e2 05       		.byte	0x5
 6906 00e3 8A02     		.uleb128 0x10a
 6907 00e5 1F0E0000 		.4byte	.LASF431
 6908 00e9 05       		.byte	0x5
 6909 00ea 8B02     		.uleb128 0x10b
 6910 00ec 5D560000 		.4byte	.LASF432
 6911 00f0 05       		.byte	0x5
 6912 00f1 9902     		.uleb128 0x119
 6913 00f3 0C480000 		.4byte	.LASF433
 6914 00f7 05       		.byte	0x5
 6915 00f8 9A02     		.uleb128 0x11a
 6916 00fa 92200000 		.4byte	.LASF434
 6917 00fe 05       		.byte	0x5
 6918 00ff 9B02     		.uleb128 0x11b
 6919 0101 92740000 		.4byte	.LASF435
 6920 0105 05       		.byte	0x5
 6921 0106 A902     		.uleb128 0x129
 6922 0108 441D0000 		.4byte	.LASF436
 6923 010c 05       		.byte	0x5
 6924 010d AA02     		.uleb128 0x12a
 6925 010f 99480000 		.4byte	.LASF437
 6926 0113 05       		.byte	0x5
 6927 0114 AB02     		.uleb128 0x12b
 6928 0116 B8600000 		.4byte	.LASF438
 6929 011a 05       		.byte	0x5
 6930 011b B902     		.uleb128 0x139
 6931 011d DE110000 		.4byte	.LASF439
 6932 0121 05       		.byte	0x5
 6933 0122 BA02     		.uleb128 0x13a
 6934 0124 CE130000 		.4byte	.LASF440
 6935 0128 05       		.byte	0x5
 6936 0129 BB02     		.uleb128 0x13b
 6937 012b 4F440000 		.4byte	.LASF441
 6938 012f 05       		.byte	0x5
 6939 0130 C902     		.uleb128 0x149
 6940 0132 814F0000 		.4byte	.LASF442
 6941 0136 05       		.byte	0x5
 6942 0137 CA02     		.uleb128 0x14a
 6943 0139 7F6F0000 		.4byte	.LASF443
 6944 013d 05       		.byte	0x5
 6945 013e CB02     		.uleb128 0x14b
 6946 0140 B6660000 		.4byte	.LASF444
 6947 0144 05       		.byte	0x5
 6948 0145 D902     		.uleb128 0x159
 6949 0147 0F280000 		.4byte	.LASF445
 6950 014b 05       		.byte	0x5
 6951 014c DA02     		.uleb128 0x15a
 6952 014e 22780000 		.4byte	.LASF446
 6953 0152 05       		.byte	0x5
 6954 0153 E202     		.uleb128 0x162
 6955 0155 943B0000 		.4byte	.LASF447
 6956 0159 05       		.byte	0x5
 6957 015a EA02     		.uleb128 0x16a
ARM GAS  /tmp/ccSBomBp.s 			page 146


 6958 015c E4370000 		.4byte	.LASF448
 6959 0160 05       		.byte	0x5
 6960 0161 F002     		.uleb128 0x170
 6961 0163 F32F0000 		.4byte	.LASF449
 6962 0167 05       		.byte	0x5
 6963 0168 F102     		.uleb128 0x171
 6964 016a 79250000 		.4byte	.LASF450
 6965 016e 05       		.byte	0x5
 6966 016f F502     		.uleb128 0x175
 6967 0171 A30A0000 		.4byte	.LASF451
 6968 0175 05       		.byte	0x5
 6969 0176 F902     		.uleb128 0x179
 6970 0178 11240000 		.4byte	.LASF452
 6971 017c 05       		.byte	0x5
 6972 017d FE02     		.uleb128 0x17e
 6973 017f 761B0000 		.4byte	.LASF453
 6974 0183 05       		.byte	0x5
 6975 0184 8903     		.uleb128 0x189
 6976 0186 BD0E0000 		.4byte	.LASF454
 6977 018a 05       		.byte	0x5
 6978 018b 9303     		.uleb128 0x193
 6979 018d 26400000 		.4byte	.LASF455
 6980 0191 05       		.byte	0x5
 6981 0192 9803     		.uleb128 0x198
 6982 0194 3B000000 		.4byte	.LASF456
 6983 0198 05       		.byte	0x5
 6984 0199 9F03     		.uleb128 0x19f
 6985 019b 88380000 		.4byte	.LASF457
 6986 019f 05       		.byte	0x5
 6987 01a0 A003     		.uleb128 0x1a0
 6988 01a2 BD670000 		.4byte	.LASF458
 6989 01a6 05       		.byte	0x5
 6990 01a7 AB03     		.uleb128 0x1ab
 6991 01a9 FF0C0000 		.4byte	.LASF459
 6992 01ad 05       		.byte	0x5
 6993 01ae AC03     		.uleb128 0x1ac
 6994 01b0 A86E0000 		.4byte	.LASF460
 6995 01b4 05       		.byte	0x5
 6996 01b5 B703     		.uleb128 0x1b7
 6997 01b7 A0600000 		.4byte	.LASF461
 6998 01bb 05       		.byte	0x5
 6999 01bc B803     		.uleb128 0x1b8
 7000 01be 5F470000 		.4byte	.LASF462
 7001 01c2 05       		.byte	0x5
 7002 01c3 C403     		.uleb128 0x1c4
 7003 01c5 6F330000 		.4byte	.LASF463
 7004 01c9 05       		.byte	0x5
 7005 01ca C503     		.uleb128 0x1c5
 7006 01cc 795E0000 		.4byte	.LASF464
 7007 01d0 05       		.byte	0x5
 7008 01d1 D403     		.uleb128 0x1d4
 7009 01d3 F7230000 		.4byte	.LASF465
 7010 01d7 05       		.byte	0x5
 7011 01d8 D503     		.uleb128 0x1d5
 7012 01da EA530000 		.4byte	.LASF466
 7013 01de 00       		.byte	0
 7014              		.section	.debug_macro,"G",%progbits,wm4.stdbool.h.29.1c9ee6859ce8145f7838a4f2549ccec2,comdat
ARM GAS  /tmp/ccSBomBp.s 			page 147


 7015              	.Ldebug_macro7:
 7016 0000 0400     		.2byte	0x4
 7017 0002 00       		.byte	0
 7018 0003 05       		.byte	0x5
 7019 0004 1D       		.uleb128 0x1d
 7020 0005 0C1D0000 		.4byte	.LASF468
 7021 0009 05       		.byte	0x5
 7022 000a 21       		.uleb128 0x21
 7023 000b F32E0000 		.4byte	.LASF469
 7024 000f 05       		.byte	0x5
 7025 0010 22       		.uleb128 0x22
 7026 0011 724C0000 		.4byte	.LASF470
 7027 0015 05       		.byte	0x5
 7028 0016 23       		.uleb128 0x23
 7029 0017 762C0000 		.4byte	.LASF471
 7030 001b 05       		.byte	0x5
 7031 001c 30       		.uleb128 0x30
 7032 001d D4720000 		.4byte	.LASF472
 7033 0021 00       		.byte	0
 7034              		.section	.debug_macro,"G",%progbits,wm4.lpc_types.h.63.5779355f7bf16476226d33c241ffb98a,comdat
 7035              	.Ldebug_macro8:
 7036 0000 0400     		.2byte	0x4
 7037 0002 00       		.byte	0
 7038 0003 05       		.byte	0x5
 7039 0004 3F       		.uleb128 0x3f
 7040 0005 0F170000 		.4byte	.LASF473
 7041 0009 05       		.byte	0x5
 7042 000a 45       		.uleb128 0x45
 7043 000b C1080000 		.4byte	.LASF474
 7044 000f 06       		.byte	0x6
 7045 0010 66       		.uleb128 0x66
 7046 0011 9B600000 		.4byte	.LASF475
 7047 0015 05       		.byte	0x5
 7048 0016 68       		.uleb128 0x68
 7049 0017 1E2C0000 		.4byte	.LASF476
 7050 001b 06       		.byte	0x6
 7051 001c 6E       		.uleb128 0x6e
 7052 001d A52A0000 		.4byte	.LASF477
 7053 0021 05       		.byte	0x5
 7054 0022 70       		.uleb128 0x70
 7055 0023 D51B0000 		.4byte	.LASF478
 7056 0027 06       		.byte	0x6
 7057 0028 7F       		.uleb128 0x7f
 7058 0029 DD310000 		.4byte	.LASF479
 7059 002d 05       		.byte	0x5
 7060 002e 8101     		.uleb128 0x81
 7061 0030 E76C0000 		.4byte	.LASF480
 7062 0034 05       		.byte	0x5
 7063 0035 8501     		.uleb128 0x85
 7064 0037 2D530000 		.4byte	.LASF481
 7065 003b 05       		.byte	0x5
 7066 003c 8901     		.uleb128 0x89
 7067 003e 7E450000 		.4byte	.LASF482
 7068 0042 05       		.byte	0x5
 7069 0043 8C01     		.uleb128 0x8c
 7070 0045 C4220000 		.4byte	.LASF483
 7071 0049 05       		.byte	0x5
ARM GAS  /tmp/ccSBomBp.s 			page 148


 7072 004a 8E01     		.uleb128 0x8e
 7073 004c 4E390000 		.4byte	.LASF484
 7074 0050 05       		.byte	0x5
 7075 0051 9101     		.uleb128 0x91
 7076 0053 9E380000 		.4byte	.LASF485
 7077 0057 05       		.byte	0x5
 7078 0058 9401     		.uleb128 0x94
 7079 005a 634A0000 		.4byte	.LASF486
 7080 005e 05       		.byte	0x5
 7081 005f CD01     		.uleb128 0xcd
 7082 0061 E4690000 		.4byte	.LASF487
 7083 0065 00       		.byte	0
 7084              		.section	.debug_macro,"G",%progbits,wm4.sys_config.h.31.9f234e9c90333d233c7e647ebe63e928,comdat
 7085              	.Ldebug_macro9:
 7086 0000 0400     		.2byte	0x4
 7087 0002 00       		.byte	0
 7088 0003 05       		.byte	0x5
 7089 0004 1F       		.uleb128 0x1f
 7090 0005 E7590000 		.4byte	.LASF488
 7091 0009 05       		.byte	0x5
 7092 000a 26       		.uleb128 0x26
 7093 000b 0B1B0000 		.4byte	.LASF489
 7094 000f 00       		.byte	0
 7095              		.section	.debug_macro,"G",%progbits,wm4.cmsis_11cxx.h.33.407e9bbb5d170cd1552d3f7dc3fd5c42,comdat
 7096              	.Ldebug_macro10:
 7097 0000 0400     		.2byte	0x4
 7098 0002 00       		.byte	0
 7099 0003 05       		.byte	0x5
 7100 0004 21       		.uleb128 0x21
 7101 0005 BA730000 		.4byte	.LASF491
 7102 0009 05       		.byte	0x5
 7103 000a 8801     		.uleb128 0x88
 7104 000c B2390000 		.4byte	.LASF492
 7105 0010 05       		.byte	0x5
 7106 0011 8901     		.uleb128 0x89
 7107 0013 BB6F0000 		.4byte	.LASF493
 7108 0017 05       		.byte	0x5
 7109 0018 8A01     		.uleb128 0x8a
 7110 001a AA520000 		.4byte	.LASF494
 7111 001e 00       		.byte	0
 7112              		.section	.debug_macro,"G",%progbits,wm4.core_cm0.h.32.192d13cfa8b31e63c86621de62eb153f,comdat
 7113              	.Ldebug_macro11:
 7114 0000 0400     		.2byte	0x4
 7115 0002 00       		.byte	0
 7116 0003 05       		.byte	0x5
 7117 0004 20       		.uleb128 0x20
 7118 0005 22120000 		.4byte	.LASF495
 7119 0009 05       		.byte	0x5
 7120 000a 38       		.uleb128 0x38
 7121 000b 86510000 		.4byte	.LASF496
 7122 000f 05       		.byte	0x5
 7123 0010 39       		.uleb128 0x39
 7124 0011 DC6A0000 		.4byte	.LASF497
 7125 0015 05       		.byte	0x5
 7126 0016 3A       		.uleb128 0x3a
 7127 0017 081F0000 		.4byte	.LASF498
 7128 001b 05       		.byte	0x5
ARM GAS  /tmp/ccSBomBp.s 			page 149


 7129 001c 3D       		.uleb128 0x3d
 7130 001d D72C0000 		.4byte	.LASF499
 7131 0021 05       		.byte	0x5
 7132 0022 4B       		.uleb128 0x4b
 7133 0023 280F0000 		.4byte	.LASF500
 7134 0027 05       		.byte	0x5
 7135 0028 4C       		.uleb128 0x4c
 7136 0029 74780000 		.4byte	.LASF501
 7137 002d 05       		.byte	0x5
 7138 002e 4D       		.uleb128 0x4d
 7139 002f E13D0000 		.4byte	.LASF502
 7140 0033 05       		.byte	0x5
 7141 0034 58       		.uleb128 0x58
 7142 0035 886A0000 		.4byte	.LASF503
 7143 0039 00       		.byte	0
 7144              		.section	.debug_macro,"G",%progbits,wm4.core_cm0.h.120.f4257ea7d0bce0cbabffe223e23b2fd4,comdat
 7145              	.Ldebug_macro12:
 7146 0000 0400     		.2byte	0x4
 7147 0002 00       		.byte	0
 7148 0003 05       		.byte	0x5
 7149 0004 78       		.uleb128 0x78
 7150 0005 31180000 		.4byte	.LASF506
 7151 0009 05       		.byte	0x5
 7152 000a 9701     		.uleb128 0x97
 7153 000c 543C0000 		.4byte	.LASF507
 7154 0010 05       		.byte	0x5
 7155 0011 9901     		.uleb128 0x99
 7156 0013 BB2F0000 		.4byte	.LASF508
 7157 0017 05       		.byte	0x5
 7158 0018 9A01     		.uleb128 0x9a
 7159 001a 5F670000 		.4byte	.LASF509
 7160 001e 05       		.byte	0x5
 7161 001f B002     		.uleb128 0x130
 7162 0021 1D440000 		.4byte	.LASF510
 7163 0025 05       		.byte	0x5
 7164 0026 B102     		.uleb128 0x131
 7165 0028 23720000 		.4byte	.LASF511
 7166 002c 05       		.byte	0x5
 7167 002d B302     		.uleb128 0x133
 7168 002f 585B0000 		.4byte	.LASF512
 7169 0033 05       		.byte	0x5
 7170 0034 B402     		.uleb128 0x134
 7171 0036 79470000 		.4byte	.LASF513
 7172 003a 05       		.byte	0x5
 7173 003b B602     		.uleb128 0x136
 7174 003d D8210000 		.4byte	.LASF514
 7175 0041 05       		.byte	0x5
 7176 0042 B702     		.uleb128 0x137
 7177 0044 11040000 		.4byte	.LASF515
 7178 0048 05       		.byte	0x5
 7179 0049 B902     		.uleb128 0x139
 7180 004b 3D2A0000 		.4byte	.LASF516
 7181 004f 05       		.byte	0x5
 7182 0050 BA02     		.uleb128 0x13a
 7183 0052 461A0000 		.4byte	.LASF517
 7184 0056 05       		.byte	0x5
 7185 0057 BC02     		.uleb128 0x13c
ARM GAS  /tmp/ccSBomBp.s 			page 150


 7186 0059 9F170000 		.4byte	.LASF518
 7187 005d 05       		.byte	0x5
 7188 005e BD02     		.uleb128 0x13d
 7189 0060 16350000 		.4byte	.LASF519
 7190 0064 05       		.byte	0x5
 7191 0065 C002     		.uleb128 0x140
 7192 0067 0E510000 		.4byte	.LASF520
 7193 006b 05       		.byte	0x5
 7194 006c C102     		.uleb128 0x141
 7195 006e 542A0000 		.4byte	.LASF521
 7196 0072 05       		.byte	0x5
 7197 0073 C302     		.uleb128 0x143
 7198 0075 852F0000 		.4byte	.LASF522
 7199 0079 05       		.byte	0x5
 7200 007a C402     		.uleb128 0x144
 7201 007c C4610000 		.4byte	.LASF523
 7202 0080 05       		.byte	0x5
 7203 0081 C602     		.uleb128 0x146
 7204 0083 28680000 		.4byte	.LASF524
 7205 0087 05       		.byte	0x5
 7206 0088 C702     		.uleb128 0x147
 7207 008a BF280000 		.4byte	.LASF525
 7208 008e 05       		.byte	0x5
 7209 008f C902     		.uleb128 0x149
 7210 0091 430A0000 		.4byte	.LASF526
 7211 0095 05       		.byte	0x5
 7212 0096 CA02     		.uleb128 0x14a
 7213 0098 15070000 		.4byte	.LASF527
 7214 009c 05       		.byte	0x5
 7215 009d CC02     		.uleb128 0x14c
 7216 009f E4460000 		.4byte	.LASF528
 7217 00a3 05       		.byte	0x5
 7218 00a4 CD02     		.uleb128 0x14d
 7219 00a6 EA020000 		.4byte	.LASF529
 7220 00aa 05       		.byte	0x5
 7221 00ab CF02     		.uleb128 0x14f
 7222 00ad F3500000 		.4byte	.LASF530
 7223 00b1 05       		.byte	0x5
 7224 00b2 D002     		.uleb128 0x150
 7225 00b4 5C390000 		.4byte	.LASF531
 7226 00b8 05       		.byte	0x5
 7227 00b9 D202     		.uleb128 0x152
 7228 00bb C8040000 		.4byte	.LASF532
 7229 00bf 05       		.byte	0x5
 7230 00c0 D302     		.uleb128 0x153
 7231 00c2 F9350000 		.4byte	.LASF533
 7232 00c6 05       		.byte	0x5
 7233 00c7 D502     		.uleb128 0x155
 7234 00c9 49430000 		.4byte	.LASF534
 7235 00cd 05       		.byte	0x5
 7236 00ce D602     		.uleb128 0x156
 7237 00d0 272D0000 		.4byte	.LASF535
 7238 00d4 05       		.byte	0x5
 7239 00d5 D802     		.uleb128 0x158
 7240 00d7 D10B0000 		.4byte	.LASF536
 7241 00db 05       		.byte	0x5
 7242 00dc D902     		.uleb128 0x159
ARM GAS  /tmp/ccSBomBp.s 			page 151


 7243 00de CF1C0000 		.4byte	.LASF537
 7244 00e2 05       		.byte	0x5
 7245 00e3 DC02     		.uleb128 0x15c
 7246 00e5 CE6C0000 		.4byte	.LASF538
 7247 00e9 05       		.byte	0x5
 7248 00ea DD02     		.uleb128 0x15d
 7249 00ec EC330000 		.4byte	.LASF539
 7250 00f0 05       		.byte	0x5
 7251 00f1 DF02     		.uleb128 0x15f
 7252 00f3 980B0000 		.4byte	.LASF540
 7253 00f7 05       		.byte	0x5
 7254 00f8 E002     		.uleb128 0x160
 7255 00fa E0770000 		.4byte	.LASF541
 7256 00fe 05       		.byte	0x5
 7257 00ff E202     		.uleb128 0x162
 7258 0101 B1680000 		.4byte	.LASF542
 7259 0105 05       		.byte	0x5
 7260 0106 E302     		.uleb128 0x163
 7261 0108 0E1C0000 		.4byte	.LASF543
 7262 010c 05       		.byte	0x5
 7263 010d E502     		.uleb128 0x165
 7264 010f 9F2F0000 		.4byte	.LASF544
 7265 0113 05       		.byte	0x5
 7266 0114 E602     		.uleb128 0x166
 7267 0116 F6380000 		.4byte	.LASF545
 7268 011a 05       		.byte	0x5
 7269 011b E802     		.uleb128 0x168
 7270 011d 2C730000 		.4byte	.LASF546
 7271 0121 05       		.byte	0x5
 7272 0122 E902     		.uleb128 0x169
 7273 0124 9F030000 		.4byte	.LASF547
 7274 0128 05       		.byte	0x5
 7275 0129 EC02     		.uleb128 0x16c
 7276 012b 16500000 		.4byte	.LASF548
 7277 012f 05       		.byte	0x5
 7278 0130 ED02     		.uleb128 0x16d
 7279 0132 39770000 		.4byte	.LASF549
 7280 0136 05       		.byte	0x5
 7281 0137 EF02     		.uleb128 0x16f
 7282 0139 8C280000 		.4byte	.LASF550
 7283 013d 05       		.byte	0x5
 7284 013e F002     		.uleb128 0x170
 7285 0140 F8660000 		.4byte	.LASF551
 7286 0144 05       		.byte	0x5
 7287 0145 F202     		.uleb128 0x172
 7288 0147 BA020000 		.4byte	.LASF552
 7289 014b 05       		.byte	0x5
 7290 014c F302     		.uleb128 0x173
 7291 014e AB1F0000 		.4byte	.LASF553
 7292 0152 05       		.byte	0x5
 7293 0153 F602     		.uleb128 0x176
 7294 0155 F2690000 		.4byte	.LASF554
 7295 0159 05       		.byte	0x5
 7296 015a F702     		.uleb128 0x177
 7297 015c 6E110000 		.4byte	.LASF555
 7298 0160 05       		.byte	0x5
 7299 0161 F902     		.uleb128 0x179
ARM GAS  /tmp/ccSBomBp.s 			page 152


 7300 0163 954D0000 		.4byte	.LASF556
 7301 0167 05       		.byte	0x5
 7302 0168 FA02     		.uleb128 0x17a
 7303 016a 7F060000 		.4byte	.LASF557
 7304 016e 05       		.byte	0x5
 7305 016f FD02     		.uleb128 0x17d
 7306 0171 46650000 		.4byte	.LASF558
 7307 0175 05       		.byte	0x5
 7308 0176 FE02     		.uleb128 0x17e
 7309 0178 E24D0000 		.4byte	.LASF559
 7310 017c 05       		.byte	0x5
 7311 017d 9403     		.uleb128 0x194
 7312 017f C92B0000 		.4byte	.LASF560
 7313 0183 05       		.byte	0x5
 7314 0184 9503     		.uleb128 0x195
 7315 0186 2A6B0000 		.4byte	.LASF561
 7316 018a 05       		.byte	0x5
 7317 018b 9703     		.uleb128 0x197
 7318 018d 340B0000 		.4byte	.LASF562
 7319 0191 05       		.byte	0x5
 7320 0192 9803     		.uleb128 0x198
 7321 0194 85050000 		.4byte	.LASF563
 7322 0198 05       		.byte	0x5
 7323 0199 9A03     		.uleb128 0x19a
 7324 019b 07120000 		.4byte	.LASF564
 7325 019f 05       		.byte	0x5
 7326 01a0 9B03     		.uleb128 0x19b
 7327 01a2 765C0000 		.4byte	.LASF565
 7328 01a6 05       		.byte	0x5
 7329 01a7 9D03     		.uleb128 0x19d
 7330 01a9 F5270000 		.4byte	.LASF566
 7331 01ad 05       		.byte	0x5
 7332 01ae 9E03     		.uleb128 0x19e
 7333 01b0 86620000 		.4byte	.LASF567
 7334 01b4 05       		.byte	0x5
 7335 01b5 A103     		.uleb128 0x1a1
 7336 01b7 23690000 		.4byte	.LASF568
 7337 01bb 05       		.byte	0x5
 7338 01bc A203     		.uleb128 0x1a2
 7339 01be 08610000 		.4byte	.LASF569
 7340 01c2 05       		.byte	0x5
 7341 01c3 A503     		.uleb128 0x1a5
 7342 01c5 5C540000 		.4byte	.LASF570
 7343 01c9 05       		.byte	0x5
 7344 01ca A603     		.uleb128 0x1a6
 7345 01cc 85490000 		.4byte	.LASF571
 7346 01d0 05       		.byte	0x5
 7347 01d1 A903     		.uleb128 0x1a9
 7348 01d3 FB610000 		.4byte	.LASF572
 7349 01d7 05       		.byte	0x5
 7350 01d8 AA03     		.uleb128 0x1aa
 7351 01da 59200000 		.4byte	.LASF573
 7352 01de 05       		.byte	0x5
 7353 01df AC03     		.uleb128 0x1ac
 7354 01e1 600E0000 		.4byte	.LASF574
 7355 01e5 05       		.byte	0x5
 7356 01e6 AD03     		.uleb128 0x1ad
ARM GAS  /tmp/ccSBomBp.s 			page 153


 7357 01e8 18700000 		.4byte	.LASF575
 7358 01ec 05       		.byte	0x5
 7359 01ed AF03     		.uleb128 0x1af
 7360 01ef 11380000 		.4byte	.LASF576
 7361 01f3 05       		.byte	0x5
 7362 01f4 B003     		.uleb128 0x1b0
 7363 01f6 D8540000 		.4byte	.LASF577
 7364 01fa 05       		.byte	0x5
 7365 01fb C603     		.uleb128 0x1c6
 7366 01fd 50520000 		.4byte	.LASF578
 7367 0201 05       		.byte	0x5
 7368 0202 C703     		.uleb128 0x1c7
 7369 0204 BB4C0000 		.4byte	.LASF579
 7370 0208 05       		.byte	0x5
 7371 0209 C803     		.uleb128 0x1c8
 7372 020b EE000000 		.4byte	.LASF580
 7373 020f 05       		.byte	0x5
 7374 0210 C903     		.uleb128 0x1c9
 7375 0212 EC420000 		.4byte	.LASF581
 7376 0216 05       		.byte	0x5
 7377 0217 CB03     		.uleb128 0x1cb
 7378 0219 EB5C0000 		.4byte	.LASF582
 7379 021d 05       		.byte	0x5
 7380 021e CC03     		.uleb128 0x1cc
 7381 0220 E8670000 		.4byte	.LASF583
 7382 0224 05       		.byte	0x5
 7383 0225 CD03     		.uleb128 0x1cd
 7384 0227 6E460000 		.4byte	.LASF584
 7385 022b 05       		.byte	0x5
 7386 022c E903     		.uleb128 0x1e9
 7387 022e E6400000 		.4byte	.LASF585
 7388 0232 05       		.byte	0x5
 7389 0233 EA03     		.uleb128 0x1ea
 7390 0235 165C0000 		.4byte	.LASF586
 7391 0239 05       		.byte	0x5
 7392 023a EB03     		.uleb128 0x1eb
 7393 023c FA450000 		.4byte	.LASF587
 7394 0240 00       		.byte	0
 7395              		.section	.debug_macro,"G",%progbits,wm4.chip.h.116.857da603c399e979152c31968de4baae,comdat
 7396              	.Ldebug_macro13:
 7397 0000 0400     		.2byte	0x4
 7398 0002 00       		.byte	0
 7399 0003 05       		.byte	0x5
 7400 0004 74       		.uleb128 0x74
 7401 0005 1C740000 		.4byte	.LASF588
 7402 0009 05       		.byte	0x5
 7403 000a 75       		.uleb128 0x75
 7404 000b C6010000 		.4byte	.LASF589
 7405 000f 05       		.byte	0x5
 7406 0010 76       		.uleb128 0x76
 7407 0011 D1190000 		.4byte	.LASF590
 7408 0015 05       		.byte	0x5
 7409 0016 77       		.uleb128 0x77
 7410 0017 4C5E0000 		.4byte	.LASF591
 7411 001b 05       		.byte	0x5
 7412 001c 78       		.uleb128 0x78
 7413 001d 23750000 		.4byte	.LASF592
ARM GAS  /tmp/ccSBomBp.s 			page 154


 7414 0021 05       		.byte	0x5
 7415 0022 79       		.uleb128 0x79
 7416 0023 84080000 		.4byte	.LASF593
 7417 0027 05       		.byte	0x5
 7418 0028 7A       		.uleb128 0x7a
 7419 0029 07060000 		.4byte	.LASF594
 7420 002d 05       		.byte	0x5
 7421 002e 7B       		.uleb128 0x7b
 7422 002f CC250000 		.4byte	.LASF595
 7423 0033 05       		.byte	0x5
 7424 0034 7C       		.uleb128 0x7c
 7425 0035 AA6C0000 		.4byte	.LASF596
 7426 0039 05       		.byte	0x5
 7427 003a 7D       		.uleb128 0x7d
 7428 003b 3F150000 		.4byte	.LASF597
 7429 003f 05       		.byte	0x5
 7430 0040 7E       		.uleb128 0x7e
 7431 0041 FF3D0000 		.4byte	.LASF598
 7432 0045 05       		.byte	0x5
 7433 0046 7F       		.uleb128 0x7f
 7434 0047 A7420000 		.4byte	.LASF599
 7435 004b 05       		.byte	0x5
 7436 004c 8001     		.uleb128 0x80
 7437 004e 6C4E0000 		.4byte	.LASF600
 7438 0052 05       		.byte	0x5
 7439 0053 8101     		.uleb128 0x81
 7440 0055 D4000000 		.4byte	.LASF601
 7441 0059 05       		.byte	0x5
 7442 005a 8201     		.uleb128 0x82
 7443 005c 4C2F0000 		.4byte	.LASF602
 7444 0060 05       		.byte	0x5
 7445 0061 8301     		.uleb128 0x83
 7446 0063 AD5A0000 		.4byte	.LASF603
 7447 0067 05       		.byte	0x5
 7448 0068 8401     		.uleb128 0x84
 7449 006a B62E0000 		.4byte	.LASF604
 7450 006e 05       		.byte	0x5
 7451 006f 8501     		.uleb128 0x85
 7452 0071 5B690000 		.4byte	.LASF605
 7453 0075 05       		.byte	0x5
 7454 0076 9001     		.uleb128 0x90
 7455 0078 7E5D0000 		.4byte	.LASF606
 7456 007c 05       		.byte	0x5
 7457 007d 9101     		.uleb128 0x91
 7458 007f BC300000 		.4byte	.LASF607
 7459 0083 05       		.byte	0x5
 7460 0084 9301     		.uleb128 0x93
 7461 0086 C5440000 		.4byte	.LASF608
 7462 008a 05       		.byte	0x5
 7463 008b 9401     		.uleb128 0x94
 7464 008d E2320000 		.4byte	.LASF609
 7465 0091 05       		.byte	0x5
 7466 0092 9701     		.uleb128 0x97
 7467 0094 D26B0000 		.4byte	.LASF610
 7468 0098 05       		.byte	0x5
 7469 0099 9801     		.uleb128 0x98
 7470 009b A4210000 		.4byte	.LASF611
ARM GAS  /tmp/ccSBomBp.s 			page 155


 7471 009f 05       		.byte	0x5
 7472 00a0 9B01     		.uleb128 0x9b
 7473 00a2 282B0000 		.4byte	.LASF612
 7474 00a6 05       		.byte	0x5
 7475 00a7 9E01     		.uleb128 0x9e
 7476 00a9 4E5C0000 		.4byte	.LASF613
 7477 00ad 05       		.byte	0x5
 7478 00ae 9F01     		.uleb128 0x9f
 7479 00b0 4A6E0000 		.4byte	.LASF614
 7480 00b4 05       		.byte	0x5
 7481 00b5 A001     		.uleb128 0xa0
 7482 00b7 67360000 		.4byte	.LASF615
 7483 00bb 05       		.byte	0x5
 7484 00bc A101     		.uleb128 0xa1
 7485 00be C4230000 		.4byte	.LASF616
 7486 00c2 05       		.byte	0x5
 7487 00c3 A201     		.uleb128 0xa2
 7488 00c5 6E160000 		.4byte	.LASF617
 7489 00c9 05       		.byte	0x5
 7490 00ca A301     		.uleb128 0xa3
 7491 00cc 7F1D0000 		.4byte	.LASF618
 7492 00d0 05       		.byte	0x5
 7493 00d1 A401     		.uleb128 0xa4
 7494 00d3 34200000 		.4byte	.LASF619
 7495 00d7 05       		.byte	0x5
 7496 00d8 B101     		.uleb128 0xb1
 7497 00da 4F780000 		.4byte	.LASF620
 7498 00de 05       		.byte	0x5
 7499 00df B201     		.uleb128 0xb2
 7500 00e1 F8590000 		.4byte	.LASF621
 7501 00e5 05       		.byte	0x5
 7502 00e6 B301     		.uleb128 0xb3
 7503 00e8 0F320000 		.4byte	.LASF622
 7504 00ec 05       		.byte	0x5
 7505 00ed B401     		.uleb128 0xb4
 7506 00ef C82F0000 		.4byte	.LASF623
 7507 00f3 05       		.byte	0x5
 7508 00f4 B501     		.uleb128 0xb5
 7509 00f6 2C250000 		.4byte	.LASF624
 7510 00fa 05       		.byte	0x5
 7511 00fb B701     		.uleb128 0xb7
 7512 00fd 7E3D0000 		.4byte	.LASF625
 7513 0101 05       		.byte	0x5
 7514 0102 B801     		.uleb128 0xb8
 7515 0104 DE120000 		.4byte	.LASF626
 7516 0108 05       		.byte	0x5
 7517 0109 BA01     		.uleb128 0xba
 7518 010b 89230000 		.4byte	.LASF627
 7519 010f 05       		.byte	0x5
 7520 0110 C101     		.uleb128 0xc1
 7521 0112 66220000 		.4byte	.LASF628
 7522 0116 05       		.byte	0x5
 7523 0117 C401     		.uleb128 0xc4
 7524 0119 103C0000 		.4byte	.LASF629
 7525 011d 00       		.byte	0
 7526              		.section	.debug_macro,"G",%progbits,wm4.pmu_11xx.h.33.1d6b708881441cb98d19b8bab3caa180,comdat
 7527              	.Ldebug_macro14:
ARM GAS  /tmp/ccSBomBp.s 			page 156


 7528 0000 0400     		.2byte	0x4
 7529 0002 00       		.byte	0
 7530 0003 05       		.byte	0x5
 7531 0004 21       		.uleb128 0x21
 7532 0005 A4430000 		.4byte	.LASF630
 7533 0009 05       		.byte	0x5
 7534 000a 4D       		.uleb128 0x4d
 7535 000b 9E660000 		.4byte	.LASF631
 7536 000f 05       		.byte	0x5
 7537 0010 53       		.uleb128 0x53
 7538 0011 57340000 		.4byte	.LASF632
 7539 0015 05       		.byte	0x5
 7540 0016 55       		.uleb128 0x55
 7541 0017 596F0000 		.4byte	.LASF633
 7542 001b 05       		.byte	0x5
 7543 001c 56       		.uleb128 0x56
 7544 001d 0F6B0000 		.4byte	.LASF634
 7545 0021 00       		.byte	0
 7546              		.section	.debug_macro,"G",%progbits,wm4.sysctl_11xx.h.33.ae61a1181e608f8409883008e291930c,comdat
 7547              	.Ldebug_macro15:
 7548 0000 0400     		.2byte	0x4
 7549 0002 00       		.byte	0
 7550 0003 05       		.byte	0x5
 7551 0004 21       		.uleb128 0x21
 7552 0005 2E6D0000 		.4byte	.LASF636
 7553 0009 05       		.byte	0x5
 7554 000a BC01     		.uleb128 0xbc
 7555 000c 49020000 		.4byte	.LASF637
 7556 0010 05       		.byte	0x5
 7557 0011 BD01     		.uleb128 0xbd
 7558 0013 F9070000 		.4byte	.LASF638
 7559 0017 05       		.byte	0x5
 7560 0018 BE01     		.uleb128 0xbe
 7561 001a 342F0000 		.4byte	.LASF639
 7562 001e 05       		.byte	0x5
 7563 001f BF01     		.uleb128 0xbf
 7564 0021 166D0000 		.4byte	.LASF640
 7565 0025 05       		.byte	0x5
 7566 0026 C001     		.uleb128 0xc0
 7567 0028 CD5F0000 		.4byte	.LASF641
 7568 002c 05       		.byte	0x5
 7569 002d C501     		.uleb128 0xc5
 7570 002f 4A170000 		.4byte	.LASF642
 7571 0033 05       		.byte	0x5
 7572 0034 A904     		.uleb128 0x229
 7573 0036 D6270000 		.4byte	.LASF643
 7574 003a 05       		.byte	0x5
 7575 003b AA04     		.uleb128 0x22a
 7576 003d 8F5B0000 		.4byte	.LASF644
 7577 0041 05       		.byte	0x5
 7578 0042 C904     		.uleb128 0x249
 7579 0044 286E0000 		.4byte	.LASF645
 7580 0048 05       		.byte	0x5
 7581 0049 CA04     		.uleb128 0x24a
 7582 004b AE710000 		.4byte	.LASF646
 7583 004f 05       		.byte	0x5
 7584 0050 CB04     		.uleb128 0x24b
ARM GAS  /tmp/ccSBomBp.s 			page 157


 7585 0052 4E380000 		.4byte	.LASF647
 7586 0056 05       		.byte	0x5
 7587 0057 CC04     		.uleb128 0x24c
 7588 0059 560F0000 		.4byte	.LASF648
 7589 005d 05       		.byte	0x5
 7590 005e CD04     		.uleb128 0x24d
 7591 0060 A0570000 		.4byte	.LASF649
 7592 0064 05       		.byte	0x5
 7593 0065 CE04     		.uleb128 0x24e
 7594 0067 04400000 		.4byte	.LASF650
 7595 006b 05       		.byte	0x5
 7596 006c CF04     		.uleb128 0x24f
 7597 006e CC680000 		.4byte	.LASF651
 7598 0072 05       		.byte	0x5
 7599 0073 D004     		.uleb128 0x250
 7600 0075 1A5B0000 		.4byte	.LASF652
 7601 0079 05       		.byte	0x5
 7602 007a F104     		.uleb128 0x271
 7603 007c B0470000 		.4byte	.LASF653
 7604 0080 05       		.byte	0x5
 7605 0081 F204     		.uleb128 0x272
 7606 0083 FB4C0000 		.4byte	.LASF654
 7607 0087 05       		.byte	0x5
 7608 0088 F304     		.uleb128 0x273
 7609 008a DB1A0000 		.4byte	.LASF655
 7610 008e 05       		.byte	0x5
 7611 008f F504     		.uleb128 0x275
 7612 0091 5D450000 		.4byte	.LASF656
 7613 0095 05       		.byte	0x5
 7614 0096 F704     		.uleb128 0x277
 7615 0098 EE680000 		.4byte	.LASF657
 7616 009c 05       		.byte	0x5
 7617 009d F804     		.uleb128 0x278
 7618 009f 750A0000 		.4byte	.LASF658
 7619 00a3 05       		.byte	0x5
 7620 00a4 F904     		.uleb128 0x279
 7621 00a6 A8460000 		.4byte	.LASF659
 7622 00aa 05       		.byte	0x5
 7623 00ab FA04     		.uleb128 0x27a
 7624 00ad F64B0000 		.4byte	.LASF660
 7625 00b1 00       		.byte	0
 7626              		.section	.debug_macro,"G",%progbits,wm4.clock_11xx.h.33.23290a9e2ed919e3a6958d25130bc848,comdat
 7627              	.Ldebug_macro16:
 7628 0000 0400     		.2byte	0x4
 7629 0002 00       		.byte	0
 7630 0003 05       		.byte	0x5
 7631 0004 21       		.uleb128 0x21
 7632 0005 543E0000 		.4byte	.LASF661
 7633 0009 05       		.byte	0x5
 7634 000a 2D       		.uleb128 0x2d
 7635 000b E85F0000 		.4byte	.LASF662
 7636 000f 00       		.byte	0
 7637              		.section	.debug_macro,"G",%progbits,wm4.iocon_11xx.h.33.25e2b3cde122df23fb07b984cb4f3a93,comdat
 7638              	.Ldebug_macro17:
 7639 0000 0400     		.2byte	0x4
 7640 0002 00       		.byte	0
 7641 0003 05       		.byte	0x5
ARM GAS  /tmp/ccSBomBp.s 			page 158


 7642 0004 21       		.uleb128 0x21
 7643 0005 E02D0000 		.4byte	.LASF663
 7644 0009 05       		.byte	0x5
 7645 000a A601     		.uleb128 0xa6
 7646 000c 67350000 		.4byte	.LASF664
 7647 0010 05       		.byte	0x5
 7648 0011 A701     		.uleb128 0xa7
 7649 0013 8B090000 		.4byte	.LASF665
 7650 0017 05       		.byte	0x5
 7651 0018 A801     		.uleb128 0xa8
 7652 001a E5180000 		.4byte	.LASF666
 7653 001e 05       		.byte	0x5
 7654 001f A901     		.uleb128 0xa9
 7655 0021 F35D0000 		.4byte	.LASF667
 7656 0025 05       		.byte	0x5
 7657 0026 AA01     		.uleb128 0xaa
 7658 0028 794C0000 		.4byte	.LASF668
 7659 002c 05       		.byte	0x5
 7660 002d AB01     		.uleb128 0xab
 7661 002f 9D3A0000 		.4byte	.LASF669
 7662 0033 05       		.byte	0x5
 7663 0034 AC01     		.uleb128 0xac
 7664 0036 FC260000 		.4byte	.LASF670
 7665 003a 05       		.byte	0x5
 7666 003b AD01     		.uleb128 0xad
 7667 003d CE110000 		.4byte	.LASF671
 7668 0041 05       		.byte	0x5
 7669 0042 AE01     		.uleb128 0xae
 7670 0044 64650000 		.4byte	.LASF672
 7671 0048 05       		.byte	0x5
 7672 0049 AF01     		.uleb128 0xaf
 7673 004b 3E4E0000 		.4byte	.LASF673
 7674 004f 05       		.byte	0x5
 7675 0050 B001     		.uleb128 0xb0
 7676 0052 03600000 		.4byte	.LASF674
 7677 0056 05       		.byte	0x5
 7678 0057 B101     		.uleb128 0xb1
 7679 0059 20710000 		.4byte	.LASF675
 7680 005d 05       		.byte	0x5
 7681 005e B201     		.uleb128 0xb2
 7682 0060 2E500000 		.4byte	.LASF676
 7683 0064 05       		.byte	0x5
 7684 0065 B301     		.uleb128 0xb3
 7685 0067 DC220000 		.4byte	.LASF677
 7686 006b 05       		.byte	0x5
 7687 006c B401     		.uleb128 0xb4
 7688 006e 16540000 		.4byte	.LASF678
 7689 0072 05       		.byte	0x5
 7690 0073 B501     		.uleb128 0xb5
 7691 0075 3C5B0000 		.4byte	.LASF679
 7692 0079 05       		.byte	0x5
 7693 007a B601     		.uleb128 0xb6
 7694 007c E10F0000 		.4byte	.LASF680
 7695 0080 05       		.byte	0x5
 7696 0081 B701     		.uleb128 0xb7
 7697 0083 58640000 		.4byte	.LASF681
 7698 0087 05       		.byte	0x5
ARM GAS  /tmp/ccSBomBp.s 			page 159


 7699 0088 B801     		.uleb128 0xb8
 7700 008a 2A650000 		.4byte	.LASF682
 7701 008e 05       		.byte	0x5
 7702 008f B901     		.uleb128 0xb9
 7703 0091 C1650000 		.4byte	.LASF683
 7704 0095 05       		.byte	0x5
 7705 0096 BA01     		.uleb128 0xba
 7706 0098 40140000 		.4byte	.LASF684
 7707 009c 05       		.byte	0x5
 7708 009d C001     		.uleb128 0xc0
 7709 009f 510B0000 		.4byte	.LASF685
 7710 00a3 05       		.byte	0x5
 7711 00a4 C101     		.uleb128 0xc1
 7712 00a6 6D670000 		.4byte	.LASF686
 7713 00aa 05       		.byte	0x5
 7714 00ab C201     		.uleb128 0xc2
 7715 00ad 38600000 		.4byte	.LASF687
 7716 00b1 05       		.byte	0x5
 7717 00b2 C301     		.uleb128 0xc3
 7718 00b4 B5310000 		.4byte	.LASF688
 7719 00b8 05       		.byte	0x5
 7720 00b9 C401     		.uleb128 0xc4
 7721 00bb E41F0000 		.4byte	.LASF689
 7722 00bf 05       		.byte	0x5
 7723 00c0 C501     		.uleb128 0xc5
 7724 00c2 74170000 		.4byte	.LASF690
 7725 00c6 05       		.byte	0x5
 7726 00c7 C601     		.uleb128 0xc6
 7727 00c9 49180000 		.4byte	.LASF691
 7728 00cd 05       		.byte	0x5
 7729 00ce C701     		.uleb128 0xc7
 7730 00d0 D4470000 		.4byte	.LASF692
 7731 00d4 05       		.byte	0x5
 7732 00d5 C801     		.uleb128 0xc8
 7733 00d7 31160000 		.4byte	.LASF693
 7734 00db 05       		.byte	0x5
 7735 00dc C901     		.uleb128 0xc9
 7736 00de 47550000 		.4byte	.LASF694
 7737 00e2 05       		.byte	0x5
 7738 00e3 CA01     		.uleb128 0xca
 7739 00e5 4F480000 		.4byte	.LASF695
 7740 00e9 05       		.byte	0x5
 7741 00ea CB01     		.uleb128 0xcb
 7742 00ec 30240000 		.4byte	.LASF696
 7743 00f0 05       		.byte	0x5
 7744 00f1 CC01     		.uleb128 0xcc
 7745 00f3 00450000 		.4byte	.LASF697
 7746 00f7 05       		.byte	0x5
 7747 00f8 CD01     		.uleb128 0xcd
 7748 00fa FF6B0000 		.4byte	.LASF698
 7749 00fe 05       		.byte	0x5
 7750 00ff CE01     		.uleb128 0xce
 7751 0101 C76D0000 		.4byte	.LASF699
 7752 0105 05       		.byte	0x5
 7753 0106 CF01     		.uleb128 0xcf
 7754 0108 756F0000 		.4byte	.LASF700
 7755 010c 05       		.byte	0x5
ARM GAS  /tmp/ccSBomBp.s 			page 160


 7756 010d D001     		.uleb128 0xd0
 7757 010f 6A5D0000 		.4byte	.LASF701
 7758 0113 05       		.byte	0x5
 7759 0114 D101     		.uleb128 0xd1
 7760 0116 C34B0000 		.4byte	.LASF702
 7761 011a 05       		.byte	0x5
 7762 011b D201     		.uleb128 0xd2
 7763 011d 8D3F0000 		.4byte	.LASF703
 7764 0121 05       		.byte	0x5
 7765 0122 D301     		.uleb128 0xd3
 7766 0124 89260000 		.4byte	.LASF704
 7767 0128 05       		.byte	0x5
 7768 0129 D401     		.uleb128 0xd4
 7769 012b A1400000 		.4byte	.LASF705
 7770 012f 05       		.byte	0x5
 7771 0130 D501     		.uleb128 0xd5
 7772 0132 3F780000 		.4byte	.LASF706
 7773 0136 00       		.byte	0
 7774              		.section	.debug_macro,"G",%progbits,wm4.timer_11xx.h.33.c92f50a9325789ee6a8ffd6248980d70,comdat
 7775              	.Ldebug_macro18:
 7776 0000 0400     		.2byte	0x4
 7777 0002 00       		.byte	0
 7778 0003 05       		.byte	0x5
 7779 0004 21       		.uleb128 0x21
 7780 0005 B66D0000 		.4byte	.LASF707
 7781 0009 05       		.byte	0x5
 7782 000a 40       		.uleb128 0x40
 7783 000b 23090000 		.4byte	.LASF708
 7784 000f 05       		.byte	0x5
 7785 0010 43       		.uleb128 0x43
 7786 0011 59370000 		.4byte	.LASF709
 7787 0015 05       		.byte	0x5
 7788 0016 45       		.uleb128 0x45
 7789 0017 0F2E0000 		.4byte	.LASF710
 7790 001b 05       		.byte	0x5
 7791 001c 48       		.uleb128 0x48
 7792 001d 960F0000 		.4byte	.LASF711
 7793 0021 05       		.byte	0x5
 7794 0022 4A       		.uleb128 0x4a
 7795 0023 994C0000 		.4byte	.LASF712
 7796 0027 05       		.byte	0x5
 7797 0028 4D       		.uleb128 0x4d
 7798 0029 5E210000 		.4byte	.LASF713
 7799 002d 05       		.byte	0x5
 7800 002e 4F       		.uleb128 0x4f
 7801 002f 812D0000 		.4byte	.LASF714
 7802 0033 05       		.byte	0x5
 7803 0034 51       		.uleb128 0x51
 7804 0035 0D590000 		.4byte	.LASF715
 7805 0039 05       		.byte	0x5
 7806 003a 54       		.uleb128 0x54
 7807 003b 16450000 		.4byte	.LASF716
 7808 003f 05       		.byte	0x5
 7809 0040 56       		.uleb128 0x56
 7810 0041 F0430000 		.4byte	.LASF717
 7811 0045 05       		.byte	0x5
 7812 0046 58       		.uleb128 0x58
ARM GAS  /tmp/ccSBomBp.s 			page 161


 7813 0047 6B760000 		.4byte	.LASF718
 7814 004b 00       		.byte	0
 7815              		.section	.debug_macro,"G",%progbits,wm4.ring_buffer.h.33.ffd8153954783612f9c626df1ed9e770,comdat
 7816              	.Ldebug_macro19:
 7817 0000 0400     		.2byte	0x4
 7818 0002 00       		.byte	0
 7819 0003 05       		.byte	0x5
 7820 0004 21       		.uleb128 0x21
 7821 0005 46510000 		.4byte	.LASF720
 7822 0009 05       		.byte	0x5
 7823 000a 39       		.uleb128 0x39
 7824 000b A6510000 		.4byte	.LASF721
 7825 000f 05       		.byte	0x5
 7826 0010 3F       		.uleb128 0x3f
 7827 0011 41750000 		.4byte	.LASF722
 7828 0015 00       		.byte	0
 7829              		.section	.debug_macro,"G",%progbits,wm4.uart_11xx.h.98.fe68b709973730a4fba3f3ce60c5c312,comdat
 7830              	.Ldebug_macro20:
 7831 0000 0400     		.2byte	0x4
 7832 0002 00       		.byte	0
 7833 0003 05       		.byte	0x5
 7834 0004 62       		.uleb128 0x62
 7835 0005 CF2E0000 		.4byte	.LASF723
 7836 0009 05       		.byte	0x5
 7837 000a 67       		.uleb128 0x67
 7838 000b C3520000 		.4byte	.LASF724
 7839 000f 05       		.byte	0x5
 7840 0010 68       		.uleb128 0x68
 7841 0011 A36F0000 		.4byte	.LASF725
 7842 0015 05       		.byte	0x5
 7843 0016 6D       		.uleb128 0x6d
 7844 0017 76540000 		.4byte	.LASF726
 7845 001b 05       		.byte	0x5
 7846 001c 6E       		.uleb128 0x6e
 7847 001d A22C0000 		.4byte	.LASF727
 7848 0021 05       		.byte	0x5
 7849 0022 73       		.uleb128 0x73
 7850 0023 9F540000 		.4byte	.LASF728
 7851 0027 05       		.byte	0x5
 7852 0028 74       		.uleb128 0x74
 7853 0029 0A4A0000 		.4byte	.LASF729
 7854 002d 05       		.byte	0x5
 7855 002e 75       		.uleb128 0x75
 7856 002f 3D460000 		.4byte	.LASF730
 7857 0033 05       		.byte	0x5
 7858 0034 76       		.uleb128 0x76
 7859 0035 09570000 		.4byte	.LASF731
 7860 0039 05       		.byte	0x5
 7861 003a 77       		.uleb128 0x77
 7862 003b 6E660000 		.4byte	.LASF732
 7863 003f 05       		.byte	0x5
 7864 0040 78       		.uleb128 0x78
 7865 0041 17190000 		.4byte	.LASF733
 7866 0045 05       		.byte	0x5
 7867 0046 79       		.uleb128 0x79
 7868 0047 7F670000 		.4byte	.LASF734
 7869 004b 05       		.byte	0x5
ARM GAS  /tmp/ccSBomBp.s 			page 162


 7870 004c 7A       		.uleb128 0x7a
 7871 004d A3590000 		.4byte	.LASF735
 7872 0051 05       		.byte	0x5
 7873 0052 7B       		.uleb128 0x7b
 7874 0053 88610000 		.4byte	.LASF736
 7875 0057 05       		.byte	0x5
 7876 0058 7C       		.uleb128 0x7c
 7877 0059 F6090000 		.4byte	.LASF737
 7878 005d 05       		.byte	0x5
 7879 005e 8101     		.uleb128 0x81
 7880 0060 F75B0000 		.4byte	.LASF738
 7881 0064 05       		.byte	0x5
 7882 0065 8201     		.uleb128 0x82
 7883 0067 73320000 		.4byte	.LASF739
 7884 006b 05       		.byte	0x5
 7885 006c 8301     		.uleb128 0x83
 7886 006e 662D0000 		.4byte	.LASF740
 7887 0072 05       		.byte	0x5
 7888 0073 8401     		.uleb128 0x84
 7889 0075 6B790000 		.4byte	.LASF741
 7890 0079 05       		.byte	0x5
 7891 007a 8501     		.uleb128 0x85
 7892 007c 14270000 		.4byte	.LASF742
 7893 0080 05       		.byte	0x5
 7894 0081 8801     		.uleb128 0x88
 7895 0083 6E770000 		.4byte	.LASF743
 7896 0087 05       		.byte	0x5
 7897 0088 8901     		.uleb128 0x89
 7898 008a B15B0000 		.4byte	.LASF744
 7899 008e 05       		.byte	0x5
 7900 008f 8A01     		.uleb128 0x8a
 7901 0091 956A0000 		.4byte	.LASF745
 7902 0095 05       		.byte	0x5
 7903 0096 8B01     		.uleb128 0x8b
 7904 0098 493A0000 		.4byte	.LASF746
 7905 009c 05       		.byte	0x5
 7906 009d 8C01     		.uleb128 0x8c
 7907 009f 4F4F0000 		.4byte	.LASF747
 7908 00a3 05       		.byte	0x5
 7909 00a4 8D01     		.uleb128 0x8d
 7910 00a6 690B0000 		.4byte	.LASF748
 7911 00aa 05       		.byte	0x5
 7912 00ab 9201     		.uleb128 0x92
 7913 00ad CB180000 		.4byte	.LASF749
 7914 00b1 05       		.byte	0x5
 7915 00b2 9301     		.uleb128 0x93
 7916 00b4 47660000 		.4byte	.LASF750
 7917 00b8 05       		.byte	0x5
 7918 00b9 9401     		.uleb128 0x94
 7919 00bb 4F350000 		.4byte	.LASF751
 7920 00bf 05       		.byte	0x5
 7921 00c0 9501     		.uleb128 0x95
 7922 00c2 80650000 		.4byte	.LASF752
 7923 00c6 05       		.byte	0x5
 7924 00c7 9601     		.uleb128 0x96
 7925 00c9 48220000 		.4byte	.LASF753
 7926 00cd 05       		.byte	0x5
ARM GAS  /tmp/ccSBomBp.s 			page 163


 7927 00ce 9801     		.uleb128 0x98
 7928 00d0 F80D0000 		.4byte	.LASF754
 7929 00d4 05       		.byte	0x5
 7930 00d5 9B01     		.uleb128 0x9b
 7931 00d7 C7310000 		.4byte	.LASF755
 7932 00db 05       		.byte	0x5
 7933 00dc 9C01     		.uleb128 0x9c
 7934 00de 9C100000 		.4byte	.LASF756
 7935 00e2 05       		.byte	0x5
 7936 00e3 9D01     		.uleb128 0x9d
 7937 00e5 6E2B0000 		.4byte	.LASF757
 7938 00e9 05       		.byte	0x5
 7939 00ea 9E01     		.uleb128 0x9e
 7940 00ec 403D0000 		.4byte	.LASF758
 7941 00f0 05       		.byte	0x5
 7942 00f1 A401     		.uleb128 0xa4
 7943 00f3 45280000 		.4byte	.LASF759
 7944 00f7 05       		.byte	0x5
 7945 00f8 A501     		.uleb128 0xa5
 7946 00fa 20600000 		.4byte	.LASF760
 7947 00fe 05       		.byte	0x5
 7948 00ff A601     		.uleb128 0xa6
 7949 0101 FD060000 		.4byte	.LASF761
 7950 0105 05       		.byte	0x5
 7951 0106 A701     		.uleb128 0xa7
 7952 0108 8D2A0000 		.4byte	.LASF762
 7953 010c 05       		.byte	0x5
 7954 010d A801     		.uleb128 0xa8
 7955 010f 70610000 		.4byte	.LASF763
 7956 0113 05       		.byte	0x5
 7957 0114 AB01     		.uleb128 0xab
 7958 0116 36230000 		.4byte	.LASF764
 7959 011a 05       		.byte	0x5
 7960 011b AC01     		.uleb128 0xac
 7961 011d 18790000 		.4byte	.LASF765
 7962 0121 05       		.byte	0x5
 7963 0122 AD01     		.uleb128 0xad
 7964 0124 F53B0000 		.4byte	.LASF766
 7965 0128 05       		.byte	0x5
 7966 0129 B001     		.uleb128 0xb0
 7967 012b C40D0000 		.4byte	.LASF767
 7968 012f 05       		.byte	0x5
 7969 0130 B101     		.uleb128 0xb1
 7970 0132 DE4C0000 		.4byte	.LASF768
 7971 0136 05       		.byte	0x5
 7972 0137 B201     		.uleb128 0xb2
 7973 0139 CD450000 		.4byte	.LASF769
 7974 013d 05       		.byte	0x5
 7975 013e B301     		.uleb128 0xb3
 7976 0140 2D670000 		.4byte	.LASF770
 7977 0144 05       		.byte	0x5
 7978 0145 B401     		.uleb128 0xb4
 7979 0147 1D420000 		.4byte	.LASF771
 7980 014b 05       		.byte	0x5
 7981 014c B501     		.uleb128 0xb5
 7982 014e 17200000 		.4byte	.LASF772
 7983 0152 05       		.byte	0x5
ARM GAS  /tmp/ccSBomBp.s 			page 164


 7984 0153 B601     		.uleb128 0xb6
 7985 0155 84030000 		.4byte	.LASF773
 7986 0159 05       		.byte	0x5
 7987 015a B701     		.uleb128 0xb7
 7988 015c 181D0000 		.4byte	.LASF774
 7989 0160 05       		.byte	0x5
 7990 0161 B801     		.uleb128 0xb8
 7991 0163 B33F0000 		.4byte	.LASF775
 7992 0167 05       		.byte	0x5
 7993 0168 BD01     		.uleb128 0xbd
 7994 016a 2A050000 		.4byte	.LASF776
 7995 016e 05       		.byte	0x5
 7996 016f BE01     		.uleb128 0xbe
 7997 0171 9D140000 		.4byte	.LASF777
 7998 0175 05       		.byte	0x5
 7999 0176 BF01     		.uleb128 0xbf
 8000 0178 F5170000 		.4byte	.LASF778
 8001 017c 05       		.byte	0x5
 8002 017d C001     		.uleb128 0xc0
 8003 017f CA100000 		.4byte	.LASF779
 8004 0183 05       		.byte	0x5
 8005 0184 C101     		.uleb128 0xc1
 8006 0186 AB2B0000 		.4byte	.LASF780
 8007 018a 05       		.byte	0x5
 8008 018b C201     		.uleb128 0xc2
 8009 018d DA0A0000 		.4byte	.LASF781
 8010 0191 05       		.byte	0x5
 8011 0192 C701     		.uleb128 0xc7
 8012 0194 F0480000 		.4byte	.LASF782
 8013 0198 05       		.byte	0x5
 8014 0199 C801     		.uleb128 0xc8
 8015 019b D1700000 		.4byte	.LASF783
 8016 019f 05       		.byte	0x5
 8017 01a0 C901     		.uleb128 0xc9
 8018 01a2 841C0000 		.4byte	.LASF784
 8019 01a6 05       		.byte	0x5
 8020 01a7 CA01     		.uleb128 0xca
 8021 01a9 82630000 		.4byte	.LASF785
 8022 01ad 05       		.byte	0x5
 8023 01ae CB01     		.uleb128 0xcb
 8024 01b0 21230000 		.4byte	.LASF786
 8025 01b4 05       		.byte	0x5
 8026 01b5 CC01     		.uleb128 0xcc
 8027 01b7 5E180000 		.4byte	.LASF787
 8028 01bb 05       		.byte	0x5
 8029 01bc CD01     		.uleb128 0xcd
 8030 01be CA170000 		.4byte	.LASF788
 8031 01c2 05       		.byte	0x5
 8032 01c3 CE01     		.uleb128 0xce
 8033 01c5 46160000 		.4byte	.LASF789
 8034 01c9 05       		.byte	0x5
 8035 01ca CF01     		.uleb128 0xcf
 8036 01cc 86070000 		.4byte	.LASF790
 8037 01d0 05       		.byte	0x5
 8038 01d1 D001     		.uleb128 0xd0
 8039 01d3 D40C0000 		.4byte	.LASF791
 8040 01d7 05       		.byte	0x5
ARM GAS  /tmp/ccSBomBp.s 			page 165


 8041 01d8 D101     		.uleb128 0xd1
 8042 01da 263D0000 		.4byte	.LASF792
 8043 01de 05       		.byte	0x5
 8044 01df D601     		.uleb128 0xd6
 8045 01e1 E4440000 		.4byte	.LASF793
 8046 01e5 05       		.byte	0x5
 8047 01e6 D701     		.uleb128 0xd7
 8048 01e8 F36D0000 		.4byte	.LASF794
 8049 01ec 05       		.byte	0x5
 8050 01ed D801     		.uleb128 0xd8
 8051 01ef 73040000 		.4byte	.LASF795
 8052 01f3 05       		.byte	0x5
 8053 01f4 D901     		.uleb128 0xd9
 8054 01f6 50410000 		.4byte	.LASF796
 8055 01fa 05       		.byte	0x5
 8056 01fb DA01     		.uleb128 0xda
 8057 01fd F7790000 		.4byte	.LASF797
 8058 0201 05       		.byte	0x5
 8059 0202 DB01     		.uleb128 0xdb
 8060 0204 9B530000 		.4byte	.LASF798
 8061 0208 05       		.byte	0x5
 8062 0209 DC01     		.uleb128 0xdc
 8063 020b B15C0000 		.4byte	.LASF799
 8064 020f 05       		.byte	0x5
 8065 0210 DD01     		.uleb128 0xdd
 8066 0212 96780000 		.4byte	.LASF800
 8067 0216 05       		.byte	0x5
 8068 0217 DE01     		.uleb128 0xde
 8069 0219 1C410000 		.4byte	.LASF801
 8070 021d 05       		.byte	0x5
 8071 021e E301     		.uleb128 0xe3
 8072 0220 A4300000 		.4byte	.LASF802
 8073 0224 05       		.byte	0x5
 8074 0225 E401     		.uleb128 0xe4
 8075 0227 09650000 		.4byte	.LASF803
 8076 022b 05       		.byte	0x5
 8077 022c E501     		.uleb128 0xe5
 8078 022e 9D5D0000 		.4byte	.LASF804
 8079 0232 05       		.byte	0x5
 8080 0233 E601     		.uleb128 0xe6
 8081 0235 06490000 		.4byte	.LASF805
 8082 0239 05       		.byte	0x5
 8083 023a E701     		.uleb128 0xe7
 8084 023c 93260000 		.4byte	.LASF806
 8085 0240 05       		.byte	0x5
 8086 0241 E801     		.uleb128 0xe8
 8087 0243 11050000 		.4byte	.LASF807
 8088 0247 05       		.byte	0x5
 8089 0248 ED01     		.uleb128 0xed
 8090 024a A2080000 		.4byte	.LASF808
 8091 024e 05       		.byte	0x5
 8092 024f EE01     		.uleb128 0xee
 8093 0251 24110000 		.4byte	.LASF809
 8094 0255 05       		.byte	0x5
 8095 0256 EF01     		.uleb128 0xef
 8096 0258 40300000 		.4byte	.LASF810
 8097 025c 05       		.byte	0x5
ARM GAS  /tmp/ccSBomBp.s 			page 166


 8098 025d F001     		.uleb128 0xf0
 8099 025f 626D0000 		.4byte	.LASF811
 8100 0263 05       		.byte	0x5
 8101 0264 F201     		.uleb128 0xf2
 8102 0266 A2370000 		.4byte	.LASF812
 8103 026a 05       		.byte	0x5
 8104 026b F301     		.uleb128 0xf3
 8105 026d 1C4D0000 		.4byte	.LASF813
 8106 0271 05       		.byte	0x5
 8107 0272 F601     		.uleb128 0xf6
 8108 0274 6A290000 		.4byte	.LASF814
 8109 0278 05       		.byte	0x5
 8110 0279 FB01     		.uleb128 0xfb
 8111 027b B21D0000 		.4byte	.LASF815
 8112 027f 05       		.byte	0x5
 8113 0280 FC01     		.uleb128 0xfc
 8114 0282 4D360000 		.4byte	.LASF816
 8115 0286 05       		.byte	0x5
 8116 0287 FD01     		.uleb128 0xfd
 8117 0289 34740000 		.4byte	.LASF817
 8118 028d 05       		.byte	0x5
 8119 028e FE01     		.uleb128 0xfe
 8120 0290 5D1C0000 		.4byte	.LASF818
 8121 0294 05       		.byte	0x5
 8122 0295 FF01     		.uleb128 0xff
 8123 0297 7A0E0000 		.4byte	.LASF819
 8124 029b 05       		.byte	0x5
 8125 029c 8402     		.uleb128 0x104
 8126 029e C73D0000 		.4byte	.LASF820
 8127 02a2 05       		.byte	0x5
 8128 02a3 8902     		.uleb128 0x109
 8129 02a5 6C410000 		.4byte	.LASF821
 8130 02a9 05       		.byte	0x5
 8131 02aa 8A02     		.uleb128 0x10a
 8132 02ac 056F0000 		.4byte	.LASF822
 8133 02b0 05       		.byte	0x5
 8134 02b1 8B02     		.uleb128 0x10b
 8135 02b3 DB300000 		.4byte	.LASF823
 8136 02b7 05       		.byte	0x5
 8137 02b8 8C02     		.uleb128 0x10c
 8138 02ba 45330000 		.4byte	.LASF824
 8139 02be 05       		.byte	0x5
 8140 02bf 8D02     		.uleb128 0x10d
 8141 02c1 FC300000 		.4byte	.LASF825
 8142 02c5 05       		.byte	0x5
 8143 02c6 9202     		.uleb128 0x112
 8144 02c8 4D2B0000 		.4byte	.LASF826
 8145 02cc 05       		.byte	0x5
 8146 02cd 9302     		.uleb128 0x113
 8147 02cf 455D0000 		.4byte	.LASF827
 8148 02d3 05       		.byte	0x5
 8149 02d4 9402     		.uleb128 0x114
 8150 02d6 43690000 		.4byte	.LASF828
 8151 02da 05       		.byte	0x5
 8152 02db 9902     		.uleb128 0x119
 8153 02dd 3E0F0000 		.4byte	.LASF829
 8154 02e1 05       		.byte	0x5
ARM GAS  /tmp/ccSBomBp.s 			page 167


 8155 02e2 9A02     		.uleb128 0x11a
 8156 02e4 09230000 		.4byte	.LASF830
 8157 02e8 05       		.byte	0x5
 8158 02e9 9F02     		.uleb128 0x11f
 8159 02eb 275A0000 		.4byte	.LASF831
 8160 02ef 05       		.byte	0x5
 8161 02f0 A002     		.uleb128 0x120
 8162 02f2 2B380000 		.4byte	.LASF832
 8163 02f6 05       		.byte	0x5
 8164 02f7 A102     		.uleb128 0x121
 8165 02f9 7D1F0000 		.4byte	.LASF833
 8166 02fd 05       		.byte	0x5
 8167 02fe A202     		.uleb128 0x122
 8168 0300 505A0000 		.4byte	.LASF834
 8169 0304 05       		.byte	0x5
 8170 0305 A302     		.uleb128 0x123
 8171 0307 D3480000 		.4byte	.LASF835
 8172 030b 05       		.byte	0x5
 8173 030c A402     		.uleb128 0x124
 8174 030e 00760000 		.4byte	.LASF836
 8175 0312 05       		.byte	0x5
 8176 0313 A502     		.uleb128 0x125
 8177 0315 A8720000 		.4byte	.LASF837
 8178 0319 00       		.byte	0
 8179              		.section	.debug_macro,"G",%progbits,wm4.wwdt_11xx.h.33.5768344983cb842df69cc91ea86cabb0,comdat
 8180              	.Ldebug_macro21:
 8181 0000 0400     		.2byte	0x4
 8182 0002 00       		.byte	0
 8183 0003 05       		.byte	0x5
 8184 0004 21       		.uleb128 0x21
 8185 0005 20100000 		.4byte	.LASF838
 8186 0009 05       		.byte	0x5
 8187 000a 4B       		.uleb128 0x4b
 8188 000b 97630000 		.4byte	.LASF839
 8189 000f 05       		.byte	0x5
 8190 0010 4D       		.uleb128 0x4d
 8191 0011 5B100000 		.4byte	.LASF840
 8192 0015 05       		.byte	0x5
 8193 0016 4F       		.uleb128 0x4f
 8194 0017 E0550000 		.4byte	.LASF841
 8195 001b 05       		.byte	0x5
 8196 001c 51       		.uleb128 0x51
 8197 001d 673C0000 		.4byte	.LASF842
 8198 0021 05       		.byte	0x5
 8199 0022 53       		.uleb128 0x53
 8200 0023 CF740000 		.4byte	.LASF843
 8201 0027 05       		.byte	0x5
 8202 0028 55       		.uleb128 0x55
 8203 0029 CF410000 		.4byte	.LASF844
 8204 002d 00       		.byte	0
 8205              		.section	.debug_macro,"G",%progbits,wm4.ssp_11xx.h.33.af054d3d65f4cb0c078be40bb872ec37,comdat
 8206              	.Ldebug_macro22:
 8207 0000 0400     		.2byte	0x4
 8208 0002 00       		.byte	0
 8209 0003 05       		.byte	0x5
 8210 0004 21       		.uleb128 0x21
 8211 0005 BA2C0000 		.4byte	.LASF845
ARM GAS  /tmp/ccSBomBp.s 			page 168


 8212 0009 05       		.byte	0x5
 8213 000a 40       		.uleb128 0x40
 8214 000b 5E4B0000 		.4byte	.LASF846
 8215 000f 05       		.byte	0x5
 8216 0010 42       		.uleb128 0x42
 8217 0011 60070000 		.4byte	.LASF847
 8218 0015 05       		.byte	0x5
 8219 0016 44       		.uleb128 0x44
 8220 0017 DA290000 		.4byte	.LASF848
 8221 001b 05       		.byte	0x5
 8222 001c 46       		.uleb128 0x46
 8223 001d AA270000 		.4byte	.LASF849
 8224 0021 05       		.byte	0x5
 8225 0022 49       		.uleb128 0x49
 8226 0023 5E3F0000 		.4byte	.LASF850
 8227 0027 05       		.byte	0x5
 8228 0028 4A       		.uleb128 0x4a
 8229 0029 59090000 		.4byte	.LASF851
 8230 002d 05       		.byte	0x5
 8231 002e 4D       		.uleb128 0x4d
 8232 002f F6210000 		.4byte	.LASF852
 8233 0033 05       		.byte	0x5
 8234 0034 4E       		.uleb128 0x4e
 8235 0035 8C6D0000 		.4byte	.LASF853
 8236 0039 05       		.byte	0x5
 8237 003a 51       		.uleb128 0x51
 8238 003b 891A0000 		.4byte	.LASF854
 8239 003f 05       		.byte	0x5
 8240 0040 53       		.uleb128 0x53
 8241 0041 48110000 		.4byte	.LASF855
 8242 0045 05       		.byte	0x5
 8243 0046 55       		.uleb128 0x55
 8244 0047 48110000 		.4byte	.LASF855
 8245 004b 05       		.byte	0x5
 8246 004c 58       		.uleb128 0x58
 8247 004d 891A0000 		.4byte	.LASF854
 8248 0051 05       		.byte	0x5
 8249 0052 5F       		.uleb128 0x5f
 8250 0053 CE500000 		.4byte	.LASF856
 8251 0057 05       		.byte	0x5
 8252 0058 61       		.uleb128 0x61
 8253 0059 1A1B0000 		.4byte	.LASF857
 8254 005d 05       		.byte	0x5
 8255 005e 63       		.uleb128 0x63
 8256 005f B8240000 		.4byte	.LASF858
 8257 0063 05       		.byte	0x5
 8258 0064 64       		.uleb128 0x64
 8259 0065 77340000 		.4byte	.LASF859
 8260 0069 05       		.byte	0x5
 8261 006a 67       		.uleb128 0x67
 8262 006b CD4B0000 		.4byte	.LASF860
 8263 006f 05       		.byte	0x5
 8264 0070 69       		.uleb128 0x69
 8265 0071 B3760000 		.4byte	.LASF861
 8266 0075 05       		.byte	0x5
 8267 0076 6C       		.uleb128 0x6c
 8268 0077 96750000 		.4byte	.LASF862
ARM GAS  /tmp/ccSBomBp.s 			page 169


 8269 007b 05       		.byte	0x5
 8270 007c 72       		.uleb128 0x72
 8271 007d F61F0000 		.4byte	.LASF863
 8272 0081 05       		.byte	0x5
 8273 0082 79       		.uleb128 0x79
 8274 0083 36370000 		.4byte	.LASF864
 8275 0087 05       		.byte	0x5
 8276 0088 7C       		.uleb128 0x7c
 8277 0089 CB070000 		.4byte	.LASF865
 8278 008d 05       		.byte	0x5
 8279 008e C503     		.uleb128 0x1c5
 8280 0090 DF3C0000 		.4byte	.LASF866
 8281 0094 05       		.byte	0x5
 8282 0095 C603     		.uleb128 0x1c6
 8283 0097 BE320000 		.4byte	.LASF867
 8284 009b 05       		.byte	0x5
 8285 009c CF03     		.uleb128 0x1cf
 8286 009e 9C190000 		.4byte	.LASF868
 8287 00a2 05       		.byte	0x5
 8288 00a3 D003     		.uleb128 0x1d0
 8289 00a5 A81C0000 		.4byte	.LASF869
 8290 00a9 05       		.byte	0x5
 8291 00aa D303     		.uleb128 0x1d3
 8292 00ac 88290000 		.4byte	.LASF870
 8293 00b0 05       		.byte	0x5
 8294 00b1 D403     		.uleb128 0x1d4
 8295 00b3 EB0B0000 		.4byte	.LASF871
 8296 00b7 00       		.byte	0
 8297              		.section	.debug_macro,"G",%progbits,wm4.error.h.38.ae74fe1dd9d19c80c505f1fda144fce8,comdat
 8298              	.Ldebug_macro23:
 8299 0000 0400     		.2byte	0x4
 8300 0002 00       		.byte	0
 8301 0003 05       		.byte	0x5
 8302 0004 26       		.uleb128 0x26
 8303 0005 51500000 		.4byte	.LASF873
 8304 0009 05       		.byte	0x5
 8305 000a 8401     		.uleb128 0x84
 8306 000c 45080000 		.4byte	.LASF874
 8307 0010 00       		.byte	0
 8308              		.section	.debug_macro,"G",%progbits,wm4.adc_11xx.h.33.6ce7433ac6b30df70a6993d01dbd513f,comdat
 8309              	.Ldebug_macro24:
 8310 0000 0400     		.2byte	0x4
 8311 0002 00       		.byte	0
 8312 0003 05       		.byte	0x5
 8313 0004 21       		.uleb128 0x21
 8314 0005 D2580000 		.4byte	.LASF875
 8315 0009 05       		.byte	0x5
 8316 000a 2F       		.uleb128 0x2f
 8317 000b BF330000 		.4byte	.LASF876
 8318 000f 05       		.byte	0x5
 8319 0010 40       		.uleb128 0x40
 8320 0011 CE6F0000 		.4byte	.LASF877
 8321 0015 05       		.byte	0x5
 8322 0016 41       		.uleb128 0x41
 8323 0017 4A490000 		.4byte	.LASF878
 8324 001b 05       		.byte	0x5
 8325 001c 43       		.uleb128 0x43
ARM GAS  /tmp/ccSBomBp.s 			page 170


 8326 001d 5A400000 		.4byte	.LASF879
 8327 0021 05       		.byte	0x5
 8328 0022 44       		.uleb128 0x44
 8329 0023 77400000 		.4byte	.LASF880
 8330 0027 05       		.byte	0x5
 8331 0028 45       		.uleb128 0x45
 8332 0029 B23B0000 		.4byte	.LASF881
 8333 002d 05       		.byte	0x5
 8334 002e 46       		.uleb128 0x46
 8335 002f 86790000 		.4byte	.LASF882
 8336 0033 05       		.byte	0x5
 8337 0034 47       		.uleb128 0x47
 8338 0035 81100000 		.4byte	.LASF883
 8339 0039 05       		.byte	0x5
 8340 003a 48       		.uleb128 0x48
 8341 003b 6F720000 		.4byte	.LASF884
 8342 003f 05       		.byte	0x5
 8343 0040 49       		.uleb128 0x49
 8344 0041 2C5E0000 		.4byte	.LASF885
 8345 0045 05       		.byte	0x5
 8346 0046 4A       		.uleb128 0x4a
 8347 0047 EB190000 		.4byte	.LASF886
 8348 004b 05       		.byte	0x5
 8349 004c 4B       		.uleb128 0x4b
 8350 004d 3F210000 		.4byte	.LASF887
 8351 0051 05       		.byte	0x5
 8352 0052 4C       		.uleb128 0x4c
 8353 0053 65430000 		.4byte	.LASF888
 8354 0057 05       		.byte	0x5
 8355 0058 4D       		.uleb128 0x4d
 8356 0059 A1160000 		.4byte	.LASF889
 8357 005d 05       		.byte	0x5
 8358 005e 4E       		.uleb128 0x4e
 8359 005f 7E2C0000 		.4byte	.LASF890
 8360 0063 05       		.byte	0x5
 8361 0064 4F       		.uleb128 0x4f
 8362 0065 8E3C0000 		.4byte	.LASF891
 8363 0069 05       		.byte	0x5
 8364 006a 50       		.uleb128 0x50
 8365 006b DF010000 		.4byte	.LASF892
 8366 006f 05       		.byte	0x5
 8367 0070 51       		.uleb128 0x51
 8368 0071 90520000 		.4byte	.LASF893
 8369 0075 05       		.byte	0x5
 8370 0076 52       		.uleb128 0x52
 8371 0077 48580000 		.4byte	.LASF894
 8372 007b 00       		.byte	0
 8373              		.section	.debug_macro,"G",%progbits,wm4.i2c_11xx.h.33.2b506d1350e00a8c26e8bf006a5f9390,comdat
 8374              	.Ldebug_macro25:
 8375 0000 0400     		.2byte	0x4
 8376 0002 00       		.byte	0
 8377 0003 05       		.byte	0x5
 8378 0004 21       		.uleb128 0x21
 8379 0005 096A0000 		.4byte	.LASF896
 8380 0009 05       		.byte	0x5
 8381 000a 46       		.uleb128 0x46
 8382 000b A50D0000 		.4byte	.LASF897
ARM GAS  /tmp/ccSBomBp.s 			page 171


 8383 000f 05       		.byte	0x5
 8384 0010 47       		.uleb128 0x47
 8385 0011 B0550000 		.4byte	.LASF898
 8386 0015 05       		.byte	0x5
 8387 0016 48       		.uleb128 0x48
 8388 0017 901B0000 		.4byte	.LASF899
 8389 001b 05       		.byte	0x5
 8390 001c 49       		.uleb128 0x49
 8391 001d 99670000 		.4byte	.LASF900
 8392 0021 05       		.byte	0x5
 8393 0022 4E       		.uleb128 0x4e
 8394 0023 914A0000 		.4byte	.LASF901
 8395 0027 05       		.byte	0x5
 8396 0028 53       		.uleb128 0x53
 8397 0029 42310000 		.4byte	.LASF902
 8398 002d 05       		.byte	0x5
 8399 002e 54       		.uleb128 0x54
 8400 002f C10A0000 		.4byte	.LASF903
 8401 0033 05       		.byte	0x5
 8402 0034 55       		.uleb128 0x55
 8403 0035 00000000 		.4byte	.LASF904
 8404 0039 05       		.byte	0x5
 8405 003a 56       		.uleb128 0x56
 8406 003b FE2E0000 		.4byte	.LASF905
 8407 003f 05       		.byte	0x5
 8408 0040 57       		.uleb128 0x57
 8409 0041 450E0000 		.4byte	.LASF906
 8410 0045 05       		.byte	0x5
 8411 0046 5C       		.uleb128 0x5c
 8412 0047 F6740000 		.4byte	.LASF907
 8413 004b 05       		.byte	0x5
 8414 004c 5D       		.uleb128 0x5d
 8415 004d B50B0000 		.4byte	.LASF908
 8416 0051 05       		.byte	0x5
 8417 0052 5E       		.uleb128 0x5e
 8418 0053 33520000 		.4byte	.LASF909
 8419 0057 05       		.byte	0x5
 8420 0058 5F       		.uleb128 0x5f
 8421 0059 270C0000 		.4byte	.LASF910
 8422 005d 05       		.byte	0x5
 8423 005e 60       		.uleb128 0x60
 8424 005f 54260000 		.4byte	.LASF911
 8425 0063 05       		.byte	0x5
 8426 0064 65       		.uleb128 0x65
 8427 0065 484B0000 		.4byte	.LASF912
 8428 0069 05       		.byte	0x5
 8429 006a 66       		.uleb128 0x66
 8430 006b 0B520000 		.4byte	.LASF913
 8431 006f 05       		.byte	0x5
 8432 0070 67       		.uleb128 0x67
 8433 0071 CF400000 		.4byte	.LASF914
 8434 0075 05       		.byte	0x5
 8435 0076 68       		.uleb128 0x68
 8436 0077 18210000 		.4byte	.LASF915
 8437 007b 05       		.byte	0x5
 8438 007c 69       		.uleb128 0x69
 8439 007d 5A4C0000 		.4byte	.LASF916
ARM GAS  /tmp/ccSBomBp.s 			page 172


 8440 0081 05       		.byte	0x5
 8441 0082 6E       		.uleb128 0x6e
 8442 0083 AD790000 		.4byte	.LASF917
 8443 0087 05       		.byte	0x5
 8444 0088 6F       		.uleb128 0x6f
 8445 0089 324F0000 		.4byte	.LASF918
 8446 008d 05       		.byte	0x5
 8447 008e 74       		.uleb128 0x74
 8448 008f 11250000 		.4byte	.LASF919
 8449 0093 05       		.byte	0x5
 8450 0094 75       		.uleb128 0x75
 8451 0095 3B090000 		.4byte	.LASF920
 8452 0099 05       		.byte	0x5
 8453 009a 7A       		.uleb128 0x7a
 8454 009b EB490000 		.4byte	.LASF921
 8455 009f 05       		.byte	0x5
 8456 00a0 7B       		.uleb128 0x7b
 8457 00a1 7B190000 		.4byte	.LASF922
 8458 00a5 05       		.byte	0x5
 8459 00a6 7C       		.uleb128 0x7c
 8460 00a7 E4250000 		.4byte	.LASF923
 8461 00ab 05       		.byte	0x5
 8462 00ac 7D       		.uleb128 0x7d
 8463 00ad FA410000 		.4byte	.LASF924
 8464 00b1 05       		.byte	0x5
 8465 00b2 7E       		.uleb128 0x7e
 8466 00b3 1F300000 		.4byte	.LASF925
 8467 00b7 05       		.byte	0x5
 8468 00b8 7F       		.uleb128 0x7f
 8469 00b9 AC500000 		.4byte	.LASF926
 8470 00bd 05       		.byte	0x5
 8471 00be 8001     		.uleb128 0x80
 8472 00c0 541B0000 		.4byte	.LASF927
 8473 00c4 05       		.byte	0x5
 8474 00c5 8501     		.uleb128 0x85
 8475 00c7 9B020000 		.4byte	.LASF928
 8476 00cb 05       		.byte	0x5
 8477 00cc 8601     		.uleb128 0x86
 8478 00ce 51010000 		.4byte	.LASF929
 8479 00d2 05       		.byte	0x5
 8480 00d3 8701     		.uleb128 0x87
 8481 00d5 052D0000 		.4byte	.LASF930
 8482 00d9 05       		.byte	0x5
 8483 00da 8801     		.uleb128 0x88
 8484 00dc A53D0000 		.4byte	.LASF931
 8485 00e0 05       		.byte	0x5
 8486 00e1 8901     		.uleb128 0x89
 8487 00e3 5B3D0000 		.4byte	.LASF932
 8488 00e7 05       		.byte	0x5
 8489 00e8 8A01     		.uleb128 0x8a
 8490 00ea 770C0000 		.4byte	.LASF933
 8491 00ee 05       		.byte	0x5
 8492 00ef 8B01     		.uleb128 0x8b
 8493 00f1 C8530000 		.4byte	.LASF934
 8494 00f5 05       		.byte	0x5
 8495 00f6 9001     		.uleb128 0x90
 8496 00f8 672E0000 		.4byte	.LASF935
ARM GAS  /tmp/ccSBomBp.s 			page 173


 8497 00fc 05       		.byte	0x5
 8498 00fd 9101     		.uleb128 0x91
 8499 00ff F4720000 		.4byte	.LASF936
 8500 0103 05       		.byte	0x5
 8501 0104 9301     		.uleb128 0x93
 8502 0106 9E4B0000 		.4byte	.LASF937
 8503 010a 05       		.byte	0x5
 8504 010b 9401     		.uleb128 0x94
 8505 010d B54E0000 		.4byte	.LASF938
 8506 0111 05       		.byte	0x5
 8507 0112 9601     		.uleb128 0x96
 8508 0114 2B260000 		.4byte	.LASF939
 8509 0118 05       		.byte	0x5
 8510 0119 9701     		.uleb128 0x97
 8511 011b D6750000 		.4byte	.LASF940
 8512 011f 05       		.byte	0x5
 8513 0120 9801     		.uleb128 0x98
 8514 0122 4E130000 		.4byte	.LASF941
 8515 0126 05       		.byte	0x5
 8516 0127 9901     		.uleb128 0x99
 8517 0129 EE730000 		.4byte	.LASF942
 8518 012d 05       		.byte	0x5
 8519 012e 9A01     		.uleb128 0x9a
 8520 0130 0B430000 		.4byte	.LASF943
 8521 0134 05       		.byte	0x5
 8522 0135 A001     		.uleb128 0xa0
 8523 0137 170D0000 		.4byte	.LASF944
 8524 013b 05       		.byte	0x5
 8525 013c A101     		.uleb128 0xa1
 8526 013e 8D4E0000 		.4byte	.LASF945
 8527 0142 05       		.byte	0x5
 8528 0143 A301     		.uleb128 0xa3
 8529 0145 10180000 		.4byte	.LASF946
 8530 0149 05       		.byte	0x5
 8531 014a A401     		.uleb128 0xa4
 8532 014c DD4F0000 		.4byte	.LASF947
 8533 0150 05       		.byte	0x5
 8534 0151 A501     		.uleb128 0xa5
 8535 0153 C26E0000 		.4byte	.LASF948
 8536 0157 05       		.byte	0x5
 8537 0158 A601     		.uleb128 0xa6
 8538 015a 84300000 		.4byte	.LASF949
 8539 015e 05       		.byte	0x5
 8540 015f AB01     		.uleb128 0xab
 8541 0161 01330000 		.4byte	.LASF950
 8542 0165 05       		.byte	0x5
 8543 0166 AC01     		.uleb128 0xac
 8544 0168 F9760000 		.4byte	.LASF951
 8545 016c 05       		.byte	0x5
 8546 016d B201     		.uleb128 0xb2
 8547 016f 66000000 		.4byte	.LASF952
 8548 0173 05       		.byte	0x5
 8549 0174 B301     		.uleb128 0xb3
 8550 0176 E6700000 		.4byte	.LASF953
 8551 017a 05       		.byte	0x5
 8552 017b B401     		.uleb128 0xb4
 8553 017d CE430000 		.4byte	.LASF954
ARM GAS  /tmp/ccSBomBp.s 			page 174


 8554 0181 05       		.byte	0x5
 8555 0182 B501     		.uleb128 0xb5
 8556 0184 F12D0000 		.4byte	.LASF955
 8557 0188 05       		.byte	0x5
 8558 0189 BA01     		.uleb128 0xba
 8559 018b 4A730000 		.4byte	.LASF956
 8560 018f 05       		.byte	0x5
 8561 0190 BF01     		.uleb128 0xbf
 8562 0192 87640000 		.4byte	.LASF957
 8563 0196 05       		.byte	0x5
 8564 0197 C001     		.uleb128 0xc0
 8565 0199 C0350000 		.4byte	.LASF958
 8566 019d 05       		.byte	0x5
 8567 019e C501     		.uleb128 0xc5
 8568 01a0 26560000 		.4byte	.LASF959
 8569 01a4 05       		.byte	0x5
 8570 01a5 CA01     		.uleb128 0xca
 8571 01a7 5E700000 		.4byte	.LASF960
 8572 01ab 05       		.byte	0x5
 8573 01ac CF01     		.uleb128 0xcf
 8574 01ae 715B0000 		.4byte	.LASF961
 8575 01b2 05       		.byte	0x5
 8576 01b3 D401     		.uleb128 0xd4
 8577 01b5 4E590000 		.4byte	.LASF962
 8578 01b9 05       		.byte	0x5
 8579 01ba D501     		.uleb128 0xd5
 8580 01bc 0D7A0000 		.4byte	.LASF963
 8581 01c0 05       		.byte	0x5
 8582 01c1 D601     		.uleb128 0xd6
 8583 01c3 E43F0000 		.4byte	.LASF964
 8584 01c7 05       		.byte	0x5
 8585 01c8 DB01     		.uleb128 0xdb
 8586 01ca 3F530000 		.4byte	.LASF965
 8587 01ce 05       		.byte	0x5
 8588 01cf DC01     		.uleb128 0xdc
 8589 01d1 705A0000 		.4byte	.LASF966
 8590 01d5 05       		.byte	0x5
 8591 01d6 DD01     		.uleb128 0xdd
 8592 01d8 3E010000 		.4byte	.LASF967
 8593 01dc 05       		.byte	0x5
 8594 01dd DE01     		.uleb128 0xde
 8595 01df 9A390000 		.4byte	.LASF968
 8596 01e3 05       		.byte	0x5
 8597 01e4 DF01     		.uleb128 0xdf
 8598 01e6 3C590000 		.4byte	.LASF969
 8599 01ea 05       		.byte	0x5
 8600 01eb E001     		.uleb128 0xe0
 8601 01ed 7A280000 		.4byte	.LASF970
 8602 01f1 05       		.byte	0x5
 8603 01f2 E101     		.uleb128 0xe1
 8604 01f4 914A0000 		.4byte	.LASF901
 8605 01f8 05       		.byte	0x5
 8606 01f9 E301     		.uleb128 0xe3
 8607 01fb AB690000 		.4byte	.LASF971
 8608 01ff 05       		.byte	0x5
 8609 0200 E401     		.uleb128 0xe4
 8610 0202 10160000 		.4byte	.LASF972
ARM GAS  /tmp/ccSBomBp.s 			page 175


 8611 0206 05       		.byte	0x5
 8612 0207 E601     		.uleb128 0xe6
 8613 0209 F52A0000 		.4byte	.LASF973
 8614 020d 05       		.byte	0x5
 8615 020e EB01     		.uleb128 0xeb
 8616 0210 7C500000 		.4byte	.LASF974
 8617 0214 05       		.byte	0x5
 8618 0215 EC01     		.uleb128 0xec
 8619 0217 B4200000 		.4byte	.LASF975
 8620 021b 00       		.byte	0
 8621              		.section	.debug_macro,"G",%progbits,wm4.ccand_11xx.h.33.bf309da171b55b77d89b8a17401182db,comdat
 8622              	.Ldebug_macro26:
 8623 0000 0400     		.2byte	0x4
 8624 0002 00       		.byte	0
 8625 0003 05       		.byte	0x5
 8626 0004 21       		.uleb128 0x21
 8627 0005 94000000 		.4byte	.LASF976
 8628 0009 05       		.byte	0x5
 8629 000a 6E       		.uleb128 0x6e
 8630 000b C42D0000 		.4byte	.LASF977
 8631 000f 05       		.byte	0x5
 8632 0010 6F       		.uleb128 0x6f
 8633 0011 B0250000 		.4byte	.LASF978
 8634 0015 05       		.byte	0x5
 8635 0016 70       		.uleb128 0x70
 8636 0017 3E400000 		.4byte	.LASF979
 8637 001b 05       		.byte	0x5
 8638 001c 71       		.uleb128 0x71
 8639 001d 97760000 		.4byte	.LASF980
 8640 0021 05       		.byte	0x5
 8641 0022 72       		.uleb128 0x72
 8642 0023 94180000 		.4byte	.LASF981
 8643 0027 05       		.byte	0x5
 8644 0028 73       		.uleb128 0x73
 8645 0029 D70E0000 		.4byte	.LASF982
 8646 002d 05       		.byte	0x5
 8647 002e 74       		.uleb128 0x74
 8648 002f 08090000 		.4byte	.LASF983
 8649 0033 05       		.byte	0x5
 8650 0034 75       		.uleb128 0x75
 8651 0035 182F0000 		.4byte	.LASF984
 8652 0039 05       		.byte	0x5
 8653 003a 76       		.uleb128 0x76
 8654 003b 68710000 		.4byte	.LASF985
 8655 003f 05       		.byte	0x5
 8656 0040 77       		.uleb128 0x77
 8657 0041 3C450000 		.4byte	.LASF986
 8658 0045 05       		.byte	0x5
 8659 0046 7C       		.uleb128 0x7c
 8660 0047 2A1A0000 		.4byte	.LASF987
 8661 004b 05       		.byte	0x5
 8662 004c 7D       		.uleb128 0x7d
 8663 004d 40270000 		.4byte	.LASF988
 8664 0051 05       		.byte	0x5
 8665 0052 7E       		.uleb128 0x7e
 8666 0053 68300000 		.4byte	.LASF989
 8667 0057 05       		.byte	0x5
ARM GAS  /tmp/ccSBomBp.s 			page 176


 8668 0058 7F       		.uleb128 0x7f
 8669 0059 1D770000 		.4byte	.LASF990
 8670 005d 05       		.byte	0x5
 8671 005e 8C01     		.uleb128 0x8c
 8672 0060 86210000 		.4byte	.LASF991
 8673 0064 05       		.byte	0x5
 8674 0065 8D01     		.uleb128 0x8d
 8675 0067 D16D0000 		.4byte	.LASF992
 8676 006b 05       		.byte	0x5
 8677 006c 8E01     		.uleb128 0x8e
 8678 006e A1040000 		.4byte	.LASF993
 8679 0072 05       		.byte	0x5
 8680 0073 8F01     		.uleb128 0x8f
 8681 0075 B10C0000 		.4byte	.LASF994
 8682 0079 05       		.byte	0x5
 8683 007a 9001     		.uleb128 0x90
 8684 007c BF550000 		.4byte	.LASF995
 8685 0080 05       		.byte	0x5
 8686 0081 9101     		.uleb128 0x91
 8687 0083 B1260000 		.4byte	.LASF996
 8688 0087 05       		.byte	0x5
 8689 0088 9201     		.uleb128 0x92
 8690 008a CC730000 		.4byte	.LASF997
 8691 008e 05       		.byte	0x5
 8692 008f 9301     		.uleb128 0x93
 8693 0091 892B0000 		.4byte	.LASF998
 8694 0095 05       		.byte	0x5
 8695 0096 9401     		.uleb128 0x94
 8696 0098 58150000 		.4byte	.LASF999
 8697 009c 05       		.byte	0x5
 8698 009d 9501     		.uleb128 0x95
 8699 009f 7B130000 		.4byte	.LASF1000
 8700 00a3 05       		.byte	0x5
 8701 00a4 9601     		.uleb128 0x96
 8702 00a6 ED160000 		.4byte	.LASF1001
 8703 00aa 05       		.byte	0x5
 8704 00ab 9701     		.uleb128 0x97
 8705 00ad 5A1F0000 		.4byte	.LASF1002
 8706 00b1 05       		.byte	0x5
 8707 00b2 9801     		.uleb128 0x98
 8708 00b4 32760000 		.4byte	.LASF1003
 8709 00b8 05       		.byte	0x5
 8710 00b9 9901     		.uleb128 0x99
 8711 00bb 29510000 		.4byte	.LASF1004
 8712 00bf 05       		.byte	0x5
 8713 00c0 9A01     		.uleb128 0x9a
 8714 00c2 75180000 		.4byte	.LASF1005
 8715 00c6 05       		.byte	0x5
 8716 00c7 A401     		.uleb128 0xa4
 8717 00c9 ED4E0000 		.4byte	.LASF1006
 8718 00cd 05       		.byte	0x5
 8719 00ce A501     		.uleb128 0xa5
 8720 00d0 E5520000 		.4byte	.LASF1007
 8721 00d4 05       		.byte	0x5
 8722 00d5 A601     		.uleb128 0xa6
 8723 00d7 B5220000 		.4byte	.LASF1008
 8724 00db 05       		.byte	0x5
ARM GAS  /tmp/ccSBomBp.s 			page 177


 8725 00dc A701     		.uleb128 0xa7
 8726 00de 5D4E0000 		.4byte	.LASF1009
 8727 00e2 05       		.byte	0x5
 8728 00e3 A801     		.uleb128 0xa8
 8729 00e5 F2130000 		.4byte	.LASF1010
 8730 00e9 05       		.byte	0x5
 8731 00ea A901     		.uleb128 0xa9
 8732 00ec 8E3A0000 		.4byte	.LASF1011
 8733 00f0 05       		.byte	0x5
 8734 00f1 AA01     		.uleb128 0xaa
 8735 00f3 FD470000 		.4byte	.LASF1012
 8736 00f7 05       		.byte	0x5
 8737 00f8 BF01     		.uleb128 0xbf
 8738 00fa FF180000 		.4byte	.LASF1013
 8739 00fe 05       		.byte	0x5
 8740 00ff C001     		.uleb128 0xc0
 8741 0101 42630000 		.4byte	.LASF1014
 8742 0105 05       		.byte	0x5
 8743 0106 C101     		.uleb128 0xc1
 8744 0108 BF570000 		.4byte	.LASF1015
 8745 010c 05       		.byte	0x5
 8746 010d C401     		.uleb128 0xc4
 8747 010f 3A440000 		.4byte	.LASF1016
 8748 0113 05       		.byte	0x5
 8749 0114 C501     		.uleb128 0xc5
 8750 0116 783E0000 		.4byte	.LASF1017
 8751 011a 05       		.byte	0x5
 8752 011b C601     		.uleb128 0xc6
 8753 011d B7100000 		.4byte	.LASF1018
 8754 0121 05       		.byte	0x5
 8755 0122 E001     		.uleb128 0xe0
 8756 0124 71270000 		.4byte	.LASF1019
 8757 0128 00       		.byte	0
 8758              		.section	.debug_line,"",%progbits
 8759              	.Ldebug_line0:
 8760 0000 65050000 		.section	.debug_str,"MS",%progbits,1
 8760      0200CE02 
 8760      00000201 
 8760      FB0E0D00 
 8760      01010101 
 8761              	.LASF904:
 8762 0000 4932435F 		.ascii	"I2C_I2CONSET_STO ((0x10))\000"
 8762      4932434F 
 8762      4E534554 
 8762      5F53544F 
 8762      20282830 
 8763              	.LASF342:
 8764 001a 5F5F4758 		.ascii	"__GXX_TYPEINFO_EQUALITY_INLINE 0\000"
 8764      585F5459 
 8764      5045494E 
 8764      464F5F45 
 8764      5155414C 
 8765              	.LASF456:
 8766 003b 57494E54 		.ascii	"WINT_MIN (__WINT_MIN__)\000"
 8766      5F4D494E 
 8766      20285F5F 
 8766      57494E54 
ARM GAS  /tmp/ccSBomBp.s 			page 178


 8766      5F4D494E 
 8767              	.LASF159:
 8768 0053 5F5F4445 		.ascii	"__DECIMAL_DIG__ 17\000"
 8768      43494D41 
 8768      4C5F4449 
 8768      475F5F20 
 8768      313700
 8769              	.LASF952:
 8770 0066 4932435F 		.ascii	"I2C_I2MMCTRL_MM_ENA ((1 << 0))\000"
 8770      49324D4D 
 8770      4354524C 
 8770      5F4D4D5F 
 8770      454E4120 
 8771              	.LASF296:
 8772 0085 5F5F5548 		.ascii	"__UHA_FBIT__ 8\000"
 8772      415F4642 
 8772      49545F5F 
 8772      203800
 8773              	.LASF976:
 8774 0094 5F5F4343 		.ascii	"__CCAND_11XX_H_ \000"
 8774      414E445F 
 8774      31315858 
 8774      5F485F20 
 8774      00
 8775              	.LASF1099:
 8776 00a5 53595343 		.ascii	"SYSCTL_CLOCK_SYS\000"
 8776      544C5F43 
 8776      4C4F434B 
 8776      5F535953 
 8776      00
 8777              	.LASF112:
 8778 00b6 5F5F494E 		.ascii	"__INT_FAST32_MAX__ 2147483647\000"
 8778      545F4641 
 8778      53543332 
 8778      5F4D4158 
 8778      5F5F2032 
 8779              	.LASF601:
 8780 00d4 4C50435F 		.ascii	"LPC_IOCON_BASE 0x40044000\000"
 8780      494F434F 
 8780      4E5F4241 
 8780      53452030 
 8780      78343030 
 8781              	.LASF580:
 8782 00ee 4E564943 		.ascii	"NVIC_BASE (SCS_BASE + 0x0100UL)\000"
 8782      5F424153 
 8782      45202853 
 8782      43535F42 
 8782      41534520 
 8783              	.LASF312:
 8784 010e 5F5F4743 		.ascii	"__GCC_ATOMIC_WCHAR_T_LOCK_FREE 1\000"
 8784      435F4154 
 8784      4F4D4943 
 8784      5F574348 
 8784      41525F54 
 8785              	.LASF295:
 8786 012f 5F5F5441 		.ascii	"__TA_IBIT__ 64\000"
 8786      5F494249 
ARM GAS  /tmp/ccSBomBp.s 			page 179


 8786      545F5F20 
 8786      363400
 8787              	.LASF967:
 8788 013e 4932435F 		.ascii	"I2C_BYTE_RECV 0x02\000"
 8788      42595445 
 8788      5F524543 
 8788      56203078 
 8788      303200
 8789              	.LASF929:
 8790 0151 4932435F 		.ascii	"I2C_I2STAT_M_RX_RESTART ((0x10))\000"
 8790      49325354 
 8790      41545F4D 
 8790      5F52585F 
 8790      52455354 
 8791              	.LASF1101:
 8792 0172 53595343 		.ascii	"SYSCTL_CLOCK_RAM\000"
 8792      544C5F43 
 8792      4C4F434B 
 8792      5F52414D 
 8792      00
 8793              	.LASF188:
 8794 0183 5F5F5346 		.ascii	"__SFRACT_FBIT__ 7\000"
 8794      52414354 
 8794      5F464249 
 8794      545F5F20 
 8794      3700
 8795              	.LASF1034:
 8796 0195 73697A65 		.ascii	"sizetype\000"
 8796      74797065 
 8796      00
 8797              	.LASF73:
 8798 019e 5F5F4C4F 		.ascii	"__LONG_LONG_MAX__ 9223372036854775807LL\000"
 8798      4E475F4C 
 8798      4F4E475F 
 8798      4D41585F 
 8798      5F203932 
 8799              	.LASF589:
 8800 01c6 4C50435F 		.ascii	"LPC_WWDT_BASE 0x40004000\000"
 8800      57574454 
 8800      5F424153 
 8800      45203078 
 8800      34303030 
 8801              	.LASF892:
 8802 01df 4144435F 		.ascii	"ADC_CR_START_MCOA2 ((6UL << 24))\000"
 8802      43525F53 
 8802      54415254 
 8802      5F4D434F 
 8802      41322028 
 8803              	.LASF1160:
 8804 0200 70617373 		.ascii	"pass\000"
 8804      00
 8805              	.LASF260:
 8806 0205 5F5F4C4C 		.ascii	"__LLACCUM_MIN__ (-0X1P31LLK-0X1P31LLK)\000"
 8806      41434355 
 8806      4D5F4D49 
 8806      4E5F5F20 
 8806      282D3058 
ARM GAS  /tmp/ccSBomBp.s 			page 180


 8807              	.LASF252:
 8808 022c 5F5F4C41 		.ascii	"__LACCUM_EPSILON__ 0x1P-31LK\000"
 8808      4343554D 
 8808      5F455053 
 8808      494C4F4E 
 8808      5F5F2030 
 8809              	.LASF637:
 8810 0249 53595343 		.ascii	"SYSCTL_RST_POR (1 << 0)\000"
 8810      544C5F52 
 8810      53545F50 
 8810      4F522028 
 8810      31203C3C 
 8811              	.LASF185:
 8812 0261 5F5F4445 		.ascii	"__DEC128_MAX__ 9.999999999999999999999999999999999E"
 8812      43313238 
 8812      5F4D4158 
 8812      5F5F2039 
 8812      2E393939 
 8813 0294 36313434 		.ascii	"6144DL\000"
 8813      444C00
 8814              	.LASF928:
 8815 029b 4932435F 		.ascii	"I2C_I2STAT_M_RX_START ((0x08))\000"
 8815      49325354 
 8815      41545F4D 
 8815      5F52585F 
 8815      53544152 
 8816              	.LASF552:
 8817 02ba 5343425F 		.ascii	"SCB_SCR_SLEEPONEXIT_Pos 1\000"
 8817      5343525F 
 8817      534C4545 
 8817      504F4E45 
 8817      5849545F 
 8818              	.LASF81:
 8819 02d4 5F5F494E 		.ascii	"__INTMAX_C(c) c ## LL\000"
 8819      544D4158 
 8819      5F432863 
 8819      29206320 
 8819      2323204C 
 8820              	.LASF529:
 8821 02ea 5343425F 		.ascii	"SCB_ICSR_PENDSTCLR_Msk (1UL << SCB_ICSR_PENDSTCLR_P"
 8821      49435352 
 8821      5F50454E 
 8821      44535443 
 8821      4C525F4D 
 8822 031d 6F732900 		.ascii	"os)\000"
 8823              	.LASF246:
 8824 0321 5F5F5541 		.ascii	"__UACCUM_MAX__ 0XFFFFFFFFP-16UK\000"
 8824      4343554D 
 8824      5F4D4158 
 8824      5F5F2030 
 8824      58464646 
 8825              	.LASF173:
 8826 0341 5F5F4445 		.ascii	"__DEC32_SUBNORMAL_MIN__ 0.000001E-95DF\000"
 8826      4333325F 
 8826      5355424E 
 8826      4F524D41 
 8826      4C5F4D49 
ARM GAS  /tmp/ccSBomBp.s 			page 181


 8827              	.LASF1174:
 8828 0368 43686970 		.ascii	"Chip_UART_IRQRBHandler\000"
 8828      5F554152 
 8828      545F4952 
 8828      51524248 
 8828      616E646C 
 8829              	.LASF1123:
 8830 037f 7461696C 		.ascii	"tail\000"
 8830      00
 8831              	.LASF773:
 8832 0384 55415254 		.ascii	"UART_LCR_BREAK_EN (1 << 6)\000"
 8832      5F4C4352 
 8832      5F425245 
 8832      414B5F45 
 8832      4E202831 
 8833              	.LASF547:
 8834 039f 5343425F 		.ascii	"SCB_AIRCR_VECTCLRACTIVE_Msk (1UL << SCB_AIRCR_VECTC"
 8834      41495243 
 8834      525F5645 
 8834      4354434C 
 8834      52414354 
 8835 03d2 4C524143 		.ascii	"LRACTIVE_Pos)\000"
 8835      54495645 
 8835      5F506F73 
 8835      2900
 8836              	.LASF11:
 8837 03e0 5F5F4154 		.ascii	"__ATOMIC_CONSUME 1\000"
 8837      4F4D4943 
 8837      5F434F4E 
 8837      53554D45 
 8837      203100
 8838              	.LASF210:
 8839 03f3 5F5F4C46 		.ascii	"__LFRACT_MIN__ (-0.5LR-0.5LR)\000"
 8839      52414354 
 8839      5F4D494E 
 8839      5F5F2028 
 8839      2D302E35 
 8840              	.LASF515:
 8841 0411 5343425F 		.ascii	"SCB_CPUID_ARCHITECTURE_Msk (0xFUL << SCB_CPUID_ARCH"
 8841      43505549 
 8841      445F4152 
 8841      43484954 
 8841      45435455 
 8842 0444 49544543 		.ascii	"ITECTURE_Pos)\000"
 8842      54555245 
 8842      5F506F73 
 8842      2900
 8843              	.LASF240:
 8844 0452 5F5F4143 		.ascii	"__ACCUM_MIN__ (-0X1P15K-0X1P15K)\000"
 8844      43554D5F 
 8844      4D494E5F 
 8844      5F20282D 
 8844      30583150 
 8845              	.LASF795:
 8846 0473 55415254 		.ascii	"UART_MSR_LO2HI_RI (1 << 2)\000"
 8846      5F4D5352 
 8846      5F4C4F32 
ARM GAS  /tmp/ccSBomBp.s 			page 182


 8846      48495F52 
 8846      49202831 
 8847              	.LASF1143:
 8848 048e 43686970 		.ascii	"Chip_UART_ReadByte\000"
 8848      5F554152 
 8848      545F5265 
 8848      61644279 
 8848      746500
 8849              	.LASF993:
 8850 04a1 53444F5F 		.ascii	"SDO_ABORT_UNKNOWN_COMMAND 0x05040001UL\000"
 8850      41424F52 
 8850      545F554E 
 8850      4B4E4F57 
 8850      4E5F434F 
 8851              	.LASF532:
 8852 04c8 5343425F 		.ascii	"SCB_ICSR_ISRPENDING_Pos 22\000"
 8852      49435352 
 8852      5F495352 
 8852      50454E44 
 8852      494E475F 
 8853              	.LASF17:
 8854 04e3 5F5F5349 		.ascii	"__SIZEOF_LONG_LONG__ 8\000"
 8854      5A454F46 
 8854      5F4C4F4E 
 8854      475F4C4F 
 8854      4E475F5F 
 8855              	.LASF144:
 8856 04fa 5F5F4442 		.ascii	"__DBL_MAX_10_EXP__ 308\000"
 8856      4C5F4D41 
 8856      585F3130 
 8856      5F455850 
 8856      5F5F2033 
 8857              	.LASF807:
 8858 0511 55415254 		.ascii	"UART_ACR_BITMASK (0x307)\000"
 8858      5F414352 
 8858      5F424954 
 8858      4D41534B 
 8858      20283078 
 8859              	.LASF776:
 8860 052a 55415254 		.ascii	"UART_MCR_DTR_CTRL (1 << 0)\000"
 8860      5F4D4352 
 8860      5F445452 
 8860      5F435452 
 8860      4C202831 
 8861              	.LASF1149:
 8862 0545 43686970 		.ascii	"Chip_UART_IntEnable\000"
 8862      5F554152 
 8862      545F496E 
 8862      74456E61 
 8862      626C6500 
 8863              	.LASF266:
 8864 0559 5F5F554C 		.ascii	"__ULLACCUM_MAX__ 0XFFFFFFFFFFFFFFFFP-32ULLK\000"
 8864      4C414343 
 8864      554D5F4D 
 8864      41585F5F 
 8864      20305846 
 8865              	.LASF563:
ARM GAS  /tmp/ccSBomBp.s 			page 183


 8866 0585 53797354 		.ascii	"SysTick_CTRL_CLKSOURCE_Msk (1UL << SysTick_CTRL_CLK"
 8866      69636B5F 
 8866      4354524C 
 8866      5F434C4B 
 8866      534F5552 
 8867 05b8 534F5552 		.ascii	"SOURCE_Pos)\000"
 8867      43455F50 
 8867      6F732900 
 8868              	.LASF236:
 8869 05c4 5F5F5553 		.ascii	"__USACCUM_MAX__ 0XFFFFP-8UHK\000"
 8869      41434355 
 8869      4D5F4D41 
 8869      585F5F20 
 8869      30584646 
 8870              	.LASF170:
 8871 05e1 5F5F4445 		.ascii	"__DEC32_MIN__ 1E-95DF\000"
 8871      4333325F 
 8871      4D494E5F 
 8871      5F203145 
 8871      2D393544 
 8872              	.LASF337:
 8873 05f7 5F5F4152 		.ascii	"__ARM_NEON_FP 4\000"
 8873      4D5F4E45 
 8873      4F4E5F46 
 8873      50203400 
 8874              	.LASF594:
 8875 0607 4C50435F 		.ascii	"LPC_TIMER32_1_BASE 0x40018000\000"
 8875      54494D45 
 8875      5233325F 
 8875      315F4241 
 8875      53452030 
 8876              	.LASF273:
 8877 0625 5F5F5351 		.ascii	"__SQ_IBIT__ 0\000"
 8877      5F494249 
 8877      545F5F20 
 8877      3000
 8878              	.LASF27:
 8879 0633 5F5F4F52 		.ascii	"__ORDER_PDP_ENDIAN__ 3412\000"
 8879      4445525F 
 8879      5044505F 
 8879      454E4449 
 8879      414E5F5F 
 8880              	.LASF1118:
 8881 064d 43484950 		.ascii	"CHIP_SYSCTL_CLOCK_T\000"
 8881      5F535953 
 8881      43544C5F 
 8881      434C4F43 
 8881      4B5F5400 
 8882              	.LASF176:
 8883 0661 5F5F4445 		.ascii	"__DEC64_MAX_EXP__ 385\000"
 8883      4336345F 
 8883      4D41585F 
 8883      4558505F 
 8883      5F203338 
 8884              	.LASF1077:
 8885 0677 424F4443 		.ascii	"BODCTRL\000"
 8885      54524C00 
ARM GAS  /tmp/ccSBomBp.s 			page 184


 8886              	.LASF557:
 8887 067f 5343425F 		.ascii	"SCB_CCR_UNALIGN_TRP_Msk (1UL << SCB_CCR_UNALIGN_TRP"
 8887      4343525F 
 8887      554E414C 
 8887      49474E5F 
 8887      5452505F 
 8888 06b2 5F506F73 		.ascii	"_Pos)\000"
 8888      2900
 8889              	.LASF136:
 8890 06b8 5F5F464C 		.ascii	"__FLT_HAS_DENORM__ 1\000"
 8890      545F4841 
 8890      535F4445 
 8890      4E4F524D 
 8890      5F5F2031 
 8891              	.LASF40:
 8892 06cd 5F5F494E 		.ascii	"__INT8_TYPE__ signed char\000"
 8892      54385F54 
 8892      5950455F 
 8892      5F207369 
 8892      676E6564 
 8893              	.LASF326:
 8894 06e7 5F5F4152 		.ascii	"__ARM_ARCH_PROFILE 77\000"
 8894      4D5F4152 
 8894      43485F50 
 8894      524F4649 
 8894      4C452037 
 8895              	.LASF761:
 8896 06fd 55415254 		.ascii	"UART_LCR_WLEN6 (1 << 0)\000"
 8896      5F4C4352 
 8896      5F574C45 
 8896      4E362028 
 8896      31203C3C 
 8897              	.LASF527:
 8898 0715 5343425F 		.ascii	"SCB_ICSR_PENDSTSET_Msk (1UL << SCB_ICSR_PENDSTSET_P"
 8898      49435352 
 8898      5F50454E 
 8898      44535453 
 8898      45545F4D 
 8899 0748 6F732900 		.ascii	"os)\000"
 8900              	.LASF1107:
 8901 074c 53595343 		.ascii	"SYSCTL_CLOCK_CT16B1\000"
 8901      544C5F43 
 8901      4C4F434B 
 8901      5F435431 
 8901      36423100 
 8902              	.LASF847:
 8903 0760 5353505F 		.ascii	"SSP_CR0_FRF_SPI ((uint32_t) (0 << 4))\000"
 8903      4352305F 
 8903      4652465F 
 8903      53504920 
 8903      28287569 
 8904              	.LASF790:
 8905 0786 55415254 		.ascii	"UART_LSR_TXFE (1 << 8)\000"
 8905      5F4C5352 
 8905      5F545846 
 8905      45202831 
 8905      203C3C20 
ARM GAS  /tmp/ccSBomBp.s 			page 185


 8906              	.LASF155:
 8907 079d 5F5F4C44 		.ascii	"__LDBL_MIN_EXP__ (-1021)\000"
 8907      424C5F4D 
 8907      494E5F45 
 8907      58505F5F 
 8907      20282D31 
 8908              	.LASF153:
 8909 07b6 5F5F4C44 		.ascii	"__LDBL_MANT_DIG__ 53\000"
 8909      424C5F4D 
 8909      414E545F 
 8909      4449475F 
 8909      5F203533 
 8910              	.LASF865:
 8911 07cb 5353505F 		.ascii	"SSP_ICR_BITMASK ((uint32_t) (0x03))\000"
 8911      4943525F 
 8911      4249544D 
 8911      41534B20 
 8911      28287569 
 8912              	.LASF1162:
 8913 07ef 72656164 		.ascii	"readBytes\000"
 8913      42797465 
 8913      7300
 8914              	.LASF638:
 8915 07f9 53595343 		.ascii	"SYSCTL_RST_EXTRST (1 << 1)\000"
 8915      544C5F52 
 8915      53545F45 
 8915      58545253 
 8915      54202831 
 8916              	.LASF103:
 8917 0814 5F5F5549 		.ascii	"__UINT8_C(c) c\000"
 8917      4E54385F 
 8917      43286329 
 8917      206300
 8918              	.LASF41:
 8919 0823 5F5F494E 		.ascii	"__INT16_TYPE__ short int\000"
 8919      5431365F 
 8919      54595045 
 8919      5F5F2073 
 8919      686F7274 
 8920              	.LASF370:
 8921 083c 756E7369 		.ascii	"unsigned\000"
 8921      676E6564 
 8921      00
 8922              	.LASF874:
 8923 0845 434F4D50 		.ascii	"COMPILE_TIME_ASSERT(pred) switch(0){case 0:case pre"
 8923      494C455F 
 8923      54494D45 
 8923      5F415353 
 8923      45525428 
 8924 0878 643A3B7D 		.ascii	"d:;}\000"
 8924      00
 8925              	.LASF1181:
 8926 087d 72617465 		.ascii	"rate16\000"
 8926      313600
 8927              	.LASF593:
 8928 0884 4C50435F 		.ascii	"LPC_TIMER32_0_BASE 0x40014000\000"
 8928      54494D45 
ARM GAS  /tmp/ccSBomBp.s 			page 186


 8928      5233325F 
 8928      305F4241 
 8928      53452030 
 8929              	.LASF808:
 8930 08a2 55415254 		.ascii	"UART_RS485CTRL_NMM_EN (1 << 0)\000"
 8930      5F525334 
 8930      38354354 
 8930      524C5F4E 
 8930      4D4D5F45 
 8931              	.LASF474:
 8932 08c1 50415241 		.ascii	"PARAM_FUNCTIONALSTATE(State) ((State == DISABLE) ||"
 8932      4D5F4655 
 8932      4E435449 
 8932      4F4E414C 
 8932      53544154 
 8933 08f4 20285374 		.ascii	" (State == ENABLE))\000"
 8933      61746520 
 8933      3D3D2045 
 8933      4E41424C 
 8933      45292900 
 8934              	.LASF983:
 8935 0908 43414E5F 		.ascii	"CAN_ERROR_ACK 0x00000020UL\000"
 8935      4552524F 
 8935      525F4143 
 8935      4B203078 
 8935      30303030 
 8936              	.LASF708:
 8937 0923 54494D45 		.ascii	"TIMER_IR_CLR(n) _BIT(n)\000"
 8937      525F4952 
 8937      5F434C52 
 8937      286E2920 
 8937      5F424954 
 8938              	.LASF920:
 8939 093b 4932435F 		.ascii	"I2C_I2STAT_BUS_ERROR ((0x00))\000"
 8939      49325354 
 8939      41545F42 
 8939      55535F45 
 8939      52524F52 
 8940              	.LASF851:
 8941 0959 5353505F 		.ascii	"SSP_CR0_CPOL_HI ((uint32_t) (1 << 6))\000"
 8941      4352305F 
 8941      43504F4C 
 8941      5F484920 
 8941      28287569 
 8942              	.LASF381:
 8943 097f 5F5F494E 		.ascii	"__INT8 \"hh\"\000"
 8943      54382022 
 8943      68682200 
 8944              	.LASF665:
 8945 098b 494F434F 		.ascii	"IOCON_FUNC1 0x1\000"
 8945      4E5F4655 
 8945      4E433120 
 8945      30783100 
 8946              	.LASF419:
 8947 099b 494E545F 		.ascii	"INT_LEAST16_MAX (__INT_LEAST16_MAX__)\000"
 8947      4C454153 
 8947      5431365F 
ARM GAS  /tmp/ccSBomBp.s 			page 187


 8947      4D415820 
 8947      285F5F49 
 8948              	.LASF1:
 8949 09c1 5F5F5354 		.ascii	"__STDC_HOSTED__ 1\000"
 8949      44435F48 
 8949      4F535445 
 8949      445F5F20 
 8949      3100
 8950              	.LASF223:
 8951 09d3 5F5F554C 		.ascii	"__ULLFRACT_FBIT__ 64\000"
 8951      4C465241 
 8951      43545F46 
 8951      4249545F 
 8951      5F203634 
 8952              	.LASF269:
 8953 09e8 5F5F5151 		.ascii	"__QQ_IBIT__ 0\000"
 8953      5F494249 
 8953      545F5F20 
 8953      3000
 8954              	.LASF737:
 8955 09f6 55415254 		.ascii	"UART2_IER_BITMASK (0x38F)\000"
 8955      325F4945 
 8955      525F4249 
 8955      544D4153 
 8955      4B202830 
 8956              	.LASF1140:
 8957 0a10 636F6E66 		.ascii	"config\000"
 8957      696700
 8958              	.LASF1065:
 8959 0a17 55534243 		.ascii	"USBCLKDIV\000"
 8959      4C4B4449 
 8959      5600
 8960              	.LASF59:
 8961 0a21 5F5F494E 		.ascii	"__INT_FAST64_TYPE__ long long int\000"
 8961      545F4641 
 8961      53543634 
 8961      5F545950 
 8961      455F5F20 
 8962              	.LASF526:
 8963 0a43 5343425F 		.ascii	"SCB_ICSR_PENDSTSET_Pos 26\000"
 8963      49435352 
 8963      5F50454E 
 8963      44535453 
 8963      45545F50 
 8964              	.LASF410:
 8965 0a5d 494E5438 		.ascii	"INT8_MAX (__INT8_MAX__)\000"
 8965      5F4D4158 
 8965      20285F5F 
 8965      494E5438 
 8965      5F4D4158 
 8966              	.LASF658:
 8967 0a75 53595343 		.ascii	"SYSCTL_POWERDOWN_SYSOSC_PD (1 << 5)\000"
 8967      544C5F50 
 8967      4F574552 
 8967      444F574E 
 8967      5F535953 
 8968              	.LASF374:
ARM GAS  /tmp/ccSBomBp.s 			page 188


 8969 0a99 7369676E 		.ascii	"signed +0\000"
 8969      6564202B 
 8969      3000
 8970              	.LASF451:
 8971 0aa3 50545244 		.ascii	"PTRDIFF_MAX (__PTRDIFF_MAX__)\000"
 8971      4946465F 
 8971      4D415820 
 8971      285F5F50 
 8971      54524449 
 8972              	.LASF903:
 8973 0ac1 4932435F 		.ascii	"I2C_I2CONSET_SI ((0x08))\000"
 8973      4932434F 
 8973      4E534554 
 8973      5F534920 
 8973      28283078 
 8974              	.LASF781:
 8975 0ada 55415254 		.ascii	"UART_MCR_BITMASK (0xD3)\000"
 8975      5F4D4352 
 8975      5F424954 
 8975      4D41534B 
 8975      20283078 
 8976              	.LASF93:
 8977 0af2 5F5F5549 		.ascii	"__UINT64_MAX__ 18446744073709551615ULL\000"
 8977      4E543634 
 8977      5F4D4158 
 8977      5F5F2031 
 8977      38343436 
 8978              	.LASF196:
 8979 0b19 5F5F5553 		.ascii	"__USFRACT_MAX__ 0XFFP-8UHR\000"
 8979      46524143 
 8979      545F4D41 
 8979      585F5F20 
 8979      30584646 
 8980              	.LASF562:
 8981 0b34 53797354 		.ascii	"SysTick_CTRL_CLKSOURCE_Pos 2\000"
 8981      69636B5F 
 8981      4354524C 
 8981      5F434C4B 
 8981      534F5552 
 8982              	.LASF685:
 8983 0b51 4D445F50 		.ascii	"MD_PLN (0x0 << 3)\000"
 8983      4C4E2028 
 8983      30783020 
 8983      3C3C2033 
 8983      2900
 8984              	.LASF1175:
 8985 0b63 70525852 		.ascii	"pRXRB\000"
 8985      4200
 8986              	.LASF748:
 8987 0b69 55415254 		.ascii	"UART_IIR_INTID_MODEM (0 << 1)\000"
 8987      5F494952 
 8987      5F494E54 
 8987      49445F4D 
 8987      4F44454D 
 8988              	.LASF505:
 8989 0b87 5F5F434F 		.ascii	"__CORE_CMFUNC_H \000"
 8989      52455F43 
ARM GAS  /tmp/ccSBomBp.s 			page 189


 8989      4D46554E 
 8989      435F4820 
 8989      00
 8990              	.LASF540:
 8991 0b98 5343425F 		.ascii	"SCB_AIRCR_VECTKEYSTAT_Pos 16\000"
 8991      41495243 
 8991      525F5645 
 8991      43544B45 
 8991      59535441 
 8992              	.LASF908:
 8993 0bb5 4932435F 		.ascii	"I2C_I2CONCLR_SIC ((1 << 3))\000"
 8993      4932434F 
 8993      4E434C52 
 8993      5F534943 
 8993      20282831 
 8994              	.LASF536:
 8995 0bd1 5343425F 		.ascii	"SCB_ICSR_VECTACTIVE_Pos 0\000"
 8995      49435352 
 8995      5F564543 
 8995      54414354 
 8995      4956455F 
 8996              	.LASF871:
 8997 0beb 5353505F 		.ascii	"SSP_MASTER_MODE SSP_CR1_MASTER_EN\000"
 8997      4D415354 
 8997      45525F4D 
 8997      4F444520 
 8997      5353505F 
 8998              	.LASF416:
 8999 0c0d 494E5431 		.ascii	"INT16_MAX (__INT16_MAX__)\000"
 8999      365F4D41 
 8999      5820285F 
 8999      5F494E54 
 8999      31365F4D 
 9000              	.LASF910:
 9001 0c27 4932435F 		.ascii	"I2C_I2CONCLR_STAC ((1 << 5))\000"
 9001      4932434F 
 9001      4E434C52 
 9001      5F535441 
 9001      43202828 
 9002              	.LASF1135:
 9003 0c44 4C50435F 		.ascii	"LPC_USART_T\000"
 9003      55534152 
 9003      545F5400 
 9004              	.LASF213:
 9005 0c50 5F5F554C 		.ascii	"__ULFRACT_FBIT__ 32\000"
 9005      46524143 
 9005      545F4642 
 9005      49545F5F 
 9005      20333200 
 9006              	.LASF1192:
 9007 0c64 52696E67 		.ascii	"RingBuffer_PopMult\000"
 9007      42756666 
 9007      65725F50 
 9007      6F704D75 
 9007      6C7400
 9008              	.LASF933:
 9009 0c77 4932435F 		.ascii	"I2C_I2STAT_M_RX_DAT_ACK ((0x50))\000"
ARM GAS  /tmp/ccSBomBp.s 			page 190


 9009      49325354 
 9009      41545F4D 
 9009      5F52585F 
 9009      4441545F 
 9010              	.LASF404:
 9011 0c98 5F5F696E 		.ascii	"__int_fast32_t_defined 1\000"
 9011      745F6661 
 9011      73743332 
 9011      5F745F64 
 9011      6566696E 
 9012              	.LASF994:
 9013 0cb1 53444F5F 		.ascii	"SDO_ABORT_UNSUPPORTED 0x06010000UL\000"
 9013      41424F52 
 9013      545F554E 
 9013      53555050 
 9013      4F525445 
 9014              	.LASF791:
 9015 0cd4 55415254 		.ascii	"UART_LSR_BITMASK (0xFF)\000"
 9015      5F4C5352 
 9015      5F424954 
 9015      4D41534B 
 9015      20283078 
 9016              	.LASF214:
 9017 0cec 5F5F554C 		.ascii	"__ULFRACT_IBIT__ 0\000"
 9017      46524143 
 9017      545F4942 
 9017      49545F5F 
 9017      203000
 9018              	.LASF459:
 9019 0cff 494E5431 		.ascii	"INT16_C(x) __INT16_C(x)\000"
 9019      365F4328 
 9019      7829205F 
 9019      5F494E54 
 9019      31365F43 
 9020              	.LASF944:
 9021 0d17 4932435F 		.ascii	"I2C_I2STAT_S_TX_SLAR_ACK ((0xA8))\000"
 9021      49325354 
 9021      41545F53 
 9021      5F54585F 
 9021      534C4152 
 9022              	.LASF1182:
 9023 0d39 61637475 		.ascii	"actualRate\000"
 9023      616C5261 
 9023      746500
 9024              	.LASF1176:
 9025 0d44 70545852 		.ascii	"pTXRB\000"
 9025      4200
 9026              	.LASF99:
 9027 0d4a 5F5F494E 		.ascii	"__INT32_C(c) c ## L\000"
 9027      5433325F 
 9027      43286329 
 9027      20632023 
 9027      23204C00 
 9028              	.LASF282:
 9029 0d5e 5F5F5553 		.ascii	"__USQ_FBIT__ 32\000"
 9029      515F4642 
 9029      49545F5F 
ARM GAS  /tmp/ccSBomBp.s 			page 191


 9029      20333200 
 9030              	.LASF1108:
 9031 0d6e 53595343 		.ascii	"SYSCTL_CLOCK_CT32B0\000"
 9031      544C5F43 
 9031      4C4F434B 
 9031      5F435433 
 9031      32423000 
 9032              	.LASF1109:
 9033 0d82 53595343 		.ascii	"SYSCTL_CLOCK_CT32B1\000"
 9033      544C5F43 
 9033      4C4F434B 
 9033      5F435433 
 9033      32423100 
 9034              	.LASF272:
 9035 0d96 5F5F5351 		.ascii	"__SQ_FBIT__ 31\000"
 9035      5F464249 
 9035      545F5F20 
 9035      333100
 9036              	.LASF897:
 9037 0da5 5245545F 		.ascii	"RET_SLAVE_TX 6\000"
 9037      534C4156 
 9037      455F5458 
 9037      203600
 9038              	.LASF302:
 9039 0db4 5F5F5554 		.ascii	"__UTA_FBIT__ 64\000"
 9039      415F4642 
 9039      49545F5F 
 9039      20363400 
 9040              	.LASF767:
 9041 0dc4 55415254 		.ascii	"UART_LCR_PARITY_EN (1 << 3)\000"
 9041      5F4C4352 
 9041      5F504152 
 9041      4954595F 
 9041      454E2028 
 9042              	.LASF1127:
 9043 0de0 54455231 		.ascii	"TER1\000"
 9043      00
 9044              	.LASF1134:
 9045 0de5 54455232 		.ascii	"TER2\000"
 9045      00
 9046              	.LASF1132:
 9047 0dea 52533438 		.ascii	"RS485ADRMATCH\000"
 9047      35414452 
 9047      4D415443 
 9047      4800
 9048              	.LASF754:
 9049 0df8 55415254 		.ascii	"UART_TX_FIFO_SIZE (16)\000"
 9049      5F54585F 
 9049      4649464F 
 9049      5F53495A 
 9049      45202831 
 9050              	.LASF280:
 9051 0e0f 5F5F5548 		.ascii	"__UHQ_FBIT__ 16\000"
 9051      515F4642 
 9051      49545F5F 
 9051      20313600 
 9052              	.LASF431:
ARM GAS  /tmp/ccSBomBp.s 			page 192


 9053 0e1f 494E545F 		.ascii	"INT_LEAST64_MAX (__INT_LEAST64_MAX__)\000"
 9053      4C454153 
 9053      5436345F 
 9053      4D415820 
 9053      285F5F49 
 9054              	.LASF906:
 9055 0e45 4932435F 		.ascii	"I2C_I2CONSET_I2EN ((0x40))\000"
 9055      4932434F 
 9055      4E534554 
 9055      5F493245 
 9055      4E202828 
 9056              	.LASF574:
 9057 0e60 53797354 		.ascii	"SysTick_CALIB_SKEW_Pos 30\000"
 9057      69636B5F 
 9057      43414C49 
 9057      425F534B 
 9057      45575F50 
 9058              	.LASF819:
 9059 0e7a 55415254 		.ascii	"UART_ICR_BITMASK (0x3F)\000"
 9059      5F494352 
 9059      5F424954 
 9059      4D41534B 
 9059      20283078 
 9060              	.LASF69:
 9061 0e92 5F5F5343 		.ascii	"__SCHAR_MAX__ 127\000"
 9061      4841525F 
 9061      4D41585F 
 9061      5F203132 
 9061      3700
 9062              	.LASF172:
 9063 0ea4 5F5F4445 		.ascii	"__DEC32_EPSILON__ 1E-6DF\000"
 9063      4333325F 
 9063      45505349 
 9063      4C4F4E5F 
 9063      5F203145 
 9064              	.LASF454:
 9065 0ebd 57434841 		.ascii	"WCHAR_MAX (__WCHAR_MAX__)\000"
 9065      525F4D41 
 9065      5820285F 
 9065      5F574348 
 9065      41525F4D 
 9066              	.LASF982:
 9067 0ed7 43414E5F 		.ascii	"CAN_ERROR_FORM 0x00000010UL\000"
 9067      4552524F 
 9067      525F464F 
 9067      524D2030 
 9067      78303030 
 9068              	.LASF1114:
 9069 0ef3 53595343 		.ascii	"SYSCTL_CLOCK_WDT\000"
 9069      544C5F43 
 9069      4C4F434B 
 9069      5F574454 
 9069      00
 9070              	.LASF413:
 9071 0f04 494E545F 		.ascii	"INT_LEAST8_MAX (__INT_LEAST8_MAX__)\000"
 9071      4C454153 
 9071      54385F4D 
ARM GAS  /tmp/ccSBomBp.s 			page 193


 9071      41582028 
 9071      5F5F494E 
 9072              	.LASF500:
 9073 0f28 5F5F4153 		.ascii	"__ASM __asm\000"
 9073      4D205F5F 
 9073      61736D00 
 9074              	.LASF1026:
 9075 0f34 5F5F7569 		.ascii	"__uint8_t\000"
 9075      6E74385F 
 9075      7400
 9076              	.LASF829:
 9077 0f3e 55415254 		.ascii	"UART_TER1_TXEN (1 << 7)\000"
 9077      5F544552 
 9077      315F5458 
 9077      454E2028 
 9077      31203C3C 
 9078              	.LASF648:
 9079 0f56 53595343 		.ascii	"SYSCTL_SLPWAKE_BOD_PD (1 << 3)\000"
 9079      544C5F53 
 9079      4C505741 
 9079      4B455F42 
 9079      4F445F50 
 9080              	.LASF87:
 9081 0f75 5F5F494E 		.ascii	"__INT16_MAX__ 32767\000"
 9081      5431365F 
 9081      4D41585F 
 9081      5F203332 
 9081      37363700 
 9082              	.LASF1098:
 9083 0f89 4C50435F 		.ascii	"LPC_SYSCTL_T\000"
 9083      53595343 
 9083      544C5F54 
 9083      00
 9084              	.LASF711:
 9085 0f96 54494D45 		.ascii	"TIMER_ENABLE ((uint32_t) (1 << 0))\000"
 9085      525F454E 
 9085      41424C45 
 9085      20282875 
 9085      696E7433 
 9086              	.LASF335:
 9087 0fb9 5F5F5646 		.ascii	"__VFP_FP__ 1\000"
 9087      505F4650 
 9087      5F5F2031 
 9087      00
 9088              	.LASF391:
 9089 0fc6 5F5F4C45 		.ascii	"__LEAST32 \"l\"\000"
 9089      41535433 
 9089      3220226C 
 9089      2200
 9090              	.LASF384:
 9091 0fd4 5F5F494E 		.ascii	"__INT64 \"ll\"\000"
 9091      54363420 
 9091      226C6C22 
 9091      00
 9092              	.LASF680:
 9093 0fe1 494F434F 		.ascii	"IOCON_SFI2C_EN (0x0 << 8)\000"
 9093      4E5F5346 
ARM GAS  /tmp/ccSBomBp.s 			page 194


 9093      4932435F 
 9093      454E2028 
 9093      30783020 
 9094              	.LASF80:
 9095 0ffb 5F5F494E 		.ascii	"__INTMAX_MAX__ 9223372036854775807LL\000"
 9095      544D4158 
 9095      5F4D4158 
 9095      5F5F2039 
 9095      32323333 
 9096              	.LASF838:
 9097 1020 5F5F5757 		.ascii	"__WWDT_11XX_H_ \000"
 9097      44545F31 
 9097      3158585F 
 9097      485F2000 
 9098              	.LASF430:
 9099 1030 494E545F 		.ascii	"INT_LEAST64_MIN (-__INT_LEAST64_MAX__ - 1)\000"
 9099      4C454153 
 9099      5436345F 
 9099      4D494E20 
 9099      282D5F5F 
 9100              	.LASF840:
 9101 105b 57574454 		.ascii	"WWDT_WDMOD_WDEN ((uint32_t) (1 << 0))\000"
 9101      5F57444D 
 9101      4F445F57 
 9101      44454E20 
 9101      28287569 
 9102              	.LASF883:
 9103 1081 4144435F 		.ascii	"ADC_CR_BURST ((1UL << 16))\000"
 9103      43525F42 
 9103      55525354 
 9103      20282831 
 9103      554C203C 
 9104              	.LASF756:
 9105 109c 55415254 		.ascii	"UART_FCR_TRG_LEV1 (1 << 6)\000"
 9105      5F464352 
 9105      5F545247 
 9105      5F4C4556 
 9105      31202831 
 9106              	.LASF1018:
 9107 10b7 43414E5F 		.ascii	"CAN_SDOSEG_CLOSE 2\000"
 9107      53444F53 
 9107      45475F43 
 9107      4C4F5345 
 9107      203200
 9108              	.LASF779:
 9109 10ca 55415254 		.ascii	"UART_MCR_AUTO_RTS_EN (1 << 6)\000"
 9109      5F4D4352 
 9109      5F415554 
 9109      4F5F5254 
 9109      535F454E 
 9110              	.LASF1082:
 9111 10e8 50494E54 		.ascii	"PINTSEL\000"
 9111      53454C00 
 9112              	.LASF121:
 9113 10f0 5F5F4743 		.ascii	"__GCC_IEC_559_COMPLEX 0\000"
 9113      435F4945 
 9113      435F3535 
ARM GAS  /tmp/ccSBomBp.s 			page 195


 9113      395F434F 
 9113      4D504C45 
 9114              	.LASF171:
 9115 1108 5F5F4445 		.ascii	"__DEC32_MAX__ 9.999999E96DF\000"
 9115      4333325F 
 9115      4D41585F 
 9115      5F20392E 
 9115      39393939 
 9116              	.LASF809:
 9117 1124 55415254 		.ascii	"UART_RS485CTRL_RX_DIS (1 << 1)\000"
 9117      5F525334 
 9117      38354354 
 9117      524C5F52 
 9117      585F4449 
 9118              	.LASF1180:
 9119 1143 6D76616C 		.ascii	"mval\000"
 9119      00
 9120              	.LASF855:
 9121 1148 5353505F 		.ascii	"SSP_CR0_BITMASK ((uint32_t) (0xFFFF))\000"
 9121      4352305F 
 9121      4249544D 
 9121      41534B20 
 9121      28287569 
 9122              	.LASF555:
 9123 116e 5343425F 		.ascii	"SCB_CCR_STKALIGN_Msk (1UL << SCB_CCR_STKALIGN_Pos)\000"
 9123      4343525F 
 9123      53544B41 
 9123      4C49474E 
 9123      5F4D736B 
 9124              	.LASF85:
 9125 11a1 5F5F5349 		.ascii	"__SIG_ATOMIC_MIN__ (-__SIG_ATOMIC_MAX__ - 1)\000"
 9125      475F4154 
 9125      4F4D4943 
 9125      5F4D494E 
 9125      5F5F2028 
 9126              	.LASF671:
 9127 11ce 494F434F 		.ascii	"IOCON_FUNC7 0x7\000"
 9127      4E5F4655 
 9127      4E433720 
 9127      30783700 
 9128              	.LASF439:
 9129 11de 494E545F 		.ascii	"INT_FAST32_MIN (-__INT_FAST32_MAX__ - 1)\000"
 9129      46415354 
 9129      33325F4D 
 9129      494E2028 
 9129      2D5F5F49 
 9130              	.LASF564:
 9131 1207 53797354 		.ascii	"SysTick_CTRL_TICKINT_Pos 1\000"
 9131      69636B5F 
 9131      4354524C 
 9131      5F544943 
 9131      4B494E54 
 9132              	.LASF495:
 9133 1222 5F5F434F 		.ascii	"__CORE_CM0_H_GENERIC \000"
 9133      52455F43 
 9133      4D305F48 
 9133      5F47454E 
ARM GAS  /tmp/ccSBomBp.s 			page 196


 9133      45524943 
 9134              	.LASF52:
 9135 1238 5F5F5549 		.ascii	"__UINT_LEAST8_TYPE__ unsigned char\000"
 9135      4E545F4C 
 9135      45415354 
 9135      385F5459 
 9135      50455F5F 
 9136              	.LASF314:
 9137 125b 5F5F4743 		.ascii	"__GCC_ATOMIC_INT_LOCK_FREE 1\000"
 9137      435F4154 
 9137      4F4D4943 
 9137      5F494E54 
 9137      5F4C4F43 
 9138              	.LASF238:
 9139 1278 5F5F4143 		.ascii	"__ACCUM_FBIT__ 15\000"
 9139      43554D5F 
 9139      46424954 
 9139      5F5F2031 
 9139      3500
 9140              	.LASF353:
 9141 128a 5F5F474E 		.ascii	"__GNUC_PREREQ(maj,min) ((__GNUC__ << 16) + __GNUC_M"
 9141      55435F50 
 9141      52455245 
 9141      51286D61 
 9141      6A2C6D69 
 9142 12bd 494E4F52 		.ascii	"INOR__ >= ((maj) << 16) + (min))\000"
 9142      5F5F203E 
 9142      3D202828 
 9142      6D616A29 
 9142      203C3C20 
 9143              	.LASF626:
 9144 12de 4C50435F 		.ascii	"LPC_CCAN ((LPC_CCAN_T *) LPC_CAN0_BASE)\000"
 9144      4343414E 
 9144      2028284C 
 9144      50435F43 
 9144      43414E5F 
 9145              	.LASF244:
 9146 1306 5F5F5541 		.ascii	"__UACCUM_IBIT__ 16\000"
 9146      4343554D 
 9146      5F494249 
 9146      545F5F20 
 9146      313600
 9147              	.LASF1025:
 9148 1319 6C6F6E67 		.ascii	"long int\000"
 9148      20696E74 
 9148      00
 9149              	.LASF117:
 9150 1322 5F5F5549 		.ascii	"__UINT_FAST64_MAX__ 18446744073709551615ULL\000"
 9150      4E545F46 
 9150      41535436 
 9150      345F4D41 
 9150      585F5F20 
 9151              	.LASF941:
 9152 134e 4932435F 		.ascii	"I2C_I2STAT_S_RX_PRE_GENCALL_DAT_ACK ((0x90))\000"
 9152      49325354 
 9152      41545F53 
 9152      5F52585F 
ARM GAS  /tmp/ccSBomBp.s 			page 197


 9152      5052455F 
 9153              	.LASF1000:
 9154 137b 53444F5F 		.ascii	"SDO_ABORT_TYPEMISMATCH 0x06070010UL\000"
 9154      41424F52 
 9154      545F5459 
 9154      50454D49 
 9154      534D4154 
 9155              	.LASF147:
 9156 139f 5F5F4442 		.ascii	"__DBL_MIN__ ((double)2.2250738585072014e-308L)\000"
 9156      4C5F4D49 
 9156      4E5F5F20 
 9156      2828646F 
 9156      75626C65 
 9157              	.LASF440:
 9158 13ce 494E545F 		.ascii	"INT_FAST32_MAX (__INT_FAST32_MAX__)\000"
 9158      46415354 
 9158      33325F4D 
 9158      41582028 
 9158      5F5F494E 
 9159              	.LASF1010:
 9160 13f2 4F445F53 		.ascii	"OD_SEG_RO 0x40\000"
 9160      45475F52 
 9160      4F203078 
 9160      343000
 9161              	.LASF1075:
 9162 1401 50494F50 		.ascii	"PIOPORCAP\000"
 9162      4F524341 
 9162      5000
 9163              	.LASF74:
 9164 140b 5F5F5743 		.ascii	"__WCHAR_MAX__ 4294967295U\000"
 9164      4841525F 
 9164      4D41585F 
 9164      5F203432 
 9164      39343936 
 9165              	.LASF182:
 9166 1425 5F5F4445 		.ascii	"__DEC128_MIN_EXP__ (-6142)\000"
 9166      43313238 
 9166      5F4D494E 
 9166      5F455850 
 9166      5F5F2028 
 9167              	.LASF684:
 9168 1440 494F434F 		.ascii	"IOCON_OPENDRAIN_EN (0x1 << 10)\000"
 9168      4E5F4F50 
 9168      454E4452 
 9168      41494E5F 
 9168      454E2028 
 9169              	.LASF56:
 9170 145f 5F5F494E 		.ascii	"__INT_FAST8_TYPE__ int\000"
 9170      545F4641 
 9170      5354385F 
 9170      54595045 
 9170      5F5F2069 
 9171              	.LASF1048:
 9172 1476 53595350 		.ascii	"SYSPLLCLKSEL\000"
 9172      4C4C434C 
 9172      4B53454C 
 9172      00
ARM GAS  /tmp/ccSBomBp.s 			page 198


 9173              	.LASF300:
 9174 1483 5F5F5544 		.ascii	"__UDA_FBIT__ 32\000"
 9174      415F4642 
 9174      49545F5F 
 9174      20333200 
 9175              	.LASF1068:
 9176 1493 57445443 		.ascii	"WDTCLKUEN\000"
 9176      4C4B5545 
 9176      4E00
 9177              	.LASF777:
 9178 149d 55415254 		.ascii	"UART_MCR_RTS_CTRL (1 << 1)\000"
 9178      5F4D4352 
 9178      5F525453 
 9178      5F435452 
 9178      4C202831 
 9179              	.LASF83:
 9180 14b8 5F5F5549 		.ascii	"__UINTMAX_C(c) c ## ULL\000"
 9180      4E544D41 
 9180      585F4328 
 9180      63292063 
 9180      20232320 
 9181              	.LASF30:
 9182 14d0 5F5F5349 		.ascii	"__SIZEOF_POINTER__ 4\000"
 9182      5A454F46 
 9182      5F504F49 
 9182      4E544552 
 9182      5F5F2034 
 9183              	.LASF48:
 9184 14e5 5F5F494E 		.ascii	"__INT_LEAST8_TYPE__ signed char\000"
 9184      545F4C45 
 9184      41535438 
 9184      5F545950 
 9184      455F5F20 
 9185              	.LASF308:
 9186 1505 5F5F4743 		.ascii	"__GCC_ATOMIC_BOOL_LOCK_FREE 1\000"
 9186      435F4154 
 9186      4F4D4943 
 9186      5F424F4F 
 9186      4C5F4C4F 
 9187              	.LASF319:
 9188 1523 5F5F4743 		.ascii	"__GCC_HAVE_DWARF2_CFI_ASM 1\000"
 9188      435F4841 
 9188      56455F44 
 9188      57415246 
 9188      325F4346 
 9189              	.LASF597:
 9190 153f 4C50435F 		.ascii	"LPC_ACMP_BASE 0x40028000\000"
 9190      41434D50 
 9190      5F424153 
 9190      45203078 
 9190      34303032 
 9191              	.LASF999:
 9192 1558 53444F5F 		.ascii	"SDO_ABORT_ACCINCOMP 0x06040047UL\000"
 9192      41424F52 
 9192      545F4143 
 9192      43494E43 
 9192      4F4D5020 
ARM GAS  /tmp/ccSBomBp.s 			page 199


 9193              	.LASF408:
 9194 1579 55494E54 		.ascii	"UINTPTR_MAX (__UINTPTR_MAX__)\000"
 9194      5054525F 
 9194      4D415820 
 9194      285F5F55 
 9194      494E5450 
 9195              	.LASF111:
 9196 1597 5F5F494E 		.ascii	"__INT_FAST16_MAX__ 2147483647\000"
 9196      545F4641 
 9196      53543136 
 9196      5F4D4158 
 9196      5F5F2032 
 9197              	.LASF1170:
 9198 15b5 43686970 		.ascii	"Chip_UART_TXIntHandlerRB\000"
 9198      5F554152 
 9198      545F5458 
 9198      496E7448 
 9198      616E646C 
 9199              	.LASF338:
 9200 15ce 5F5F5448 		.ascii	"__THUMB_INTERWORK__ 1\000"
 9200      554D425F 
 9200      494E5445 
 9200      52574F52 
 9200      4B5F5F20 
 9201              	.LASF226:
 9202 15e4 5F5F554C 		.ascii	"__ULLFRACT_MAX__ 0XFFFFFFFFFFFFFFFFP-64ULLR\000"
 9202      4C465241 
 9202      43545F4D 
 9202      41585F5F 
 9202      20305846 
 9203              	.LASF972:
 9204 1610 4932435F 		.ascii	"I2C_NAK_RECV (0x10000000 | 0x01)\000"
 9204      4E414B5F 
 9204      52454356 
 9204      20283078 
 9204      31303030 
 9205              	.LASF693:
 9206 1631 4D445F44 		.ascii	"MD_DISFIL (0x0 << 8)\000"
 9206      49534649 
 9206      4C202830 
 9206      7830203C 
 9206      3C203829 
 9207              	.LASF789:
 9208 1646 55415254 		.ascii	"UART_LSR_RXFE (1 << 7)\000"
 9208      5F4C5352 
 9208      5F525846 
 9208      45202831 
 9208      203C3C20 
 9209              	.LASF86:
 9210 165d 5F5F494E 		.ascii	"__INT8_MAX__ 127\000"
 9210      54385F4D 
 9210      41585F5F 
 9210      20313237 
 9210      00
 9211              	.LASF617:
 9212 166e 4C50435F 		.ascii	"LPC_TIMER32_0 ((LPC_TIMER_T *) LPC_TIMER32_0_BASE)\000"
 9212      54494D45 
ARM GAS  /tmp/ccSBomBp.s 			page 200


 9212      5233325F 
 9212      30202828 
 9212      4C50435F 
 9213              	.LASF889:
 9214 16a1 4144435F 		.ascii	"ADC_CR_START_CTOUT8 ((3UL << 24))\000"
 9214      43525F53 
 9214      54415254 
 9214      5F43544F 
 9214      55543820 
 9215              	.LASF1126:
 9216 16c3 4649464F 		.ascii	"FIFOLVL\000"
 9216      4C564C00 
 9217              	.LASF38:
 9218 16cb 5F5F4348 		.ascii	"__CHAR32_TYPE__ long unsigned int\000"
 9218      41523332 
 9218      5F545950 
 9218      455F5F20 
 9218      6C6F6E67 
 9219              	.LASF1001:
 9220 16ed 53444F5F 		.ascii	"SDO_ABORT_UNKNOWNSUB 0x06090011UL\000"
 9220      41424F52 
 9220      545F554E 
 9220      4B4E4F57 
 9220      4E535542 
 9221              	.LASF473:
 9222 170f 50415241 		.ascii	"PARAM_SETSTATE(State) ((State == RESET) || (State ="
 9222      4D5F5345 
 9222      54535441 
 9222      54452853 
 9222      74617465 
 9223 1742 3D205345 		.ascii	"= SET))\000"
 9223      54292900 
 9224              	.LASF642:
 9225 174a 53595343 		.ascii	"SYSCTL_NMISRC_ENABLE ((uint32_t) 1 << 31)\000"
 9225      544C5F4E 
 9225      4D495352 
 9225      435F454E 
 9225      41424C45 
 9226              	.LASF690:
 9227 1774 4D445F49 		.ascii	"MD_INV (0x1 << 6)\000"
 9227      4E562028 
 9227      30783120 
 9227      3C3C2036 
 9227      2900
 9228              	.LASF129:
 9229 1786 5F5F464C 		.ascii	"__FLT_MAX_EXP__ 128\000"
 9229      545F4D41 
 9229      585F4558 
 9229      505F5F20 
 9229      31323800 
 9230              	.LASF1122:
 9231 179a 68656164 		.ascii	"head\000"
 9231      00
 9232              	.LASF518:
 9233 179f 5343425F 		.ascii	"SCB_CPUID_REVISION_Pos 0\000"
 9233      43505549 
 9233      445F5245 
ARM GAS  /tmp/ccSBomBp.s 			page 201


 9233      56495349 
 9233      4F4E5F50 
 9234              	.LASF1164:
 9235 17b8 43686970 		.ascii	"Chip_UART_SetBaud\000"
 9235      5F554152 
 9235      545F5365 
 9235      74426175 
 9235      6400
 9236              	.LASF788:
 9237 17ca 55415254 		.ascii	"UART_LSR_TEMT (1 << 6)\000"
 9237      5F4C5352 
 9237      5F54454D 
 9237      54202831 
 9237      203C3C20 
 9238              	.LASF20:
 9239 17e1 5F5F5349 		.ascii	"__SIZEOF_DOUBLE__ 8\000"
 9239      5A454F46 
 9239      5F444F55 
 9239      424C455F 
 9239      5F203800 
 9240              	.LASF778:
 9241 17f5 55415254 		.ascii	"UART_MCR_LOOPB_EN (1 << 4)\000"
 9241      5F4D4352 
 9241      5F4C4F4F 
 9241      50425F45 
 9241      4E202831 
 9242              	.LASF946:
 9243 1810 4932435F 		.ascii	"I2C_I2STAT_S_TX_DAT_ACK ((0xB8))\000"
 9243      49325354 
 9243      41545F53 
 9243      5F54585F 
 9243      4441545F 
 9244              	.LASF506:
 9245 1831 5F5F434F 		.ascii	"__CORE_CM0_H_DEPENDANT \000"
 9245      52455F43 
 9245      4D305F48 
 9245      5F444550 
 9245      454E4441 
 9246              	.LASF691:
 9247 1849 4D445F41 		.ascii	"MD_ADMODE (0x0 << 7)\000"
 9247      444D4F44 
 9247      45202830 
 9247      7830203C 
 9247      3C203729 
 9248              	.LASF787:
 9249 185e 55415254 		.ascii	"UART_LSR_THRE (1 << 5)\000"
 9249      5F4C5352 
 9249      5F544852 
 9249      45202831 
 9249      203C3C20 
 9250              	.LASF1005:
 9251 1875 53444F5F 		.ascii	"SDO_ABORT_DEVSTAT 0x08000022UL\000"
 9251      41424F52 
 9251      545F4445 
 9251      56535441 
 9251      54203078 
 9252              	.LASF981:
ARM GAS  /tmp/ccSBomBp.s 			page 202


 9253 1894 43414E5F 		.ascii	"CAN_ERROR_STUF 0x00000008UL\000"
 9253      4552524F 
 9253      525F5354 
 9253      55462030 
 9253      78303030 
 9254              	.LASF1136:
 9255 18b0 43686970 		.ascii	"Chip_Clock_SetUARTClockDiv\000"
 9255      5F436C6F 
 9255      636B5F53 
 9255      65745541 
 9255      5254436C 
 9256              	.LASF749:
 9257 18cb 55415254 		.ascii	"UART_FCR_FIFO_EN (1 << 0)\000"
 9257      5F464352 
 9257      5F464946 
 9257      4F5F454E 
 9257      20283120 
 9258              	.LASF666:
 9259 18e5 494F434F 		.ascii	"IOCON_FUNC2 0x2\000"
 9259      4E5F4655 
 9259      4E433220 
 9259      30783200 
 9260              	.LASF386:
 9261 18f5 5F5F4641 		.ascii	"__FAST16 \000"
 9261      53543136 
 9261      2000
 9262              	.LASF1013:
 9263 18ff 43414E5F 		.ascii	"CAN_SDOREQ_NOTHANDLED 0\000"
 9263      53444F52 
 9263      45515F4E 
 9263      4F544841 
 9263      4E444C45 
 9264              	.LASF733:
 9265 1917 55415254 		.ascii	"UART_IER_ABEOINT (1 << 8)\000"
 9265      5F494552 
 9265      5F414245 
 9265      4F494E54 
 9265      20283120 
 9266              	.LASF178:
 9267 1931 5F5F4445 		.ascii	"__DEC64_MAX__ 9.999999999999999E384DD\000"
 9267      4336345F 
 9267      4D41585F 
 9267      5F20392E 
 9267      39393939 
 9268              	.LASF351:
 9269 1957 5F5F4E45 		.ascii	"__NEWLIB__ 2\000"
 9269      574C4942 
 9269      5F5F2032 
 9269      00
 9270              	.LASF1095:
 9271 1964 50445255 		.ascii	"PDRUNCFG\000"
 9271      4E434647 
 9271      00
 9272              	.LASF277:
 9273 196d 5F5F5451 		.ascii	"__TQ_IBIT__ 0\000"
 9273      5F494249 
 9273      545F5F20 
ARM GAS  /tmp/ccSBomBp.s 			page 203


 9273      3000
 9274              	.LASF922:
 9275 197b 4932435F 		.ascii	"I2C_I2STAT_M_TX_RESTART ((0x10))\000"
 9275      49325354 
 9275      41545F4D 
 9275      5F54585F 
 9275      52455354 
 9276              	.LASF868:
 9277 199c 5353505F 		.ascii	"SSP_CPOL_HI SSP_CR0_CPOL_LO\000"
 9277      43504F4C 
 9277      5F484920 
 9277      5353505F 
 9277      4352305F 
 9278              	.LASF128:
 9279 19b8 5F5F464C 		.ascii	"__FLT_MIN_10_EXP__ (-37)\000"
 9279      545F4D49 
 9279      4E5F3130 
 9279      5F455850 
 9279      5F5F2028 
 9280              	.LASF590:
 9281 19d1 4C50435F 		.ascii	"LPC_USART_BASE 0x40008000\000"
 9281      55534152 
 9281      545F4241 
 9281      53452030 
 9281      78343030 
 9282              	.LASF886:
 9283 19eb 4144435F 		.ascii	"ADC_CR_START_MODE_SEL(SEL) ((SEL << 24))\000"
 9283      43525F53 
 9283      54415254 
 9283      5F4D4F44 
 9283      455F5345 
 9284              	.LASF131:
 9285 1a14 5F5F464C 		.ascii	"__FLT_DECIMAL_DIG__ 9\000"
 9285      545F4445 
 9285      43494D41 
 9285      4C5F4449 
 9285      475F5F20 
 9286              	.LASF987:
 9287 1a2a 43414E5F 		.ascii	"CAN_MSGOBJ_STD 0x00000000UL\000"
 9287      4D53474F 
 9287      424A5F53 
 9287      54442030 
 9287      78303030 
 9288              	.LASF517:
 9289 1a46 5343425F 		.ascii	"SCB_CPUID_PARTNO_Msk (0xFFFUL << SCB_CPUID_PARTNO_P"
 9289      43505549 
 9289      445F5041 
 9289      52544E4F 
 9289      5F4D736B 
 9290 1a79 6F732900 		.ascii	"os)\000"
 9291              	.LASF1021:
 9292 1a7d 7369676E 		.ascii	"signed char\000"
 9292      65642063 
 9292      68617200 
 9293              	.LASF854:
 9294 1a89 5353505F 		.ascii	"SSP_CR0_SCR(n) ((uint32_t) ((n & 0xFF) << 8))\000"
 9294      4352305F 
ARM GAS  /tmp/ccSBomBp.s 			page 204


 9294      53435228 
 9294      6E292028 
 9294      2875696E 
 9295              	.LASF1145:
 9296 1ab7 43686970 		.ascii	"Chip_UART_SetDivisorLatches\000"
 9296      5F554152 
 9296      545F5365 
 9296      74446976 
 9296      69736F72 
 9297              	.LASF1031:
 9298 1ad3 75696E74 		.ascii	"uint8_t\000"
 9298      385F7400 
 9299              	.LASF655:
 9300 1adb 53595343 		.ascii	"SYSCTL_POWERDOWN_FLASH_PD (1 << 2)\000"
 9300      544C5F50 
 9300      4F574552 
 9300      444F574E 
 9300      5F464C41 
 9301              	.LASF1050:
 9302 1afe 55534250 		.ascii	"USBPLLCLKSEL\000"
 9302      4C4C434C 
 9302      4B53454C 
 9302      00
 9303              	.LASF489:
 9304 1b0b 43484950 		.ascii	"CHIP_LPC11CXX \000"
 9304      5F4C5043 
 9304      31314358 
 9304      582000
 9305              	.LASF857:
 9306 1b1a 5353505F 		.ascii	"SSP_CR1_SSP_EN ((uint32_t) (1 << 1))\000"
 9306      4352315F 
 9306      5353505F 
 9306      454E2028 
 9306      2875696E 
 9307              	.LASF1177:
 9308 1b3f 43686970 		.ascii	"Chip_UART_SetBaudFDR\000"
 9308      5F554152 
 9308      545F5365 
 9308      74426175 
 9308      64464452 
 9309              	.LASF927:
 9310 1b54 4932435F 		.ascii	"I2C_I2STAT_M_TX_ARB_LOST ((0x38))\000"
 9310      49325354 
 9310      41545F4D 
 9310      5F54585F 
 9310      4152425F 
 9311              	.LASF453:
 9312 1b76 57434841 		.ascii	"WCHAR_MIN (__WCHAR_MIN__)\000"
 9312      525F4D49 
 9312      4E20285F 
 9312      5F574348 
 9312      41525F4D 
 9313              	.LASF899:
 9314 1b90 5245545F 		.ascii	"RET_SLAVE_IDLE 2\000"
 9314      534C4156 
 9314      455F4944 
 9314      4C452032 
ARM GAS  /tmp/ccSBomBp.s 			page 205


 9314      00
 9315              	.LASF198:
 9316 1ba1 5F5F4652 		.ascii	"__FRACT_FBIT__ 15\000"
 9316      4143545F 
 9316      46424954 
 9316      5F5F2031 
 9316      3500
 9317              	.LASF1072:
 9318 1bb3 434C4B4F 		.ascii	"CLKOUTUEN\000"
 9318      55545545 
 9318      4E00
 9319              	.LASF138:
 9320 1bbd 5F5F464C 		.ascii	"__FLT_HAS_QUIET_NAN__ 1\000"
 9320      545F4841 
 9320      535F5155 
 9320      4945545F 
 9320      4E414E5F 
 9321              	.LASF478:
 9322 1bd5 5F534246 		.ascii	"_SBF(f,v) ((v) << (f))\000"
 9322      28662C76 
 9322      29202828 
 9322      7629203C 
 9322      3C202866 
 9323              	.LASF311:
 9324 1bec 5F5F4743 		.ascii	"__GCC_ATOMIC_CHAR32_T_LOCK_FREE 1\000"
 9324      435F4154 
 9324      4F4D4943 
 9324      5F434841 
 9324      5233325F 
 9325              	.LASF543:
 9326 1c0e 5343425F 		.ascii	"SCB_AIRCR_ENDIANESS_Msk (1UL << SCB_AIRCR_ENDIANESS"
 9326      41495243 
 9326      525F454E 
 9326      4449414E 
 9326      4553535F 
 9327 1c41 5F506F73 		.ascii	"_Pos)\000"
 9327      2900
 9328              	.LASF4:
 9329 1c47 5F5F474E 		.ascii	"__GNUC_PATCHLEVEL__ 3\000"
 9329      55435F50 
 9329      41544348 
 9329      4C455645 
 9329      4C5F5F20 
 9330              	.LASF818:
 9331 1c5d 55415254 		.ascii	"UART_ICR_PULSEDIV(n) ((n & 0x07) << 3)\000"
 9331      5F494352 
 9331      5F50554C 
 9331      53454449 
 9331      56286E29 
 9332              	.LASF784:
 9333 1c84 55415254 		.ascii	"UART_LSR_PE (1 << 2)\000"
 9333      5F4C5352 
 9333      5F504520 
 9333      2831203C 
 9333      3C203229 
 9334              	.LASF293:
 9335 1c99 5F5F4441 		.ascii	"__DA_IBIT__ 32\000"
ARM GAS  /tmp/ccSBomBp.s 			page 206


 9335      5F494249 
 9335      545F5F20 
 9335      333200
 9336              	.LASF869:
 9337 1ca8 5353505F 		.ascii	"SSP_CPOL_LO SSP_CR0_CPOL_HI\000"
 9337      43504F4C 
 9337      5F4C4F20 
 9337      5353505F 
 9337      4352305F 
 9338              	.LASF348:
 9339 1cc4 5F535444 		.ascii	"_STDINT_H \000"
 9339      494E545F 
 9339      482000
 9340              	.LASF537:
 9341 1ccf 5343425F 		.ascii	"SCB_ICSR_VECTACTIVE_Msk (0x1FFUL << SCB_ICSR_VECTAC"
 9341      49435352 
 9341      5F564543 
 9341      54414354 
 9341      4956455F 
 9342 1d02 54495645 		.ascii	"TIVE_Pos)\000"
 9342      5F506F73 
 9342      2900
 9343              	.LASF468:
 9344 1d0c 5F535444 		.ascii	"_STDBOOL_H \000"
 9344      424F4F4C 
 9344      5F482000 
 9345              	.LASF774:
 9346 1d18 55415254 		.ascii	"UART_LCR_DLAB_EN (1 << 7)\000"
 9346      5F4C4352 
 9346      5F444C41 
 9346      425F454E 
 9346      20283120 
 9347              	.LASF504:
 9348 1d32 5F5F434F 		.ascii	"__CORE_CMINSTR_H \000"
 9348      52455F43 
 9348      4D494E53 
 9348      54525F48 
 9348      2000
 9349              	.LASF436:
 9350 1d44 494E545F 		.ascii	"INT_FAST16_MIN (-__INT_FAST16_MAX__ - 1)\000"
 9350      46415354 
 9350      31365F4D 
 9350      494E2028 
 9350      2D5F5F49 
 9351              	.LASF16:
 9352 1d6d 5F5F5349 		.ascii	"__SIZEOF_LONG__ 4\000"
 9352      5A454F46 
 9352      5F4C4F4E 
 9352      475F5F20 
 9352      3400
 9353              	.LASF618:
 9354 1d7f 4C50435F 		.ascii	"LPC_TIMER32_1 ((LPC_TIMER_T *) LPC_TIMER32_1_BASE)\000"
 9354      54494D45 
 9354      5233325F 
 9354      31202828 
 9354      4C50435F 
 9355              	.LASF815:
ARM GAS  /tmp/ccSBomBp.s 			page 207


 9356 1db2 55415254 		.ascii	"UART_ICR_IRDAEN (1 << 0)\000"
 9356      5F494352 
 9356      5F495244 
 9356      41454E20 
 9356      2831203C 
 9357              	.LASF1128:
 9358 1dcb 52455345 		.ascii	"RESERVED0\000"
 9358      52564544 
 9358      3000
 9359              	.LASF1041:
 9360 1dd5 52455345 		.ascii	"RESERVED1\000"
 9360      52564544 
 9360      3100
 9361              	.LASF1022:
 9362 1ddf 756E7369 		.ascii	"unsigned char\000"
 9362      676E6564 
 9362      20636861 
 9362      7200
 9363              	.LASF1052:
 9364 1ded 52455345 		.ascii	"RESERVED3\000"
 9364      52564544 
 9364      3300
 9365              	.LASF1056:
 9366 1df7 52455345 		.ascii	"RESERVED4\000"
 9366      52564544 
 9366      3400
 9367              	.LASF1058:
 9368 1e01 52455345 		.ascii	"RESERVED5\000"
 9368      52564544 
 9368      3500
 9369              	.LASF1062:
 9370 1e0b 52455345 		.ascii	"RESERVED6\000"
 9370      52564544 
 9370      3600
 9371              	.LASF1066:
 9372 1e15 52455345 		.ascii	"RESERVED7\000"
 9372      52564544 
 9372      3700
 9373              	.LASF1070:
 9374 1e1f 52455345 		.ascii	"RESERVED8\000"
 9374      52564544 
 9374      3800
 9375              	.LASF1186:
 9376 1e29 474E5520 		.ascii	"GNU C 4.9.3 20150529 (release) [ARM/embedded-4_9-br"
 9376      4320342E 
 9376      392E3320 
 9376      32303135 
 9376      30353239 
 9377 1e5c 616E6368 		.ascii	"anch revision 227977] -mcpu=cortex-m0 -mthumb -g -g"
 9377      20726576 
 9377      6973696F 
 9377      6E203232 
 9377      37393737 
 9378 1e8f 67646233 		.ascii	"gdb3 -Os -std=gnu90 -ffunction-sections -fdata-sect"
 9378      202D4F73 
 9378      202D7374 
 9378      643D676E 
ARM GAS  /tmp/ccSBomBp.s 			page 208


 9378      75393020 
 9379 1ec2 696F6E73 		.ascii	"ions -fstack-usage\000"
 9379      202D6673 
 9379      7461636B 
 9379      2D757361 
 9379      676500
 9380              	.LASF183:
 9381 1ed5 5F5F4445 		.ascii	"__DEC128_MAX_EXP__ 6145\000"
 9381      43313238 
 9381      5F4D4158 
 9381      5F455850 
 9381      5F5F2036 
 9382              	.LASF120:
 9383 1eed 5F5F4743 		.ascii	"__GCC_IEC_559 0\000"
 9383      435F4945 
 9383      435F3535 
 9383      39203000 
 9384              	.LASF1053:
 9385 1efd 4D41494E 		.ascii	"MAINCLKSEL\000"
 9385      434C4B53 
 9385      454C00
 9386              	.LASF498:
 9387 1f08 5F5F434D 		.ascii	"__CM0_CMSIS_VERSION ((__CM0_CMSIS_VERSION_MAIN << 1"
 9387      305F434D 
 9387      5349535F 
 9387      56455253 
 9387      494F4E20 
 9388 1f3b 3629207C 		.ascii	"6) | __CM0_CMSIS_VERSION_SUB )\000"
 9388      205F5F43 
 9388      4D305F43 
 9388      4D534953 
 9388      5F564552 
 9389              	.LASF1002:
 9390 1f5a 53444F5F 		.ascii	"SDO_ABORT_VALUE_RANGE 0x06090030UL\000"
 9390      41424F52 
 9390      545F5641 
 9390      4C55455F 
 9390      52414E47 
 9391              	.LASF833:
 9392 1f7d 55415254 		.ascii	"UART_SYNCCTRL_FES (1 << 2)\000"
 9392      5F53594E 
 9392      43435452 
 9392      4C5F4645 
 9392      53202831 
 9393              	.LASF7:
 9394 1f98 5F5F4154 		.ascii	"__ATOMIC_SEQ_CST 5\000"
 9394      4F4D4943 
 9394      5F534551 
 9394      5F435354 
 9394      203500
 9395              	.LASF553:
 9396 1fab 5343425F 		.ascii	"SCB_SCR_SLEEPONEXIT_Msk (1UL << SCB_SCR_SLEEPONEXIT"
 9396      5343525F 
 9396      534C4545 
 9396      504F4E45 
 9396      5849545F 
 9397 1fde 5F506F73 		.ascii	"_Pos)\000"
ARM GAS  /tmp/ccSBomBp.s 			page 209


 9397      2900
 9398              	.LASF689:
 9399 1fe4 4D445F48 		.ascii	"MD_HYS (0x1 << 5)\000"
 9399      59532028 
 9399      30783120 
 9399      3C3C2035 
 9399      2900
 9400              	.LASF863:
 9401 1ff6 5353505F 		.ascii	"SSP_DR_BITMASK(n) ((n) & 0xFFFF)\000"
 9401      44525F42 
 9401      49544D41 
 9401      534B286E 
 9401      29202828 
 9402              	.LASF772:
 9403 2017 55415254 		.ascii	"UART_LCR_PARITY_F_0 (3 << 4)\000"
 9403      5F4C4352 
 9403      5F504152 
 9403      4954595F 
 9403      465F3020 
 9404              	.LASF619:
 9405 2034 4C50435F 		.ascii	"LPC_ADC ((LPC_ADC_T *) LPC_ADC_BASE)\000"
 9405      41444320 
 9405      28284C50 
 9405      435F4144 
 9405      435F5420 
 9406              	.LASF573:
 9407 2059 53797354 		.ascii	"SysTick_CALIB_NOREF_Msk (1UL << SysTick_CALIB_NOREF"
 9407      69636B5F 
 9407      43414C49 
 9407      425F4E4F 
 9407      5245465F 
 9408 208c 5F506F73 		.ascii	"_Pos)\000"
 9408      2900
 9409              	.LASF434:
 9410 2092 494E545F 		.ascii	"INT_FAST8_MAX (__INT_FAST8_MAX__)\000"
 9410      46415354 
 9410      385F4D41 
 9410      5820285F 
 9410      5F494E54 
 9411              	.LASF975:
 9412 20b4 4932435F 		.ascii	"I2C_MONITOR_CFG_MATCHALL I2C_I2MMCTRL_MATCH_ALL\000"
 9412      4D4F4E49 
 9412      544F525F 
 9412      4346475F 
 9412      4D415443 
 9413              	.LASF143:
 9414 20e4 5F5F4442 		.ascii	"__DBL_MAX_EXP__ 1024\000"
 9414      4C5F4D41 
 9414      585F4558 
 9414      505F5F20 
 9414      31303234 
 9415              	.LASF114:
 9416 20f9 5F5F5549 		.ascii	"__UINT_FAST8_MAX__ 4294967295U\000"
 9416      4E545F46 
 9416      41535438 
 9416      5F4D4158 
 9416      5F5F2034 
ARM GAS  /tmp/ccSBomBp.s 			page 210


 9417              	.LASF915:
 9418 2118 4932435F 		.ascii	"I2C_CON_STA (1UL << 5)\000"
 9418      434F4E5F 
 9418      53544120 
 9418      2831554C 
 9418      203C3C20 
 9419              	.LASF276:
 9420 212f 5F5F5451 		.ascii	"__TQ_FBIT__ 127\000"
 9420      5F464249 
 9420      545F5F20 
 9420      31323700 
 9421              	.LASF887:
 9422 213f 4144435F 		.ascii	"ADC_CR_START_NOW ((1UL << 24))\000"
 9422      43525F53 
 9422      54415254 
 9422      5F4E4F57 
 9422      20282831 
 9423              	.LASF713:
 9424 215e 54494D45 		.ascii	"TIMER_INT_ON_MATCH(n) (_BIT(((n) * 3)))\000"
 9424      525F494E 
 9424      545F4F4E 
 9424      5F4D4154 
 9424      4348286E 
 9425              	.LASF991:
 9426 2186 53444F5F 		.ascii	"SDO_ABORT_TOGGLE 0x05030000UL\000"
 9426      41424F52 
 9426      545F544F 
 9426      47474C45 
 9426      20307830 
 9427              	.LASF611:
 9428 21a4 4C50435F 		.ascii	"LPC_ROM_API_BASE_LOC 0x1FFF1FF8\000"
 9428      524F4D5F 
 9428      4150495F 
 9428      42415345 
 9428      5F4C4F43 
 9429              	.LASF344:
 9430 21c4 5F5F5553 		.ascii	"__USES_INITFINI__ 1\000"
 9430      45535F49 
 9430      4E495446 
 9430      494E495F 
 9430      5F203100 
 9431              	.LASF514:
 9432 21d8 5343425F 		.ascii	"SCB_CPUID_ARCHITECTURE_Pos 16\000"
 9432      43505549 
 9432      445F4152 
 9432      43484954 
 9432      45435455 
 9433              	.LASF852:
 9434 21f6 5353505F 		.ascii	"SSP_CR0_CPHA_FIRST ((uint32_t) (0))\000"
 9434      4352305F 
 9434      43504841 
 9434      5F464952 
 9434      53542028 
 9435              	.LASF18:
 9436 221a 5F5F5349 		.ascii	"__SIZEOF_SHORT__ 2\000"
 9436      5A454F46 
 9436      5F53484F 
ARM GAS  /tmp/ccSBomBp.s 			page 211


 9436      52545F5F 
 9436      203200
 9437              	.LASF263:
 9438 222d 5F5F554C 		.ascii	"__ULLACCUM_FBIT__ 32\000"
 9438      4C414343 
 9438      554D5F46 
 9438      4249545F 
 9438      5F203332 
 9439              	.LASF1033:
 9440 2242 5F426F6F 		.ascii	"_Bool\000"
 9440      6C00
 9441              	.LASF753:
 9442 2248 55415254 		.ascii	"UART_FCR_BITMASK (0xCF)\000"
 9442      5F464352 
 9442      5F424954 
 9442      4D41534B 
 9442      20283078 
 9443              	.LASF1172:
 9444 2260 62797465 		.ascii	"bytes\000"
 9444      7300
 9445              	.LASF628:
 9446 2266 4C50435F 		.ascii	"LPC_GPIO ((LPC_GPIO_T *) LPC_GPIO_PORT0_BASE)\000"
 9446      4750494F 
 9446      2028284C 
 9446      50435F47 
 9446      50494F5F 
 9447              	.LASF347:
 9448 2294 5F5F4C50 		.ascii	"__LPC_TYPES_H_ \000"
 9448      435F5459 
 9448      5045535F 
 9448      485F2000 
 9449              	.LASF350:
 9450 22a4 5F535953 		.ascii	"_SYS_FEATURES_H \000"
 9450      5F464541 
 9450      54555245 
 9450      535F4820 
 9450      00
 9451              	.LASF1008:
 9452 22b5 4F445F45 		.ascii	"OD_EXP_WO 0x20\000"
 9452      58505F57 
 9452      4F203078 
 9452      323000
 9453              	.LASF483:
 9454 22c4 53544154 		.ascii	"STATIC static\000"
 9454      49432073 
 9454      74617469 
 9454      6300
 9455              	.LASF1047:
 9456 22d2 52455345 		.ascii	"RESERVED2\000"
 9456      52564544 
 9456      3200
 9457              	.LASF677:
 9458 22dc 494F434F 		.ascii	"IOCON_INV_EN (0x1 << 6)\000"
 9458      4E5F494E 
 9458      565F454E 
 9458      20283078 
 9458      31203C3C 
ARM GAS  /tmp/ccSBomBp.s 			page 212


 9459              	.LASF1137:
 9460 22f4 43686970 		.ascii	"Chip_UART_SetupFIFOS\000"
 9460      5F554152 
 9460      545F5365 
 9460      74757046 
 9460      49464F53 
 9461              	.LASF830:
 9462 2309 55415254 		.ascii	"UART_TER2_TXEN (1 << 0)\000"
 9462      5F544552 
 9462      325F5458 
 9462      454E2028 
 9462      31203C3C 
 9463              	.LASF786:
 9464 2321 55415254 		.ascii	"UART_LSR_BI (1 << 4)\000"
 9464      5F4C5352 
 9464      5F424920 
 9464      2831203C 
 9464      3C203429 
 9465              	.LASF764:
 9466 2336 55415254 		.ascii	"UART_LCR_SBS_MASK (1 << 2)\000"
 9466      5F4C4352 
 9466      5F534253 
 9466      5F4D4153 
 9466      4B202831 
 9467              	.LASF320:
 9468 2351 5F5F5052 		.ascii	"__PRAGMA_REDEFINE_EXTNAME 1\000"
 9468      41474D41 
 9468      5F524544 
 9468      4546494E 
 9468      455F4558 
 9469              	.LASF33:
 9470 236d 5F5F5743 		.ascii	"__WCHAR_TYPE__ unsigned int\000"
 9470      4841525F 
 9470      54595045 
 9470      5F5F2075 
 9470      6E736967 
 9471              	.LASF627:
 9472 2389 4C50435F 		.ascii	"LPC_USB ((LPC_USB_T *) LPC_USB0_BASE)\000"
 9472      55534220 
 9472      28284C50 
 9472      435F5553 
 9472      425F5420 
 9473              	.LASF371:
 9474 23af 63686172 		.ascii	"char\000"
 9474      00
 9475              	.LASF299:
 9476 23b4 5F5F5553 		.ascii	"__USA_IBIT__ 16\000"
 9476      415F4942 
 9476      49545F5F 
 9476      20313600 
 9477              	.LASF616:
 9478 23c4 4C50435F 		.ascii	"LPC_TIMER16_1 ((LPC_TIMER_T *) LPC_TIMER16_1_BASE)\000"
 9478      54494D45 
 9478      5231365F 
 9478      31202828 
 9478      4C50435F 
 9479              	.LASF465:
ARM GAS  /tmp/ccSBomBp.s 			page 213


 9480 23f7 494E544D 		.ascii	"INTMAX_C(x) __INTMAX_C(x)\000"
 9480      41585F43 
 9480      28782920 
 9480      5F5F494E 
 9480      544D4158 
 9481              	.LASF452:
 9482 2411 50545244 		.ascii	"PTRDIFF_MIN (-PTRDIFF_MAX - 1)\000"
 9482      4946465F 
 9482      4D494E20 
 9482      282D5054 
 9482      52444946 
 9483              	.LASF696:
 9484 2430 4D445F53 		.ascii	"MD_STDI2C (0x1 << 8)\000"
 9484      54444932 
 9484      43202830 
 9484      7831203C 
 9484      3C203829 
 9485              	.LASF1060:
 9486 2445 55534152 		.ascii	"USARTCLKDIV\000"
 9486      54434C4B 
 9486      44495600 
 9487              	.LASF68:
 9488 2451 5F5F4758 		.ascii	"__GXX_ABI_VERSION 1002\000"
 9488      585F4142 
 9488      495F5645 
 9488      5253494F 
 9488      4E203130 
 9489              	.LASF63:
 9490 2468 5F5F5549 		.ascii	"__UINT_FAST64_TYPE__ long long unsigned int\000"
 9490      4E545F46 
 9490      41535436 
 9490      345F5459 
 9490      50455F5F 
 9491              	.LASF1110:
 9492 2494 53595343 		.ascii	"SYSCTL_CLOCK_SSP0\000"
 9492      544C5F43 
 9492      4C4F434B 
 9492      5F535350 
 9492      3000
 9493              	.LASF1117:
 9494 24a6 53595343 		.ascii	"SYSCTL_CLOCK_SSP1\000"
 9494      544C5F43 
 9494      4C4F434B 
 9494      5F535350 
 9494      3100
 9495              	.LASF858:
 9496 24b8 5353505F 		.ascii	"SSP_CR1_SLAVE_EN ((uint32_t) (1 << 2))\000"
 9496      4352315F 
 9496      534C4156 
 9496      455F454E 
 9496      20282875 
 9497              	.LASF133:
 9498 24df 5F5F464C 		.ascii	"__FLT_MIN__ 1.1754943508222875e-38F\000"
 9498      545F4D49 
 9498      4E5F5F20 
 9498      312E3137 
 9498      35343934 
ARM GAS  /tmp/ccSBomBp.s 			page 214


 9499              	.LASF288:
 9500 2503 5F5F4841 		.ascii	"__HA_FBIT__ 7\000"
 9500      5F464249 
 9500      545F5F20 
 9500      3700
 9501              	.LASF919:
 9502 2511 4932435F 		.ascii	"I2C_I2STAT_NO_INF ((0xF8))\000"
 9502      49325354 
 9502      41545F4E 
 9502      4F5F494E 
 9502      46202828 
 9503              	.LASF624:
 9504 252c 4C50435F 		.ascii	"LPC_SYSCTL ((LPC_SYSCTL_T *) LPC_SYSCTL_BASE)\000"
 9504      53595343 
 9504      544C2028 
 9504      284C5043 
 9504      5F535953 
 9505              	.LASF316:
 9506 255a 5F5F4743 		.ascii	"__GCC_ATOMIC_LLONG_LOCK_FREE 1\000"
 9506      435F4154 
 9506      4F4D4943 
 9506      5F4C4C4F 
 9506      4E475F4C 
 9507              	.LASF450:
 9508 2579 5349475F 		.ascii	"SIG_ATOMIC_MAX (__STDINT_EXP(INT_MAX))\000"
 9508      41544F4D 
 9508      49435F4D 
 9508      41582028 
 9508      5F5F5354 
 9509              	.LASF719:
 9510 25a0 5F5F5541 		.ascii	"__UART_11XX_H_ \000"
 9510      52545F31 
 9510      3158585F 
 9510      485F2000 
 9511              	.LASF978:
 9512 25b0 43414E5F 		.ascii	"CAN_ERROR_PASS 0x00000001UL\000"
 9512      4552524F 
 9512      525F5041 
 9512      53532030 
 9512      78303030 
 9513              	.LASF595:
 9514 25cc 4C50435F 		.ascii	"LPC_ADC_BASE 0x4001C000\000"
 9514      4144435F 
 9514      42415345 
 9514      20307834 
 9514      30303143 
 9515              	.LASF923:
 9516 25e4 4932435F 		.ascii	"I2C_I2STAT_M_TX_SLAW_ACK ((0x18))\000"
 9516      49325354 
 9516      41545F4D 
 9516      5F54585F 
 9516      534C4157 
 9517              	.LASF1183:
 9518 2606 52696E67 		.ascii	"RingBuffer_Insert\000"
 9518      42756666 
 9518      65725F49 
 9518      6E736572 
ARM GAS  /tmp/ccSBomBp.s 			page 215


 9518      7400
 9519              	.LASF194:
 9520 2618 5F5F5553 		.ascii	"__USFRACT_IBIT__ 0\000"
 9520      46524143 
 9520      545F4942 
 9520      49545F5F 
 9520      203000
 9521              	.LASF939:
 9522 262b 4932435F 		.ascii	"I2C_I2STAT_S_RX_PRE_SLA_DAT_ACK ((0x80))\000"
 9522      49325354 
 9522      41545F53 
 9522      5F52585F 
 9522      5052455F 
 9523              	.LASF911:
 9524 2654 4932435F 		.ascii	"I2C_I2CONCLR_I2ENC ((1 << 6))\000"
 9524      4932434F 
 9524      4E434C52 
 9524      5F493245 
 9524      4E432028 
 9525              	.LASF195:
 9526 2672 5F5F5553 		.ascii	"__USFRACT_MIN__ 0.0UHR\000"
 9526      46524143 
 9526      545F4D49 
 9526      4E5F5F20 
 9526      302E3055 
 9527              	.LASF704:
 9528 2689 46554E43 		.ascii	"FUNC5 0x5\000"
 9528      35203078 
 9528      3500
 9529              	.LASF806:
 9530 2693 55415254 		.ascii	"UART_ACR_ABTOINT_CLR (1 << 9)\000"
 9530      5F414352 
 9530      5F414254 
 9530      4F494E54 
 9530      5F434C52 
 9531              	.LASF996:
 9532 26b1 53444F5F 		.ascii	"SDO_ABORT_READONLY 0x06010002UL\000"
 9532      41424F52 
 9532      545F5245 
 9532      41444F4E 
 9532      4C592030 
 9533              	.LASF357:
 9534 26d1 5F5F5F69 		.ascii	"___int16_t_defined 1\000"
 9534      6E743136 
 9534      5F745F64 
 9534      6566696E 
 9534      65642031 
 9535              	.LASF157:
 9536 26e6 5F5F4C44 		.ascii	"__LDBL_MAX_EXP__ 1024\000"
 9536      424C5F4D 
 9536      41585F45 
 9536      58505F5F 
 9536      20313032 
 9537              	.LASF670:
 9538 26fc 494F434F 		.ascii	"IOCON_FUNC6 0x6\000"
 9538      4E5F4655 
 9538      4E433620 
ARM GAS  /tmp/ccSBomBp.s 			page 216


 9538      30783600 
 9539              	.LASF1148:
 9540 270c 696E744D 		.ascii	"intMask\000"
 9540      61736B00 
 9541              	.LASF742:
 9542 2714 55415254 		.ascii	"UART_IIR_BITMASK (0x3CF)\000"
 9542      5F494952 
 9542      5F424954 
 9542      4D41534B 
 9542      20283078 
 9543              	.LASF394:
 9544 272d 5F5F696E 		.ascii	"__int8_t_defined 1\000"
 9544      74385F74 
 9544      5F646566 
 9544      696E6564 
 9544      203100
 9545              	.LASF988:
 9546 2740 43414E5F 		.ascii	"CAN_MSGOBJ_EXT 0x20000000UL\000"
 9546      4D53474F 
 9546      424A5F45 
 9546      58542030 
 9546      78323030 
 9547              	.LASF150:
 9548 275c 5F5F4442 		.ascii	"__DBL_HAS_DENORM__ 1\000"
 9548      4C5F4841 
 9548      535F4445 
 9548      4E4F524D 
 9548      5F5F2031 
 9549              	.LASF1019:
 9550 2771 4C50435F 		.ascii	"LPC_CCAN_API ((CCAN_API_T *) (LPC_ROM_API->candApiB"
 9550      4343414E 
 9550      5F415049 
 9550      20282843 
 9550      43414E5F 
 9551 27a4 61736529 		.ascii	"ase))\000"
 9551      2900
 9552              	.LASF849:
 9553 27aa 5353505F 		.ascii	"SSP_CR0_FRF_MICROWIRE ((uint32_t) (2 << 4))\000"
 9553      4352305F 
 9553      4652465F 
 9553      4D494352 
 9553      4F574952 
 9554              	.LASF643:
 9555 27d6 53595343 		.ascii	"SYSCTL_DEEPSLP_BOD_PD (1 << 3)\000"
 9555      544C5F44 
 9555      45455053 
 9555      4C505F42 
 9555      4F445F50 
 9556              	.LASF566:
 9557 27f5 53797354 		.ascii	"SysTick_CTRL_ENABLE_Pos 0\000"
 9557      69636B5F 
 9557      4354524C 
 9557      5F454E41 
 9557      424C455F 
 9558              	.LASF445:
 9559 280f 494E544D 		.ascii	"INTMAX_MAX (__INTMAX_MAX__)\000"
 9559      41585F4D 
ARM GAS  /tmp/ccSBomBp.s 			page 217


 9559      41582028 
 9559      5F5F494E 
 9559      544D4158 
 9560              	.LASF422:
 9561 282b 494E5433 		.ascii	"INT32_MAX (__INT32_MAX__)\000"
 9561      325F4D41 
 9561      5820285F 
 9561      5F494E54 
 9561      33325F4D 
 9562              	.LASF759:
 9563 2845 55415254 		.ascii	"UART_LCR_WLEN_MASK (3 << 0)\000"
 9563      5F4C4352 
 9563      5F574C45 
 9563      4E5F4D41 
 9563      534B2028 
 9564              	.LASF1074:
 9565 2861 52455345 		.ascii	"RESERVED9\000"
 9565      52564544 
 9565      3900
 9566              	.LASF292:
 9567 286b 5F5F4441 		.ascii	"__DA_FBIT__ 31\000"
 9567      5F464249 
 9567      545F5F20 
 9567      333100
 9568              	.LASF970:
 9569 287a 4932435F 		.ascii	"I2C_RECV_END 0x10\000"
 9569      52454356 
 9569      5F454E44 
 9569      20307831 
 9569      3000
 9570              	.LASF550:
 9571 288c 5343425F 		.ascii	"SCB_SCR_SLEEPDEEP_Pos 2\000"
 9571      5343525F 
 9571      534C4545 
 9571      50444545 
 9571      505F506F 
 9572              	.LASF361:
 9573 28a4 5F5F5F69 		.ascii	"___int_least16_t_defined 1\000"
 9573      6E745F6C 
 9573      65617374 
 9573      31365F74 
 9573      5F646566 
 9574              	.LASF525:
 9575 28bf 5343425F 		.ascii	"SCB_ICSR_PENDSVCLR_Msk (1UL << SCB_ICSR_PENDSVCLR_P"
 9575      49435352 
 9575      5F50454E 
 9575      44535643 
 9575      4C525F4D 
 9576 28f2 6F732900 		.ascii	"os)\000"
 9577              	.LASF135:
 9578 28f6 5F5F464C 		.ascii	"__FLT_DENORM_MIN__ 1.4012984643248171e-45F\000"
 9578      545F4445 
 9578      4E4F524D 
 9578      5F4D494E 
 9578      5F5F2031 
 9579              	.LASF389:
 9580 2921 5F5F4C45 		.ascii	"__LEAST8 \"hh\"\000"
ARM GAS  /tmp/ccSBomBp.s 			page 218


 9580      41535438 
 9580      20226868 
 9580      2200
 9581              	.LASF96:
 9582 292f 5F5F494E 		.ascii	"__INT_LEAST16_MAX__ 32767\000"
 9582      545F4C45 
 9582      41535431 
 9582      365F4D41 
 9582      585F5F20 
 9583              	.LASF267:
 9584 2949 5F5F554C 		.ascii	"__ULLACCUM_EPSILON__ 0x1P-32ULLK\000"
 9584      4C414343 
 9584      554D5F45 
 9584      5053494C 
 9584      4F4E5F5F 
 9585              	.LASF814:
 9586 296a 55415254 		.ascii	"UART_RS485CTRL_BITMASK (0x3F)\000"
 9586      5F525334 
 9586      38354354 
 9586      524C5F42 
 9586      49544D41 
 9587              	.LASF870:
 9588 2988 5353505F 		.ascii	"SSP_SLAVE_MODE SSP_CR1_SLAVE_EN\000"
 9588      534C4156 
 9588      455F4D4F 
 9588      44452053 
 9588      53505F43 
 9589              	.LASF67:
 9590 29a8 5F5F6861 		.ascii	"__has_include_next(STR) __has_include_next__(STR)\000"
 9590      735F696E 
 9590      636C7564 
 9590      655F6E65 
 9590      78742853 
 9591              	.LASF848:
 9592 29da 5353505F 		.ascii	"SSP_CR0_FRF_TI ((uint32_t) (1 << 4))\000"
 9592      4352305F 
 9592      4652465F 
 9592      54492028 
 9592      2875696E 
 9593              	.LASF420:
 9594 29ff 55494E54 		.ascii	"UINT_LEAST16_MAX (__UINT_LEAST16_MAX__)\000"
 9594      5F4C4541 
 9594      53543136 
 9594      5F4D4158 
 9594      20285F5F 
 9595              	.LASF107:
 9596 2a27 5F5F5549 		.ascii	"__UINT32_C(c) c ## UL\000"
 9596      4E543332 
 9596      5F432863 
 9596      29206320 
 9596      23232055 
 9597              	.LASF516:
 9598 2a3d 5343425F 		.ascii	"SCB_CPUID_PARTNO_Pos 4\000"
 9598      43505549 
 9598      445F5041 
 9598      52544E4F 
 9598      5F506F73 
ARM GAS  /tmp/ccSBomBp.s 			page 219


 9599              	.LASF521:
 9600 2a54 5343425F 		.ascii	"SCB_ICSR_NMIPENDSET_Msk (1UL << SCB_ICSR_NMIPENDSET"
 9600      49435352 
 9600      5F4E4D49 
 9600      50454E44 
 9600      5345545F 
 9601 2a87 5F506F73 		.ascii	"_Pos)\000"
 9601      2900
 9602              	.LASF762:
 9603 2a8d 55415254 		.ascii	"UART_LCR_WLEN7 (2 << 0)\000"
 9603      5F4C4352 
 9603      5F574C45 
 9603      4E372028 
 9603      32203C3C 
 9604              	.LASF477:
 9605 2aa5 5F534246 		.ascii	"_SBF\000"
 9605      00
 9606              	.LASF89:
 9607 2aaa 5F5F494E 		.ascii	"__INT64_MAX__ 9223372036854775807LL\000"
 9607      5436345F 
 9607      4D41585F 
 9607      5F203932 
 9607      32333337 
 9608              	.LASF134:
 9609 2ace 5F5F464C 		.ascii	"__FLT_EPSILON__ 1.1920928955078125e-7F\000"
 9609      545F4550 
 9609      53494C4F 
 9609      4E5F5F20 
 9609      312E3139 
 9610              	.LASF973:
 9611 2af5 4932435F 		.ascii	"I2C_CheckError(ErrorCode) (ErrorCode & 0x10000000)\000"
 9611      43686563 
 9611      6B457272 
 9611      6F722845 
 9611      72726F72 
 9612              	.LASF612:
 9613 2b28 4C50435F 		.ascii	"LPC_I2C ((LPC_I2C_T *) LPC_I2C_BASE)\000"
 9613      49324320 
 9613      28284C50 
 9613      435F4932 
 9613      435F5420 
 9614              	.LASF826:
 9615 2b4d 55415254 		.ascii	"UART_FDR_DIVADDVAL(n) (n & 0x0F)\000"
 9615      5F464452 
 9615      5F444956 
 9615      41444456 
 9615      414C286E 
 9616              	.LASF757:
 9617 2b6e 55415254 		.ascii	"UART_FCR_TRG_LEV2 (2 << 6)\000"
 9617      5F464352 
 9617      5F545247 
 9617      5F4C4556 
 9617      32202832 
 9618              	.LASF998:
 9619 2b89 53444F5F 		.ascii	"SDO_ABORT_PARAINCOMP 0x06040043UL\000"
 9619      41424F52 
 9619      545F5041 
ARM GAS  /tmp/ccSBomBp.s 			page 220


 9619      5241494E 
 9619      434F4D50 
 9620              	.LASF780:
 9621 2bab 55415254 		.ascii	"UART_MCR_AUTO_CTS_EN (1 << 7)\000"
 9621      5F4D4352 
 9621      5F415554 
 9621      4F5F4354 
 9621      535F454E 
 9622              	.LASF560:
 9623 2bc9 53797354 		.ascii	"SysTick_CTRL_COUNTFLAG_Pos 16\000"
 9623      69636B5F 
 9623      4354524C 
 9623      5F434F55 
 9623      4E54464C 
 9624              	.LASF399:
 9625 2be7 5F5F696E 		.ascii	"__int_least16_t_defined 1\000"
 9625      745F6C65 
 9625      61737431 
 9625      365F745F 
 9625      64656669 
 9626              	.LASF247:
 9627 2c01 5F5F5541 		.ascii	"__UACCUM_EPSILON__ 0x1P-16UK\000"
 9627      4343554D 
 9627      5F455053 
 9627      494C4F4E 
 9627      5F5F2030 
 9628              	.LASF476:
 9629 2c1e 5F424954 		.ascii	"_BIT(n) (1 << (n))\000"
 9629      286E2920 
 9629      2831203C 
 9629      3C20286E 
 9629      292900
 9630              	.LASF425:
 9631 2c31 494E545F 		.ascii	"INT_LEAST32_MAX (__INT_LEAST32_MAX__)\000"
 9631      4C454153 
 9631      5433325F 
 9631      4D415820 
 9631      285F5F49 
 9632              	.LASF313:
 9633 2c57 5F5F4743 		.ascii	"__GCC_ATOMIC_SHORT_LOCK_FREE 1\000"
 9633      435F4154 
 9633      4F4D4943 
 9633      5F53484F 
 9633      52545F4C 
 9634              	.LASF471:
 9635 2c76 66616C73 		.ascii	"false 0\000"
 9635      65203000 
 9636              	.LASF890:
 9637 2c7e 4144435F 		.ascii	"ADC_CR_START_ADCTRIG0 ((4UL << 24))\000"
 9637      43525F53 
 9637      54415254 
 9637      5F414443 
 9637      54524947 
 9638              	.LASF727:
 9639 2ca2 55415254 		.ascii	"UART_DLM_MASKBIT (0xFF)\000"
 9639      5F444C4D 
 9639      5F4D4153 
ARM GAS  /tmp/ccSBomBp.s 			page 221


 9639      4B424954 
 9639      20283078 
 9640              	.LASF845:
 9641 2cba 5F5F5353 		.ascii	"__SSP_11XX_H_ \000"
 9641      505F3131 
 9641      58585F48 
 9641      5F2000
 9642              	.LASF271:
 9643 2cc9 5F5F4851 		.ascii	"__HQ_IBIT__ 0\000"
 9643      5F494249 
 9643      545F5F20 
 9643      3000
 9644              	.LASF499:
 9645 2cd7 5F5F434F 		.ascii	"__CORTEX_M (0x00)\000"
 9645      52544558 
 9645      5F4D2028 
 9645      30783030 
 9645      2900
 9646              	.LASF233:
 9647 2ce9 5F5F5553 		.ascii	"__USACCUM_FBIT__ 8\000"
 9647      41434355 
 9647      4D5F4642 
 9647      49545F5F 
 9647      203800
 9648              	.LASF1151:
 9649 2cfc 52696E67 		.ascii	"RingBuff\000"
 9649      42756666 
 9649      00
 9650              	.LASF930:
 9651 2d05 4932435F 		.ascii	"I2C_I2STAT_M_RX_ARB_LOST ((0x38))\000"
 9651      49325354 
 9651      41545F4D 
 9651      5F52585F 
 9651      4152425F 
 9652              	.LASF535:
 9653 2d27 5343425F 		.ascii	"SCB_ICSR_VECTPENDING_Msk (0x1FFUL << SCB_ICSR_VECTP"
 9653      49435352 
 9653      5F564543 
 9653      5450454E 
 9653      44494E47 
 9654 2d5a 454E4449 		.ascii	"ENDING_Pos)\000"
 9654      4E475F50 
 9654      6F732900 
 9655              	.LASF740:
 9656 2d66 55415254 		.ascii	"UART_IIR_ABEO_INT (1 << 8)\000"
 9656      5F494952 
 9656      5F414245 
 9656      4F5F494E 
 9656      54202831 
 9657              	.LASF714:
 9658 2d81 54494D45 		.ascii	"TIMER_RESET_ON_MATCH(n) (_BIT((((n) * 3) + 1)))\000"
 9658      525F5245 
 9658      5345545F 
 9658      4F4E5F4D 
 9658      41544348 
 9659              	.LASF248:
 9660 2db1 5F5F4C41 		.ascii	"__LACCUM_FBIT__ 31\000"
ARM GAS  /tmp/ccSBomBp.s 			page 222


 9660      4343554D 
 9660      5F464249 
 9660      545F5F20 
 9660      333100
 9661              	.LASF977:
 9662 2dc4 43414E5F 		.ascii	"CAN_ERROR_NONE 0x00000000UL\000"
 9662      4552524F 
 9662      525F4E4F 
 9662      4E452030 
 9662      78303030 
 9663              	.LASF663:
 9664 2de0 5F5F494F 		.ascii	"__IOCON_11XX_H_ \000"
 9664      434F4E5F 
 9664      31315858 
 9664      5F485F20 
 9664      00
 9665              	.LASF955:
 9666 2df1 4932435F 		.ascii	"I2C_I2MMCTRL_BITMASK ((0x07))\000"
 9666      49324D4D 
 9666      4354524C 
 9666      5F424954 
 9666      4D41534B 
 9667              	.LASF710:
 9668 2e0f 54494D45 		.ascii	"TIMER_CAP_INT(n) (_BIT((((n) & 0x0F) + 4)))\000"
 9668      525F4341 
 9668      505F494E 
 9668      54286E29 
 9668      20285F42 
 9669              	.LASF872:
 9670 2e3b 5F5F524F 		.ascii	"__ROMAPI_11XX_H_ \000"
 9670      4D415049 
 9670      5F313158 
 9670      585F485F 
 9670      2000
 9671              	.LASF1037:
 9672 2e4d 53595350 		.ascii	"SYSPLLCTRL\000"
 9672      4C4C4354 
 9672      524C00
 9673              	.LASF294:
 9674 2e58 5F5F5441 		.ascii	"__TA_FBIT__ 63\000"
 9674      5F464249 
 9674      545F5F20 
 9674      363300
 9675              	.LASF935:
 9676 2e67 4932435F 		.ascii	"I2C_I2STAT_S_RX_SLAW_ACK ((0x60))\000"
 9676      49325354 
 9676      41545F53 
 9676      5F52585F 
 9676      534C4157 
 9677              	.LASF406:
 9678 2e89 494E5450 		.ascii	"INTPTR_MIN (-__INTPTR_MAX__ - 1)\000"
 9678      54525F4D 
 9678      494E2028 
 9678      2D5F5F49 
 9678      4E545054 
 9679              	.LASF1035:
 9680 2eaa 5359534D 		.ascii	"SYSMEMREMAP\000"
ARM GAS  /tmp/ccSBomBp.s 			page 223


 9680      454D5245 
 9680      4D415000 
 9681              	.LASF604:
 9682 2eb6 4C50435F 		.ascii	"LPC_CAN0_BASE 0x40050000\000"
 9682      43414E30 
 9682      5F424153 
 9682      45203078 
 9682      34303035 
 9683              	.LASF723:
 9684 2ecf 55415254 		.ascii	"UART_RBR_MASKBIT (0xFF)\000"
 9684      5F524252 
 9684      5F4D4153 
 9684      4B424954 
 9684      20283078 
 9685              	.LASF340:
 9686 2ee7 5F5F4152 		.ascii	"__ARM_PCS 1\000"
 9686      4D5F5043 
 9686      53203100 
 9687              	.LASF469:
 9688 2ef3 626F6F6C 		.ascii	"bool _Bool\000"
 9688      205F426F 
 9688      6F6C00
 9689              	.LASF905:
 9690 2efe 4932435F 		.ascii	"I2C_I2CONSET_STA ((0x20))\000"
 9690      4932434F 
 9690      4E534554 
 9690      5F535441 
 9690      20282830 
 9691              	.LASF984:
 9692 2f18 43414E5F 		.ascii	"CAN_ERROR_BIT1 0x00000040UL\000"
 9692      4552524F 
 9692      525F4249 
 9692      54312030 
 9692      78303030 
 9693              	.LASF639:
 9694 2f34 53595343 		.ascii	"SYSCTL_RST_WDT (1 << 2)\000"
 9694      544C5F52 
 9694      53545F57 
 9694      44542028 
 9694      31203C3C 
 9695              	.LASF602:
 9696 2f4c 4C50435F 		.ascii	"LPC_SYSCTL_BASE 0x40048000\000"
 9696      53595343 
 9696      544C5F42 
 9696      41534520 
 9696      30783430 
 9697              	.LASF1133:
 9698 2f67 52533438 		.ascii	"RS485DLY\000"
 9698      35444C59 
 9698      00
 9699              	.LASF245:
 9700 2f70 5F5F5541 		.ascii	"__UACCUM_MIN__ 0.0UK\000"
 9700      4343554D 
 9700      5F4D494E 
 9700      5F5F2030 
 9700      2E30554B 
 9701              	.LASF522:
ARM GAS  /tmp/ccSBomBp.s 			page 224


 9702 2f85 5343425F 		.ascii	"SCB_ICSR_PENDSVSET_Pos 28\000"
 9702      49435352 
 9702      5F50454E 
 9702      44535653 
 9702      45545F50 
 9703              	.LASF544:
 9704 2f9f 5343425F 		.ascii	"SCB_AIRCR_SYSRESETREQ_Pos 2\000"
 9704      41495243 
 9704      525F5359 
 9704      53524553 
 9704      45545245 
 9705              	.LASF508:
 9706 2fbb 5F5F4F20 		.ascii	"__O volatile\000"
 9706      766F6C61 
 9706      74696C65 
 9706      00
 9707              	.LASF623:
 9708 2fc8 4C50435F 		.ascii	"LPC_IOCON ((LPC_IOCON_T *) LPC_IOCON_BASE)\000"
 9708      494F434F 
 9708      4E202828 
 9708      4C50435F 
 9708      494F434F 
 9709              	.LASF449:
 9710 2ff3 5349475F 		.ascii	"SIG_ATOMIC_MIN (-__STDINT_EXP(INT_MAX) - 1)\000"
 9710      41544F4D 
 9710      49435F4D 
 9710      494E2028 
 9710      2D5F5F53 
 9711              	.LASF925:
 9712 301f 4932435F 		.ascii	"I2C_I2STAT_M_TX_DAT_ACK ((0x28))\000"
 9712      49325354 
 9712      41545F4D 
 9712      5F54585F 
 9712      4441545F 
 9713              	.LASF810:
 9714 3040 55415254 		.ascii	"UART_RS485CTRL_AADEN (1 << 2)\000"
 9714      5F525334 
 9714      38354354 
 9714      524C5F41 
 9714      4144454E 
 9715              	.LASF1064:
 9716 305e 55534243 		.ascii	"USBCLKUEN\000"
 9716      4C4B5545 
 9716      4E00
 9717              	.LASF989:
 9718 3068 43414E5F 		.ascii	"CAN_MSGOBJ_DAT 0x00000000UL\000"
 9718      4D53474F 
 9718      424A5F44 
 9718      41542030 
 9718      78303030 
 9719              	.LASF949:
 9720 3084 4932435F 		.ascii	"I2C_SLAVE_TIME_OUT 0x10000000UL\000"
 9720      534C4156 
 9720      455F5449 
 9720      4D455F4F 
 9720      55542030 
 9721              	.LASF802:
ARM GAS  /tmp/ccSBomBp.s 			page 225


 9722 30a4 55415254 		.ascii	"UART_ACR_START (1 << 0)\000"
 9722      5F414352 
 9722      5F535441 
 9722      52542028 
 9722      31203C3C 
 9723              	.LASF607:
 9724 30bc 4C50435F 		.ascii	"LPC_GPIO_PORT1_BASE 0x50010000\000"
 9724      4750494F 
 9724      5F504F52 
 9724      54315F42 
 9724      41534520 
 9725              	.LASF823:
 9726 30db 55415254 		.ascii	"UART_SCICTRL_PROTSEL_T1 (1 << 2)\000"
 9726      5F534349 
 9726      4354524C 
 9726      5F50524F 
 9726      5453454C 
 9727              	.LASF825:
 9728 30fc 55415254 		.ascii	"UART_SCICTRL_GUARDTIME(n) ((n & 0xFF) << 8)\000"
 9728      5F534349 
 9728      4354524C 
 9728      5F475541 
 9728      52445449 
 9729              	.LASF401:
 9730 3128 5F5F696E 		.ascii	"__int_least64_t_defined 1\000"
 9730      745F6C65 
 9730      61737436 
 9730      345F745F 
 9730      64656669 
 9731              	.LASF902:
 9732 3142 4932435F 		.ascii	"I2C_I2CONSET_AA ((0x04))\000"
 9732      4932434F 
 9732      4E534554 
 9732      5F414120 
 9732      28283078 
 9733              	.LASF1083:
 9734 315b 55534243 		.ascii	"USBCLKCTRL\000"
 9734      4C4B4354 
 9734      524C00
 9735              	.LASF180:
 9736 3166 5F5F4445 		.ascii	"__DEC64_SUBNORMAL_MIN__ 0.000000000000001E-383DD\000"
 9736      4336345F 
 9736      5355424E 
 9736      4F524D41 
 9736      4C5F4D49 
 9737              	.LASF197:
 9738 3197 5F5F5553 		.ascii	"__USFRACT_EPSILON__ 0x1P-8UHR\000"
 9738      46524143 
 9738      545F4550 
 9738      53494C4F 
 9738      4E5F5F20 
 9739              	.LASF688:
 9740 31b5 4D445F42 		.ascii	"MD_BUK (0x3 << 3)\000"
 9740      554B2028 
 9740      30783320 
 9740      3C3C2033 
 9740      2900
ARM GAS  /tmp/ccSBomBp.s 			page 226


 9741              	.LASF755:
 9742 31c7 55415254 		.ascii	"UART_FCR_TRG_LEV0 (0)\000"
 9742      5F464352 
 9742      5F545247 
 9742      5F4C4556 
 9742      30202830 
 9743              	.LASF479:
 9744 31dd 5F424954 		.ascii	"_BITMASK\000"
 9744      4D41534B 
 9744      00
 9745              	.LASF113:
 9746 31e6 5F5F494E 		.ascii	"__INT_FAST64_MAX__ 9223372036854775807LL\000"
 9746      545F4641 
 9746      53543634 
 9746      5F4D4158 
 9746      5F5F2039 
 9747              	.LASF622:
 9748 320f 4C50435F 		.ascii	"LPC_SSP0 ((LPC_SSP_T *) LPC_SSP0_BASE)\000"
 9748      53535030 
 9748      2028284C 
 9748      50435F53 
 9748      53505F54 
 9749              	.LASF193:
 9750 3236 5F5F5553 		.ascii	"__USFRACT_FBIT__ 8\000"
 9750      46524143 
 9750      545F4642 
 9750      49545F5F 
 9750      203800
 9751              	.LASF261:
 9752 3249 5F5F4C4C 		.ascii	"__LLACCUM_MAX__ 0X7FFFFFFFFFFFFFFFP-31LLK\000"
 9752      41434355 
 9752      4D5F4D41 
 9752      585F5F20 
 9752      30583746 
 9753              	.LASF739:
 9754 3273 55415254 		.ascii	"UART_IIR_FIFO_EN (3 << 6)\000"
 9754      5F494952 
 9754      5F464946 
 9754      4F5F454E 
 9754      20283320 
 9755              	.LASF400:
 9756 328d 5F5F696E 		.ascii	"__int_least32_t_defined 1\000"
 9756      745F6C65 
 9756      61737433 
 9756      325F745F 
 9756      64656669 
 9757              	.LASF305:
 9758 32a7 5F5F5553 		.ascii	"__USER_LABEL_PREFIX__ \000"
 9758      45525F4C 
 9758      4142454C 
 9758      5F505245 
 9758      4649585F 
 9759              	.LASF867:
 9760 32be 5353505F 		.ascii	"SSP_CPHA_SECOND SSP_CR0_CPHA_SECOND\000"
 9760      43504841 
 9760      5F534543 
 9760      4F4E4420 
ARM GAS  /tmp/ccSBomBp.s 			page 227


 9760      5353505F 
 9761              	.LASF609:
 9762 32e2 4C50435F 		.ascii	"LPC_GPIO_PORT3_BASE 0x50030000\000"
 9762      4750494F 
 9762      5F504F52 
 9762      54335F42 
 9762      41534520 
 9763              	.LASF950:
 9764 3301 4932435F 		.ascii	"I2C_I2DAT_BITMASK ((0xFF))\000"
 9764      49324441 
 9764      545F4249 
 9764      544D4153 
 9764      4B202828 
 9765              	.LASF1155:
 9766 331c 43686970 		.ascii	"Chip_UART_DeInit\000"
 9766      5F554152 
 9766      545F4465 
 9766      496E6974 
 9766      00
 9767              	.LASF1103:
 9768 332d 53595343 		.ascii	"SYSCTL_CLOCK_FLASHARRAY\000"
 9768      544C5F43 
 9768      4C4F434B 
 9768      5F464C41 
 9768      53484152 
 9769              	.LASF824:
 9770 3345 55415254 		.ascii	"UART_SCICTRL_TXRETRY(n) ((n & 0x07) << 5)\000"
 9770      5F534349 
 9770      4354524C 
 9770      5F545852 
 9770      45545259 
 9771              	.LASF463:
 9772 336f 494E5436 		.ascii	"INT64_C(x) __INT64_C(x)\000"
 9772      345F4328 
 9772      7829205F 
 9772      5F494E54 
 9772      36345F43 
 9773              	.LASF200:
 9774 3387 5F5F4652 		.ascii	"__FRACT_MIN__ (-0.5R-0.5R)\000"
 9774      4143545F 
 9774      4D494E5F 
 9774      5F20282D 
 9774      302E3552 
 9775              	.LASF409:
 9776 33a2 494E5438 		.ascii	"INT8_MIN (-__INT8_MAX__ - 1)\000"
 9776      5F4D494E 
 9776      20282D5F 
 9776      5F494E54 
 9776      385F4D41 
 9777              	.LASF876:
 9778 33bf 4144435F 		.ascii	"ADC_MAX_SAMPLE_RATE 400000\000"
 9778      4D41585F 
 9778      53414D50 
 9778      4C455F52 
 9778      41544520 
 9779              	.LASF1105:
 9780 33da 53595343 		.ascii	"SYSCTL_CLOCK_GPIO\000"
ARM GAS  /tmp/ccSBomBp.s 			page 228


 9780      544C5F43 
 9780      4C4F434B 
 9780      5F475049 
 9780      4F00
 9781              	.LASF539:
 9782 33ec 5343425F 		.ascii	"SCB_AIRCR_VECTKEY_Msk (0xFFFFUL << SCB_AIRCR_VECTKE"
 9782      41495243 
 9782      525F5645 
 9782      43544B45 
 9782      595F4D73 
 9783 341f 595F506F 		.ascii	"Y_Pos)\000"
 9783      732900
 9784              	.LASF8:
 9785 3426 5F5F4154 		.ascii	"__ATOMIC_ACQUIRE 2\000"
 9785      4F4D4943 
 9785      5F414351 
 9785      55495245 
 9785      203200
 9786              	.LASF1153:
 9787 3439 43686970 		.ascii	"Chip_Clock_DisablePeriphClock\000"
 9787      5F436C6F 
 9787      636B5F44 
 9787      69736162 
 9787      6C655065 
 9788              	.LASF632:
 9789 3457 504D555F 		.ascii	"PMU_PCON_PM_DEEPPOWERDOWN (0x2)\000"
 9789      50434F4E 
 9789      5F504D5F 
 9789      44454550 
 9789      504F5745 
 9790              	.LASF859:
 9791 3477 5353505F 		.ascii	"SSP_CR1_MASTER_EN ((uint32_t) (0))\000"
 9791      4352315F 
 9791      4D415354 
 9791      45525F45 
 9791      4E202828 
 9792              	.LASF1040:
 9793 349a 55534250 		.ascii	"USBPLLSTAT\000"
 9793      4C4C5354 
 9793      415400
 9794              	.LASF325:
 9795 34a5 5F5F4152 		.ascii	"__ARM_SIZEOF_WCHAR_T 4\000"
 9795      4D5F5349 
 9795      5A454F46 
 9795      5F574348 
 9795      41525F54 
 9796              	.LASF417:
 9797 34bc 55494E54 		.ascii	"UINT16_MAX (__UINT16_MAX__)\000"
 9797      31365F4D 
 9797      41582028 
 9797      5F5F5549 
 9797      4E543136 
 9798              	.LASF66:
 9799 34d8 5F5F6861 		.ascii	"__has_include(STR) __has_include__(STR)\000"
 9799      735F696E 
 9799      636C7564 
 9799      65285354 
ARM GAS  /tmp/ccSBomBp.s 			page 229


 9799      5229205F 
 9800              	.LASF1185:
 9801 3500 52696E67 		.ascii	"RingBuffer_InsertMult\000"
 9801      42756666 
 9801      65725F49 
 9801      6E736572 
 9801      744D756C 
 9802              	.LASF519:
 9803 3516 5343425F 		.ascii	"SCB_CPUID_REVISION_Msk (0xFUL << SCB_CPUID_REVISION"
 9803      43505549 
 9803      445F5245 
 9803      56495349 
 9803      4F4E5F4D 
 9804 3549 5F506F73 		.ascii	"_Pos)\000"
 9804      2900
 9805              	.LASF751:
 9806 354f 55415254 		.ascii	"UART_FCR_TX_RS (1 << 2)\000"
 9806      5F464352 
 9806      5F54585F 
 9806      52532028 
 9806      31203C3C 
 9807              	.LASF664:
 9808 3567 494F434F 		.ascii	"IOCON_FUNC0 0x0\000"
 9808      4E5F4655 
 9808      4E433020 
 9808      30783000 
 9809              	.LASF148:
 9810 3577 5F5F4442 		.ascii	"__DBL_EPSILON__ ((double)2.2204460492503131e-16L)\000"
 9810      4C5F4550 
 9810      53494C4F 
 9810      4E5F5F20 
 9810      2828646F 
 9811              	.LASF137:
 9812 35a9 5F5F464C 		.ascii	"__FLT_HAS_INFINITY__ 1\000"
 9812      545F4841 
 9812      535F494E 
 9812      46494E49 
 9812      54595F5F 
 9813              	.LASF958:
 9814 35c0 4932435F 		.ascii	"I2C_I2ADR_BITMASK ((0xFF))\000"
 9814      49324144 
 9814      525F4249 
 9814      544D4153 
 9814      4B202828 
 9815              	.LASF241:
 9816 35db 5F5F4143 		.ascii	"__ACCUM_MAX__ 0X7FFFFFFFP-15K\000"
 9816      43554D5F 
 9816      4D41585F 
 9816      5F203058 
 9816      37464646 
 9817              	.LASF533:
 9818 35f9 5343425F 		.ascii	"SCB_ICSR_ISRPENDING_Msk (1UL << SCB_ICSR_ISRPENDING"
 9818      49435352 
 9818      5F495352 
 9818      50454E44 
 9818      494E475F 
 9819 362c 5F506F73 		.ascii	"_Pos)\000"
ARM GAS  /tmp/ccSBomBp.s 			page 230


 9819      2900
 9820              	.LASF156:
 9821 3632 5F5F4C44 		.ascii	"__LDBL_MIN_10_EXP__ (-307)\000"
 9821      424C5F4D 
 9821      494E5F31 
 9821      305F4558 
 9821      505F5F20 
 9822              	.LASF816:
 9823 364d 55415254 		.ascii	"UART_ICR_IRDAINV (1 << 1)\000"
 9823      5F494352 
 9823      5F495244 
 9823      41494E56 
 9823      20283120 
 9824              	.LASF615:
 9825 3667 4C50435F 		.ascii	"LPC_TIMER16_0 ((LPC_TIMER_T *) LPC_TIMER16_0_BASE)\000"
 9825      54494D45 
 9825      5231365F 
 9825      30202828 
 9825      4C50435F 
 9826              	.LASF251:
 9827 369a 5F5F4C41 		.ascii	"__LACCUM_MAX__ 0X7FFFFFFFFFFFFFFFP-31LK\000"
 9827      4343554D 
 9827      5F4D4158 
 9827      5F5F2030 
 9827      58374646 
 9828              	.LASF356:
 9829 36c2 5F5F5F69 		.ascii	"___int8_t_defined 1\000"
 9829      6E74385F 
 9829      745F6465 
 9829      66696E65 
 9829      64203100 
 9830              	.LASF190:
 9831 36d6 5F5F5346 		.ascii	"__SFRACT_MIN__ (-0.5HR-0.5HR)\000"
 9831      52414354 
 9831      5F4D494E 
 9831      5F5F2028 
 9831      2D302E35 
 9832              	.LASF1028:
 9833 36f4 6C6F6E67 		.ascii	"long unsigned int\000"
 9833      20756E73 
 9833      69676E65 
 9833      6420696E 
 9833      7400
 9834              	.LASF291:
 9835 3706 5F5F5341 		.ascii	"__SA_IBIT__ 16\000"
 9835      5F494249 
 9835      545F5F20 
 9835      313600
 9836              	.LASF140:
 9837 3715 5F5F4442 		.ascii	"__DBL_DIG__ 15\000"
 9837      4C5F4449 
 9837      475F5F20 
 9837      313500
 9838              	.LASF369:
 9839 3724 7369676E 		.ascii	"signed\000"
 9839      656400
 9840              	.LASF2:
ARM GAS  /tmp/ccSBomBp.s 			page 231


 9841 372b 5F5F474E 		.ascii	"__GNUC__ 4\000"
 9841      55435F5F 
 9841      203400
 9842              	.LASF864:
 9843 3736 5353505F 		.ascii	"SSP_SR_BITMASK ((uint32_t) (0x1F))\000"
 9843      53525F42 
 9843      49544D41 
 9843      534B2028 
 9843      2875696E 
 9844              	.LASF709:
 9845 3759 54494D45 		.ascii	"TIMER_MATCH_INT(n) (_BIT((n) & 0x0F))\000"
 9845      525F4D41 
 9845      5443485F 
 9845      494E5428 
 9845      6E292028 
 9846              	.LASF45:
 9847 377f 5F5F5549 		.ascii	"__UINT16_TYPE__ short unsigned int\000"
 9847      4E543136 
 9847      5F545950 
 9847      455F5F20 
 9847      73686F72 
 9848              	.LASF812:
 9849 37a2 55415254 		.ascii	"UART_RS485CTRL_DCTRL_EN (1 << 4)\000"
 9849      5F525334 
 9849      38354354 
 9849      524C5F44 
 9849      4354524C 
 9850              	.LASF334:
 9851 37c3 5F5F534F 		.ascii	"__SOFTFP__ 1\000"
 9851      46544650 
 9851      5F5F2031 
 9851      00
 9852              	.LASF396:
 9853 37d0 5F5F696E 		.ascii	"__int32_t_defined 1\000"
 9853      7433325F 
 9853      745F6465 
 9853      66696E65 
 9853      64203100 
 9854              	.LASF448:
 9855 37e4 53495A45 		.ascii	"SIZE_MAX (__SIZE_MAX__)\000"
 9855      5F4D4158 
 9855      20285F5F 
 9855      53495A45 
 9855      5F4D4158 
 9856              	.LASF169:
 9857 37fc 5F5F4445 		.ascii	"__DEC32_MAX_EXP__ 97\000"
 9857      4333325F 
 9857      4D41585F 
 9857      4558505F 
 9857      5F203937 
 9858              	.LASF576:
 9859 3811 53797354 		.ascii	"SysTick_CALIB_TENMS_Pos 0\000"
 9859      69636B5F 
 9859      43414C49 
 9859      425F5445 
 9859      4E4D535F 
 9860              	.LASF832:
ARM GAS  /tmp/ccSBomBp.s 			page 232


 9861 382b 55415254 		.ascii	"UART_SYNCCTRL_CSRC_MASTER (1 << 1)\000"
 9861      5F53594E 
 9861      43435452 
 9861      4C5F4353 
 9861      52435F4D 
 9862              	.LASF647:
 9863 384e 53595343 		.ascii	"SYSCTL_SLPWAKE_FLASH_PD (1 << 2)\000"
 9863      544C5F53 
 9863      4C505741 
 9863      4B455F46 
 9863      4C415348 
 9864              	.LASF378:
 9865 386f 696E7420 		.ascii	"int +2\000"
 9865      2B3200
 9866              	.LASF895:
 9867 3876 5F5F4750 		.ascii	"__GPIO_11XX_2_H_ \000"
 9867      494F5F31 
 9867      3158585F 
 9867      325F485F 
 9867      2000
 9868              	.LASF457:
 9869 3888 494E5438 		.ascii	"INT8_C(x) __INT8_C(x)\000"
 9869      5F432878 
 9869      29205F5F 
 9869      494E5438 
 9869      5F432878 
 9870              	.LASF485:
 9871 389e 4D415828 		.ascii	"MAX(a,b) (((a) > (b)) ? (a) : (b))\000"
 9871      612C6229 
 9871      20282828 
 9871      6129203E 
 9871      20286229 
 9872              	.LASF60:
 9873 38c1 5F5F5549 		.ascii	"__UINT_FAST8_TYPE__ unsigned int\000"
 9873      4E545F46 
 9873      41535438 
 9873      5F545950 
 9873      455F5F20 
 9874              	.LASF259:
 9875 38e2 5F5F4C4C 		.ascii	"__LLACCUM_IBIT__ 32\000"
 9875      41434355 
 9875      4D5F4942 
 9875      49545F5F 
 9875      20333200 
 9876              	.LASF545:
 9877 38f6 5343425F 		.ascii	"SCB_AIRCR_SYSRESETREQ_Msk (1UL << SCB_AIRCR_SYSRESE"
 9877      41495243 
 9877      525F5359 
 9877      53524553 
 9877      45545245 
 9878 3929 54524551 		.ascii	"TREQ_Pos)\000"
 9878      5F506F73 
 9878      2900
 9879              	.LASF202:
 9880 3933 5F5F4652 		.ascii	"__FRACT_EPSILON__ 0x1P-15R\000"
 9880      4143545F 
 9880      45505349 
ARM GAS  /tmp/ccSBomBp.s 			page 233


 9880      4C4F4E5F 
 9880      5F203078 
 9881              	.LASF484:
 9882 394e 45585445 		.ascii	"EXTERN extern\000"
 9882      524E2065 
 9882      78746572 
 9882      6E00
 9883              	.LASF531:
 9884 395c 5343425F 		.ascii	"SCB_ICSR_ISRPREEMPT_Msk (1UL << SCB_ICSR_ISRPREEMPT"
 9884      49435352 
 9884      5F495352 
 9884      50524545 
 9884      4D50545F 
 9885 398f 5F506F73 		.ascii	"_Pos)\000"
 9885      2900
 9886              	.LASF1129:
 9887 3995 4844454E 		.ascii	"HDEN\000"
 9887      00
 9888              	.LASF968:
 9889 399a 4932435F 		.ascii	"I2C_LAST_BYTE_RECV 0x04\000"
 9889      4C415354 
 9889      5F425954 
 9889      455F5245 
 9889      43562030 
 9890              	.LASF492:
 9891 39b2 5F5F4D50 		.ascii	"__MPU_PRESENT 0\000"
 9891      555F5052 
 9891      4553454E 
 9891      54203000 
 9892              	.LASF39:
 9893 39c2 5F5F5349 		.ascii	"__SIG_ATOMIC_TYPE__ int\000"
 9893      475F4154 
 9893      4F4D4943 
 9893      5F545950 
 9893      455F5F20 
 9894              	.LASF393:
 9895 39da 5F535953 		.ascii	"_SYS__STDINT_H \000"
 9895      5F5F5354 
 9895      44494E54 
 9895      5F482000 
 9896              	.LASF71:
 9897 39ea 5F5F494E 		.ascii	"__INT_MAX__ 2147483647\000"
 9897      545F4D41 
 9897      585F5F20 
 9897      32313437 
 9897      34383336 
 9898              	.LASF55:
 9899 3a01 5F5F5549 		.ascii	"__UINT_LEAST64_TYPE__ long long unsigned int\000"
 9899      4E545F4C 
 9899      45415354 
 9899      36345F54 
 9899      5950455F 
 9900              	.LASF186:
 9901 3a2e 5F5F4445 		.ascii	"__DEC128_EPSILON__ 1E-33DL\000"
 9901      43313238 
 9901      5F455053 
 9901      494C4F4E 
ARM GAS  /tmp/ccSBomBp.s 			page 234


 9901      5F5F2031 
 9902              	.LASF746:
 9903 3a49 55415254 		.ascii	"UART_IIR_INTID_CTI (6 << 1)\000"
 9903      5F494952 
 9903      5F494E54 
 9903      49445F43 
 9903      54492028 
 9904              	.LASF162:
 9905 3a65 5F5F4C44 		.ascii	"__LDBL_EPSILON__ 2.2204460492503131e-16L\000"
 9905      424C5F45 
 9905      5053494C 
 9905      4F4E5F5F 
 9905      20322E32 
 9906              	.LASF1011:
 9907 3a8e 4F445F53 		.ascii	"OD_SEG_WO 0x50\000"
 9907      45475F57 
 9907      4F203078 
 9907      353000
 9908              	.LASF669:
 9909 3a9d 494F434F 		.ascii	"IOCON_FUNC5 0x5\000"
 9909      4E5F4655 
 9909      4E433520 
 9909      30783500 
 9910              	.LASF310:
 9911 3aad 5F5F4743 		.ascii	"__GCC_ATOMIC_CHAR16_T_LOCK_FREE 1\000"
 9911      435F4154 
 9911      4F4D4943 
 9911      5F434841 
 9911      5231365F 
 9912              	.LASF1188:
 9913 3acf 2F686F6D 		.ascii	"/home/skoppula/evt/opel_EE/opel_velocity_interface/"
 9913      652F736B 
 9913      6F707075 
 9913      6C612F65 
 9913      76742F6F 
 9914 3b02 6669726D 		.ascii	"firmware\000"
 9914      77617265 
 9914      00
 9915              	.LASF388:
 9916 3b0b 5F5F4641 		.ascii	"__FAST64 \"ll\"\000"
 9916      53543634 
 9916      20226C6C 
 9916      2200
 9917              	.LASF9:
 9918 3b19 5F5F4154 		.ascii	"__ATOMIC_RELEASE 3\000"
 9918      4F4D4943 
 9918      5F52454C 
 9918      45415345 
 9918      203300
 9919              	.LASF375:
 9920 3b2c 756E7369 		.ascii	"unsigned +0\000"
 9920      676E6564 
 9920      202B3000 
 9921              	.LASF125:
 9922 3b38 5F5F464C 		.ascii	"__FLT_MANT_DIG__ 24\000"
 9922      545F4D41 
 9922      4E545F44 
ARM GAS  /tmp/ccSBomBp.s 			page 235


 9922      49475F5F 
 9922      20323400 
 9923              	.LASF1189:
 9924 3b4c 43484950 		.ascii	"CHIP_SYSCTL_CLOCK\000"
 9924      5F535953 
 9924      43544C5F 
 9924      434C4F43 
 9924      4B00
 9925              	.LASF1080:
 9926 3b5e 4952514C 		.ascii	"IRQLATENCY\000"
 9926      4154454E 
 9926      435900
 9927              	.LASF58:
 9928 3b69 5F5F494E 		.ascii	"__INT_FAST32_TYPE__ int\000"
 9928      545F4641 
 9928      53543332 
 9928      5F545950 
 9928      455F5F20 
 9929              	.LASF1115:
 9930 3b81 53595343 		.ascii	"SYSCTL_CLOCK_IOCON\000"
 9930      544C5F43 
 9930      4C4F434B 
 9930      5F494F43 
 9930      4F4E00
 9931              	.LASF447:
 9932 3b94 55494E54 		.ascii	"UINTMAX_MAX (__UINTMAX_MAX__)\000"
 9932      4D41585F 
 9932      4D415820 
 9932      285F5F55 
 9932      494E544D 
 9933              	.LASF881:
 9934 3bb2 4144435F 		.ascii	"ADC_CR_CH_SEL(n) ((1UL << (n)))\000"
 9934      43525F43 
 9934      485F5345 
 9934      4C286E29 
 9934      20282831 
 9935              	.LASF12:
 9936 3bd2 5F5F4F50 		.ascii	"__OPTIMIZE_SIZE__ 1\000"
 9936      54494D49 
 9936      5A455F53 
 9936      495A455F 
 9936      5F203100 
 9937              	.LASF13:
 9938 3be6 5F5F4F50 		.ascii	"__OPTIMIZE__ 1\000"
 9938      54494D49 
 9938      5A455F5F 
 9938      203100
 9939              	.LASF766:
 9940 3bf5 55415254 		.ascii	"UART_LCR_SBS_2BIT (1 << 2)\000"
 9940      5F4C4352 
 9940      5F534253 
 9940      5F324249 
 9940      54202831 
 9941              	.LASF629:
 9942 3c10 4C50435F 		.ascii	"LPC_ROM_API (*((LPC_ROM_API_T * *) LPC_ROM_API_BASE"
 9942      524F4D5F 
 9942      41504920 
ARM GAS  /tmp/ccSBomBp.s 			page 236


 9942      282A2828 
 9942      4C50435F 
 9943 3c43 5F4C4F43 		.ascii	"_LOC))\000"
 9943      292900
 9944              	.LASF387:
 9945 3c4a 5F5F4641 		.ascii	"__FAST32 \000"
 9945      53543332 
 9945      2000
 9946              	.LASF507:
 9947 3c54 5F5F4920 		.ascii	"__I volatile const\000"
 9947      766F6C61 
 9947      74696C65 
 9947      20636F6E 
 9947      737400
 9948              	.LASF842:
 9949 3c67 57574454 		.ascii	"WWDT_WDMOD_WDTOF ((uint32_t) (1 << 2))\000"
 9949      5F57444D 
 9949      4F445F57 
 9949      44544F46 
 9949      20282875 
 9950              	.LASF891:
 9951 3c8e 4144435F 		.ascii	"ADC_CR_START_ADCTRIG1 ((5UL << 24))\000"
 9951      43525F53 
 9951      54415254 
 9951      5F414443 
 9951      54524947 
 9952              	.LASF163:
 9953 3cb2 5F5F4C44 		.ascii	"__LDBL_DENORM_MIN__ 4.9406564584124654e-324L\000"
 9953      424C5F44 
 9953      454E4F52 
 9953      4D5F4D49 
 9953      4E5F5F20 
 9954              	.LASF866:
 9955 3cdf 5353505F 		.ascii	"SSP_CPHA_FIRST SSP_CR0_CPHA_FIRST\000"
 9955      43504841 
 9955      5F464952 
 9955      53542053 
 9955      53505F43 
 9956              	.LASF224:
 9957 3d01 5F5F554C 		.ascii	"__ULLFRACT_IBIT__ 0\000"
 9957      4C465241 
 9957      43545F49 
 9957      4249545F 
 9957      5F203000 
 9958              	.LASF1100:
 9959 3d15 53595343 		.ascii	"SYSCTL_CLOCK_ROM\000"
 9959      544C5F43 
 9959      4C4F434B 
 9959      5F524F4D 
 9959      00
 9960              	.LASF792:
 9961 3d26 55415254 		.ascii	"UART1_LSR_BITMASK (0x1FF)\000"
 9961      315F4C53 
 9961      525F4249 
 9961      544D4153 
 9961      4B202830 
 9962              	.LASF758:
ARM GAS  /tmp/ccSBomBp.s 			page 237


 9963 3d40 55415254 		.ascii	"UART_FCR_TRG_LEV3 (3 << 6)\000"
 9963      5F464352 
 9963      5F545247 
 9963      5F4C4556 
 9963      33202833 
 9964              	.LASF932:
 9965 3d5b 4932435F 		.ascii	"I2C_I2STAT_M_RX_SLAR_NACK ((0x48))\000"
 9965      49325354 
 9965      41545F4D 
 9965      5F52585F 
 9965      534C4152 
 9966              	.LASF625:
 9967 3d7e 4C50435F 		.ascii	"LPC_SSP1 ((LPC_SSP_T *) LPC_SSP1_BASE)\000"
 9967      53535031 
 9967      2028284C 
 9967      50435F53 
 9967      53505F54 
 9968              	.LASF931:
 9969 3da5 4932435F 		.ascii	"I2C_I2STAT_M_RX_SLAR_ACK ((0x40))\000"
 9969      49325354 
 9969      41545F4D 
 9969      5F52585F 
 9969      534C4152 
 9970              	.LASF820:
 9971 3dc7 55415254 		.ascii	"UART_HDEN_HDEN ((1 << 0))\000"
 9971      5F484445 
 9971      4E5F4844 
 9971      454E2028 
 9971      2831203C 
 9972              	.LASF502:
 9973 3de1 5F5F5354 		.ascii	"__STATIC_INLINE static inline\000"
 9973      41544943 
 9973      5F494E4C 
 9973      494E4520 
 9973      73746174 
 9974              	.LASF598:
 9975 3dff 4C50435F 		.ascii	"LPC_PMU_BASE 0x40038000\000"
 9975      504D555F 
 9975      42415345 
 9975      20307834 
 9975      30303338 
 9976              	.LASF405:
 9977 3e17 5F5F696E 		.ascii	"__int_fast64_t_defined 1\000"
 9977      745F6661 
 9977      73743634 
 9977      5F745F64 
 9977      6566696E 
 9978              	.LASF132:
 9979 3e30 5F5F464C 		.ascii	"__FLT_MAX__ 3.4028234663852886e+38F\000"
 9979      545F4D41 
 9979      585F5F20 
 9979      332E3430 
 9979      32383233 
 9980              	.LASF661:
 9981 3e54 5F5F434C 		.ascii	"__CLOCK_11XX_H_ \000"
 9981      4F434B5F 
 9981      31315858 
ARM GAS  /tmp/ccSBomBp.s 			page 238


 9981      5F485F20 
 9981      00
 9982              	.LASF243:
 9983 3e65 5F5F5541 		.ascii	"__UACCUM_FBIT__ 16\000"
 9983      4343554D 
 9983      5F464249 
 9983      545F5F20 
 9983      313600
 9984              	.LASF1017:
 9985 3e78 43414E5F 		.ascii	"CAN_SDOSEG_OPEN 1\000"
 9985      53444F53 
 9985      45475F4F 
 9985      50454E20 
 9985      3100
 9986              	.LASF207:
 9987 3e8a 5F5F5546 		.ascii	"__UFRACT_EPSILON__ 0x1P-16UR\000"
 9987      52414354 
 9987      5F455053 
 9987      494C4F4E 
 9987      5F5F2030 
 9988              	.LASF75:
 9989 3ea7 5F5F5743 		.ascii	"__WCHAR_MIN__ 0U\000"
 9989      4841525F 
 9989      4D494E5F 
 9989      5F203055 
 9989      00
 9990              	.LASF92:
 9991 3eb8 5F5F5549 		.ascii	"__UINT32_MAX__ 4294967295UL\000"
 9991      4E543332 
 9991      5F4D4158 
 9991      5F5F2034 
 9991      32393439 
 9992              	.LASF279:
 9993 3ed4 5F5F5551 		.ascii	"__UQQ_IBIT__ 0\000"
 9993      515F4942 
 9993      49545F5F 
 9993      203000
 9994              	.LASF315:
 9995 3ee3 5F5F4743 		.ascii	"__GCC_ATOMIC_LONG_LOCK_FREE 1\000"
 9995      435F4154 
 9995      4F4D4943 
 9995      5F4C4F4E 
 9995      475F4C4F 
 9996              	.LASF255:
 9997 3f01 5F5F554C 		.ascii	"__ULACCUM_MIN__ 0.0ULK\000"
 9997      41434355 
 9997      4D5F4D49 
 9997      4E5F5F20 
 9997      302E3055 
 9998              	.LASF1027:
 9999 3f18 5F5F7569 		.ascii	"__uint32_t\000"
 9999      6E743332 
 9999      5F7400
 10000              	.LASF160:
 10001 3f23 5F5F4C44 		.ascii	"__LDBL_MAX__ 1.7976931348623157e+308L\000"
 10001      424C5F4D 
 10001      41585F5F 
ARM GAS  /tmp/ccSBomBp.s 			page 239


 10001      20312E37 
 10001      39373639 
 10002              	.LASF1157:
 10003 3f49 73656E74 		.ascii	"sent\000"
 10003      00
 10004              	.LASF124:
 10005 3f4e 5F5F464C 		.ascii	"__FLT_RADIX__ 2\000"
 10005      545F5241 
 10005      4449585F 
 10005      5F203200 
 10006              	.LASF850:
 10007 3f5e 5353505F 		.ascii	"SSP_CR0_CPOL_LO ((uint32_t) (0))\000"
 10007      4352305F 
 10007      43504F4C 
 10007      5F4C4F20 
 10007      28287569 
 10008              	.LASF1029:
 10009 3f7f 6C6F6E67 		.ascii	"long long int\000"
 10009      206C6F6E 
 10009      6720696E 
 10009      7400
 10010              	.LASF703:
 10011 3f8d 46554E43 		.ascii	"FUNC4 0x4\000"
 10011      34203078 
 10011      3400
 10012              	.LASF423:
 10013 3f97 55494E54 		.ascii	"UINT32_MAX (__UINT32_MAX__)\000"
 10013      33325F4D 
 10013      41582028 
 10013      5F5F5549 
 10013      4E543332 
 10014              	.LASF775:
 10015 3fb3 55415254 		.ascii	"UART_LCR_BITMASK (0xFF)\000"
 10015      5F4C4352 
 10015      5F424954 
 10015      4D41534B 
 10015      20283078 
 10016              	.LASF76:
 10017 3fcb 5F5F5749 		.ascii	"__WINT_MAX__ 4294967295U\000"
 10017      4E545F4D 
 10017      41585F5F 
 10017      20343239 
 10017      34393637 
 10018              	.LASF964:
 10019 3fe4 4932435F 		.ascii	"I2C_SETUP_STATUS_DONE (1 << 10)\000"
 10019      53455455 
 10019      505F5354 
 10019      41545553 
 10019      5F444F4E 
 10020              	.LASF650:
 10021 4004 53595343 		.ascii	"SYSCTL_SLPWAKE_SYSOSC_PD (1 << 5)\000"
 10021      544C5F53 
 10021      4C505741 
 10021      4B455F53 
 10021      59534F53 
 10022              	.LASF455:
 10023 4026 57494E54 		.ascii	"WINT_MAX (__WINT_MAX__)\000"
ARM GAS  /tmp/ccSBomBp.s 			page 240


 10023      5F4D4158 
 10023      20285F5F 
 10023      57494E54 
 10023      5F4D4158 
 10024              	.LASF979:
 10025 403e 43414E5F 		.ascii	"CAN_ERROR_WARN 0x00000002UL\000"
 10025      4552524F 
 10025      525F5741 
 10025      524E2030 
 10025      78303030 
 10026              	.LASF879:
 10027 405a 4144435F 		.ascii	"ADC_DR_DONE(n) (((n) >> 31))\000"
 10027      44525F44 
 10027      4F4E4528 
 10027      6E292028 
 10027      28286E29 
 10028              	.LASF880:
 10029 4077 4144435F 		.ascii	"ADC_DR_OVERRUN(n) ((((n) >> 30) & (1UL)))\000"
 10029      44525F4F 
 10029      56455252 
 10029      554E286E 
 10029      29202828 
 10030              	.LASF705:
 10031 40a1 46554E43 		.ascii	"FUNC6 0x6\000"
 10031      36203078 
 10031      3600
 10032              	.LASF289:
 10033 40ab 5F5F4841 		.ascii	"__HA_IBIT__ 8\000"
 10033      5F494249 
 10033      545F5F20 
 10033      3800
 10034              	.LASF306:
 10035 40b9 5F5F474E 		.ascii	"__GNUC_GNU_INLINE__ 1\000"
 10035      55435F47 
 10035      4E555F49 
 10035      4E4C494E 
 10035      455F5F20 
 10036              	.LASF914:
 10037 40cf 4932435F 		.ascii	"I2C_CON_STO (1UL << 4)\000"
 10037      434F4E5F 
 10037      53544F20 
 10037      2831554C 
 10037      203C3C20 
 10038              	.LASF585:
 10039 40e6 5F424954 		.ascii	"_BIT_SHIFT(IRQn) ( (((uint32_t)(IRQn) ) & 0x03) * 8"
 10039      5F534849 
 10039      46542849 
 10039      52516E29 
 10039      20282028 
 10040 4119 202900   		.ascii	" )\000"
 10041              	.LASF801:
 10042 411c 55415254 		.ascii	"UART_MSR_BITMASK (0xFF)\000"
 10042      5F4D5352 
 10042      5F424954 
 10042      4D41534B 
 10042      20283078 
 10043              	.LASF1191:
ARM GAS  /tmp/ccSBomBp.s 			page 241


 10044 4134 43686970 		.ascii	"Chip_Clock_GetMainClockRate\000"
 10044      5F436C6F 
 10044      636B5F47 
 10044      65744D61 
 10044      696E436C 
 10045              	.LASF796:
 10046 4150 55415254 		.ascii	"UART_MSR_DELTA_DCD (1 << 3)\000"
 10046      5F4D5352 
 10046      5F44454C 
 10046      54415F44 
 10046      43442028 
 10047              	.LASF821:
 10048 416c 55415254 		.ascii	"UART_SCICTRL_SCIEN (1 << 0)\000"
 10048      5F534349 
 10048      4354524C 
 10048      5F534349 
 10048      454E2028 
 10049              	.LASF28:
 10050 4188 5F5F4259 		.ascii	"__BYTE_ORDER__ __ORDER_LITTLE_ENDIAN__\000"
 10050      54455F4F 
 10050      52444552 
 10050      5F5F205F 
 10050      5F4F5244 
 10051              	.LASF1046:
 10052 41af 53595352 		.ascii	"SYSRSTSTAT\000"
 10052      53545354 
 10052      415400
 10053              	.LASF358:
 10054 41ba 5F5F5F69 		.ascii	"___int32_t_defined 1\000"
 10054      6E743332 
 10054      5F745F64 
 10054      6566696E 
 10054      65642031 
 10055              	.LASF844:
 10056 41cf 57574454 		.ascii	"WWDT_WDMOD_WDPROTECT ((uint32_t) (1 << 4))\000"
 10056      5F57444D 
 10056      4F445F57 
 10056      4450524F 
 10056      54454354 
 10057              	.LASF924:
 10058 41fa 4932435F 		.ascii	"I2C_I2STAT_M_TX_SLAW_NACK ((0x20))\000"
 10058      49325354 
 10058      41545F4D 
 10058      5F54585F 
 10058      534C4157 
 10059              	.LASF771:
 10060 421d 55415254 		.ascii	"UART_LCR_PARITY_F_1 (2 << 4)\000"
 10060      5F4C4352 
 10060      5F504152 
 10060      4954595F 
 10060      465F3120 
 10061              	.LASF1142:
 10062 423a 43686970 		.ascii	"Chip_UART_ReadLineStatus\000"
 10062      5F554152 
 10062      545F5265 
 10062      61644C69 
 10062      6E655374 
ARM GAS  /tmp/ccSBomBp.s 			page 242


 10063              	.LASF43:
 10064 4253 5F5F494E 		.ascii	"__INT64_TYPE__ long long int\000"
 10064      5436345F 
 10064      54595045 
 10064      5F5F206C 
 10064      6F6E6720 
 10065              	.LASF208:
 10066 4270 5F5F4C46 		.ascii	"__LFRACT_FBIT__ 31\000"
 10066      52414354 
 10066      5F464249 
 10066      545F5F20 
 10066      333100
 10067              	.LASF23:
 10068 4283 5F5F4348 		.ascii	"__CHAR_BIT__ 8\000"
 10068      41525F42 
 10068      49545F5F 
 10068      203800
 10069              	.LASF321:
 10070 4292 5F5F5349 		.ascii	"__SIZEOF_WCHAR_T__ 4\000"
 10070      5A454F46 
 10070      5F574348 
 10070      41525F54 
 10070      5F5F2034 
 10071              	.LASF599:
 10072 42a7 4C50435F 		.ascii	"LPC_FLASH_BASE 0x4003C000\000"
 10072      464C4153 
 10072      485F4241 
 10072      53452030 
 10072      78343030 
 10073              	.LASF418:
 10074 42c1 494E545F 		.ascii	"INT_LEAST16_MIN (-__INT_LEAST16_MAX__ - 1)\000"
 10074      4C454153 
 10074      5431365F 
 10074      4D494E20 
 10074      282D5F5F 
 10075              	.LASF581:
 10076 42ec 5343425F 		.ascii	"SCB_BASE (SCS_BASE + 0x0D00UL)\000"
 10076      42415345 
 10076      20285343 
 10076      535F4241 
 10076      5345202B 
 10077              	.LASF943:
 10078 430b 4932435F 		.ascii	"I2C_I2STAT_S_RX_STA_STO_SLVREC_SLVTRX ((0xA0))\000"
 10078      49325354 
 10078      41545F53 
 10078      5F52585F 
 10078      5354415F 
 10079              	.LASF1154:
 10080 433a 43686970 		.ascii	"Chip_UART_Init\000"
 10080      5F554152 
 10080      545F496E 
 10080      697400
 10081              	.LASF534:
 10082 4349 5343425F 		.ascii	"SCB_ICSR_VECTPENDING_Pos 12\000"
 10082      49435352 
 10082      5F564543 
 10082      5450454E 
ARM GAS  /tmp/ccSBomBp.s 			page 243


 10082      44494E47 
 10083              	.LASF888:
 10084 4365 4144435F 		.ascii	"ADC_CR_START_CTOUT15 ((2UL << 24))\000"
 10084      43525F53 
 10084      54415254 
 10084      5F43544F 
 10084      55543135 
 10085              	.LASF206:
 10086 4388 5F5F5546 		.ascii	"__UFRACT_MAX__ 0XFFFFP-16UR\000"
 10086      52414354 
 10086      5F4D4158 
 10086      5F5F2030 
 10086      58464646 
 10087              	.LASF630:
 10088 43a4 5F5F504D 		.ascii	"__PMU_11XX_H_ \000"
 10088      555F3131 
 10088      58585F48 
 10088      5F2000
 10089              	.LASF363:
 10090 43b3 5F5F5F69 		.ascii	"___int_least64_t_defined 1\000"
 10090      6E745F6C 
 10090      65617374 
 10090      36345F74 
 10090      5F646566 
 10091              	.LASF954:
 10092 43ce 4932435F 		.ascii	"I2C_I2MMCTRL_MATCH_ALL ((1 << 2))\000"
 10092      49324D4D 
 10092      4354524C 
 10092      5F4D4154 
 10092      43485F41 
 10093              	.LASF717:
 10094 43f0 54494D45 		.ascii	"TIMER_CAP_FALLING(n) (_BIT((((n) * 3) + 1)))\000"
 10094      525F4341 
 10094      505F4641 
 10094      4C4C494E 
 10094      47286E29 
 10095              	.LASF510:
 10096 441d 5343425F 		.ascii	"SCB_CPUID_IMPLEMENTER_Pos 24\000"
 10096      43505549 
 10096      445F494D 
 10096      504C454D 
 10096      454E5445 
 10097              	.LASF1016:
 10098 443a 43414E5F 		.ascii	"CAN_SDOSEG_SEGMENT 0\000"
 10098      53444F53 
 10098      45475F53 
 10098      45474D45 
 10098      4E542030 
 10099              	.LASF441:
 10100 444f 55494E54 		.ascii	"UINT_FAST32_MAX (__UINT_FAST32_MAX__)\000"
 10100      5F464153 
 10100      5433325F 
 10100      4D415820 
 10100      285F5F55 
 10101              	.LASF366:
 10102 4475 5F5F5354 		.ascii	"__STDINT_EXP(x) __ ##x ##__\000"
 10102      44494E54 
ARM GAS  /tmp/ccSBomBp.s 			page 244


 10102      5F455850 
 10102      28782920 
 10102      5F5F2023 
 10103              	.LASF355:
 10104 4491 5F5F4558 		.ascii	"__EXP(x) __ ##x ##__\000"
 10104      50287829 
 10104      205F5F20 
 10104      23237820 
 10104      23235F5F 
 10105              	.LASF1146:
 10106 44a6 43686970 		.ascii	"Chip_UART_DisableDivisorAccess\000"
 10106      5F554152 
 10106      545F4469 
 10106      7361626C 
 10106      65446976 
 10107              	.LASF608:
 10108 44c5 4C50435F 		.ascii	"LPC_GPIO_PORT2_BASE 0x50020000\000"
 10108      4750494F 
 10108      5F504F52 
 10108      54325F42 
 10108      41534520 
 10109              	.LASF793:
 10110 44e4 55415254 		.ascii	"UART_MSR_DELTA_CTS (1 << 0)\000"
 10110      5F4D5352 
 10110      5F44454C 
 10110      54415F43 
 10110      54532028 
 10111              	.LASF697:
 10112 4500 4D445F46 		.ascii	"MD_FASTI2C (0x2 << 8)\000"
 10112      41535449 
 10112      32432028 
 10112      30783220 
 10112      3C3C2038 
 10113              	.LASF716:
 10114 4516 54494D45 		.ascii	"TIMER_CAP_RISING(n) (_BIT(((n) * 3)))\000"
 10114      525F4341 
 10114      505F5249 
 10114      53494E47 
 10114      286E2920 
 10115              	.LASF986:
 10116 453c 43414E5F 		.ascii	"CAN_ERROR_CRC 0x00000100UL\000"
 10116      4552524F 
 10116      525F4352 
 10116      43203078 
 10116      30303030 
 10117              	.LASF1120:
 10118 4557 636F756E 		.ascii	"count\000"
 10118      7400
 10119              	.LASF656:
 10120 455d 53595343 		.ascii	"SYSCTL_POWERDOWN_BOD_PD (1 << 3)\000"
 10120      544C5F50 
 10120      4F574552 
 10120      444F574E 
 10120      5F424F44 
 10121              	.LASF482:
 10122 457e 4E454C45 		.ascii	"NELEMENTS(array) (sizeof(array) / sizeof(array[0]))"
 10122      4D454E54 
ARM GAS  /tmp/ccSBomBp.s 			page 245


 10122      53286172 
 10122      72617929 
 10122      20287369 
 10123 45b1 00       		.ascii	"\000"
 10124              	.LASF34:
 10125 45b2 5F5F5749 		.ascii	"__WINT_TYPE__ unsigned int\000"
 10125      4E545F54 
 10125      5950455F 
 10125      5F20756E 
 10125      7369676E 
 10126              	.LASF769:
 10127 45cd 55415254 		.ascii	"UART_LCR_PARITY_ODD (0 << 4)\000"
 10127      5F4C4352 
 10127      5F504152 
 10127      4954595F 
 10127      4F444420 
 10128              	.LASF284:
 10129 45ea 5F5F5544 		.ascii	"__UDQ_FBIT__ 64\000"
 10129      515F4642 
 10129      49545F5F 
 10129      20363400 
 10130              	.LASF587:
 10131 45fa 5F49505F 		.ascii	"_IP_IDX(IRQn) ( ((uint32_t)(IRQn) >> 2) )\000"
 10131      49445828 
 10131      4952516E 
 10131      29202820 
 10131      28287569 
 10132              	.LASF403:
 10133 4624 5F5F696E 		.ascii	"__int_fast16_t_defined 1\000"
 10133      745F6661 
 10133      73743136 
 10133      5F745F64 
 10133      6566696E 
 10134              	.LASF730:
 10135 463d 55415254 		.ascii	"UART_IER_RLSINT (1 << 2)\000"
 10135      5F494552 
 10135      5F524C53 
 10135      494E5420 
 10135      2831203C 
 10136              	.LASF158:
 10137 4656 5F5F4C44 		.ascii	"__LDBL_MAX_10_EXP__ 308\000"
 10137      424C5F4D 
 10137      41585F31 
 10137      305F4558 
 10137      505F5F20 
 10138              	.LASF584:
 10139 466e 4E564943 		.ascii	"NVIC ((NVIC_Type *) NVIC_BASE )\000"
 10139      2028284E 
 10139      5649435F 
 10139      54797065 
 10139      202A2920 
 10140              	.LASF428:
 10141 468e 494E5436 		.ascii	"INT64_MAX (__INT64_MAX__)\000"
 10141      345F4D41 
 10141      5820285F 
 10141      5F494E54 
 10141      36345F4D 
ARM GAS  /tmp/ccSBomBp.s 			page 246


 10142              	.LASF659:
 10143 46a8 53595343 		.ascii	"SYSCTL_POWERDOWN_WDTOSC_PD (1 << 6)\000"
 10143      544C5F50 
 10143      4F574552 
 10143      444F574E 
 10143      5F574454 
 10144              	.LASF165:
 10145 46cc 5F5F4C44 		.ascii	"__LDBL_HAS_INFINITY__ 1\000"
 10145      424C5F48 
 10145      41535F49 
 10145      4E46494E 
 10145      4954595F 
 10146              	.LASF528:
 10147 46e4 5343425F 		.ascii	"SCB_ICSR_PENDSTCLR_Pos 25\000"
 10147      49435352 
 10147      5F50454E 
 10147      44535443 
 10147      4C525F50 
 10148              	.LASF1020:
 10149 46fe 756E7369 		.ascii	"unsigned int\000"
 10149      676E6564 
 10149      20696E74 
 10149      00
 10150              	.LASF201:
 10151 470b 5F5F4652 		.ascii	"__FRACT_MAX__ 0X7FFFP-15R\000"
 10151      4143545F 
 10151      4D41585F 
 10151      5F203058 
 10151      37464646 
 10152              	.LASF1049:
 10153 4725 53595350 		.ascii	"SYSPLLCLKUEN\000"
 10153      4C4C434C 
 10153      4B55454E 
 10153      00
 10154              	.LASF127:
 10155 4732 5F5F464C 		.ascii	"__FLT_MIN_EXP__ (-125)\000"
 10155      545F4D49 
 10155      4E5F4558 
 10155      505F5F20 
 10155      282D3132 
 10156              	.LASF123:
 10157 4749 5F5F4445 		.ascii	"__DEC_EVAL_METHOD__ 2\000"
 10157      435F4556 
 10157      414C5F4D 
 10157      4554484F 
 10157      445F5F20 
 10158              	.LASF462:
 10159 475f 55494E54 		.ascii	"UINT32_C(x) __UINT32_C(x)\000"
 10159      33325F43 
 10159      28782920 
 10159      5F5F5549 
 10159      4E543332 
 10160              	.LASF513:
 10161 4779 5343425F 		.ascii	"SCB_CPUID_VARIANT_Msk (0xFUL << SCB_CPUID_VARIANT_P"
 10161      43505549 
 10161      445F5641 
 10161      5249414E 
ARM GAS  /tmp/ccSBomBp.s 			page 247


 10161      545F4D73 
 10162 47ac 6F732900 		.ascii	"os)\000"
 10163              	.LASF653:
 10164 47b0 53595343 		.ascii	"SYSCTL_POWERDOWN_IRCOUT_PD (1 << 0)\000"
 10164      544C5F50 
 10164      4F574552 
 10164      444F574E 
 10164      5F495243 
 10165              	.LASF692:
 10166 47d4 4D445F44 		.ascii	"MD_DIGMODE (0x1 << 7)\000"
 10166      49474D4F 
 10166      44452028 
 10166      30783120 
 10166      3C3C2037 
 10167              	.LASF234:
 10168 47ea 5F5F5553 		.ascii	"__USACCUM_IBIT__ 8\000"
 10168      41434355 
 10168      4D5F4942 
 10168      49545F5F 
 10168      203800
 10169              	.LASF1012:
 10170 47fd 4F445F53 		.ascii	"OD_SEG_RW 0x60\000"
 10170      45475F52 
 10170      57203078 
 10170      363000
 10171              	.LASF433:
 10172 480c 494E545F 		.ascii	"INT_FAST8_MIN (-__INT_FAST8_MAX__ - 1)\000"
 10172      46415354 
 10172      385F4D49 
 10172      4E20282D 
 10172      5F5F494E 
 10173              	.LASF119:
 10174 4833 5F5F5549 		.ascii	"__UINTPTR_MAX__ 4294967295U\000"
 10174      4E545054 
 10174      525F4D41 
 10174      585F5F20 
 10174      34323934 
 10175              	.LASF695:
 10176 484f 4D445F53 		.ascii	"MD_SFI2C (0x0 << 8)\000"
 10176      46493243 
 10176      20283078 
 10176      30203C3C 
 10176      20382900 
 10177              	.LASF126:
 10178 4863 5F5F464C 		.ascii	"__FLT_DIG__ 6\000"
 10178      545F4449 
 10178      475F5F20 
 10178      3600
 10179              	.LASF36:
 10180 4871 5F5F5549 		.ascii	"__UINTMAX_TYPE__ long long unsigned int\000"
 10180      4E544D41 
 10180      585F5459 
 10180      50455F5F 
 10180      206C6F6E 
 10181              	.LASF437:
 10182 4899 494E545F 		.ascii	"INT_FAST16_MAX (__INT_FAST16_MAX__)\000"
 10182      46415354 
ARM GAS  /tmp/ccSBomBp.s 			page 248


 10182      31365F4D 
 10182      41582028 
 10182      5F5F494E 
 10183              	.LASF122:
 10184 48bd 5F5F464C 		.ascii	"__FLT_EVAL_METHOD__ 0\000"
 10184      545F4556 
 10184      414C5F4D 
 10184      4554484F 
 10184      445F5F20 
 10185              	.LASF835:
 10186 48d3 55415254 		.ascii	"UART_SYNCCTRL_CSCEN (1 << 4)\000"
 10186      5F53594E 
 10186      43435452 
 10186      4C5F4353 
 10186      43454E20 
 10187              	.LASF782:
 10188 48f0 55415254 		.ascii	"UART_LSR_RDR (1 << 0)\000"
 10188      5F4C5352 
 10188      5F524452 
 10188      20283120 
 10188      3C3C2030 
 10189              	.LASF805:
 10190 4906 55415254 		.ascii	"UART_ACR_ABEOINT_CLR (1 << 8)\000"
 10190      5F414352 
 10190      5F414245 
 10190      4F494E54 
 10190      5F434C52 
 10191              	.LASF382:
 10192 4924 5F5F494E 		.ascii	"__INT16 \"h\"\000"
 10192      54313620 
 10192      22682200 
 10193              	.LASF118:
 10194 4930 5F5F494E 		.ascii	"__INTPTR_MAX__ 2147483647\000"
 10194      54505452 
 10194      5F4D4158 
 10194      5F5F2032 
 10194      31343734 
 10195              	.LASF878:
 10196 494a 4144435F 		.ascii	"ADC_CR_BITACC(n) ((((n) & 0x7) << 17))\000"
 10196      43525F42 
 10196      49544143 
 10196      43286E29 
 10196      20282828 
 10197              	.LASF1178:
 10198 4971 75436C6B 		.ascii	"uClk\000"
 10198      00
 10199              	.LASF278:
 10200 4976 5F5F5551 		.ascii	"__UQQ_FBIT__ 8\000"
 10200      515F4642 
 10200      49545F5F 
 10200      203800
 10201              	.LASF571:
 10202 4985 53797354 		.ascii	"SysTick_VAL_CURRENT_Msk (0xFFFFFFUL << SysTick_VAL_"
 10202      69636B5F 
 10202      56414C5F 
 10202      43555252 
 10202      454E545F 
ARM GAS  /tmp/ccSBomBp.s 			page 249


 10203 49b8 43555252 		.ascii	"CURRENT_Pos)\000"
 10203      454E545F 
 10203      506F7329 
 10203      00
 10204              	.LASF175:
 10205 49c5 5F5F4445 		.ascii	"__DEC64_MIN_EXP__ (-382)\000"
 10205      4336345F 
 10205      4D494E5F 
 10205      4558505F 
 10205      5F20282D 
 10206              	.LASF1055:
 10207 49de 53595341 		.ascii	"SYSAHBCLKDIV\000"
 10207      4842434C 
 10207      4B444956 
 10207      00
 10208              	.LASF921:
 10209 49eb 4932435F 		.ascii	"I2C_I2STAT_M_TX_START ((0x08))\000"
 10209      49325354 
 10209      41545F4D 
 10209      5F54585F 
 10209      53544152 
 10210              	.LASF729:
 10211 4a0a 55415254 		.ascii	"UART_IER_THREINT (1 << 1)\000"
 10211      5F494552 
 10211      5F544852 
 10211      45494E54 
 10211      20283120 
 10212              	.LASF376:
 10213 4a24 63686172 		.ascii	"char +0\000"
 10213      202B3000 
 10214              	.LASF211:
 10215 4a2c 5F5F4C46 		.ascii	"__LFRACT_MAX__ 0X7FFFFFFFP-31LR\000"
 10215      52414354 
 10215      5F4D4158 
 10215      5F5F2030 
 10215      58374646 
 10216              	.LASF323:
 10217 4a4c 5F5F5349 		.ascii	"__SIZEOF_PTRDIFF_T__ 4\000"
 10217      5A454F46 
 10217      5F505452 
 10217      44494646 
 10217      5F545F5F 
 10218              	.LASF486:
 10219 4a63 4D494E28 		.ascii	"MIN(a,b) (((a) < (b)) ? (a) : (b))\000"
 10219      612C6229 
 10219      20282828 
 10219      6129203C 
 10219      20286229 
 10220              	.LASF0:
 10221 4a86 5F5F5354 		.ascii	"__STDC__ 1\000"
 10221      44435F5F 
 10221      203100
 10222              	.LASF901:
 10223 4a91 4932435F 		.ascii	"I2C_STA_STO_RECV 0x20\000"
 10223      5354415F 
 10223      53544F5F 
 10223      52454356 
ARM GAS  /tmp/ccSBomBp.s 			page 250


 10223      20307832 
 10224              	.LASF1093:
 10225 4aa7 5044534C 		.ascii	"PDSLEEPCFG\000"
 10225      45455043 
 10225      464700
 10226              	.LASF360:
 10227 4ab2 5F5F5F69 		.ascii	"___int_least8_t_defined 1\000"
 10227      6E745F6C 
 10227      65617374 
 10227      385F745F 
 10227      64656669 
 10228              	.LASF1179:
 10229 4acc 6476616C 		.ascii	"dval\000"
 10229      00
 10230              	.LASF29:
 10231 4ad1 5F5F464C 		.ascii	"__FLOAT_WORD_ORDER__ __ORDER_LITTLE_ENDIAN__\000"
 10231      4F41545F 
 10231      574F5244 
 10231      5F4F5244 
 10231      45525F5F 
 10232              	.LASF108:
 10233 4afe 5F5F5549 		.ascii	"__UINT_LEAST64_MAX__ 18446744073709551615ULL\000"
 10233      4E545F4C 
 10233      45415354 
 10233      36345F4D 
 10233      41585F5F 
 10234              	.LASF44:
 10235 4b2b 5F5F5549 		.ascii	"__UINT8_TYPE__ unsigned char\000"
 10235      4E54385F 
 10235      54595045 
 10235      5F5F2075 
 10235      6E736967 
 10236              	.LASF912:
 10237 4b48 4932435F 		.ascii	"I2C_CON_AA (1UL << 2)\000"
 10237      434F4E5F 
 10237      41412028 
 10237      31554C20 
 10237      3C3C2032 
 10238              	.LASF846:
 10239 4b5e 5353505F 		.ascii	"SSP_CR0_DSS(n) ((uint32_t) ((n) & 0xF))\000"
 10239      4352305F 
 10239      44535328 
 10239      6E292028 
 10239      2875696E 
 10240              	.LASF402:
 10241 4b86 5F5F696E 		.ascii	"__int_fast8_t_defined 1\000"
 10241      745F6661 
 10241      7374385F 
 10241      745F6465 
 10241      66696E65 
 10242              	.LASF937:
 10243 4b9e 4932435F 		.ascii	"I2C_I2STAT_S_RX_GENCALL_ACK ((0x70))\000"
 10243      49325354 
 10243      41545F53 
 10243      5F52585F 
 10243      47454E43 
 10244              	.LASF702:
ARM GAS  /tmp/ccSBomBp.s 			page 251


 10245 4bc3 46554E43 		.ascii	"FUNC3 0x3\000"
 10245      33203078 
 10245      3300
 10246              	.LASF860:
 10247 4bcd 5353505F 		.ascii	"SSP_CR1_SO_DISABLE ((uint32_t) (1 << 3))\000"
 10247      4352315F 
 10247      534F5F44 
 10247      49534142 
 10247      4C452028 
 10248              	.LASF660:
 10249 4bf6 53595343 		.ascii	"SYSCTL_POWERDOWN_SYSPLL_PD (1 << 7)\000"
 10249      544C5F50 
 10249      4F574552 
 10249      444F574E 
 10249      5F535953 
 10250              	.LASF1086:
 10251 4c1a 53544152 		.ascii	"STARTAPRP0\000"
 10251      54415052 
 10251      503000
 10252              	.LASF181:
 10253 4c25 5F5F4445 		.ascii	"__DEC128_MANT_DIG__ 34\000"
 10253      43313238 
 10253      5F4D414E 
 10253      545F4449 
 10253      475F5F20 
 10254              	.LASF84:
 10255 4c3c 5F5F5349 		.ascii	"__SIG_ATOMIC_MAX__ 2147483647\000"
 10255      475F4154 
 10255      4F4D4943 
 10255      5F4D4158 
 10255      5F5F2032 
 10256              	.LASF916:
 10257 4c5a 4932435F 		.ascii	"I2C_CON_I2EN (1UL << 6)\000"
 10257      434F4E5F 
 10257      4932454E 
 10257      20283155 
 10257      4C203C3C 
 10258              	.LASF470:
 10259 4c72 74727565 		.ascii	"true 1\000"
 10259      203100
 10260              	.LASF668:
 10261 4c79 494F434F 		.ascii	"IOCON_FUNC4 0x4\000"
 10261      4E5F4655 
 10261      4E433420 
 10261      30783400 
 10262              	.LASF298:
 10263 4c89 5F5F5553 		.ascii	"__USA_FBIT__ 16\000"
 10263      415F4642 
 10263      49545F5F 
 10263      20313600 
 10264              	.LASF712:
 10265 4c99 54494D45 		.ascii	"TIMER_RESET ((uint32_t) (1 << 1))\000"
 10265      525F5245 
 10265      53455420 
 10265      28287569 
 10265      6E743332 
 10266              	.LASF579:
ARM GAS  /tmp/ccSBomBp.s 			page 252


 10267 4cbb 53797354 		.ascii	"SysTick_BASE (SCS_BASE + 0x0010UL)\000"
 10267      69636B5F 
 10267      42415345 
 10267      20285343 
 10267      535F4241 
 10268              	.LASF768:
 10269 4cde 55415254 		.ascii	"UART_LCR_PARITY_DIS (0 << 3)\000"
 10269      5F4C4352 
 10269      5F504152 
 10269      4954595F 
 10269      44495320 
 10270              	.LASF654:
 10271 4cfb 53595343 		.ascii	"SYSCTL_POWERDOWN_IRC_PD (1 << 1)\000"
 10271      544C5F50 
 10271      4F574552 
 10271      444F574E 
 10271      5F495243 
 10272              	.LASF813:
 10273 4d1c 55415254 		.ascii	"UART_RS485CTRL_OINV_1 (1 << 5)\000"
 10273      5F525334 
 10273      38354354 
 10273      524C5F4F 
 10273      494E565F 
 10274              	.LASF309:
 10275 4d3b 5F5F4743 		.ascii	"__GCC_ATOMIC_CHAR_LOCK_FREE 1\000"
 10275      435F4154 
 10275      4F4D4943 
 10275      5F434841 
 10275      525F4C4F 
 10276              	.LASF1051:
 10277 4d59 55534250 		.ascii	"USBPLLCLKUEN\000"
 10277      4C4C434C 
 10277      4B55454E 
 10277      00
 10278              	.LASF209:
 10279 4d66 5F5F4C46 		.ascii	"__LFRACT_IBIT__ 0\000"
 10279      52414354 
 10279      5F494249 
 10279      545F5F20 
 10279      3000
 10280              	.LASF212:
 10281 4d78 5F5F4C46 		.ascii	"__LFRACT_EPSILON__ 0x1P-31LR\000"
 10281      52414354 
 10281      5F455053 
 10281      494C4F4E 
 10281      5F5F2030 
 10282              	.LASF556:
 10283 4d95 5343425F 		.ascii	"SCB_CCR_UNALIGN_TRP_Pos 3\000"
 10283      4343525F 
 10283      554E414C 
 10283      49474E5F 
 10283      5452505F 
 10284              	.LASF324:
 10285 4daf 5F5F4152 		.ascii	"__ARM_SIZEOF_MINIMAL_ENUM 1\000"
 10285      4D5F5349 
 10285      5A454F46 
 10285      5F4D494E 
ARM GAS  /tmp/ccSBomBp.s 			page 253


 10285      494D414C 
 10286              	.LASF94:
 10287 4dcb 5F5F494E 		.ascii	"__INT_LEAST8_MAX__ 127\000"
 10287      545F4C45 
 10287      41535438 
 10287      5F4D4158 
 10287      5F5F2031 
 10288              	.LASF559:
 10289 4de2 5343425F 		.ascii	"SCB_SHCSR_SVCALLPENDED_Msk (1UL << SCB_SHCSR_SVCALL"
 10289      53484353 
 10289      525F5356 
 10289      43414C4C 
 10289      50454E44 
 10290 4e15 50454E44 		.ascii	"PENDED_Pos)\000"
 10290      45445F50 
 10290      6F732900 
 10291              	.LASF1150:
 10292 4e21 52696E67 		.ascii	"RingBuffer_IsEmpty\000"
 10292      42756666 
 10292      65725F49 
 10292      73456D70 
 10292      747900
 10293              	.LASF327:
 10294 4e34 5F5F6172 		.ascii	"__arm__ 1\000"
 10294      6D5F5F20 
 10294      3100
 10295              	.LASF673:
 10296 4e3e 494F434F 		.ascii	"IOCON_MODE_PULLDOWN (0x1 << 3)\000"
 10296      4E5F4D4F 
 10296      44455F50 
 10296      554C4C44 
 10296      4F574E20 
 10297              	.LASF1009:
 10298 4e5d 4F445F45 		.ascii	"OD_EXP_RW 0x30\000"
 10298      58505F52 
 10298      57203078 
 10298      333000
 10299              	.LASF600:
 10300 4e6c 4C50435F 		.ascii	"LPC_SSP0_BASE 0x40040000\000"
 10300      53535030 
 10300      5F424153 
 10300      45203078 
 10300      34303034 
 10301              	.LASF379:
 10302 4e85 6C6F6E67 		.ascii	"long +4\000"
 10302      202B3400 
 10303              	.LASF945:
 10304 4e8d 4932435F 		.ascii	"I2C_I2STAT_S_TX_ARB_LOST_M_SLA ((0xB0))\000"
 10304      49325354 
 10304      41545F53 
 10304      5F54585F 
 10304      4152425F 
 10305              	.LASF938:
 10306 4eb5 4932435F 		.ascii	"I2C_I2STAT_S_RX_ARB_LOST_M_GENCALL ((0x78))\000"
 10306      49325354 
 10306      41545F53 
 10306      5F52585F 
ARM GAS  /tmp/ccSBomBp.s 			page 254


 10306      4152425F 
 10307              	.LASF490:
 10308 4ee1 5F5F434D 		.ascii	"__CMSIS_H_ \000"
 10308      5349535F 
 10308      485F2000 
 10309              	.LASF1006:
 10310 4eed 4F445F4E 		.ascii	"OD_NONE 0x00\000"
 10310      4F4E4520 
 10310      30783030 
 10310      00
 10311              	.LASF415:
 10312 4efa 494E5431 		.ascii	"INT16_MIN (-__INT16_MAX__ - 1)\000"
 10312      365F4D49 
 10312      4E20282D 
 10312      5F5F494E 
 10312      5431365F 
 10313              	.LASF1169:
 10314 4f19 43686970 		.ascii	"Chip_UART_RXIntHandlerRB\000"
 10314      5F554152 
 10314      545F5258 
 10314      496E7448 
 10314      616E646C 
 10315              	.LASF918:
 10316 4f32 4932435F 		.ascii	"I2C_STAT_CODE_ERROR ((0xFF))\000"
 10316      53544154 
 10316      5F434F44 
 10316      455F4552 
 10316      524F5220 
 10317              	.LASF747:
 10318 4f4f 55415254 		.ascii	"UART_IIR_INTID_THRE (1 << 1)\000"
 10318      5F494952 
 10318      5F494E54 
 10318      49445F54 
 10318      48524520 
 10319              	.LASF167:
 10320 4f6c 5F5F4445 		.ascii	"__DEC32_MANT_DIG__ 7\000"
 10320      4333325F 
 10320      4D414E54 
 10320      5F444947 
 10320      5F5F2037 
 10321              	.LASF442:
 10322 4f81 494E545F 		.ascii	"INT_FAST64_MIN (-__INT_FAST64_MAX__ - 1)\000"
 10322      46415354 
 10322      36345F4D 
 10322      494E2028 
 10322      2D5F5F49 
 10323              	.LASF349:
 10324 4faa 5F4D4143 		.ascii	"_MACHINE__DEFAULT_TYPES_H \000"
 10324      48494E45 
 10324      5F5F4445 
 10324      4641554C 
 10324      545F5459 
 10325              	.LASF24:
 10326 4fc5 5F5F4249 		.ascii	"__BIGGEST_ALIGNMENT__ 8\000"
 10326      47474553 
 10326      545F414C 
 10326      49474E4D 
ARM GAS  /tmp/ccSBomBp.s 			page 255


 10326      454E545F 
 10327              	.LASF947:
 10328 4fdd 4932435F 		.ascii	"I2C_I2STAT_S_TX_DAT_NACK ((0xC0))\000"
 10328      49325354 
 10328      41545F53 
 10328      5F54585F 
 10328      4441545F 
 10329              	.LASF235:
 10330 4fff 5F5F5553 		.ascii	"__USACCUM_MIN__ 0.0UHK\000"
 10330      41434355 
 10330      4D5F4D49 
 10330      4E5F5F20 
 10330      302E3055 
 10331              	.LASF548:
 10332 5016 5343425F 		.ascii	"SCB_SCR_SEVONPEND_Pos 4\000"
 10332      5343525F 
 10332      5345564F 
 10332      4E50454E 
 10332      445F506F 
 10333              	.LASF676:
 10334 502e 494F434F 		.ascii	"IOCON_HYS_EN (0x1 << 5)\000"
 10334      4E5F4859 
 10334      535F454E 
 10334      20283078 
 10334      31203C3C 
 10335              	.LASF1124:
 10336 5046 52494E47 		.ascii	"RINGBUFF_T\000"
 10336      42554646 
 10336      5F5400
 10337              	.LASF873:
 10338 5051 5F5F4C50 		.ascii	"__LPC_ERROR_H__ \000"
 10338      435F4552 
 10338      524F525F 
 10338      485F5F20 
 10338      00
 10339              	.LASF392:
 10340 5062 5F5F4C45 		.ascii	"__LEAST64 \"ll\"\000"
 10340      41535436 
 10340      3420226C 
 10340      6C2200
 10341              	.LASF1054:
 10342 5071 4D41494E 		.ascii	"MAINCLKUEN\000"
 10342      434C4B55 
 10342      454E00
 10343              	.LASF974:
 10344 507c 4932435F 		.ascii	"I2C_MONITOR_CFG_SCL_OUTPUT I2C_I2MMCTRL_ENA_SCL\000"
 10344      4D4F4E49 
 10344      544F525F 
 10344      4346475F 
 10344      53434C5F 
 10345              	.LASF926:
 10346 50ac 4932435F 		.ascii	"I2C_I2STAT_M_TX_DAT_NACK ((0x30))\000"
 10346      49325354 
 10346      41545F4D 
 10346      5F54585F 
 10346      4441545F 
 10347              	.LASF856:
ARM GAS  /tmp/ccSBomBp.s 			page 256


 10348 50ce 5353505F 		.ascii	"SSP_CR1_LBM_EN ((uint32_t) (1 << 0))\000"
 10348      4352315F 
 10348      4C424D5F 
 10348      454E2028 
 10348      2875696E 
 10349              	.LASF530:
 10350 50f3 5343425F 		.ascii	"SCB_ICSR_ISRPREEMPT_Pos 23\000"
 10350      49435352 
 10350      5F495352 
 10350      50524545 
 10350      4D50545F 
 10351              	.LASF520:
 10352 510e 5343425F 		.ascii	"SCB_ICSR_NMIPENDSET_Pos 31\000"
 10352      49435352 
 10352      5F4E4D49 
 10352      50454E44 
 10352      5345545F 
 10353              	.LASF1004:
 10354 5129 53444F5F 		.ascii	"SDO_ABORT_LOCAL 0x08000021UL\000"
 10354      41424F52 
 10354      545F4C4F 
 10354      43414C20 
 10354      30783038 
 10355              	.LASF720:
 10356 5146 5F5F5249 		.ascii	"__RING_BUFFER_H_ \000"
 10356      4E475F42 
 10356      55464645 
 10356      525F485F 
 10356      2000
 10357              	.LASF331:
 10358 5158 5F5F4152 		.ascii	"__ARM_ARCH_ISA_THUMB 1\000"
 10358      4D5F4152 
 10358      43485F49 
 10358      53415F54 
 10358      48554D42 
 10359              	.LASF1159:
 10360 516f 43686970 		.ascii	"Chip_UART_SendBlocking\000"
 10360      5F554152 
 10360      545F5365 
 10360      6E64426C 
 10360      6F636B69 
 10361              	.LASF496:
 10362 5186 5F5F434D 		.ascii	"__CM0_CMSIS_VERSION_MAIN (0x03)\000"
 10362      305F434D 
 10362      5349535F 
 10362      56455253 
 10362      494F4E5F 
 10363              	.LASF721:
 10364 51a6 52425F56 		.ascii	"RB_VHEAD(rb) (*(volatile uint32_t *) &(rb)->head)\000"
 10364      48454144 
 10364      28726229 
 10364      20282A28 
 10364      766F6C61 
 10365              	.LASF110:
 10366 51d8 5F5F494E 		.ascii	"__INT_FAST8_MAX__ 2147483647\000"
 10366      545F4641 
 10366      5354385F 
ARM GAS  /tmp/ccSBomBp.s 			page 257


 10366      4D41585F 
 10366      5F203231 
 10367              	.LASF373:
 10368 51f5 6C6F6E67 		.ascii	"long\000"
 10368      00
 10369              	.LASF1042:
 10370 51fa 5359534F 		.ascii	"SYSOSCCTRL\000"
 10370      53434354 
 10370      524C00
 10371              	.LASF372:
 10372 5205 73686F72 		.ascii	"short\000"
 10372      7400
 10373              	.LASF913:
 10374 520b 4932435F 		.ascii	"I2C_CON_SI (1UL << 3)\000"
 10374      434F4E5F 
 10374      53492028 
 10374      31554C20 
 10374      3C3C2033 
 10375              	.LASF204:
 10376 5221 5F5F5546 		.ascii	"__UFRACT_IBIT__ 0\000"
 10376      52414354 
 10376      5F494249 
 10376      545F5F20 
 10376      3000
 10377              	.LASF909:
 10378 5233 4932435F 		.ascii	"I2C_I2CONCLR_STOC ((1 << 4))\000"
 10378      4932434F 
 10378      4E434C52 
 10378      5F53544F 
 10378      43202828 
 10379              	.LASF578:
 10380 5250 5343535F 		.ascii	"SCS_BASE (0xE000E000UL)\000"
 10380      42415345 
 10380      20283078 
 10380      45303030 
 10380      45303030 
 10381              	.LASF95:
 10382 5268 5F5F494E 		.ascii	"__INT8_C(c) c\000"
 10382      54385F43 
 10382      28632920 
 10382      6300
 10383              	.LASF26:
 10384 5276 5F5F4F52 		.ascii	"__ORDER_BIG_ENDIAN__ 4321\000"
 10384      4445525F 
 10384      4249475F 
 10384      454E4449 
 10384      414E5F5F 
 10385              	.LASF893:
 10386 5290 4144435F 		.ascii	"ADC_CR_EDGE ((1UL << 27))\000"
 10386      43525F45 
 10386      44474520 
 10386      28283155 
 10386      4C203C3C 
 10387              	.LASF494:
 10388 52aa 5F5F5665 		.ascii	"__Vendor_SysTickConfig 0\000"
 10388      6E646F72 
 10388      5F537973 
ARM GAS  /tmp/ccSBomBp.s 			page 258


 10388      5469636B 
 10388      436F6E66 
 10389              	.LASF724:
 10390 52c3 55415254 		.ascii	"UART_LOAD_DLL(div) ((div) & 0xFF)\000"
 10390      5F4C4F41 
 10390      445F444C 
 10390      4C286469 
 10390      76292028 
 10391              	.LASF1007:
 10392 52e5 4F445F45 		.ascii	"OD_EXP_RO 0x10\000"
 10392      58505F52 
 10392      4F203078 
 10392      313000
 10393              	.LASF318:
 10394 52f4 5F5F4743 		.ascii	"__GCC_ATOMIC_POINTER_LOCK_FREE 1\000"
 10394      435F4154 
 10394      4F4D4943 
 10394      5F504F49 
 10394      4E544552 
 10395              	.LASF141:
 10396 5315 5F5F4442 		.ascii	"__DBL_MIN_EXP__ (-1021)\000"
 10396      4C5F4D49 
 10396      4E5F4558 
 10396      505F5F20 
 10396      282D3130 
 10397              	.LASF481:
 10398 532d 4E554C4C 		.ascii	"NULL ((void *) 0)\000"
 10398      20282876 
 10398      6F696420 
 10398      2A292030 
 10398      2900
 10399              	.LASF965:
 10400 533f 4932435F 		.ascii	"I2C_OK 0x00\000"
 10400      4F4B2030 
 10400      78303000 
 10401              	.LASF1166:
 10402 534b 64697668 		.ascii	"divh\000"
 10402      00
 10403              	.LASF174:
 10404 5350 5F5F4445 		.ascii	"__DEC64_MANT_DIG__ 16\000"
 10404      4336345F 
 10404      4D414E54 
 10404      5F444947 
 10404      5F5F2031 
 10405              	.LASF88:
 10406 5366 5F5F494E 		.ascii	"__INT32_MAX__ 2147483647L\000"
 10406      5433325F 
 10406      4D41585F 
 10406      5F203231 
 10406      34373438 
 10407              	.LASF1167:
 10408 5380 6469766C 		.ascii	"divl\000"
 10408      00
 10409              	.LASF1102:
 10410 5385 53595343 		.ascii	"SYSCTL_CLOCK_FLASHREG\000"
 10410      544C5F43 
 10410      4C4F434B 
ARM GAS  /tmp/ccSBomBp.s 			page 259


 10410      5F464C41 
 10410      53485245 
 10411              	.LASF798:
 10412 539b 55415254 		.ascii	"UART_MSR_DSR (1 << 5)\000"
 10412      5F4D5352 
 10412      5F445352 
 10412      20283120 
 10412      3C3C2035 
 10413              	.LASF177:
 10414 53b1 5F5F4445 		.ascii	"__DEC64_MIN__ 1E-383DD\000"
 10414      4336345F 
 10414      4D494E5F 
 10414      5F203145 
 10414      2D333833 
 10415              	.LASF934:
 10416 53c8 4932435F 		.ascii	"I2C_I2STAT_M_RX_DAT_NACK ((0x58))\000"
 10416      49325354 
 10416      41545F4D 
 10416      5F52585F 
 10416      4441545F 
 10417              	.LASF466:
 10418 53ea 55494E54 		.ascii	"UINTMAX_C(x) __UINTMAX_C(x)\000"
 10418      4D41585F 
 10418      43287829 
 10418      205F5F55 
 10418      494E544D 
 10419              	.LASF1190:
 10420 5406 4F736352 		.ascii	"OscRateIn\000"
 10420      61746549 
 10420      6E00
 10421              	.LASF364:
 10422 5410 5F5F4558 		.ascii	"__EXP\000"
 10422      5000
 10423              	.LASF678:
 10424 5416 494F434F 		.ascii	"IOCON_ADMODE_EN (0x0 << 7)\000"
 10424      4E5F4144 
 10424      4D4F4445 
 10424      5F454E20 
 10424      28307830 
 10425              	.LASF359:
 10426 5431 5F5F5F69 		.ascii	"___int64_t_defined 1\000"
 10426      6E743634 
 10426      5F745F64 
 10426      6566696E 
 10426      65642031 
 10427              	.LASF164:
 10428 5446 5F5F4C44 		.ascii	"__LDBL_HAS_DENORM__ 1\000"
 10428      424C5F48 
 10428      41535F44 
 10428      454E4F52 
 10428      4D5F5F20 
 10429              	.LASF570:
 10430 545c 53797354 		.ascii	"SysTick_VAL_CURRENT_Pos 0\000"
 10430      69636B5F 
 10430      56414C5F 
 10430      43555252 
 10430      454E545F 
ARM GAS  /tmp/ccSBomBp.s 			page 260


 10431              	.LASF726:
 10432 5476 55415254 		.ascii	"UART_LOAD_DLM(div) (((div) >> 8) & 0xFF)\000"
 10432      5F4C4F41 
 10432      445F444C 
 10432      4D286469 
 10432      76292028 
 10433              	.LASF728:
 10434 549f 55415254 		.ascii	"UART_IER_RBRINT (1 << 0)\000"
 10434      5F494552 
 10434      5F524252 
 10434      494E5420 
 10434      2831203C 
 10435              	.LASF1125:
 10436 54b8 53594E43 		.ascii	"SYNCCTRL\000"
 10436      4354524C 
 10436      00
 10437              	.LASF109:
 10438 54c1 5F5F5549 		.ascii	"__UINT64_C(c) c ## ULL\000"
 10438      4E543634 
 10438      5F432863 
 10438      29206320 
 10438      23232055 
 10439              	.LASF577:
 10440 54d8 53797354 		.ascii	"SysTick_CALIB_TENMS_Msk (0xFFFFFFUL << SysTick_VAL_"
 10440      69636B5F 
 10440      43414C49 
 10440      425F5445 
 10440      4E4D535F 
 10441 550b 43555252 		.ascii	"CURRENT_Pos)\000"
 10441      454E545F 
 10441      506F7329 
 10441      00
 10442              	.LASF50:
 10443 5518 5F5F494E 		.ascii	"__INT_LEAST32_TYPE__ long int\000"
 10443      545F4C45 
 10443      41535433 
 10443      325F5459 
 10443      50455F5F 
 10444              	.LASF1112:
 10445 5536 53595343 		.ascii	"SYSCTL_CLOCK_ADC\000"
 10445      544C5F43 
 10445      4C4F434B 
 10445      5F414443 
 10445      00
 10446              	.LASF694:
 10447 5547 4D445F45 		.ascii	"MD_ENFIL (0x1 << 8)\000"
 10447      4E46494C 
 10447      20283078 
 10447      31203C3C 
 10447      20382900 
 10448              	.LASF1187:
 10449 555b 2E2E2F2E 		.ascii	"../../lpc11cx4-library/lpc_chip_11cxx_lib/src/uart_"
 10449      2E2F6C70 
 10449      63313163 
 10449      78342D6C 
 10449      69627261 
 10450 558e 31317878 		.ascii	"11xx.c\000"
ARM GAS  /tmp/ccSBomBp.s 			page 261


 10450      2E6300
 10451              	.LASF1131:
 10452 5595 52533438 		.ascii	"RS485CTRL\000"
 10452      35435452 
 10452      4C00
 10453              	.LASF199:
 10454 559f 5F5F4652 		.ascii	"__FRACT_IBIT__ 0\000"
 10454      4143545F 
 10454      49424954 
 10454      5F5F2030 
 10454      00
 10455              	.LASF898:
 10456 55b0 5245545F 		.ascii	"RET_SLAVE_RX 5\000"
 10456      534C4156 
 10456      455F5258 
 10456      203500
 10457              	.LASF995:
 10458 55bf 53444F5F 		.ascii	"SDO_ABORT_WRITEONLY 0x06010001UL\000"
 10458      41424F52 
 10458      545F5752 
 10458      4954454F 
 10458      4E4C5920 
 10459              	.LASF841:
 10460 55e0 57574454 		.ascii	"WWDT_WDMOD_WDRESET ((uint32_t) (1 << 1))\000"
 10460      5F57444D 
 10460      4F445F57 
 10460      44524553 
 10460      45542028 
 10461              	.LASF25:
 10462 5609 5F5F4F52 		.ascii	"__ORDER_LITTLE_ENDIAN__ 1234\000"
 10462      4445525F 
 10462      4C495454 
 10462      4C455F45 
 10462      4E444941 
 10463              	.LASF959:
 10464 5626 4932435F 		.ascii	"I2C_I2MASK_MASK(n) ((n & 0xFE))\000"
 10464      49324D41 
 10464      534B5F4D 
 10464      41534B28 
 10464      6E292028 
 10465              	.LASF1030:
 10466 5646 6C6F6E67 		.ascii	"long long unsigned int\000"
 10466      206C6F6E 
 10466      6720756E 
 10466      7369676E 
 10466      65642069 
 10467              	.LASF432:
 10468 565d 55494E54 		.ascii	"UINT_LEAST64_MAX (__UINT_LEAST64_MAX__)\000"
 10468      5F4C4541 
 10468      53543634 
 10468      5F4D4158 
 10468      20285F5F 
 10469              	.LASF254:
 10470 5685 5F5F554C 		.ascii	"__ULACCUM_IBIT__ 32\000"
 10470      41434355 
 10470      4D5F4942 
 10470      49545F5F 
ARM GAS  /tmp/ccSBomBp.s 			page 262


 10470      20333200 
 10471              	.LASF168:
 10472 5699 5F5F4445 		.ascii	"__DEC32_MIN_EXP__ (-94)\000"
 10472      4333325F 
 10472      4D494E5F 
 10472      4558505F 
 10472      5F20282D 
 10473              	.LASF1113:
 10474 56b1 53595343 		.ascii	"SYSCTL_CLOCK_RESERVED14\000"
 10474      544C5F43 
 10474      4C4F434B 
 10474      5F524553 
 10474      45525645 
 10475              	.LASF32:
 10476 56c9 5F5F5054 		.ascii	"__PTRDIFF_TYPE__ int\000"
 10476      52444946 
 10476      465F5459 
 10476      50455F5F 
 10476      20696E74 
 10477              	.LASF329:
 10478 56de 5F5F4150 		.ascii	"__APCS_32__ 1\000"
 10478      43535F33 
 10478      325F5F20 
 10478      3100
 10479              	.LASF1152:
 10480 56ec 43686970 		.ascii	"Chip_Clock_EnablePeriphClock\000"
 10480      5F436C6F 
 10480      636B5F45 
 10480      6E61626C 
 10480      65506572 
 10481              	.LASF731:
 10482 5709 55415254 		.ascii	"UART_IER_MSINT (1 << 3)\000"
 10482      5F494552 
 10482      5F4D5349 
 10482      4E542028 
 10482      31203C3C 
 10483              	.LASF229:
 10484 5721 5F5F5341 		.ascii	"__SACCUM_IBIT__ 8\000"
 10484      4343554D 
 10484      5F494249 
 10484      545F5F20 
 10484      3800
 10485              	.LASF274:
 10486 5733 5F5F4451 		.ascii	"__DQ_FBIT__ 63\000"
 10486      5F464249 
 10486      545F5F20 
 10486      363300
 10487              	.LASF1111:
 10488 5742 53595343 		.ascii	"SYSCTL_CLOCK_UART0\000"
 10488      544C5F43 
 10488      4C4F434B 
 10488      5F554152 
 10488      543000
 10489              	.LASF1104:
 10490 5755 53595343 		.ascii	"SYSCTL_CLOCK_I2C\000"
 10490      544C5F43 
 10490      4C4F434B 
ARM GAS  /tmp/ccSBomBp.s 			page 263


 10490      5F493243 
 10490      00
 10491              	.LASF62:
 10492 5766 5F5F5549 		.ascii	"__UINT_FAST32_TYPE__ unsigned int\000"
 10492      4E545F46 
 10492      41535433 
 10492      325F5459 
 10492      50455F5F 
 10493              	.LASF57:
 10494 5788 5F5F494E 		.ascii	"__INT_FAST16_TYPE__ int\000"
 10494      545F4641 
 10494      53543136 
 10494      5F545950 
 10494      455F5F20 
 10495              	.LASF649:
 10496 57a0 53595343 		.ascii	"SYSCTL_SLPWAKE_ADC_PD (1 << 4)\000"
 10496      544C5F53 
 10496      4C505741 
 10496      4B455F41 
 10496      44435F50 
 10497              	.LASF1015:
 10498 57bf 43414E5F 		.ascii	"CAN_SDOREQ_HANDLED_NOSEND 2\000"
 10498      53444F52 
 10498      45515F48 
 10498      414E444C 
 10498      45445F4E 
 10499              	.LASF230:
 10500 57db 5F5F5341 		.ascii	"__SACCUM_MIN__ (-0X1P7HK-0X1P7HK)\000"
 10500      4343554D 
 10500      5F4D494E 
 10500      5F5F2028 
 10500      2D305831 
 10501              	.LASF216:
 10502 57fd 5F5F554C 		.ascii	"__ULFRACT_MAX__ 0XFFFFFFFFP-32ULR\000"
 10502      46524143 
 10502      545F4D41 
 10502      585F5F20 
 10502      30584646 
 10503              	.LASF53:
 10504 581f 5F5F5549 		.ascii	"__UINT_LEAST16_TYPE__ short unsigned int\000"
 10504      4E545F4C 
 10504      45415354 
 10504      31365F54 
 10504      5950455F 
 10505              	.LASF894:
 10506 5848 4144435F 		.ascii	"ADC_SAMPLE_RATE_CONFIG_MASK (ADC_CR_CLKDIV(0xFF) | "
 10506      53414D50 
 10506      4C455F52 
 10506      4154455F 
 10506      434F4E46 
 10507 587b 4144435F 		.ascii	"ADC_CR_BITACC(0x07))\000"
 10507      43525F42 
 10507      49544143 
 10507      43283078 
 10507      30372929 
 10508              	.LASF1076:
 10509 5890 52455345 		.ascii	"RESERVED10\000"
ARM GAS  /tmp/ccSBomBp.s 			page 264


 10509      52564544 
 10509      313000
 10510              	.LASF1079:
 10511 589b 52455345 		.ascii	"RESERVED11\000"
 10511      52564544 
 10511      313100
 10512              	.LASF1085:
 10513 58a6 52455345 		.ascii	"RESERVED12\000"
 10513      52564544 
 10513      313200
 10514              	.LASF1090:
 10515 58b1 52455345 		.ascii	"RESERVED13\000"
 10515      52564544 
 10515      313300
 10516              	.LASF1092:
 10517 58bc 52455345 		.ascii	"RESERVED14\000"
 10517      52564544 
 10517      313400
 10518              	.LASF1096:
 10519 58c7 52455345 		.ascii	"RESERVED15\000"
 10519      52564544 
 10519      313500
 10520              	.LASF875:
 10521 58d2 5F5F4144 		.ascii	"__ADC_11XX_H_ \000"
 10521      435F3131 
 10521      58585F48 
 10521      5F2000
 10522              	.LASF104:
 10523 58e1 5F5F5549 		.ascii	"__UINT_LEAST16_MAX__ 65535\000"
 10523      4E545F4C 
 10523      45415354 
 10523      31365F4D 
 10523      41585F5F 
 10524              	.LASF286:
 10525 58fc 5F5F5554 		.ascii	"__UTQ_FBIT__ 128\000"
 10525      515F4642 
 10525      49545F5F 
 10525      20313238 
 10525      00
 10526              	.LASF715:
 10527 590d 54494D45 		.ascii	"TIMER_STOP_ON_MATCH(n) (_BIT((((n) * 3) + 2)))\000"
 10527      525F5354 
 10527      4F505F4F 
 10527      4E5F4D41 
 10527      54434828 
 10528              	.LASF969:
 10529 593c 4932435F 		.ascii	"I2C_SEND_END 0x08\000"
 10529      53454E44 
 10529      5F454E44 
 10529      20307830 
 10529      3800
 10530              	.LASF962:
 10531 594e 4932435F 		.ascii	"I2C_SETUP_STATUS_ARBF (1 << 8)\000"
 10531      53455455 
 10531      505F5354 
 10531      41545553 
 10531      5F415242 
ARM GAS  /tmp/ccSBomBp.s 			page 265


 10532              	.LASF262:
 10533 596d 5F5F4C4C 		.ascii	"__LLACCUM_EPSILON__ 0x1P-31LLK\000"
 10533      41434355 
 10533      4D5F4550 
 10533      53494C4F 
 10533      4E5F5F20 
 10534              	.LASF14:
 10535 598c 5F5F4649 		.ascii	"__FINITE_MATH_ONLY__ 0\000"
 10535      4E495445 
 10535      5F4D4154 
 10535      485F4F4E 
 10535      4C595F5F 
 10536              	.LASF735:
 10537 59a3 55415254 		.ascii	"UART_IER_BITMASK (0x307)\000"
 10537      5F494552 
 10537      5F424954 
 10537      4D41534B 
 10537      20283078 
 10538              	.LASF367:
 10539 59bc 5F5F6861 		.ascii	"__have_longlong64 1\000"
 10539      76655F6C 
 10539      6F6E676C 
 10539      6F6E6736 
 10539      34203100 
 10540              	.LASF1156:
 10541 59d0 6E756D42 		.ascii	"numBytes\000"
 10541      79746573 
 10541      00
 10542              	.LASF1057:
 10543 59d9 53595341 		.ascii	"SYSAHBCLKCTRL\000"
 10543      4842434C 
 10543      4B435452 
 10543      4C00
 10544              	.LASF488:
 10545 59e7 5F5F5359 		.ascii	"__SYS_CONFIG_H_ \000"
 10545      535F434F 
 10545      4E464947 
 10545      5F485F20 
 10545      00
 10546              	.LASF621:
 10547 59f8 4C50435F 		.ascii	"LPC_FMC ((LPC_FMC_T *) LPC_FLASH_BASE)\000"
 10547      464D4320 
 10547      28284C50 
 10547      435F464D 
 10547      435F5420 
 10548              	.LASF1044:
 10549 5a1f 49524343 		.ascii	"IRCCTRL\000"
 10549      54524C00 
 10550              	.LASF831:
 10551 5a27 55415254 		.ascii	"UART_SYNCCTRL_SYNC (1 << 0)\000"
 10551      5F53594E 
 10551      43435452 
 10551      4C5F5359 
 10551      4E432028 
 10552              	.LASF328:
 10553 5a43 5F5F4152 		.ascii	"__ARM_ARCH 6\000"
 10553      4D5F4152 
ARM GAS  /tmp/ccSBomBp.s 			page 266


 10553      43482036 
 10553      00
 10554              	.LASF834:
 10555 5a50 55415254 		.ascii	"UART_SYNCCTRL_TSBYPASS (1 << 3)\000"
 10555      5F53594E 
 10555      43435452 
 10555      4C5F5453 
 10555      42595041 
 10556              	.LASF966:
 10557 5a70 4932435F 		.ascii	"I2C_BYTE_SENT 0x01\000"
 10557      42595445 
 10557      5F53454E 
 10557      54203078 
 10557      303100
 10558              	.LASF256:
 10559 5a83 5F5F554C 		.ascii	"__ULACCUM_MAX__ 0XFFFFFFFFFFFFFFFFP-32ULK\000"
 10559      41434355 
 10559      4D5F4D41 
 10559      585F5F20 
 10559      30584646 
 10560              	.LASF603:
 10561 5aad 4C50435F 		.ascii	"LPC_USB0_BASE 0x40080000\000"
 10561      55534230 
 10561      5F424153 
 10561      45203078 
 10561      34303038 
 10562              	.LASF1171:
 10563 5ac6 43686970 		.ascii	"Chip_UART_SendRB\000"
 10563      5F554152 
 10563      545F5365 
 10563      6E645242 
 10563      00
 10564              	.LASF215:
 10565 5ad7 5F5F554C 		.ascii	"__ULFRACT_MIN__ 0.0ULR\000"
 10565      46524143 
 10565      545F4D49 
 10565      4E5F5F20 
 10565      302E3055 
 10566              	.LASF1094:
 10567 5aee 50445741 		.ascii	"PDWAKECFG\000"
 10567      4B454346 
 10567      4700
 10568              	.LASF275:
 10569 5af8 5F5F4451 		.ascii	"__DQ_IBIT__ 0\000"
 10569      5F494249 
 10569      545F5F20 
 10569      3000
 10570              	.LASF1084:
 10571 5b06 55534243 		.ascii	"USBCLKST\000"
 10571      4C4B5354 
 10571      00
 10572              	.LASF1036:
 10573 5b0f 50524553 		.ascii	"PRESETCTRL\000"
 10573      45544354 
 10573      524C00
 10574              	.LASF652:
 10575 5b1a 53595343 		.ascii	"SYSCTL_SLPWAKE_SYSPLL_PD (1 << 7)\000"
ARM GAS  /tmp/ccSBomBp.s 			page 267


 10575      544C5F53 
 10575      4C505741 
 10575      4B455F53 
 10575      5953504C 
 10576              	.LASF679:
 10577 5b3c 494F434F 		.ascii	"IOCON_DIGMODE_EN (0x1 << 7)\000"
 10577      4E5F4449 
 10577      474D4F44 
 10577      455F454E 
 10577      20283078 
 10578              	.LASF512:
 10579 5b58 5343425F 		.ascii	"SCB_CPUID_VARIANT_Pos 20\000"
 10579      43505549 
 10579      445F5641 
 10579      5249414E 
 10579      545F506F 
 10580              	.LASF961:
 10581 5b71 4932435F 		.ascii	"I2C_I2SCLL_BITMASK ((0xFFFF))\000"
 10581      49325343 
 10581      4C4C5F42 
 10581      49544D41 
 10581      534B2028 
 10582              	.LASF644:
 10583 5b8f 53595343 		.ascii	"SYSCTL_DEEPSLP_WDTOSC_PD (1 << 6)\000"
 10583      544C5F44 
 10583      45455053 
 10583      4C505F57 
 10583      44544F53 
 10584              	.LASF744:
 10585 5bb1 55415254 		.ascii	"UART_IIR_INTID_RLS (3 << 1)\000"
 10585      5F494952 
 10585      5F494E54 
 10585      49445F52 
 10585      4C532028 
 10586              	.LASF100:
 10587 5bcd 5F5F494E 		.ascii	"__INT_LEAST64_MAX__ 9223372036854775807LL\000"
 10587      545F4C45 
 10587      41535436 
 10587      345F4D41 
 10587      585F5F20 
 10588              	.LASF738:
 10589 5bf7 55415254 		.ascii	"UART_IIR_INTSTAT_PEND (1 << 0)\000"
 10589      5F494952 
 10589      5F494E54 
 10589      53544154 
 10589      5F50454E 
 10590              	.LASF586:
 10591 5c16 5F534850 		.ascii	"_SHP_IDX(IRQn) ( ((((uint32_t)(IRQn) & 0x0F)-8) >> "
 10591      5F494458 
 10591      28495251 
 10591      6E292028 
 10591      20282828 
 10592 5c49 32292029 		.ascii	"2) )\000"
 10592      00
 10593              	.LASF613:
 10594 5c4e 4C50435F 		.ascii	"LPC_WWDT ((LPC_WWDT_T *) LPC_WWDT_BASE)\000"
 10594      57574454 
ARM GAS  /tmp/ccSBomBp.s 			page 268


 10594      2028284C 
 10594      50435F57 
 10594      5744545F 
 10595              	.LASF565:
 10596 5c76 53797354 		.ascii	"SysTick_CTRL_TICKINT_Msk (1UL << SysTick_CTRL_TICKI"
 10596      69636B5F 
 10596      4354524C 
 10596      5F544943 
 10596      4B494E54 
 10597 5ca9 4E545F50 		.ascii	"NT_Pos)\000"
 10597      6F732900 
 10598              	.LASF799:
 10599 5cb1 55415254 		.ascii	"UART_MSR_RI (1 << 6)\000"
 10599      5F4D5352 
 10599      5F524920 
 10599      2831203C 
 10599      3C203629 
 10600              	.LASF336:
 10601 5cc6 5F5F4152 		.ascii	"__ARM_FP 12\000"
 10601      4D5F4650 
 10601      20313200 
 10602              	.LASF79:
 10603 5cd2 5F5F5349 		.ascii	"__SIZE_MAX__ 4294967295U\000"
 10603      5A455F4D 
 10603      41585F5F 
 10603      20343239 
 10603      34393637 
 10604              	.LASF582:
 10605 5ceb 53434220 		.ascii	"SCB ((SCB_Type *) SCB_BASE )\000"
 10605      28285343 
 10605      425F5479 
 10605      7065202A 
 10605      29205343 
 10606              	.LASF287:
 10607 5d08 5F5F5554 		.ascii	"__UTQ_IBIT__ 0\000"
 10607      515F4942 
 10607      49545F5F 
 10607      203000
 10608              	.LASF290:
 10609 5d17 5F5F5341 		.ascii	"__SA_FBIT__ 15\000"
 10609      5F464249 
 10609      545F5F20 
 10609      313500
 10610              	.LASF222:
 10611 5d26 5F5F4C4C 		.ascii	"__LLFRACT_EPSILON__ 0x1P-63LLR\000"
 10611      46524143 
 10611      545F4550 
 10611      53494C4F 
 10611      4E5F5F20 
 10612              	.LASF827:
 10613 5d45 55415254 		.ascii	"UART_FDR_MULVAL(n) ((n << 4) & 0xF0)\000"
 10613      5F464452 
 10613      5F4D554C 
 10613      56414C28 
 10613      6E292028 
 10614              	.LASF701:
 10615 5d6a 46554E43 		.ascii	"FUNC2 0x2\000"
ARM GAS  /tmp/ccSBomBp.s 			page 269


 10615      32203078 
 10615      3200
 10616              	.LASF1067:
 10617 5d74 57445443 		.ascii	"WDTCLKSEL\000"
 10617      4C4B5345 
 10617      4C00
 10618              	.LASF606:
 10619 5d7e 4C50435F 		.ascii	"LPC_GPIO_PORT0_BASE 0x50000000\000"
 10619      4750494F 
 10619      5F504F52 
 10619      54305F42 
 10619      41534520 
 10620              	.LASF804:
 10621 5d9d 55415254 		.ascii	"UART_ACR_AUTO_RESTART (1 << 2)\000"
 10621      5F414352 
 10621      5F415554 
 10621      4F5F5245 
 10621      53544152 
 10622              	.LASF343:
 10623 5dbc 5F5F454C 		.ascii	"__ELF__ 1\000"
 10623      465F5F20 
 10623      3100
 10624              	.LASF421:
 10625 5dc6 494E5433 		.ascii	"INT32_MIN (-__INT32_MAX__ - 1)\000"
 10625      325F4D49 
 10625      4E20282D 
 10625      5F5F494E 
 10625      5433325F 
 10626              	.LASF333:
 10627 5de5 5F5F5448 		.ascii	"__THUMBEL__ 1\000"
 10627      554D4245 
 10627      4C5F5F20 
 10627      3100
 10628              	.LASF667:
 10629 5df3 494F434F 		.ascii	"IOCON_FUNC3 0x3\000"
 10629      4E5F4655 
 10629      4E433320 
 10629      30783300 
 10630              	.LASF1130:
 10631 5e03 53434943 		.ascii	"SCICTRL\000"
 10631      54524C00 
 10632              	.LASF1147:
 10633 5e0b 43686970 		.ascii	"Chip_UART_IntDisable\000"
 10633      5F554152 
 10633      545F496E 
 10633      74446973 
 10633      61626C65 
 10634              	.LASF332:
 10635 5e20 5F5F4152 		.ascii	"__ARMEL__ 1\000"
 10635      4D454C5F 
 10635      5F203100 
 10636              	.LASF885:
 10637 5e2c 4144435F 		.ascii	"ADC_CR_START_MASK ((7UL << 24))\000"
 10637      43525F53 
 10637      54415254 
 10637      5F4D4153 
 10637      4B202828 
ARM GAS  /tmp/ccSBomBp.s 			page 270


 10638              	.LASF591:
 10639 5e4c 4C50435F 		.ascii	"LPC_TIMER16_0_BASE 0x4000C000\000"
 10639      54494D45 
 10639      5231365F 
 10639      305F4241 
 10639      53452030 
 10640              	.LASF1184:
 10641 5e6a 52696E67 		.ascii	"RingBuffer_Pop\000"
 10641      42756666 
 10641      65725F50 
 10641      6F7000
 10642              	.LASF464:
 10643 5e79 55494E54 		.ascii	"UINT64_C(x) __UINT64_C(x)\000"
 10643      36345F43 
 10643      28782920 
 10643      5F5F5549 
 10643      4E543634 
 10644              	.LASF258:
 10645 5e93 5F5F4C4C 		.ascii	"__LLACCUM_FBIT__ 31\000"
 10645      41434355 
 10645      4D5F4642 
 10645      49545F5F 
 10645      20333100 
 10646              	.LASF82:
 10647 5ea7 5F5F5549 		.ascii	"__UINTMAX_MAX__ 18446744073709551615ULL\000"
 10647      4E544D41 
 10647      585F4D41 
 10647      585F5F20 
 10647      31383434 
 10648              	.LASF130:
 10649 5ecf 5F5F464C 		.ascii	"__FLT_MAX_10_EXP__ 38\000"
 10649      545F4D41 
 10649      585F3130 
 10649      5F455850 
 10649      5F5F2033 
 10650              	.LASF414:
 10651 5ee5 55494E54 		.ascii	"UINT_LEAST8_MAX (__UINT_LEAST8_MAX__)\000"
 10651      5F4C4541 
 10651      5354385F 
 10651      4D415820 
 10651      285F5F55 
 10652              	.LASF283:
 10653 5f0b 5F5F5553 		.ascii	"__USQ_IBIT__ 0\000"
 10653      515F4942 
 10653      49545F5F 
 10653      203000
 10654              	.LASF54:
 10655 5f1a 5F5F5549 		.ascii	"__UINT_LEAST32_TYPE__ long unsigned int\000"
 10655      4E545F4C 
 10655      45415354 
 10655      33325F54 
 10655      5950455F 
 10656              	.LASF281:
 10657 5f42 5F5F5548 		.ascii	"__UHQ_IBIT__ 0\000"
 10657      515F4942 
 10657      49545F5F 
 10657      203000
ARM GAS  /tmp/ccSBomBp.s 			page 271


 10658              	.LASF3:
 10659 5f51 5F5F474E 		.ascii	"__GNUC_MINOR__ 9\000"
 10659      55435F4D 
 10659      494E4F52 
 10659      5F5F2039 
 10659      00
 10660              	.LASF35:
 10661 5f62 5F5F494E 		.ascii	"__INTMAX_TYPE__ long long int\000"
 10661      544D4158 
 10661      5F545950 
 10661      455F5F20 
 10661      6C6F6E67 
 10662              	.LASF166:
 10663 5f80 5F5F4C44 		.ascii	"__LDBL_HAS_QUIET_NAN__ 1\000"
 10663      424C5F48 
 10663      41535F51 
 10663      55494554 
 10663      5F4E414E 
 10664              	.LASF98:
 10665 5f99 5F5F494E 		.ascii	"__INT_LEAST32_MAX__ 2147483647L\000"
 10665      545F4C45 
 10665      41535433 
 10665      325F4D41 
 10665      585F5F20 
 10666              	.LASF307:
 10667 5fb9 5F5F4348 		.ascii	"__CHAR_UNSIGNED__ 1\000"
 10667      41525F55 
 10667      4E534947 
 10667      4E45445F 
 10667      5F203100 
 10668              	.LASF641:
 10669 5fcd 53595343 		.ascii	"SYSCTL_RST_SYSRST (1 << 4)\000"
 10669      544C5F52 
 10669      53545F53 
 10669      59535253 
 10669      54202831 
 10670              	.LASF662:
 10671 5fe8 53595343 		.ascii	"SYSCTL_IRC_FREQ (12000000)\000"
 10671      544C5F49 
 10671      52435F46 
 10671      52455120 
 10671      28313230 
 10672              	.LASF674:
 10673 6003 494F434F 		.ascii	"IOCON_MODE_PULLUP (0x2 << 3)\000"
 10673      4E5F4D4F 
 10673      44455F50 
 10673      554C4C55 
 10673      50202830 
 10674              	.LASF760:
 10675 6020 55415254 		.ascii	"UART_LCR_WLEN5 (0 << 0)\000"
 10675      5F4C4352 
 10675      5F574C45 
 10675      4E352028 
 10675      30203C3C 
 10676              	.LASF687:
 10677 6038 4D445F50 		.ascii	"MD_PUP (0x2 << 3)\000"
 10677      55502028 
ARM GAS  /tmp/ccSBomBp.s 			page 272


 10677      30783220 
 10677      3C3C2033 
 10677      2900
 10678              	.LASF362:
 10679 604a 5F5F5F69 		.ascii	"___int_least32_t_defined 1\000"
 10679      6E745F6C 
 10679      65617374 
 10679      33325F74 
 10679      5F646566 
 10680              	.LASF237:
 10681 6065 5F5F5553 		.ascii	"__USACCUM_EPSILON__ 0x1P-8UHK\000"
 10681      41434355 
 10681      4D5F4550 
 10681      53494C4F 
 10681      4E5F5F20 
 10682              	.LASF152:
 10683 6083 5F5F4442 		.ascii	"__DBL_HAS_QUIET_NAN__ 1\000"
 10683      4C5F4841 
 10683      535F5155 
 10683      4945545F 
 10683      4E414E5F 
 10684              	.LASF475:
 10685 609b 5F424954 		.ascii	"_BIT\000"
 10685      00
 10686              	.LASF461:
 10687 60a0 494E5433 		.ascii	"INT32_C(x) __INT32_C(x)\000"
 10687      325F4328 
 10687      7829205F 
 10687      5F494E54 
 10687      33325F43 
 10688              	.LASF438:
 10689 60b8 55494E54 		.ascii	"UINT_FAST16_MAX (__UINT_FAST16_MAX__)\000"
 10689      5F464153 
 10689      5431365F 
 10689      4D415820 
 10689      285F5F55 
 10690              	.LASF221:
 10691 60de 5F5F4C4C 		.ascii	"__LLFRACT_MAX__ 0X7FFFFFFFFFFFFFFFP-63LLR\000"
 10691      46524143 
 10691      545F4D41 
 10691      585F5F20 
 10691      30583746 
 10692              	.LASF569:
 10693 6108 53797354 		.ascii	"SysTick_LOAD_RELOAD_Msk (0xFFFFFFUL << SysTick_LOAD"
 10693      69636B5F 
 10693      4C4F4144 
 10693      5F52454C 
 10693      4F41445F 
 10694 613b 5F52454C 		.ascii	"_RELOAD_Pos)\000"
 10694      4F41445F 
 10694      506F7329 
 10694      00
 10695              	.LASF426:
 10696 6148 55494E54 		.ascii	"UINT_LEAST32_MAX (__UINT_LEAST32_MAX__)\000"
 10696      5F4C4541 
 10696      53543332 
 10696      5F4D4158 
ARM GAS  /tmp/ccSBomBp.s 			page 273


 10696      20285F5F 
 10697              	.LASF763:
 10698 6170 55415254 		.ascii	"UART_LCR_WLEN8 (3 << 0)\000"
 10698      5F4C4352 
 10698      5F574C45 
 10698      4E382028 
 10698      33203C3C 
 10699              	.LASF736:
 10700 6188 55415254 		.ascii	"UART1_IER_BITMASK (0x30F)\000"
 10700      315F4945 
 10700      525F4249 
 10700      544D4153 
 10700      4B202830 
 10701              	.LASF1121:
 10702 61a2 6974656D 		.ascii	"itemSz\000"
 10702      537A00
 10703              	.LASF78:
 10704 61a9 5F5F5054 		.ascii	"__PTRDIFF_MAX__ 2147483647\000"
 10704      52444946 
 10704      465F4D41 
 10704      585F5F20 
 10704      32313437 
 10705              	.LASF523:
 10706 61c4 5343425F 		.ascii	"SCB_ICSR_PENDSVSET_Msk (1UL << SCB_ICSR_PENDSVSET_P"
 10706      49435352 
 10706      5F50454E 
 10706      44535653 
 10706      45545F4D 
 10707 61f7 6F732900 		.ascii	"os)\000"
 10708              	.LASF572:
 10709 61fb 53797354 		.ascii	"SysTick_CALIB_NOREF_Pos 31\000"
 10709      69636B5F 
 10709      43414C49 
 10709      425F4E4F 
 10709      5245465F 
 10710              	.LASF231:
 10711 6216 5F5F5341 		.ascii	"__SACCUM_MAX__ 0X7FFFP-7HK\000"
 10711      4343554D 
 10711      5F4D4158 
 10711      5F5F2030 
 10711      58374646 
 10712              	.LASF64:
 10713 6231 5F5F494E 		.ascii	"__INTPTR_TYPE__ int\000"
 10713      54505452 
 10713      5F545950 
 10713      455F5F20 
 10713      696E7400 
 10714              	.LASF37:
 10715 6245 5F5F4348 		.ascii	"__CHAR16_TYPE__ short unsigned int\000"
 10715      41523136 
 10715      5F545950 
 10715      455F5F20 
 10715      73686F72 
 10716              	.LASF65:
 10717 6268 5F5F5549 		.ascii	"__UINTPTR_TYPE__ unsigned int\000"
 10717      4E545054 
 10717      525F5459 
ARM GAS  /tmp/ccSBomBp.s 			page 274


 10717      50455F5F 
 10717      20756E73 
 10718              	.LASF567:
 10719 6286 53797354 		.ascii	"SysTick_CTRL_ENABLE_Msk (1UL << SysTick_CTRL_ENABLE"
 10719      69636B5F 
 10719      4354524C 
 10719      5F454E41 
 10719      424C455F 
 10720 62b9 5F506F73 		.ascii	"_Pos)\000"
 10720      2900
 10721              	.LASF304:
 10722 62bf 5F5F5245 		.ascii	"__REGISTER_PREFIX__ \000"
 10722      47495354 
 10722      45525F50 
 10722      52454649 
 10722      585F5F20 
 10723              	.LASF187:
 10724 62d4 5F5F4445 		.ascii	"__DEC128_SUBNORMAL_MIN__ 0.000000000000000000000000"
 10724      43313238 
 10724      5F535542 
 10724      4E4F524D 
 10724      414C5F4D 
 10725 6307 30303030 		.ascii	"000000001E-6143DL\000"
 10725      30303030 
 10725      31452D36 
 10725      31343344 
 10725      4C00
 10726              	.LASF1045:
 10727 6319 4C464F53 		.ascii	"LFOSCCTRL\000"
 10727      43435452 
 10727      4C00
 10728              	.LASF217:
 10729 6323 5F5F554C 		.ascii	"__ULFRACT_EPSILON__ 0x1P-32ULR\000"
 10729      46524143 
 10729      545F4550 
 10729      53494C4F 
 10729      4E5F5F20 
 10730              	.LASF1014:
 10731 6342 43414E5F 		.ascii	"CAN_SDOREQ_HANDLED_SEND 1\000"
 10731      53444F52 
 10731      45515F48 
 10731      414E444C 
 10731      45445F53 
 10732              	.LASF339:
 10733 635c 5F5F4152 		.ascii	"__ARM_ARCH_6M__ 1\000"
 10733      4D5F4152 
 10733      43485F36 
 10733      4D5F5F20 
 10733      3100
 10734              	.LASF22:
 10735 636e 5F5F5349 		.ascii	"__SIZEOF_SIZE_T__ 4\000"
 10735      5A454F46 
 10735      5F53495A 
 10735      455F545F 
 10735      5F203400 
 10736              	.LASF785:
 10737 6382 55415254 		.ascii	"UART_LSR_FE (1 << 3)\000"
ARM GAS  /tmp/ccSBomBp.s 			page 275


 10737      5F4C5352 
 10737      5F464520 
 10737      2831203C 
 10737      3C203329 
 10738              	.LASF839:
 10739 6397 57574454 		.ascii	"WWDT_WDMOD_BITMASK ((uint32_t) 0x1F)\000"
 10739      5F57444D 
 10739      4F445F42 
 10739      49544D41 
 10739      534B2028 
 10740              	.LASF47:
 10741 63bc 5F5F5549 		.ascii	"__UINT64_TYPE__ long long unsigned int\000"
 10741      4E543634 
 10741      5F545950 
 10741      455F5F20 
 10741      6C6F6E67 
 10742              	.LASF184:
 10743 63e3 5F5F4445 		.ascii	"__DEC128_MIN__ 1E-6143DL\000"
 10743      43313238 
 10743      5F4D494E 
 10743      5F5F2031 
 10743      452D3631 
 10744              	.LASF101:
 10745 63fc 5F5F494E 		.ascii	"__INT64_C(c) c ## LL\000"
 10745      5436345F 
 10745      43286329 
 10745      20632023 
 10745      23204C4C 
 10746              	.LASF249:
 10747 6411 5F5F4C41 		.ascii	"__LACCUM_IBIT__ 32\000"
 10747      4343554D 
 10747      5F494249 
 10747      545F5F20 
 10747      333200
 10748              	.LASF1097:
 10749 6424 44455649 		.ascii	"DEVICEID\000"
 10749      43454944 
 10749      00
 10750              	.LASF424:
 10751 642d 494E545F 		.ascii	"INT_LEAST32_MIN (-__INT_LEAST32_MAX__ - 1)\000"
 10751      4C454153 
 10751      5433325F 
 10751      4D494E20 
 10751      282D5F5F 
 10752              	.LASF681:
 10753 6458 494F434F 		.ascii	"IOCON_STDI2C_EN (0x1 << 8)\000"
 10753      4E5F5354 
 10753      44493243 
 10753      5F454E20 
 10753      28307831 
 10754              	.LASF467:
 10755 6473 5F474343 		.ascii	"_GCC_WRAP_STDINT_H \000"
 10755      5F575241 
 10755      505F5354 
 10755      44494E54 
 10755      5F482000 
 10756              	.LASF957:
ARM GAS  /tmp/ccSBomBp.s 			page 276


 10757 6487 4932435F 		.ascii	"I2C_I2ADR_GC ((1 << 0))\000"
 10757      49324144 
 10757      525F4743 
 10757      20282831 
 10757      203C3C20 
 10758              	.LASF1071:
 10759 649f 434C4B4F 		.ascii	"CLKOUTSEL\000"
 10759      55545345 
 10759      4C00
 10760              	.LASF161:
 10761 64a9 5F5F4C44 		.ascii	"__LDBL_MIN__ 2.2250738585072014e-308L\000"
 10761      424C5F4D 
 10761      494E5F5F 
 10761      20322E32 
 10761      32353037 
 10762              	.LASF352:
 10763 64cf 5F5F4E45 		.ascii	"__NEWLIB_MINOR__ 2\000"
 10763      574C4942 
 10763      5F4D494E 
 10763      4F525F5F 
 10763      203200
 10764              	.LASF239:
 10765 64e2 5F5F4143 		.ascii	"__ACCUM_IBIT__ 16\000"
 10765      43554D5F 
 10765      49424954 
 10765      5F5F2031 
 10765      3600
 10766              	.LASF91:
 10767 64f4 5F5F5549 		.ascii	"__UINT16_MAX__ 65535\000"
 10767      4E543136 
 10767      5F4D4158 
 10767      5F5F2036 
 10767      35353335 
 10768              	.LASF803:
 10769 6509 55415254 		.ascii	"UART_ACR_MODE (1 << 1)\000"
 10769      5F414352 
 10769      5F4D4F44 
 10769      45202831 
 10769      203C3C20 
 10770              	.LASF1023:
 10771 6520 73686F72 		.ascii	"short int\000"
 10771      7420696E 
 10771      7400
 10772              	.LASF682:
 10773 652a 494F434F 		.ascii	"IOCON_FASTI2C_EN (0x2 << 8)\000"
 10773      4E5F4641 
 10773      53544932 
 10773      435F454E 
 10773      20283078 
 10774              	.LASF558:
 10775 6546 5343425F 		.ascii	"SCB_SHCSR_SVCALLPENDED_Pos 15\000"
 10775      53484353 
 10775      525F5356 
 10775      43414C4C 
 10775      50454E44 
 10776              	.LASF672:
 10777 6564 494F434F 		.ascii	"IOCON_MODE_INACT (0x0 << 3)\000"
ARM GAS  /tmp/ccSBomBp.s 			page 277


 10777      4E5F4D4F 
 10777      44455F49 
 10777      4E414354 
 10777      20283078 
 10778              	.LASF752:
 10779 6580 55415254 		.ascii	"UART_FCR_DMAMODE_SEL (1 << 3)\000"
 10779      5F464352 
 10779      5F444D41 
 10779      4D4F4445 
 10779      5F53454C 
 10780              	.LASF203:
 10781 659e 5F5F5546 		.ascii	"__UFRACT_FBIT__ 16\000"
 10781      52414354 
 10781      5F464249 
 10781      545F5F20 
 10781      313600
 10782              	.LASF105:
 10783 65b1 5F5F5549 		.ascii	"__UINT16_C(c) c\000"
 10783      4E543136 
 10783      5F432863 
 10783      29206300 
 10784              	.LASF683:
 10785 65c1 494F434F 		.ascii	"IOCON_FILT_DIS (0x1 << 8)\000"
 10785      4E5F4649 
 10785      4C545F44 
 10785      49532028 
 10785      30783120 
 10786              	.LASF301:
 10787 65db 5F5F5544 		.ascii	"__UDA_IBIT__ 32\000"
 10787      415F4942 
 10787      49545F5F 
 10787      20333200 
 10788              	.LASF390:
 10789 65eb 5F5F4C45 		.ascii	"__LEAST16 \"h\"\000"
 10789      41535431 
 10789      36202268 
 10789      2200
 10790              	.LASF407:
 10791 65f9 494E5450 		.ascii	"INTPTR_MAX (__INTPTR_MAX__)\000"
 10791      54525F4D 
 10791      41582028 
 10791      5F5F494E 
 10791      54505452 
 10792              	.LASF427:
 10793 6615 494E5436 		.ascii	"INT64_MIN (-__INT64_MAX__ - 1)\000"
 10793      345F4D49 
 10793      4E20282D 
 10793      5F5F494E 
 10793      5436345F 
 10794              	.LASF6:
 10795 6634 5F5F4154 		.ascii	"__ATOMIC_RELAXED 0\000"
 10795      4F4D4943 
 10795      5F52454C 
 10795      41584544 
 10795      203000
 10796              	.LASF750:
 10797 6647 55415254 		.ascii	"UART_FCR_RX_RS (1 << 1)\000"
ARM GAS  /tmp/ccSBomBp.s 			page 278


 10797      5F464352 
 10797      5F52585F 
 10797      52532028 
 10797      31203C3C 
 10798              	.LASF635:
 10799 665f 5F5F464D 		.ascii	"__FMC_11XX_H_ \000"
 10799      435F3131 
 10799      58585F48 
 10799      5F2000
 10800              	.LASF732:
 10801 666e 55415254 		.ascii	"UART_IER_CTSINT (1 << 7)\000"
 10801      5F494552 
 10801      5F435453 
 10801      494E5420 
 10801      2831203C 
 10802              	.LASF151:
 10803 6687 5F5F4442 		.ascii	"__DBL_HAS_INFINITY__ 1\000"
 10803      4C5F4841 
 10803      535F494E 
 10803      46494E49 
 10803      54595F5F 
 10804              	.LASF631:
 10805 669e 504D555F 		.ascii	"PMU_PCON_PM_SLEEP (0x0)\000"
 10805      50434F4E 
 10805      5F504D5F 
 10805      534C4545 
 10805      50202830 
 10806              	.LASF444:
 10807 66b6 55494E54 		.ascii	"UINT_FAST64_MAX (__UINT_FAST64_MAX__)\000"
 10807      5F464153 
 10807      5436345F 
 10807      4D415820 
 10807      285F5F55 
 10808              	.LASF429:
 10809 66dc 55494E54 		.ascii	"UINT64_MAX (__UINT64_MAX__)\000"
 10809      36345F4D 
 10809      41582028 
 10809      5F5F5549 
 10809      4E543634 
 10810              	.LASF551:
 10811 66f8 5343425F 		.ascii	"SCB_SCR_SLEEPDEEP_Msk (1UL << SCB_SCR_SLEEPDEEP_Pos"
 10811      5343525F 
 10811      534C4545 
 10811      50444545 
 10811      505F4D73 
 10812 672b 2900     		.ascii	")\000"
 10813              	.LASF770:
 10814 672d 55415254 		.ascii	"UART_LCR_PARITY_EVEN (1 << 4)\000"
 10814      5F4C4352 
 10814      5F504152 
 10814      4954595F 
 10814      4556454E 
 10815              	.LASF1087:
 10816 674b 53544152 		.ascii	"STARTERP0\000"
 10816      54455250 
 10816      3000
 10817              	.LASF1091:
ARM GAS  /tmp/ccSBomBp.s 			page 279


 10818 6755 53544152 		.ascii	"STARTERP1\000"
 10818      54455250 
 10818      3100
 10819              	.LASF509:
 10820 675f 5F5F494F 		.ascii	"__IO volatile\000"
 10820      20766F6C 
 10820      6174696C 
 10820      6500
 10821              	.LASF686:
 10822 676d 4D445F50 		.ascii	"MD_PDN (0x1 << 3)\000"
 10822      444E2028 
 10822      30783120 
 10822      3C3C2033 
 10822      2900
 10823              	.LASF734:
 10824 677f 55415254 		.ascii	"UART_IER_ABTOINT (1 << 9)\000"
 10824      5F494552 
 10824      5F414254 
 10824      4F494E54 
 10824      20283120 
 10825              	.LASF900:
 10826 6799 5245545F 		.ascii	"RET_SLAVE_BUSY 0\000"
 10826      534C4156 
 10826      455F4255 
 10826      53592030 
 10826      00
 10827              	.LASF19:
 10828 67aa 5F5F5349 		.ascii	"__SIZEOF_FLOAT__ 4\000"
 10828      5A454F46 
 10828      5F464C4F 
 10828      41545F5F 
 10828      203400
 10829              	.LASF458:
 10830 67bd 55494E54 		.ascii	"UINT8_C(x) __UINT8_C(x)\000"
 10830      385F4328 
 10830      7829205F 
 10830      5F55494E 
 10830      54385F43 
 10831              	.LASF70:
 10832 67d5 5F5F5348 		.ascii	"__SHRT_MAX__ 32767\000"
 10832      52545F4D 
 10832      41585F5F 
 10832      20333237 
 10832      363700
 10833              	.LASF583:
 10834 67e8 53797354 		.ascii	"SysTick ((SysTick_Type *) SysTick_BASE )\000"
 10834      69636B20 
 10834      28285379 
 10834      73546963 
 10834      6B5F5479 
 10835              	.LASF145:
 10836 6811 5F5F4442 		.ascii	"__DBL_DECIMAL_DIG__ 17\000"
 10836      4C5F4445 
 10836      43494D41 
 10836      4C5F4449 
 10836      475F5F20 
 10837              	.LASF524:
ARM GAS  /tmp/ccSBomBp.s 			page 280


 10838 6828 5343425F 		.ascii	"SCB_ICSR_PENDSVCLR_Pos 27\000"
 10838      49435352 
 10838      5F50454E 
 10838      44535643 
 10838      4C525F50 
 10839              	.LASF368:
 10840 6842 5F5F6861 		.ascii	"__have_long32 1\000"
 10840      76655F6C 
 10840      6F6E6733 
 10840      32203100 
 10841              	.LASF412:
 10842 6852 494E545F 		.ascii	"INT_LEAST8_MIN (-__INT_LEAST8_MAX__ - 1)\000"
 10842      4C454153 
 10842      54385F4D 
 10842      494E2028 
 10842      2D5F5F49 
 10843              	.LASF106:
 10844 687b 5F5F5549 		.ascii	"__UINT_LEAST32_MAX__ 4294967295UL\000"
 10844      4E545F4C 
 10844      45415354 
 10844      33325F4D 
 10844      41585F5F 
 10845              	.LASF253:
 10846 689d 5F5F554C 		.ascii	"__ULACCUM_FBIT__ 32\000"
 10846      41434355 
 10846      4D5F4642 
 10846      49545F5F 
 10846      20333200 
 10847              	.LASF542:
 10848 68b1 5343425F 		.ascii	"SCB_AIRCR_ENDIANESS_Pos 15\000"
 10848      41495243 
 10848      525F454E 
 10848      4449414E 
 10848      4553535F 
 10849              	.LASF651:
 10850 68cc 53595343 		.ascii	"SYSCTL_SLPWAKE_WDTOSC_PD (1 << 6)\000"
 10850      544C5F53 
 10850      4C505741 
 10850      4B455F57 
 10850      44544F53 
 10851              	.LASF657:
 10852 68ee 53595343 		.ascii	"SYSCTL_POWERDOWN_ADC_PD (1 << 4)\000"
 10852      544C5F50 
 10852      4F574552 
 10852      444F574E 
 10852      5F414443 
 10853              	.LASF397:
 10854 690f 5F5F696E 		.ascii	"__int64_t_defined 1\000"
 10854      7436345F 
 10854      745F6465 
 10854      66696E65 
 10854      64203100 
 10855              	.LASF568:
 10856 6923 53797354 		.ascii	"SysTick_LOAD_RELOAD_Pos 0\000"
 10856      69636B5F 
 10856      4C4F4144 
 10856      5F52454C 
ARM GAS  /tmp/ccSBomBp.s 			page 281


 10856      4F41445F 
 10857              	.LASF1168:
 10858 693d 636C6B69 		.ascii	"clkin\000"
 10858      6E00
 10859              	.LASF828:
 10860 6943 55415254 		.ascii	"UART_FDR_BITMASK (0xFF)\000"
 10860      5F464452 
 10860      5F424954 
 10860      4D41534B 
 10860      20283078 
 10861              	.LASF605:
 10862 695b 4C50435F 		.ascii	"LPC_SSP1_BASE 0x40058000\000"
 10862      53535031 
 10862      5F424153 
 10862      45203078 
 10862      34303035 
 10863              	.LASF385:
 10864 6974 5F5F4641 		.ascii	"__FAST8 \000"
 10864      53543820 
 10864      00
 10865              	.LASF1081:
 10866 697d 4E4D4953 		.ascii	"NMISRC\000"
 10866      524300
 10867              	.LASF72:
 10868 6984 5F5F4C4F 		.ascii	"__LONG_MAX__ 2147483647L\000"
 10868      4E475F4D 
 10868      41585F5F 
 10868      20323134 
 10868      37343833 
 10869              	.LASF268:
 10870 699d 5F5F5151 		.ascii	"__QQ_FBIT__ 7\000"
 10870      5F464249 
 10870      545F5F20 
 10870      3700
 10871              	.LASF971:
 10872 69ab 4932435F 		.ascii	"I2C_ERR (0x10000000)\000"
 10872      45525220 
 10872      28307831 
 10872      30303030 
 10872      30303029 
 10873              	.LASF317:
 10874 69c0 5F5F4743 		.ascii	"__GCC_ATOMIC_TEST_AND_SET_TRUEVAL 1\000"
 10874      435F4154 
 10874      4F4D4943 
 10874      5F544553 
 10874      545F414E 
 10875              	.LASF487:
 10876 69e4 494E4C49 		.ascii	"INLINE inline\000"
 10876      4E452069 
 10876      6E6C696E 
 10876      6500
 10877              	.LASF554:
 10878 69f2 5343425F 		.ascii	"SCB_CCR_STKALIGN_Pos 9\000"
 10878      4343525F 
 10878      53544B41 
 10878      4C49474E 
 10878      5F506F73 
ARM GAS  /tmp/ccSBomBp.s 			page 282


 10879              	.LASF896:
 10880 6a09 5F5F4932 		.ascii	"__I2C_11XX_H_ \000"
 10880      435F3131 
 10880      58585F48 
 10880      5F2000
 10881              	.LASF1139:
 10882 6a18 43686970 		.ascii	"Chip_UART_ConfigData\000"
 10882      5F554152 
 10882      545F436F 
 10882      6E666967 
 10882      44617461 
 10883              	.LASF354:
 10884 6a2d 5F5F474E 		.ascii	"__GNUC_PREREQ__(ma,mi) __GNUC_PREREQ(ma, mi)\000"
 10884      55435F50 
 10884      52455245 
 10884      515F5F28 
 10884      6D612C6D 
 10885              	.LASF1165:
 10886 6a5a 62617564 		.ascii	"baudrate\000"
 10886      72617465 
 10886      00
 10887              	.LASF303:
 10888 6a63 5F5F5554 		.ascii	"__UTA_IBIT__ 64\000"
 10888      415F4942 
 10888      49545F5F 
 10888      20363400 
 10889              	.LASF264:
 10890 6a73 5F5F554C 		.ascii	"__ULLACCUM_IBIT__ 32\000"
 10890      4C414343 
 10890      554D5F49 
 10890      4249545F 
 10890      5F203332 
 10891              	.LASF503:
 10892 6a88 5F5F4650 		.ascii	"__FPU_USED 0\000"
 10892      555F5553 
 10892      45442030 
 10892      00
 10893              	.LASF745:
 10894 6a95 55415254 		.ascii	"UART_IIR_INTID_RDA (2 << 1)\000"
 10894      5F494952 
 10894      5F494E54 
 10894      49445F52 
 10894      44412028 
 10895              	.LASF227:
 10896 6ab1 5F5F554C 		.ascii	"__ULLFRACT_EPSILON__ 0x1P-64ULLR\000"
 10896      4C465241 
 10896      43545F45 
 10896      5053494C 
 10896      4F4E5F5F 
 10897              	.LASF1069:
 10898 6ad2 57445443 		.ascii	"WDTCLKDIV\000"
 10898      4C4B4449 
 10898      5600
 10899              	.LASF497:
 10900 6adc 5F5F434D 		.ascii	"__CM0_CMSIS_VERSION_SUB (0x01)\000"
 10900      305F434D 
 10900      5349535F 
ARM GAS  /tmp/ccSBomBp.s 			page 283


 10900      56455253 
 10900      494F4E5F 
 10901              	.LASF322:
 10902 6afb 5F5F5349 		.ascii	"__SIZEOF_WINT_T__ 4\000"
 10902      5A454F46 
 10902      5F57494E 
 10902      545F545F 
 10902      5F203400 
 10903              	.LASF634:
 10904 6b0f 504D555F 		.ascii	"PMU_PCON_DPDFLAG (1 << 11)\000"
 10904      50434F4E 
 10904      5F445044 
 10904      464C4147 
 10904      20283120 
 10905              	.LASF561:
 10906 6b2a 53797354 		.ascii	"SysTick_CTRL_COUNTFLAG_Msk (1UL << SysTick_CTRL_COU"
 10906      69636B5F 
 10906      4354524C 
 10906      5F434F55 
 10906      4E54464C 
 10907 6b5d 4E54464C 		.ascii	"NTFLAG_Pos)\000"
 10907      41475F50 
 10907      6F732900 
 10908              	.LASF220:
 10909 6b69 5F5F4C4C 		.ascii	"__LLFRACT_MIN__ (-0.5LLR-0.5LLR)\000"
 10909      46524143 
 10909      545F4D49 
 10909      4E5F5F20 
 10909      282D302E 
 10910              	.LASF1039:
 10911 6b8a 55534250 		.ascii	"USBPLLCTRL\000"
 10911      4C4C4354 
 10911      524C00
 10912              	.LASF1088:
 10913 6b95 53544152 		.ascii	"STARTRSRP0CLR\000"
 10913      54525352 
 10913      5030434C 
 10913      5200
 10914              	.LASF1038:
 10915 6ba3 53595350 		.ascii	"SYSPLLSTAT\000"
 10915      4C4C5354 
 10915      415400
 10916              	.LASF250:
 10917 6bae 5F5F4C41 		.ascii	"__LACCUM_MIN__ (-0X1P31LK-0X1P31LK)\000"
 10917      4343554D 
 10917      5F4D494E 
 10917      5F5F2028 
 10917      2D305831 
 10918              	.LASF610:
 10919 6bd2 4941505F 		.ascii	"IAP_ENTRY_LOCATION 0X1FFF1FF1\000"
 10919      454E5452 
 10919      595F4C4F 
 10919      43415449 
 10919      4F4E2030 
 10920              	.LASF341:
 10921 6bf0 5F5F4152 		.ascii	"__ARM_EABI__ 1\000"
 10921      4D5F4541 
ARM GAS  /tmp/ccSBomBp.s 			page 284


 10921      42495F5F 
 10921      203100
 10922              	.LASF698:
 10923 6bff 4D445F4F 		.ascii	"MD_OPENDRAIN (0x1 << 10)\000"
 10923      50454E44 
 10923      5241494E 
 10923      20283078 
 10923      31203C3C 
 10924              	.LASF149:
 10925 6c18 5F5F4442 		.ascii	"__DBL_DENORM_MIN__ ((double)4.9406564584124654e-324"
 10925      4C5F4445 
 10925      4E4F524D 
 10925      5F4D494E 
 10925      5F5F2028 
 10926 6c4b 4C2900   		.ascii	"L)\000"
 10927              	.LASF1144:
 10928 6c4e 43686970 		.ascii	"Chip_UART_EnableDivisorAccess\000"
 10928      5F554152 
 10928      545F456E 
 10928      61626C65 
 10928      44697669 
 10929              	.LASF1059:
 10930 6c6c 53535030 		.ascii	"SSP0CLKDIV\000"
 10930      434C4B44 
 10930      495600
 10931              	.LASF192:
 10932 6c77 5F5F5346 		.ascii	"__SFRACT_EPSILON__ 0x1P-7HR\000"
 10932      52414354 
 10932      5F455053 
 10932      494C4F4E 
 10932      5F5F2030 
 10933              	.LASF1163:
 10934 6c93 43686970 		.ascii	"Chip_UART_ReadBlocking\000"
 10934      5F554152 
 10934      545F5265 
 10934      6164426C 
 10934      6F636B69 
 10935              	.LASF596:
 10936 6caa 4C50435F 		.ascii	"LPC_DAC_BASE 0x40024000\000"
 10936      4441435F 
 10936      42415345 
 10936      20307834 
 10936      30303234 
 10937              	.LASF383:
 10938 6cc2 5F5F494E 		.ascii	"__INT32 \"l\"\000"
 10938      54333220 
 10938      226C2200 
 10939              	.LASF538:
 10940 6cce 5343425F 		.ascii	"SCB_AIRCR_VECTKEY_Pos 16\000"
 10940      41495243 
 10940      525F5645 
 10940      43544B45 
 10940      595F506F 
 10941              	.LASF480:
 10942 6ce7 5F424954 		.ascii	"_BITMASK(field_width) ( _BIT(field_width) - 1)\000"
 10942      4D41534B 
 10942      28666965 
ARM GAS  /tmp/ccSBomBp.s 			page 285


 10942      6C645F77 
 10942      69647468 
 10943              	.LASF640:
 10944 6d16 53595343 		.ascii	"SYSCTL_RST_BOD (1 << 3)\000"
 10944      544C5F52 
 10944      53545F42 
 10944      4F442028 
 10944      31203C3C 
 10945              	.LASF636:
 10946 6d2e 5F5F5359 		.ascii	"__SYSCTL_11XX_H_ \000"
 10946      5343544C 
 10946      5F313158 
 10946      585F485F 
 10946      2000
 10947              	.LASF46:
 10948 6d40 5F5F5549 		.ascii	"__UINT32_TYPE__ long unsigned int\000"
 10948      4E543332 
 10948      5F545950 
 10948      455F5F20 
 10948      6C6F6E67 
 10949              	.LASF811:
 10950 6d62 55415254 		.ascii	"UART_RS485CTRL_SEL_DTR (1 << 3)\000"
 10950      5F525334 
 10950      38354354 
 10950      524C5F53 
 10950      454C5F44 
 10951              	.LASF345:
 10952 6d82 434F5245 		.ascii	"CORE_M0 1\000"
 10952      5F4D3020 
 10952      3100
 10953              	.LASF853:
 10954 6d8c 5353505F 		.ascii	"SSP_CR0_CPHA_SECOND ((uint32_t) (1 << 7))\000"
 10954      4352305F 
 10954      43504841 
 10954      5F534543 
 10954      4F4E4420 
 10955              	.LASF707:
 10956 6db6 5F5F5449 		.ascii	"__TIMER_11XX_H_ \000"
 10956      4D45525F 
 10956      31315858 
 10956      5F485F20 
 10956      00
 10957              	.LASF699:
 10958 6dc7 46554E43 		.ascii	"FUNC0 0x0\000"
 10958      30203078 
 10958      3000
 10959              	.LASF992:
 10960 6dd1 53444F5F 		.ascii	"SDO_ABORT_SDOTIMEOUT 0x05040000UL\000"
 10960      41424F52 
 10960      545F5344 
 10960      4F54494D 
 10960      454F5554 
 10961              	.LASF794:
 10962 6df3 55415254 		.ascii	"UART_MSR_DELTA_DSR (1 << 1)\000"
 10962      5F4D5352 
 10962      5F44454C 
 10962      54415F44 
ARM GAS  /tmp/ccSBomBp.s 			page 286


 10962      53522028 
 10963              	.LASF225:
 10964 6e0f 5F5F554C 		.ascii	"__ULLFRACT_MIN__ 0.0ULLR\000"
 10964      4C465241 
 10964      43545F4D 
 10964      494E5F5F 
 10964      20302E30 
 10965              	.LASF645:
 10966 6e28 53595343 		.ascii	"SYSCTL_SLPWAKE_IRCOUT_PD (1 << 0)\000"
 10966      544C5F53 
 10966      4C505741 
 10966      4B455F49 
 10966      52434F55 
 10967              	.LASF614:
 10968 6e4a 4C50435F 		.ascii	"LPC_USART ((LPC_USART_T *) LPC_USART_BASE)\000"
 10968      55534152 
 10968      54202828 
 10968      4C50435F 
 10968      55534152 
 10969              	.LASF285:
 10970 6e75 5F5F5544 		.ascii	"__UDQ_IBIT__ 0\000"
 10970      515F4942 
 10970      49545F5F 
 10970      203000
 10971              	.LASF15:
 10972 6e84 5F5F5349 		.ascii	"__SIZEOF_INT__ 4\000"
 10972      5A454F46 
 10972      5F494E54 
 10972      5F5F2034 
 10972      00
 10973              	.LASF219:
 10974 6e95 5F5F4C4C 		.ascii	"__LLFRACT_IBIT__ 0\000"
 10974      46524143 
 10974      545F4942 
 10974      49545F5F 
 10974      203000
 10975              	.LASF460:
 10976 6ea8 55494E54 		.ascii	"UINT16_C(x) __UINT16_C(x)\000"
 10976      31365F43 
 10976      28782920 
 10976      5F5F5549 
 10976      4E543136 
 10977              	.LASF948:
 10978 6ec2 4932435F 		.ascii	"I2C_I2STAT_S_TX_LAST_DAT_ACK ((0xC8))\000"
 10978      49325354 
 10978      41545F53 
 10978      5F54585F 
 10978      4C415354 
 10979              	.LASF1106:
 10980 6ee8 53595343 		.ascii	"SYSCTL_CLOCK_CT16B0\000"
 10980      544C5F43 
 10980      4C4F434B 
 10980      5F435431 
 10980      36423000 
 10981              	.LASF1032:
 10982 6efc 75696E74 		.ascii	"uint32_t\000"
 10982      33325F74 
ARM GAS  /tmp/ccSBomBp.s 			page 287


 10982      00
 10983              	.LASF822:
 10984 6f05 55415254 		.ascii	"UART_SCICTRL_NACKDIS (1 << 1)\000"
 10984      5F534349 
 10984      4354524C 
 10984      5F4E4143 
 10984      4B444953 
 10985              	.LASF365:
 10986 6f23 5F535953 		.ascii	"_SYS__INTSUP_H \000"
 10986      5F5F494E 
 10986      54535550 
 10986      5F482000 
 10987              	.LASF1089:
 10988 6f33 53544152 		.ascii	"STARTSRP0\000"
 10988      54535250 
 10988      3000
 10989              	.LASF232:
 10990 6f3d 5F5F5341 		.ascii	"__SACCUM_EPSILON__ 0x1P-7HK\000"
 10990      4343554D 
 10990      5F455053 
 10990      494C4F4E 
 10990      5F5F2030 
 10991              	.LASF633:
 10992 6f59 504D555F 		.ascii	"PMU_PCON_SLEEPFLAG (1 << 8)\000"
 10992      50434F4E 
 10992      5F534C45 
 10992      4550464C 
 10992      41472028 
 10993              	.LASF700:
 10994 6f75 46554E43 		.ascii	"FUNC1 0x1\000"
 10994      31203078 
 10994      3100
 10995              	.LASF443:
 10996 6f7f 494E545F 		.ascii	"INT_FAST64_MAX (__INT_FAST64_MAX__)\000"
 10996      46415354 
 10996      36345F4D 
 10996      41582028 
 10996      5F5F494E 
 10997              	.LASF725:
 10998 6fa3 55415254 		.ascii	"UART_DLL_MASKBIT (0xFF)\000"
 10998      5F444C4C 
 10998      5F4D4153 
 10998      4B424954 
 10998      20283078 
 10999              	.LASF493:
 11000 6fbb 5F5F4E56 		.ascii	"__NVIC_PRIO_BITS 2\000"
 11000      49435F50 
 11000      52494F5F 
 11000      42495453 
 11000      203200
 11001              	.LASF877:
 11002 6fce 4144435F 		.ascii	"ADC_DR_RESULT(n) ((((n) >> 6) & 0x3FF))\000"
 11002      44525F52 
 11002      4553554C 
 11002      54286E29 
 11002      20282828 
 11003              	.LASF61:
ARM GAS  /tmp/ccSBomBp.s 			page 288


 11004 6ff6 5F5F5549 		.ascii	"__UINT_FAST16_TYPE__ unsigned int\000"
 11004      4E545F46 
 11004      41535431 
 11004      365F5459 
 11004      50455F5F 
 11005              	.LASF575:
 11006 7018 53797354 		.ascii	"SysTick_CALIB_SKEW_Msk (1UL << SysTick_CALIB_SKEW_P"
 11006      69636B5F 
 11006      43414C49 
 11006      425F534B 
 11006      45575F4D 
 11007 704b 6F732900 		.ascii	"os)\000"
 11008              	.LASF297:
 11009 704f 5F5F5548 		.ascii	"__UHA_IBIT__ 8\000"
 11009      415F4942 
 11009      49545F5F 
 11009      203800
 11010              	.LASF960:
 11011 705e 4932435F 		.ascii	"I2C_I2SCLH_BITMASK ((0xFFFF))\000"
 11011      49325343 
 11011      4C485F42 
 11011      49544D41 
 11011      534B2028 
 11012              	.LASF242:
 11013 707c 5F5F4143 		.ascii	"__ACCUM_EPSILON__ 0x1P-15K\000"
 11013      43554D5F 
 11013      45505349 
 11013      4C4F4E5F 
 11013      5F203078 
 11014              	.LASF257:
 11015 7097 5F5F554C 		.ascii	"__ULACCUM_EPSILON__ 0x1P-32ULK\000"
 11015      41434355 
 11015      4D5F4550 
 11015      53494C4F 
 11015      4E5F5F20 
 11016              	.LASF154:
 11017 70b6 5F5F4C44 		.ascii	"__LDBL_DIG__ 15\000"
 11017      424C5F44 
 11017      49475F5F 
 11017      20313500 
 11018              	.LASF1043:
 11019 70c6 5744544F 		.ascii	"WDTOSCCTRL\000"
 11019      53434354 
 11019      524C00
 11020              	.LASF783:
 11021 70d1 55415254 		.ascii	"UART_LSR_OE (1 << 1)\000"
 11021      5F4C5352 
 11021      5F4F4520 
 11021      2831203C 
 11021      3C203129 
 11022              	.LASF953:
 11023 70e6 4932435F 		.ascii	"I2C_I2MMCTRL_ENA_SCL ((1 << 1))\000"
 11023      49324D4D 
 11023      4354524C 
 11023      5F454E41 
 11023      5F53434C 
 11024              	.LASF1073:
ARM GAS  /tmp/ccSBomBp.s 			page 289


 11025 7106 434C4B4F 		.ascii	"CLKOUTDIV\000"
 11025      55544449 
 11025      5600
 11026              	.LASF77:
 11027 7110 5F5F5749 		.ascii	"__WINT_MIN__ 0U\000"
 11027      4E545F4D 
 11027      494E5F5F 
 11027      20305500 
 11028              	.LASF675:
 11029 7120 494F434F 		.ascii	"IOCON_MODE_REPEATER (0x3 << 3)\000"
 11029      4E5F4D4F 
 11029      44455F52 
 11029      45504541 
 11029      54455220 
 11030              	.LASF1158:
 11031 713f 43686970 		.ascii	"Chip_UART_Send\000"
 11031      5F554152 
 11031      545F5365 
 11031      6E6400
 11032              	.LASF179:
 11033 714e 5F5F4445 		.ascii	"__DEC64_EPSILON__ 1E-15DD\000"
 11033      4336345F 
 11033      45505349 
 11033      4C4F4E5F 
 11033      5F203145 
 11034              	.LASF985:
 11035 7168 43414E5F 		.ascii	"CAN_ERROR_BIT0 0x00000080UL\000"
 11035      4552524F 
 11035      525F4249 
 11035      54302030 
 11035      78303030 
 11036              	.LASF49:
 11037 7184 5F5F494E 		.ascii	"__INT_LEAST16_TYPE__ short int\000"
 11037      545F4C45 
 11037      41535431 
 11037      365F5459 
 11037      50455F5F 
 11038              	.LASF1061:
 11039 71a3 53535031 		.ascii	"SSP1CLKDIV\000"
 11039      434C4B44 
 11039      495600
 11040              	.LASF646:
 11041 71ae 53595343 		.ascii	"SYSCTL_SLPWAKE_IRC_PD (1 << 1)\000"
 11041      544C5F53 
 11041      4C505741 
 11041      4B455F49 
 11041      52435F50 
 11042              	.LASF146:
 11043 71cd 5F5F4442 		.ascii	"__DBL_MAX__ ((double)1.7976931348623157e+308L)\000"
 11043      4C5F4D41 
 11043      585F5F20 
 11043      2828646F 
 11043      75626C65 
 11044              	.LASF1024:
 11045 71fc 73686F72 		.ascii	"short unsigned int\000"
 11045      7420756E 
 11045      7369676E 
ARM GAS  /tmp/ccSBomBp.s 			page 290


 11045      65642069 
 11045      6E7400
 11046              	.LASF218:
 11047 720f 5F5F4C4C 		.ascii	"__LLFRACT_FBIT__ 63\000"
 11047      46524143 
 11047      545F4642 
 11047      49545F5F 
 11047      20363300 
 11048              	.LASF511:
 11049 7223 5343425F 		.ascii	"SCB_CPUID_IMPLEMENTER_Msk (0xFFUL << SCB_CPUID_IMPL"
 11049      43505549 
 11049      445F494D 
 11049      504C454D 
 11049      454E5445 
 11050 7256 454D454E 		.ascii	"EMENTER_Pos)\000"
 11050      5445525F 
 11050      506F7329 
 11050      00
 11051              	.LASF330:
 11052 7263 5F5F7468 		.ascii	"__thumb__ 1\000"
 11052      756D625F 
 11052      5F203100 
 11053              	.LASF884:
 11054 726f 4144435F 		.ascii	"ADC_CR_PDN ((1UL << 21))\000"
 11054      43525F50 
 11054      444E2028 
 11054      2831554C 
 11054      203C3C20 
 11055              	.LASF115:
 11056 7288 5F5F5549 		.ascii	"__UINT_FAST16_MAX__ 4294967295U\000"
 11056      4E545F46 
 11056      41535431 
 11056      365F4D41 
 11056      585F5F20 
 11057              	.LASF837:
 11058 72a8 55415254 		.ascii	"UART_SYNCCTRL_CCCLR (1 << 6)\000"
 11058      5F53594E 
 11058      43435452 
 11058      4C5F4343 
 11058      434C5220 
 11059              	.LASF270:
 11060 72c5 5F5F4851 		.ascii	"__HQ_FBIT__ 15\000"
 11060      5F464249 
 11060      545F5F20 
 11060      313500
 11061              	.LASF472:
 11062 72d4 5F5F626F 		.ascii	"__bool_true_false_are_defined 1\000"
 11062      6F6C5F74 
 11062      7275655F 
 11062      66616C73 
 11062      655F6172 
 11063              	.LASF936:
 11064 72f4 4932435F 		.ascii	"I2C_I2STAT_S_RX_ARB_LOST_M_SLA ((0x68))\000"
 11064      49325354 
 11064      41545F53 
 11064      5F52585F 
 11064      4152425F 
ARM GAS  /tmp/ccSBomBp.s 			page 291


 11065              	.LASF380:
 11066 731c 5F494E54 		.ascii	"_INT32_EQ_LONG \000"
 11066      33325F45 
 11066      515F4C4F 
 11066      4E472000 
 11067              	.LASF546:
 11068 732c 5343425F 		.ascii	"SCB_AIRCR_VECTCLRACTIVE_Pos 1\000"
 11068      41495243 
 11068      525F5645 
 11068      4354434C 
 11068      52414354 
 11069              	.LASF956:
 11070 734a 49324441 		.ascii	"I2DATA_BUFFER_BITMASK ((0xFF))\000"
 11070      54415F42 
 11070      55464645 
 11070      525F4249 
 11070      544D4153 
 11071              	.LASF5:
 11072 7369 5F5F5645 		.ascii	"__VERSION__ \"4.9.3 20150529 (release) [ARM/embedde"
 11072      5253494F 
 11072      4E5F5F20 
 11072      22342E39 
 11072      2E332032 
 11073 739b 642D345F 		.ascii	"d-4_9-branch revision 227977]\"\000"
 11073      392D6272 
 11073      616E6368 
 11073      20726576 
 11073      6973696F 
 11074              	.LASF491:
 11075 73ba 5F5F434D 		.ascii	"__CMSIS_11CXX_H_ \000"
 11075      5349535F 
 11075      31314358 
 11075      585F485F 
 11075      2000
 11076              	.LASF997:
 11077 73cc 53444F5F 		.ascii	"SDO_ABORT_NOT_EXISTS 0x06020000UL\000"
 11077      41424F52 
 11077      545F4E4F 
 11077      545F4558 
 11077      49535453 
 11078              	.LASF942:
 11079 73ee 4932435F 		.ascii	"I2C_I2STAT_S_RX_PRE_GENCALL_DAT_NACK ((0x98))\000"
 11079      49325354 
 11079      41545F53 
 11079      5F52585F 
 11079      5052455F 
 11080              	.LASF588:
 11081 741c 4C50435F 		.ascii	"LPC_I2C_BASE 0x40000000\000"
 11081      4932435F 
 11081      42415345 
 11081      20307834 
 11081      30303030 
 11082              	.LASF817:
 11083 7434 55415254 		.ascii	"UART_ICR_FIXPULSE_EN (1 << 2)\000"
 11083      5F494352 
 11083      5F464958 
 11083      50554C53 
ARM GAS  /tmp/ccSBomBp.s 			page 292


 11083      455F454E 
 11084              	.LASF411:
 11085 7452 55494E54 		.ascii	"UINT8_MAX (__UINT8_MAX__)\000"
 11085      385F4D41 
 11085      5820285F 
 11085      5F55494E 
 11085      54385F4D 
 11086              	.LASF189:
 11087 746c 5F5F5346 		.ascii	"__SFRACT_IBIT__ 0\000"
 11087      52414354 
 11087      5F494249 
 11087      545F5F20 
 11087      3000
 11088              	.LASF395:
 11089 747e 5F5F696E 		.ascii	"__int16_t_defined 1\000"
 11089      7431365F 
 11089      745F6465 
 11089      66696E65 
 11089      64203100 
 11090              	.LASF435:
 11091 7492 55494E54 		.ascii	"UINT_FAST8_MAX (__UINT_FAST8_MAX__)\000"
 11091      5F464153 
 11091      54385F4D 
 11091      41582028 
 11091      5F5F5549 
 11092              	.LASF398:
 11093 74b6 5F5F696E 		.ascii	"__int_least8_t_defined 1\000"
 11093      745F6C65 
 11093      61737438 
 11093      5F745F64 
 11093      6566696E 
 11094              	.LASF843:
 11095 74cf 57574454 		.ascii	"WWDT_WDMOD_WDINT ((uint32_t) (1 << 3))\000"
 11095      5F57444D 
 11095      4F445F57 
 11095      44494E54 
 11095      20282875 
 11096              	.LASF907:
 11097 74f6 4932435F 		.ascii	"I2C_I2CONCLR_AAC ((1 << 2))\000"
 11097      4932434F 
 11097      4E434C52 
 11097      5F414143 
 11097      20282831 
 11098              	.LASF1173:
 11099 7512 43686970 		.ascii	"Chip_UART_ReadRB\000"
 11099      5F554152 
 11099      545F5265 
 11099      61645242 
 11099      00
 11100              	.LASF592:
 11101 7523 4C50435F 		.ascii	"LPC_TIMER16_1_BASE 0x40010000\000"
 11101      54494D45 
 11101      5231365F 
 11101      315F4241 
 11101      53452030 
 11102              	.LASF722:
 11103 7541 52425F56 		.ascii	"RB_VTAIL(rb) (*(volatile uint32_t *) &(rb)->tail)\000"
ARM GAS  /tmp/ccSBomBp.s 			page 293


 11103      5441494C 
 11103      28726229 
 11103      20282A28 
 11103      766F6C61 
 11104              	.LASF1078:
 11105 7573 53595354 		.ascii	"SYSTCKCAL\000"
 11105      434B4341 
 11105      4C00
 11106              	.LASF21:
 11107 757d 5F5F5349 		.ascii	"__SIZEOF_LONG_DOUBLE__ 8\000"
 11107      5A454F46 
 11107      5F4C4F4E 
 11107      475F444F 
 11107      55424C45 
 11108              	.LASF862:
 11109 7596 5353505F 		.ascii	"SSP_CPSR_BITMASK ((uint32_t) (0xFF))\000"
 11109      43505352 
 11109      5F424954 
 11109      4D41534B 
 11109      20282875 
 11110              	.LASF31:
 11111 75bb 5F5F5349 		.ascii	"__SIZE_TYPE__ unsigned int\000"
 11111      5A455F54 
 11111      5950455F 
 11111      5F20756E 
 11111      7369676E 
 11112              	.LASF940:
 11113 75d6 4932435F 		.ascii	"I2C_I2STAT_S_RX_PRE_SLA_DAT_NACK ((0x88))\000"
 11113      49325354 
 11113      41545F53 
 11113      5F52585F 
 11113      5052455F 
 11114              	.LASF836:
 11115 7600 55415254 		.ascii	"UART_SYNCCTRL_STARTSTOPDISABLE (1 << 5)\000"
 11115      5F53594E 
 11115      43435452 
 11115      4C5F5354 
 11115      41525453 
 11116              	.LASF1063:
 11117 7628 55534243 		.ascii	"USBCLKSEL\000"
 11117      4C4B5345 
 11117      4C00
 11118              	.LASF1003:
 11119 7632 53444F5F 		.ascii	"SDO_ABORT_TRANSFER 0x08000020UL\000"
 11119      41424F52 
 11119      545F5452 
 11119      414E5346 
 11119      45522030 
 11120              	.LASF191:
 11121 7652 5F5F5346 		.ascii	"__SFRACT_MAX__ 0X7FP-7HR\000"
 11121      52414354 
 11121      5F4D4158 
 11121      5F5F2030 
 11121      58374650 
 11122              	.LASF718:
 11123 766b 54494D45 		.ascii	"TIMER_INT_ON_CAP(n) (_BIT((((n) * 3) + 2)))\000"
 11123      525F494E 
ARM GAS  /tmp/ccSBomBp.s 			page 294


 11123      545F4F4E 
 11123      5F434150 
 11123      286E2920 
 11124              	.LASF980:
 11125 7697 43414E5F 		.ascii	"CAN_ERROR_BOFF 0x00000004UL\000"
 11125      4552524F 
 11125      525F424F 
 11125      46462030 
 11125      78303030 
 11126              	.LASF861:
 11127 76b3 5353505F 		.ascii	"SSP_CR1_BITMASK ((uint32_t) (0x0F))\000"
 11127      4352315F 
 11127      4249544D 
 11127      41534B20 
 11127      28287569 
 11128              	.LASF97:
 11129 76d7 5F5F494E 		.ascii	"__INT16_C(c) c\000"
 11129      5431365F 
 11129      43286329 
 11129      206300
 11130              	.LASF1141:
 11131 76e6 43686970 		.ascii	"Chip_UART_SendByte\000"
 11131      5F554152 
 11131      545F5365 
 11131      6E644279 
 11131      746500
 11132              	.LASF951:
 11133 76f9 4932435F 		.ascii	"I2C_I2DAT_IDLE_CHAR (0xFF)\000"
 11133      49324441 
 11133      545F4944 
 11133      4C455F43 
 11133      48415220 
 11134              	.LASF377:
 11135 7714 73686F72 		.ascii	"short +1\000"
 11135      74202B31 
 11135      00
 11136              	.LASF990:
 11137 771d 43414E5F 		.ascii	"CAN_MSGOBJ_RTR 0x40000000UL\000"
 11137      4D53474F 
 11137      424A5F52 
 11137      54522030 
 11137      78343030 
 11138              	.LASF549:
 11139 7739 5343425F 		.ascii	"SCB_SCR_SEVONPEND_Msk (1UL << SCB_SCR_SEVONPEND_Pos"
 11139      5343525F 
 11139      5345564F 
 11139      4E50454E 
 11139      445F4D73 
 11140 776c 2900     		.ascii	")\000"
 11141              	.LASF743:
 11142 776e 55415254 		.ascii	"UART_IIR_INTID_MASK (7 << 1)\000"
 11142      5F494952 
 11142      5F494E54 
 11142      49445F4D 
 11142      41534B20 
 11143              	.LASF10:
 11144 778b 5F5F4154 		.ascii	"__ATOMIC_ACQ_REL 4\000"
ARM GAS  /tmp/ccSBomBp.s 			page 295


 11144      4F4D4943 
 11144      5F414351 
 11144      5F52454C 
 11144      203400
 11145              	.LASF42:
 11146 779e 5F5F494E 		.ascii	"__INT32_TYPE__ long int\000"
 11146      5433325F 
 11146      54595045 
 11146      5F5F206C 
 11146      6F6E6720 
 11147              	.LASF346:
 11148 77b6 5F5F4348 		.ascii	"__CHIP_H_ \000"
 11148      49505F48 
 11148      5F2000
 11149              	.LASF142:
 11150 77c1 5F5F4442 		.ascii	"__DBL_MIN_10_EXP__ (-307)\000"
 11150      4C5F4D49 
 11150      4E5F3130 
 11150      5F455850 
 11150      5F5F2028 
 11151              	.LASF1119:
 11152 77db 64617461 		.ascii	"data\000"
 11152      00
 11153              	.LASF541:
 11154 77e0 5343425F 		.ascii	"SCB_AIRCR_VECTKEYSTAT_Msk (0xFFFFUL << SCB_AIRCR_VE"
 11154      41495243 
 11154      525F5645 
 11154      43544B45 
 11154      59535441 
 11155 7813 43544B45 		.ascii	"CTKEYSTAT_Pos)\000"
 11155      59535441 
 11155      545F506F 
 11155      732900
 11156              	.LASF446:
 11157 7822 494E544D 		.ascii	"INTMAX_MIN (-INTMAX_MAX - 1)\000"
 11157      41585F4D 
 11157      494E2028 
 11157      2D494E54 
 11157      4D41585F 
 11158              	.LASF706:
 11159 783f 46554E43 		.ascii	"FUNC7 0x7\000"
 11159      37203078 
 11159      3700
 11160              	.LASF1138:
 11161 7849 70554152 		.ascii	"pUART\000"
 11161      5400
 11162              	.LASF620:
 11163 784f 4C50435F 		.ascii	"LPC_PMU ((LPC_PMU_T *) LPC_PMU_BASE)\000"
 11163      504D5520 
 11163      28284C50 
 11163      435F504D 
 11163      555F5420 
 11164              	.LASF501:
 11165 7874 5F5F494E 		.ascii	"__INLINE inline\000"
 11165      4C494E45 
 11165      20696E6C 
 11165      696E6500 
ARM GAS  /tmp/ccSBomBp.s 			page 296


 11166              	.LASF90:
 11167 7884 5F5F5549 		.ascii	"__UINT8_MAX__ 255\000"
 11167      4E54385F 
 11167      4D41585F 
 11167      5F203235 
 11167      3500
 11168              	.LASF800:
 11169 7896 55415254 		.ascii	"UART_MSR_DCD (1 << 7)\000"
 11169      5F4D5352 
 11169      5F444344 
 11169      20283120 
 11169      3C3C2037 
 11170              	.LASF116:
 11171 78ac 5F5F5549 		.ascii	"__UINT_FAST32_MAX__ 4294967295U\000"
 11171      4E545F46 
 11171      41535433 
 11171      325F4D41 
 11171      585F5F20 
 11172              	.LASF102:
 11173 78cc 5F5F5549 		.ascii	"__UINT_LEAST8_MAX__ 255\000"
 11173      4E545F4C 
 11173      45415354 
 11173      385F4D41 
 11173      585F5F20 
 11174              	.LASF1116:
 11175 78e4 53595343 		.ascii	"SYSCTL_CLOCK_CAN\000"
 11175      544C5F43 
 11175      4C4F434B 
 11175      5F43414E 
 11175      00
 11176              	.LASF139:
 11177 78f5 5F5F4442 		.ascii	"__DBL_MANT_DIG__ 53\000"
 11177      4C5F4D41 
 11177      4E545F44 
 11177      49475F5F 
 11177      20353300 
 11178              	.LASF1161:
 11179 7909 43686970 		.ascii	"Chip_UART_Read\000"
 11179      5F554152 
 11179      545F5265 
 11179      616400
 11180              	.LASF765:
 11181 7918 55415254 		.ascii	"UART_LCR_SBS_1BIT (0 << 2)\000"
 11181      5F4C4352 
 11181      5F534253 
 11181      5F314249 
 11181      54202830 
 11182              	.LASF205:
 11183 7933 5F5F5546 		.ascii	"__UFRACT_MIN__ 0.0UR\000"
 11183      52414354 
 11183      5F4D494E 
 11183      5F5F2030 
 11183      2E305552 
 11184              	.LASF51:
 11185 7948 5F5F494E 		.ascii	"__INT_LEAST64_TYPE__ long long int\000"
 11185      545F4C45 
 11185      41535436 
ARM GAS  /tmp/ccSBomBp.s 			page 297


 11185      345F5459 
 11185      50455F5F 
 11186              	.LASF741:
 11187 796b 55415254 		.ascii	"UART_IIR_ABTO_INT (1 << 9)\000"
 11187      5F494952 
 11187      5F414254 
 11187      4F5F494E 
 11187      54202831 
 11188              	.LASF882:
 11189 7986 4144435F 		.ascii	"ADC_CR_CLKDIV(n) ((((n) & 0xFF) << 8))\000"
 11189      43525F43 
 11189      4C4B4449 
 11189      56286E29 
 11189      20282828 
 11190              	.LASF917:
 11191 79ad 4932435F 		.ascii	"I2C_STAT_CODE_BITMASK ((0xF8))\000"
 11191      53544154 
 11191      5F434F44 
 11191      455F4249 
 11191      544D4153 
 11192              	.LASF228:
 11193 79cc 5F5F5341 		.ascii	"__SACCUM_FBIT__ 7\000"
 11193      4343554D 
 11193      5F464249 
 11193      545F5F20 
 11193      3700
 11194              	.LASF265:
 11195 79de 5F5F554C 		.ascii	"__ULLACCUM_MIN__ 0.0ULLK\000"
 11195      4C414343 
 11195      554D5F4D 
 11195      494E5F5F 
 11195      20302E30 
 11196              	.LASF797:
 11197 79f7 55415254 		.ascii	"UART_MSR_CTS (1 << 4)\000"
 11197      5F4D5352 
 11197      5F435453 
 11197      20283120 
 11197      3C3C2034 
 11198              	.LASF963:
 11199 7a0d 4932435F 		.ascii	"I2C_SETUP_STATUS_NOACKF (1 << 9)\000"
 11199      53455455 
 11199      505F5354 
 11199      41545553 
 11199      5F4E4F41 
 11200              		.ident	"GCC: (GNU Tools for ARM Embedded Processors) 4.9.3 20150529 (release) [ARM/embedded-4_9-br
ARM GAS  /tmp/ccSBomBp.s 			page 298


DEFINED SYMBOLS
                            *ABS*:0000000000000000 uart_11xx.c
     /tmp/ccSBomBp.s:67     .text.Chip_UART_Init:0000000000000000 $t
     /tmp/ccSBomBp.s:72     .text.Chip_UART_Init:0000000000000000 Chip_UART_Init
     /tmp/ccSBomBp.s:140    .text.Chip_UART_Init:0000000000000024 $d
     /tmp/ccSBomBp.s:145    .text.Chip_UART_DeInit:0000000000000000 $t
     /tmp/ccSBomBp.s:150    .text.Chip_UART_DeInit:0000000000000000 Chip_UART_DeInit
     /tmp/ccSBomBp.s:177    .text.Chip_UART_DeInit:000000000000000c $d
     /tmp/ccSBomBp.s:183    .text.Chip_UART_Send:0000000000000000 $t
     /tmp/ccSBomBp.s:188    .text.Chip_UART_Send:0000000000000000 Chip_UART_Send
     /tmp/ccSBomBp.s:244    .text.Chip_UART_SendBlocking:0000000000000000 $t
     /tmp/ccSBomBp.s:249    .text.Chip_UART_SendBlocking:0000000000000000 Chip_UART_SendBlocking
     /tmp/ccSBomBp.s:304    .text.Chip_UART_Read:0000000000000000 $t
     /tmp/ccSBomBp.s:309    .text.Chip_UART_Read:0000000000000000 Chip_UART_Read
     /tmp/ccSBomBp.s:361    .text.Chip_UART_ReadBlocking:0000000000000000 $t
     /tmp/ccSBomBp.s:366    .text.Chip_UART_ReadBlocking:0000000000000000 Chip_UART_ReadBlocking
     /tmp/ccSBomBp.s:422    .text.Chip_UART_SetBaud:0000000000000000 $t
     /tmp/ccSBomBp.s:427    .text.Chip_UART_SetBaud:0000000000000000 Chip_UART_SetBaud
     /tmp/ccSBomBp.s:532    .text.Chip_UART_RXIntHandlerRB:0000000000000000 $t
     /tmp/ccSBomBp.s:537    .text.Chip_UART_RXIntHandlerRB:0000000000000000 Chip_UART_RXIntHandlerRB
     /tmp/ccSBomBp.s:595    .text.Chip_UART_TXIntHandlerRB:0000000000000000 $t
     /tmp/ccSBomBp.s:600    .text.Chip_UART_TXIntHandlerRB:0000000000000000 Chip_UART_TXIntHandlerRB
     /tmp/ccSBomBp.s:656    .text.Chip_UART_SendRB:0000000000000000 $t
     /tmp/ccSBomBp.s:661    .text.Chip_UART_SendRB:0000000000000000 Chip_UART_SendRB
     /tmp/ccSBomBp.s:761    .text.Chip_UART_ReadRB:0000000000000000 $t
     /tmp/ccSBomBp.s:766    .text.Chip_UART_ReadRB:0000000000000000 Chip_UART_ReadRB
     /tmp/ccSBomBp.s:791    .text.Chip_UART_IRQRBHandler:0000000000000000 $t
     /tmp/ccSBomBp.s:796    .text.Chip_UART_IRQRBHandler:0000000000000000 Chip_UART_IRQRBHandler
     /tmp/ccSBomBp.s:862    .text.Chip_UART_SetBaudFDR:0000000000000000 $t
     /tmp/ccSBomBp.s:867    .text.Chip_UART_SetBaudFDR:0000000000000000 Chip_UART_SetBaudFDR
                     .debug_frame:0000000000000010 $d
                           .group:0000000000000000 wm4.0.d60539c8b2f01ca1b851fc35675107cd
                           .group:0000000000000000 wm4.features.h.22.2e382148a0560adabf236cddd4e880f4
                           .group:0000000000000000 wm4._default_types.h.15.933e8edd27a65e0b69af4a865eb623d2
                           .group:0000000000000000 wm4._intsup.h.10.35a45952db64d30146faa63a55c20c1c
                           .group:0000000000000000 wm4._stdint.h.10.f76354baea1c7088202064e6f3d4f5e3
                           .group:0000000000000000 wm4.stdint.h.23.373a9d32a9e4c2e88fd347156532d281
                           .group:0000000000000000 wm4.stdbool.h.29.1c9ee6859ce8145f7838a4f2549ccec2
                           .group:0000000000000000 wm4.lpc_types.h.63.5779355f7bf16476226d33c241ffb98a
                           .group:0000000000000000 wm4.sys_config.h.31.9f234e9c90333d233c7e647ebe63e928
                           .group:0000000000000000 wm4.cmsis_11cxx.h.33.407e9bbb5d170cd1552d3f7dc3fd5c42
                           .group:0000000000000000 wm4.core_cm0.h.32.192d13cfa8b31e63c86621de62eb153f
                           .group:0000000000000000 wm4.core_cm0.h.120.f4257ea7d0bce0cbabffe223e23b2fd4
                           .group:0000000000000000 wm4.chip.h.116.857da603c399e979152c31968de4baae
                           .group:0000000000000000 wm4.pmu_11xx.h.33.1d6b708881441cb98d19b8bab3caa180
                           .group:0000000000000000 wm4.sysctl_11xx.h.33.ae61a1181e608f8409883008e291930c
                           .group:0000000000000000 wm4.clock_11xx.h.33.23290a9e2ed919e3a6958d25130bc848
                           .group:0000000000000000 wm4.iocon_11xx.h.33.25e2b3cde122df23fb07b984cb4f3a93
                           .group:0000000000000000 wm4.timer_11xx.h.33.c92f50a9325789ee6a8ffd6248980d70
                           .group:0000000000000000 wm4.ring_buffer.h.33.ffd8153954783612f9c626df1ed9e770
                           .group:0000000000000000 wm4.uart_11xx.h.98.fe68b709973730a4fba3f3ce60c5c312
                           .group:0000000000000000 wm4.wwdt_11xx.h.33.5768344983cb842df69cc91ea86cabb0
                           .group:0000000000000000 wm4.ssp_11xx.h.33.af054d3d65f4cb0c078be40bb872ec37
                           .group:0000000000000000 wm4.error.h.38.ae74fe1dd9d19c80c505f1fda144fce8
                           .group:0000000000000000 wm4.adc_11xx.h.33.6ce7433ac6b30df70a6993d01dbd513f
                           .group:0000000000000000 wm4.i2c_11xx.h.33.2b506d1350e00a8c26e8bf006a5f9390
                           .group:0000000000000000 wm4.ccand_11xx.h.33.bf309da171b55b77d89b8a17401182db
ARM GAS  /tmp/ccSBomBp.s 			page 299



UNDEFINED SYMBOLS
__aeabi_uidiv
Chip_Clock_GetMainClockRate
RingBuffer_Insert
RingBuffer_Pop
RingBuffer_InsertMult
RingBuffer_PopMult
__aeabi_uidivmod
