ARM GAS  /var/folders/f9/8bk2lnw15zn4cbgn6wrnb4lm0000gn/T//ccZlgCQc.s 			page 1


   1              		.cpu cortex-m0
   2              		.fpu softvfp
   3              		.eabi_attribute 20, 1	@ Tag_ABI_FP_denormal
   4              		.eabi_attribute 21, 1	@ Tag_ABI_FP_exceptions
   5              		.eabi_attribute 23, 3	@ Tag_ABI_FP_number_model
   6              		.eabi_attribute 24, 1	@ Tag_ABI_align8_needed
   7              		.eabi_attribute 25, 1	@ Tag_ABI_align8_preserved
   8              		.eabi_attribute 26, 1	@ Tag_ABI_enum_size
   9              		.eabi_attribute 30, 4	@ Tag_ABI_optimization_goals
  10              		.eabi_attribute 34, 0	@ Tag_CPU_unaligned_access
  11              		.eabi_attribute 18, 4	@ Tag_ABI_PCS_wchar_t
  12              		.file	"util.c"
  13              	@ GNU C (GNU Tools for ARM Embedded Processors) version 4.8.4 20140725 (release) [ARM/embedded-4_8-
  14              	@	compiled by GNU C version 4.2.1 (Based on Apple Inc. build 5658) (LLVM build 2336.9.00), GMP vers
  15              	@ GGC heuristics: --param ggc-min-expand=100 --param ggc-min-heapsize=131072
  16              	@ options passed:  -I . -I ../../lpc11cx4-library/lpc_chip_11cxx_lib/inc
  17              	@ -I ../../lpc11cx4-library/evt_lib/inc -I inc -imultilib armv6-m
  18              	@ -iprefix /usr/local/Cellar/gcc-arm-none-eabi/20140805/bin/../lib/gcc/arm-none-eabi/4.8.4/
  19              	@ -isysroot /usr/local/Cellar/gcc-arm-none-eabi/20140805/bin/../arm-none-eabi
  20              	@ -MD bin/util.d -MF bin/util.d -MP -MQ bin/util.o -D__USES_INITFINI__
  21              	@ -D CORE_M0 ../../lpc11cx4-library/evt_lib/src/util.c -mcpu=cortex-m0
  22              	@ -mthumb -auxbase-strip bin/util.o -g -ggdb3 -Os -Wall -Wstrict-prototypes
  23              	@ -Wextra -std=gnu90 -ffunction-sections -fdata-sections -fverbose-asm
  24              	@ -fstack-usage
  25              	@ options enabled:  -faggressive-loop-optimizations -fauto-inc-dec
  26              	@ -fbranch-count-reg -fcaller-saves -fcombine-stack-adjustments -fcommon
  27              	@ -fcompare-elim -fcprop-registers -fcrossjumping -fcse-follow-jumps
  28              	@ -fdata-sections -fdefer-pop -fdelete-null-pointer-checks -fdevirtualize
  29              	@ -fdwarf2-cfi-asm -fearly-inlining -feliminate-unused-debug-types
  30              	@ -fexpensive-optimizations -fforward-propagate -ffunction-cse
  31              	@ -ffunction-sections -fgcse -fgcse-lm -fgnu-runtime -fgnu-unique
  32              	@ -fguess-branch-probability -fhoist-adjacent-loads -fident -fif-conversion
  33              	@ -fif-conversion2 -findirect-inlining -finline -finline-atomics
  34              	@ -finline-functions -finline-functions-called-once
  35              	@ -finline-small-functions -fipa-cp -fipa-profile -fipa-pure-const
  36              	@ -fipa-reference -fipa-sra -fira-hoist-pressure -fira-share-save-slots
  37              	@ -fira-share-spill-slots -fivopts -fkeep-static-consts
  38              	@ -fleading-underscore -fmath-errno -fmerge-constants -fmerge-debug-strings
  39              	@ -fomit-frame-pointer -foptimize-register-move -foptimize-sibling-calls
  40              	@ -fpartial-inlining -fpeephole -fpeephole2 -fprefetch-loop-arrays
  41              	@ -freg-struct-return -fregmove -freorder-blocks -freorder-functions
  42              	@ -frerun-cse-after-loop -fsched-critical-path-heuristic
  43              	@ -fsched-dep-count-heuristic -fsched-group-heuristic -fsched-interblock
  44              	@ -fsched-last-insn-heuristic -fsched-pressure -fsched-rank-heuristic
  45              	@ -fsched-spec -fsched-spec-insn-heuristic -fsched-stalled-insns-dep
  46              	@ -fschedule-insns2 -fsection-anchors -fshow-column -fshrink-wrap
  47              	@ -fsigned-zeros -fsplit-ivs-in-unroller -fsplit-wide-types
  48              	@ -fstrict-aliasing -fstrict-overflow -fstrict-volatile-bitfields
  49              	@ -fsync-libcalls -fthread-jumps -ftoplevel-reorder -ftrapping-math
  50              	@ -ftree-bit-ccp -ftree-builtin-call-dce -ftree-ccp -ftree-ch
  51              	@ -ftree-coalesce-vars -ftree-copy-prop -ftree-copyrename -ftree-cselim
  52              	@ -ftree-dce -ftree-dominator-opts -ftree-dse -ftree-forwprop -ftree-fre
  53              	@ -ftree-loop-if-convert -ftree-loop-im -ftree-loop-ivcanon
  54              	@ -ftree-loop-optimize -ftree-parallelize-loops= -ftree-phiprop -ftree-pre
  55              	@ -ftree-pta -ftree-reassoc -ftree-scev-cprop -ftree-sink
  56              	@ -ftree-slp-vectorize -ftree-slsr -ftree-sra -ftree-switch-conversion
  57              	@ -ftree-tail-merge -ftree-ter -ftree-vect-loop-version -ftree-vrp
ARM GAS  /var/folders/f9/8bk2lnw15zn4cbgn6wrnb4lm0000gn/T//ccZlgCQc.s 			page 2


  58              	@ -funit-at-a-time -fvar-tracking -fvar-tracking-assignments -fverbose-asm
  59              	@ -fzero-initialized-in-bss -mlittle-endian -mpic-data-is-text-relative
  60              	@ -msched-prolog -mthumb -mvectorize-with-neon-quad
  61              	
  62              		.text
  63              	.Ltext0:
  64              		.cfi_sections	.debug_frame
  65              		.section	.text.__reverse,"ax",%progbits
  66              		.align	1
  67              		.global	__reverse
  68              		.code	16
  69              		.thumb_func
  70              		.type	__reverse, %function
  71              	__reverse:
  72              	.LFB0:
  73              		.file 1 "../../lpc11cx4-library/evt_lib/src/util.c"
   1:../../lpc11cx4-library/evt_lib/src/util.c **** #include "util.h"
   2:../../lpc11cx4-library/evt_lib/src/util.c **** 
   3:../../lpc11cx4-library/evt_lib/src/util.c **** void __reverse(char* begin,char* end) {
  74              		.loc 1 3 0
  75              		.cfi_startproc
  76              	.LVL0:
  77              	.L2:
   4:../../lpc11cx4-library/evt_lib/src/util.c **** 	char temp;
   5:../../lpc11cx4-library/evt_lib/src/util.c **** 
   6:../../lpc11cx4-library/evt_lib/src/util.c **** 	while (end  >begin)
  78              		.loc 1 6 0 discriminator 1
  79 0000 8142     		cmp	r1, r0	@ end, ivtmp.16
  80 0002 06D9     		bls	.L5	@,
   7:../../lpc11cx4-library/evt_lib/src/util.c **** 	{
   8:../../lpc11cx4-library/evt_lib/src/util.c **** 		temp = *end;
  81              		.loc 1 8 0
  82 0004 0B78     		ldrb	r3, [r1]	@ temp, MEM[base: end_2, offset: 0B]
  83              	.LVL1:
   9:../../lpc11cx4-library/evt_lib/src/util.c **** 		*end-- = *begin;
  84              		.loc 1 9 0
  85 0006 0278     		ldrb	r2, [r0]	@ D.4266, MEM[base: begin_1, offset: 0B]
  86 0008 0139     		sub	r1, r1, #1	@ end,
  87              	.LVL2:
  88 000a 4A70     		strb	r2, [r1, #1]	@ D.4266, MEM[base: end_8, offset: 1B]
  89              	.LVL3:
  10:../../lpc11cx4-library/evt_lib/src/util.c **** 		*begin++ = temp;
  90              		.loc 1 10 0
  91 000c 0370     		strb	r3, [r0]	@ temp, MEM[base: begin_1, offset: 0B]
  92 000e 0130     		add	r0, r0, #1	@ ivtmp.16,
  93              	.LVL4:
  94 0010 F6E7     		b	.L2	@
  95              	.LVL5:
  96              	.L5:
  11:../../lpc11cx4-library/evt_lib/src/util.c **** 	}
  12:../../lpc11cx4-library/evt_lib/src/util.c **** }
  97              		.loc 1 12 0
  98              		@ sp needed	@
  99 0012 7047     		bx	lr
 100              		.cfi_endproc
 101              	.LFE0:
 102              		.size	__reverse, .-__reverse
ARM GAS  /var/folders/f9/8bk2lnw15zn4cbgn6wrnb4lm0000gn/T//ccZlgCQc.s 			page 3


 103              		.section	.text.uint8ToASCIIHex,"ax",%progbits
 104              		.align	1
 105              		.global	uint8ToASCIIHex
 106              		.code	16
 107              		.thumb_func
 108              		.type	uint8ToASCIIHex, %function
 109              	uint8ToASCIIHex:
 110              	.LFB1:
  13:../../lpc11cx4-library/evt_lib/src/util.c **** 
  14:../../lpc11cx4-library/evt_lib/src/util.c **** void uint8ToASCIIHex(uint8_t val, char* str) {
 111              		.loc 1 14 0
 112              		.cfi_startproc
 113              	.LVL6:
  15:../../lpc11cx4-library/evt_lib/src/util.c **** 	uint8_t high = val >> 4;
 114              		.loc 1 15 0
 115 0000 0309     		lsr	r3, r0, #4	@ high, val,
 116              	.LVL7:
  16:../../lpc11cx4-library/evt_lib/src/util.c **** 	if (high < 10) {
  17:../../lpc11cx4-library/evt_lib/src/util.c **** 		str[0] = high | 0x30;
 117              		.loc 1 17 0
 118 0002 3022     		mov	r2, #48	@ tmp122,
  16:../../lpc11cx4-library/evt_lib/src/util.c **** 	if (high < 10) {
 119              		.loc 1 16 0
 120 0004 092B     		cmp	r3, #9	@ high,
 121 0006 01D9     		bls	.L11	@,
 122              	.LVL8:
  18:../../lpc11cx4-library/evt_lib/src/util.c **** 	} else {
  19:../../lpc11cx4-library/evt_lib/src/util.c **** 		high -= 9;
 123              		.loc 1 19 0
 124 0008 093B     		sub	r3, r3, #9	@ tmp124,
 125              	.LVL9:
  20:../../lpc11cx4-library/evt_lib/src/util.c **** 		str[0] = high | 0x40;
 126              		.loc 1 20 0
 127 000a 4022     		mov	r2, #64	@ tmp127,
 128              	.LVL10:
 129              	.L11:
 130 000c 1343     		orr	r3, r2	@ tmp126, tmp127
 131 000e 0B70     		strb	r3, [r1]	@ tmp126, *str_7(D)
  21:../../lpc11cx4-library/evt_lib/src/util.c **** 	}
  22:../../lpc11cx4-library/evt_lib/src/util.c **** 
  23:../../lpc11cx4-library/evt_lib/src/util.c **** 	uint8_t low = val & 0x0F;
 132              		.loc 1 23 0
 133 0010 0F23     		mov	r3, #15	@ tmp130,
 134 0012 1840     		and	r0, r3	@ low, tmp130
 135              	.LVL11:
  24:../../lpc11cx4-library/evt_lib/src/util.c **** 	if (low < 10) {
  25:../../lpc11cx4-library/evt_lib/src/util.c **** 		str[1] = low | 0x30;
 136              		.loc 1 25 0
 137 0014 3023     		mov	r3, #48	@ tmp132,
  24:../../lpc11cx4-library/evt_lib/src/util.c **** 	if (low < 10) {
 138              		.loc 1 24 0
 139 0016 0928     		cmp	r0, #9	@ low,
 140 0018 01D9     		bls	.L12	@,
 141              	.LVL12:
  26:../../lpc11cx4-library/evt_lib/src/util.c **** 	} else {
  27:../../lpc11cx4-library/evt_lib/src/util.c **** 		low -= 9;
 142              		.loc 1 27 0
ARM GAS  /var/folders/f9/8bk2lnw15zn4cbgn6wrnb4lm0000gn/T//ccZlgCQc.s 			page 4


 143 001a 0938     		sub	r0, r0, #9	@ tmp134,
 144              	.LVL13:
  28:../../lpc11cx4-library/evt_lib/src/util.c **** 		str[1] = low | 0x40;
 145              		.loc 1 28 0
 146 001c 4023     		mov	r3, #64	@ tmp137,
 147              	.LVL14:
 148              	.L12:
 149 001e 1843     		orr	r0, r3	@ tmp136, tmp137
 150 0020 4870     		strb	r0, [r1, #1]	@ tmp136, MEM[(char *)str_7(D) + 1B]
  29:../../lpc11cx4-library/evt_lib/src/util.c **** 	}
  30:../../lpc11cx4-library/evt_lib/src/util.c **** }
 151              		.loc 1 30 0
 152              		@ sp needed	@
 153 0022 7047     		bx	lr
 154              		.cfi_endproc
 155              	.LFE1:
 156              		.size	uint8ToASCIIHex, .-uint8ToASCIIHex
 157              		.section	.text.uint16ToASCIIHex,"ax",%progbits
 158              		.align	1
 159              		.global	uint16ToASCIIHex
 160              		.code	16
 161              		.thumb_func
 162              		.type	uint16ToASCIIHex, %function
 163              	uint16ToASCIIHex:
 164              	.LFB2:
  31:../../lpc11cx4-library/evt_lib/src/util.c **** 
  32:../../lpc11cx4-library/evt_lib/src/util.c **** void uint16ToASCIIHex(uint16_t val, char* str) {
 165              		.loc 1 32 0
 166              		.cfi_startproc
 167              	.LVL15:
 168 0000 38B5     		push	{r3, r4, r5, lr}	@
 169              		.cfi_def_cfa_offset 16
 170              		.cfi_offset 3, -16
 171              		.cfi_offset 4, -12
 172              		.cfi_offset 5, -8
 173              		.cfi_offset 14, -4
 174              		.loc 1 32 0
 175 0002 051C     		mov	r5, r0	@ val, val
 176 0004 0C1C     		mov	r4, r1	@ str, str
  33:../../lpc11cx4-library/evt_lib/src/util.c **** 	uint8ToASCIIHex(val >> 8, str);
 177              		.loc 1 33 0
 178 0006 000A     		lsr	r0, r0, #8	@ D.4273, val,
 179              	.LVL16:
 180 0008 FFF7FEFF 		bl	uint8ToASCIIHex	@
 181              	.LVL17:
  34:../../lpc11cx4-library/evt_lib/src/util.c **** 	uint8ToASCIIHex(val & 0x00FF, str + 2);
 182              		.loc 1 34 0
 183 000c E8B2     		uxtb	r0, r5	@ val, val
 184 000e A11C     		add	r1, r4, #2	@ D.4274, str,
 185 0010 FFF7FEFF 		bl	uint8ToASCIIHex	@
 186              	.LVL18:
  35:../../lpc11cx4-library/evt_lib/src/util.c **** }
 187              		.loc 1 35 0
 188              		@ sp needed	@
 189              	.LVL19:
 190 0014 38BD     		pop	{r3, r4, r5, pc}
 191              		.cfi_endproc
ARM GAS  /var/folders/f9/8bk2lnw15zn4cbgn6wrnb4lm0000gn/T//ccZlgCQc.s 			page 5


 192              	.LFE2:
 193              		.size	uint16ToASCIIHex, .-uint16ToASCIIHex
 194              		.section	.text.uint32ToASCIIHex,"ax",%progbits
 195              		.align	1
 196              		.global	uint32ToASCIIHex
 197              		.code	16
 198              		.thumb_func
 199              		.type	uint32ToASCIIHex, %function
 200              	uint32ToASCIIHex:
 201              	.LFB3:
  36:../../lpc11cx4-library/evt_lib/src/util.c **** 
  37:../../lpc11cx4-library/evt_lib/src/util.c **** void uint32ToASCIIHex(uint32_t val, char* str) {
 202              		.loc 1 37 0
 203              		.cfi_startproc
 204              	.LVL20:
 205 0000 38B5     		push	{r3, r4, r5, lr}	@
 206              		.cfi_def_cfa_offset 16
 207              		.cfi_offset 3, -16
 208              		.cfi_offset 4, -12
 209              		.cfi_offset 5, -8
 210              		.cfi_offset 14, -4
 211              		.loc 1 37 0
 212 0002 051C     		mov	r5, r0	@ val, val
 213 0004 0C1C     		mov	r4, r1	@ str, str
  38:../../lpc11cx4-library/evt_lib/src/util.c **** 	uint16ToASCIIHex(val >> 16, str);
 214              		.loc 1 38 0
 215 0006 000C     		lsr	r0, r0, #16	@ D.4277, val,
 216              	.LVL21:
 217 0008 FFF7FEFF 		bl	uint16ToASCIIHex	@
 218              	.LVL22:
  39:../../lpc11cx4-library/evt_lib/src/util.c **** 	uint16ToASCIIHex(val & 0xFFFF, str + 4);
 219              		.loc 1 39 0
 220 000c A8B2     		uxth	r0, r5	@ val, val
 221 000e 211D     		add	r1, r4, #4	@ D.4279, str,
 222 0010 FFF7FEFF 		bl	uint16ToASCIIHex	@
 223              	.LVL23:
  40:../../lpc11cx4-library/evt_lib/src/util.c **** }
 224              		.loc 1 40 0
 225              		@ sp needed	@
 226              	.LVL24:
 227              	.LVL25:
 228 0014 38BD     		pop	{r3, r4, r5, pc}
 229              		.cfi_endproc
 230              	.LFE3:
 231              		.size	uint32ToASCIIHex, .-uint32ToASCIIHex
 232              		.section	.text.getIDFromBytes,"ax",%progbits
 233              		.align	1
 234              		.global	getIDFromBytes
 235              		.code	16
 236              		.thumb_func
 237              		.type	getIDFromBytes, %function
 238              	getIDFromBytes:
 239              	.LFB4:
  41:../../lpc11cx4-library/evt_lib/src/util.c **** 
  42:../../lpc11cx4-library/evt_lib/src/util.c **** uint16_t getIDFromBytes(uint8_t high, uint8_t low) {
 240              		.loc 1 42 0
 241              		.cfi_startproc
ARM GAS  /var/folders/f9/8bk2lnw15zn4cbgn6wrnb4lm0000gn/T//ccZlgCQc.s 			page 6


 242              	.LVL26:
  43:../../lpc11cx4-library/evt_lib/src/util.c **** 	return (low >> 5) | (high << 3);
 243              		.loc 1 43 0
 244 0000 4909     		lsr	r1, r1, #5	@ tmp124, low,
 245              	.LVL27:
 246 0002 C000     		lsl	r0, r0, #3	@ D.4284, high,
 247              	.LVL28:
 248 0004 0843     		orr	r0, r1	@ tmp127, tmp124
  44:../../lpc11cx4-library/evt_lib/src/util.c **** }
 249              		.loc 1 44 0
 250              		@ sp needed	@
 251 0006 7047     		bx	lr
 252              		.cfi_endproc
 253              	.LFE4:
 254              		.size	getIDFromBytes, .-getIDFromBytes
 255              		.global	__aeabi_idiv
 256              		.global	__aeabi_idivmod
 257              		.section	.text.itoa,"ax",%progbits
 258              		.align	1
 259              		.global	itoa
 260              		.code	16
 261              		.thumb_func
 262              		.type	itoa, %function
 263              	itoa:
 264              	.LFB5:
  45:../../lpc11cx4-library/evt_lib/src/util.c **** 
  46:../../lpc11cx4-library/evt_lib/src/util.c **** char* itoa(int value, char* buffer, int base) {
 265              		.loc 1 46 0
 266              		.cfi_startproc
 267              	.LVL29:
 268 0000 F0B5     		push	{r4, r5, r6, r7, lr}	@
 269              		.cfi_def_cfa_offset 20
 270              		.cfi_offset 4, -20
 271              		.cfi_offset 5, -16
 272              		.cfi_offset 6, -12
 273              		.cfi_offset 7, -8
 274              		.cfi_offset 14, -4
  47:../../lpc11cx4-library/evt_lib/src/util.c **** 	static const char digits[] = "0123456789abcdef";
  48:../../lpc11cx4-library/evt_lib/src/util.c **** 
  49:../../lpc11cx4-library/evt_lib/src/util.c **** 	char* buffer_copy = buffer;
  50:../../lpc11cx4-library/evt_lib/src/util.c **** 	int32_t sign = 0;
  51:../../lpc11cx4-library/evt_lib/src/util.c **** 	int32_t quot, rem;
  52:../../lpc11cx4-library/evt_lib/src/util.c **** 
  53:../../lpc11cx4-library/evt_lib/src/util.c **** 	if ((base >= 2) && (base <= 16))				// is the base valid?
 275              		.loc 1 53 0
 276 0002 131C     		mov	r3, r2	@ D.4291, base
  46:../../lpc11cx4-library/evt_lib/src/util.c **** char* itoa(int value, char* buffer, int base) {
 277              		.loc 1 46 0
 278 0004 85B0     		sub	sp, sp, #20	@,,
 279              		.cfi_def_cfa_offset 40
 280              		.loc 1 53 0
 281 0006 023B     		sub	r3, r3, #2	@ D.4291,
  46:../../lpc11cx4-library/evt_lib/src/util.c **** char* itoa(int value, char* buffer, int base) {
 282              		.loc 1 46 0
 283 0008 041C     		mov	r4, r0	@ value, value
 284 000a 0F1C     		mov	r7, r1	@ buffer, buffer
 285 000c 0192     		str	r2, [sp, #4]	@ base, %sfp
ARM GAS  /var/folders/f9/8bk2lnw15zn4cbgn6wrnb4lm0000gn/T//ccZlgCQc.s 			page 7


 286 000e 0D1C     		mov	r5, r1	@ buffer, buffer
 287              		.loc 1 53 0
 288 0010 0E2B     		cmp	r3, #14	@ D.4291,
 289 0012 25D8     		bhi	.L17	@,
  50:../../lpc11cx4-library/evt_lib/src/util.c **** 	int32_t sign = 0;
 290              		.loc 1 50 0
 291 0014 0023     		mov	r3, #0	@,
 292 0016 0293     		str	r3, [sp, #8]	@, %sfp
  54:../../lpc11cx4-library/evt_lib/src/util.c **** 	{
  55:../../lpc11cx4-library/evt_lib/src/util.c **** 		if (base == 10 && (sign = value) < 0)// negative value and base == 10? store the copy (sign)
 293              		.loc 1 55 0
 294 0018 0A2A     		cmp	r2, #10	@ tmp3,
 295 001a 03D1     		bne	.L18	@,
 296              	.LVL30:
 297 001c C317     		asr	r3, r0, #31	@, value,
 298 001e C418     		add	r4, r0, r3	@ value, value,
 299 0020 0290     		str	r0, [sp, #8]	@ value, %sfp
 300 0022 5C40     		eor	r4, r3	@ value,
 301              	.LVL31:
 302              	.L18:
 303 0024 3E1C     		mov	r6, r7	@ buffer, buffer
 304              	.LVL32:
 305              	.L20:
  56:../../lpc11cx4-library/evt_lib/src/util.c **** 			value = -value;					// make it positive
  57:../../lpc11cx4-library/evt_lib/src/util.c **** 		do {
  58:../../lpc11cx4-library/evt_lib/src/util.c **** 			quot = value / base;				// calculate quotient and remainder
 306              		.loc 1 58 0 discriminator 1
 307 0026 0199     		ldr	r1, [sp, #4]	@, %sfp
 308 0028 201C     		mov	r0, r4	@, value
 309 002a FFF7FEFF 		bl	__aeabi_idiv	@
 310              	.LVL33:
  59:../../lpc11cx4-library/evt_lib/src/util.c **** 			rem = value % base;
 311              		.loc 1 59 0 discriminator 1
 312 002e 0199     		ldr	r1, [sp, #4]	@, %sfp
  58:../../lpc11cx4-library/evt_lib/src/util.c **** 			quot = value / base;				// calculate quotient and remainder
 313              		.loc 1 58 0 discriminator 1
 314 0030 0390     		str	r0, [sp, #12]	@, %sfp
 315              	.LVL34:
 316              		.loc 1 59 0 discriminator 1
 317 0032 201C     		mov	r0, r4	@, value
 318              	.LVL35:
 319 0034 FFF7FEFF 		bl	__aeabi_idivmod	@
 320              	.LVL36:
  60:../../lpc11cx4-library/evt_lib/src/util.c **** 			*buffer++ = digits[rem];		// append the remainder to the string
 321              		.loc 1 60 0 discriminator 1
 322 0038 0C4B     		ldr	r3, .L24	@ tmp130,
 323 003a 751C     		add	r5, r6, #1	@ buffer, buffer,
 324              	.LVL37:
 325 003c 5B5C     		ldrb	r3, [r3, r1]	@ tmp137, digits
 326 003e 3370     		strb	r3, [r6]	@ tmp137, MEM[base: _15, offset: 0B]
 327              	.LVL38:
  61:../../lpc11cx4-library/evt_lib/src/util.c **** 		} while ((value = quot));				// loop while there is something to convert
 328              		.loc 1 61 0 discriminator 1
 329 0040 039B     		ldr	r3, [sp, #12]	@, %sfp
 330 0042 002B     		cmp	r3, #0	@,
 331 0044 02D0     		beq	.L19	@,
  60:../../lpc11cx4-library/evt_lib/src/util.c **** 			*buffer++ = digits[rem];		// append the remainder to the string
ARM GAS  /var/folders/f9/8bk2lnw15zn4cbgn6wrnb4lm0000gn/T//ccZlgCQc.s 			page 8


 332              		.loc 1 60 0
 333 0046 2E1C     		mov	r6, r5	@ buffer, buffer
 334              		.loc 1 61 0
 335 0048 1C1C     		mov	r4, r3	@ value,
 336              	.LVL39:
 337 004a ECE7     		b	.L20	@
 338              	.LVL40:
 339              	.L19:
  62:../../lpc11cx4-library/evt_lib/src/util.c **** 
  63:../../lpc11cx4-library/evt_lib/src/util.c **** 		if (sign<0)							// was the value negative?
 340              		.loc 1 63 0
 341 004c 029B     		ldr	r3, [sp, #8]	@, %sfp
 342              	.LVL41:
 343 004e 002B     		cmp	r3, #0	@,
 344 0050 02DA     		bge	.L21	@,
  64:../../lpc11cx4-library/evt_lib/src/util.c **** 			*buffer++ = '-';					// append the sign
 345              		.loc 1 64 0
 346 0052 2D23     		mov	r3, #45	@ tmp139,
 347 0054 B51C     		add	r5, r6, #2	@ buffer, buffer,
 348              	.LVL42:
 349 0056 7370     		strb	r3, [r6, #1]	@ tmp139, MEM[(char *)buffer_33 + 1B]
 350              	.L21:
  65:../../lpc11cx4-library/evt_lib/src/util.c **** 
  66:../../lpc11cx4-library/evt_lib/src/util.c **** 		__reverse(buffer_copy, buffer-1);		// reverse the string
 351              		.loc 1 66 0
 352 0058 691E     		sub	r1, r5, #1	@ D.4292, buffer,
 353 005a 381C     		mov	r0, r7	@, buffer
 354 005c FFF7FEFF 		bl	__reverse	@
 355              	.LVL43:
 356              	.L17:
  67:../../lpc11cx4-library/evt_lib/src/util.c **** 	}
  68:../../lpc11cx4-library/evt_lib/src/util.c **** 
  69:../../lpc11cx4-library/evt_lib/src/util.c **** 	*buffer='\0';
 357              		.loc 1 69 0
 358 0060 0023     		mov	r3, #0	@ tmp142,
  70:../../lpc11cx4-library/evt_lib/src/util.c **** 	return buffer_copy;
  71:../../lpc11cx4-library/evt_lib/src/util.c **** }...
 359              		.loc 1 71 0
 360 0062 381C     		mov	r0, r7	@, buffer
  69:../../lpc11cx4-library/evt_lib/src/util.c **** 	*buffer='\0';
 361              		.loc 1 69 0
 362 0064 2B70     		strb	r3, [r5]	@ tmp142, *buffer_4
 363              		.loc 1 71 0
 364 0066 05B0     		add	sp, sp, #20	@,,
 365              		@ sp needed	@
 366              	.LVL44:
 367              	.LVL45:
 368 0068 F0BD     		pop	{r4, r5, r6, r7, pc}
 369              	.L25:
 370 006a C046     		.align	2
 371              	.L24:
 372 006c 00000000 		.word	.LANCHOR0
 373              		.cfi_endproc
 374              	.LFE5:
 375              		.size	itoa, .-itoa
 376              		.section	.rodata.digits.4181,"a",%progbits
 377              		.set	.LANCHOR0,. + 0
ARM GAS  /var/folders/f9/8bk2lnw15zn4cbgn6wrnb4lm0000gn/T//ccZlgCQc.s 			page 9


 378              		.type	digits.4181, %object
 379              		.size	digits.4181, 17
 380              	digits.4181:
 381 0000 30313233 		.ascii	"0123456789abcdef\000"
 381      34353637 
 381      38396162 
 381      63646566 
 381      00
 382              		.text
 383              	.Letext0:
 384              		.file 2 "/usr/local/Cellar/gcc-arm-none-eabi/20140805/arm-none-eabi/include/machine/_default_types
 385              		.file 3 "/usr/local/Cellar/gcc-arm-none-eabi/20140805/arm-none-eabi/include/stdint.h"