ARM GAS  /tmp/ccmtygTw.s 			page 1


   1              		.cpu cortex-m0
   2              		.fpu softvfp
   3              		.eabi_attribute 20, 1	@ Tag_ABI_FP_denormal
   4              		.eabi_attribute 21, 1	@ Tag_ABI_FP_exceptions
   5              		.eabi_attribute 23, 3	@ Tag_ABI_FP_number_model
   6              		.eabi_attribute 24, 1	@ Tag_ABI_align8_needed
   7              		.eabi_attribute 25, 1	@ Tag_ABI_align8_preserved
   8              		.eabi_attribute 26, 1	@ Tag_ABI_enum_size
   9              		.eabi_attribute 30, 4	@ Tag_ABI_optimization_goals
  10              		.eabi_attribute 34, 0	@ Tag_CPU_unaligned_access
  11              		.eabi_attribute 18, 4	@ Tag_ABI_PCS_wchar_t
  12              		.file	"util.c"
  13              	@ GNU C (GNU Tools for ARM Embedded Processors) version 4.9.3 20150529 (release) [ARM/embedded-4_9-
  14              	@	compiled by GNU C version 4.8.4, GMP version 5.1.3, MPFR version 3.1.2-p3, MPC version 1.0.1
  15              	@ GGC heuristics: --param ggc-min-expand=98 --param ggc-min-heapsize=128397
  16              	@ options passed:  -I . -I ../../lpc11cx4-library/lpc_chip_11cxx_lib/inc
  17              	@ -I ../../lpc11cx4-library/evt_lib/inc -I inc -imultilib armv6-m
  18              	@ -iprefix /usr/bin/../lib/gcc/arm-none-eabi/4.9.3/
  19              	@ -isysroot /usr/bin/../arm-none-eabi -MD bin/util.d -MF bin/util.d -MP
  20              	@ -MQ bin/util.o -D__USES_INITFINI__ -D CORE_M0
  21              	@ ../../lpc11cx4-library/evt_lib/src/util.c -mcpu=cortex-m0 -mthumb
  22              	@ -auxbase-strip bin/util.o -g -ggdb3 -Os -Wall -Wstrict-prototypes -Wextra
  23              	@ -std=gnu90 -ffunction-sections -fdata-sections -fverbose-asm
  24              	@ -fstack-usage
  25              	@ options enabled:  -faggressive-loop-optimizations -fauto-inc-dec
  26              	@ -fbranch-count-reg -fcaller-saves -fcombine-stack-adjustments -fcommon
  27              	@ -fcompare-elim -fcprop-registers -fcrossjumping -fcse-follow-jumps
  28              	@ -fdata-sections -fdefer-pop -fdelete-null-pointer-checks -fdevirtualize
  29              	@ -fdevirtualize-speculatively -fdwarf2-cfi-asm -fearly-inlining
  30              	@ -feliminate-unused-debug-types -fexpensive-optimizations
  31              	@ -fforward-propagate -ffunction-cse -ffunction-sections -fgcse -fgcse-lm
  32              	@ -fgnu-runtime -fgnu-unique -fguess-branch-probability
  33              	@ -fhoist-adjacent-loads -fident -fif-conversion -fif-conversion2
  34              	@ -findirect-inlining -finline -finline-atomics -finline-functions
  35              	@ -finline-functions-called-once -finline-small-functions -fipa-cp
  36              	@ -fipa-profile -fipa-pure-const -fipa-reference -fipa-sra
  37              	@ -fira-hoist-pressure -fira-share-save-slots -fira-share-spill-slots
  38              	@ -fisolate-erroneous-paths-dereference -fivopts -fkeep-static-consts
  39              	@ -fleading-underscore -flifetime-dse -fmath-errno -fmerge-constants
  40              	@ -fmerge-debug-strings -fomit-frame-pointer -foptimize-sibling-calls
  41              	@ -fpartial-inlining -fpeephole -fpeephole2 -fprefetch-loop-arrays
  42              	@ -freg-struct-return -freorder-blocks -freorder-functions
  43              	@ -frerun-cse-after-loop -fsched-critical-path-heuristic
  44              	@ -fsched-dep-count-heuristic -fsched-group-heuristic -fsched-interblock
  45              	@ -fsched-last-insn-heuristic -fsched-pressure -fsched-rank-heuristic
  46              	@ -fsched-spec -fsched-spec-insn-heuristic -fsched-stalled-insns-dep
  47              	@ -fschedule-insns2 -fsection-anchors -fshow-column -fshrink-wrap
  48              	@ -fsigned-zeros -fsplit-ivs-in-unroller -fsplit-wide-types
  49              	@ -fstrict-aliasing -fstrict-overflow -fstrict-volatile-bitfields
  50              	@ -fsync-libcalls -fthread-jumps -ftoplevel-reorder -ftrapping-math
  51              	@ -ftree-bit-ccp -ftree-builtin-call-dce -ftree-ccp -ftree-ch
  52              	@ -ftree-coalesce-vars -ftree-copy-prop -ftree-copyrename -ftree-cselim
  53              	@ -ftree-dce -ftree-dominator-opts -ftree-dse -ftree-forwprop -ftree-fre
  54              	@ -ftree-loop-if-convert -ftree-loop-im -ftree-loop-ivcanon
  55              	@ -ftree-loop-optimize -ftree-parallelize-loops= -ftree-phiprop -ftree-pre
  56              	@ -ftree-pta -ftree-reassoc -ftree-scev-cprop -ftree-sink -ftree-slsr
  57              	@ -ftree-sra -ftree-switch-conversion -ftree-tail-merge -ftree-ter
ARM GAS  /tmp/ccmtygTw.s 			page 2


  58              	@ -ftree-vrp -funit-at-a-time -fvar-tracking -fvar-tracking-assignments
  59              	@ -fverbose-asm -fzero-initialized-in-bss -mlittle-endian -mlra
  60              	@ -mpic-data-is-text-relative -msched-prolog -mthumb
  61              	@ -mvectorize-with-neon-quad
  62              	
  63              		.text
  64              	.Ltext0:
  65              		.cfi_sections	.debug_frame
  66              		.section	.text.__reverse,"ax",%progbits
  67              		.align	1
  68              		.global	__reverse
  69              		.code	16
  70              		.thumb_func
  71              		.type	__reverse, %function
  72              	__reverse:
  73              	.LFB0:
  74              		.file 1 "../../lpc11cx4-library/evt_lib/src/util.c"
   1:../../lpc11cx4-library/evt_lib/src/util.c **** #include "util.h"
   2:../../lpc11cx4-library/evt_lib/src/util.c **** 
   3:../../lpc11cx4-library/evt_lib/src/util.c **** void __reverse(char* begin,char* end) {
  75              		.loc 1 3 0
  76              		.cfi_startproc
  77              	.LVL0:
  78              	.L2:
   4:../../lpc11cx4-library/evt_lib/src/util.c **** 	char temp;
   5:../../lpc11cx4-library/evt_lib/src/util.c **** 
   6:../../lpc11cx4-library/evt_lib/src/util.c **** 	while (end  >begin)
  79              		.loc 1 6 0
  80 0000 8142     		cmp	r1, r0	@ end, ivtmp.8
  81 0002 06D9     		bls	.L5	@,
   7:../../lpc11cx4-library/evt_lib/src/util.c **** 	{
   8:../../lpc11cx4-library/evt_lib/src/util.c **** 		temp = *end;
  82              		.loc 1 8 0
  83 0004 0B78     		ldrb	r3, [r1]	@ temp, MEM[base: end_2, offset: 0B]
  84              	.LVL1:
   9:../../lpc11cx4-library/evt_lib/src/util.c **** 		*end-- = *begin;
  85              		.loc 1 9 0
  86 0006 0278     		ldrb	r2, [r0]	@ D.4191, MEM[base: begin_1, offset: 0B]
  87 0008 0139     		sub	r1, r1, #1	@ end,
  88              	.LVL2:
  89 000a 4A70     		strb	r2, [r1, #1]	@ D.4191, MEM[base: end_8, offset: 1B]
  90              	.LVL3:
  10:../../lpc11cx4-library/evt_lib/src/util.c **** 		*begin++ = temp;
  91              		.loc 1 10 0
  92 000c 0370     		strb	r3, [r0]	@ temp, MEM[base: begin_1, offset: 0B]
  93 000e 0130     		add	r0, r0, #1	@ ivtmp.8,
  94              	.LVL4:
  95 0010 F6E7     		b	.L2	@
  96              	.LVL5:
  97              	.L5:
  11:../../lpc11cx4-library/evt_lib/src/util.c **** 	}
  12:../../lpc11cx4-library/evt_lib/src/util.c **** }
  98              		.loc 1 12 0
  99              		@ sp needed	@
 100 0012 7047     		bx	lr
 101              		.cfi_endproc
 102              	.LFE0:
ARM GAS  /tmp/ccmtygTw.s 			page 3


 103              		.size	__reverse, .-__reverse
 104              		.text
 105              	.Letext0:
 106              		.section	.debug_info,"",%progbits
 107              	.Ldebug_info0:
 108 0000 C3000000 		.4byte	0xc3
 109 0004 0400     		.2byte	0x4
 110 0006 00000000 		.4byte	.Ldebug_abbrev0
 111 000a 04       		.byte	0x4
 112 000b 01       		.uleb128 0x1
 113 000c 212F0000 		.4byte	.LASF501
 114 0010 01       		.byte	0x1
 115 0011 C2270000 		.4byte	.LASF502
 116 0015 C92C0000 		.4byte	.LASF503
 117 0019 00000000 		.4byte	.Ldebug_ranges0+0
 118 001d 00000000 		.4byte	0
 119 0021 00000000 		.4byte	.Ldebug_line0
 120 0025 00000000 		.4byte	.Ldebug_macro0
 121 0029 02       		.uleb128 0x2
 122 002a 01       		.byte	0x1
 123 002b 06       		.byte	0x6
 124 002c 3F090000 		.4byte	.LASF490
 125 0030 02       		.uleb128 0x2
 126 0031 01       		.byte	0x1
 127 0032 08       		.byte	0x8
 128 0033 20290000 		.4byte	.LASF491
 129 0037 02       		.uleb128 0x2
 130 0038 02       		.byte	0x2
 131 0039 05       		.byte	0x5
 132 003a E6200000 		.4byte	.LASF492
 133 003e 02       		.uleb128 0x2
 134 003f 02       		.byte	0x2
 135 0040 07       		.byte	0x7
 136 0041 BD2D0000 		.4byte	.LASF493
 137 0045 02       		.uleb128 0x2
 138 0046 04       		.byte	0x4
 139 0047 05       		.byte	0x5
 140 0048 6E210000 		.4byte	.LASF494
 141 004c 02       		.uleb128 0x2
 142 004d 04       		.byte	0x4
 143 004e 07       		.byte	0x7
 144 004f 60260000 		.4byte	.LASF495
 145 0053 02       		.uleb128 0x2
 146 0054 08       		.byte	0x8
 147 0055 05       		.byte	0x5
 148 0056 CD170000 		.4byte	.LASF496
 149 005a 02       		.uleb128 0x2
 150 005b 08       		.byte	0x8
 151 005c 07       		.byte	0x7
 152 005d CA0B0000 		.4byte	.LASF497
 153 0061 03       		.uleb128 0x3
 154 0062 04       		.byte	0x4
 155 0063 05       		.byte	0x5
 156 0064 696E7400 		.ascii	"int\000"
 157 0068 02       		.uleb128 0x2
 158 0069 04       		.byte	0x4
 159 006a 07       		.byte	0x7
ARM GAS  /tmp/ccmtygTw.s 			page 4


 160 006b CA030000 		.4byte	.LASF498
 161 006f 02       		.uleb128 0x2
 162 0070 01       		.byte	0x1
 163 0071 08       		.byte	0x8
 164 0072 FD1F0000 		.4byte	.LASF371
 165 0076 02       		.uleb128 0x2
 166 0077 01       		.byte	0x1
 167 0078 02       		.byte	0x2
 168 0079 761D0000 		.4byte	.LASF499
 169 007d 04       		.uleb128 0x4
 170 007e 76160000 		.4byte	.LASF504
 171 0082 01       		.byte	0x1
 172 0083 03       		.byte	0x3
 173 0084 00000000 		.4byte	.LFB0
 174 0088 14000000 		.4byte	.LFE0-.LFB0
 175 008c 01       		.uleb128 0x1
 176 008d 9C       		.byte	0x9c
 177 008e C0000000 		.4byte	0xc0
 178 0092 05       		.uleb128 0x5
 179 0093 D02D0000 		.4byte	.LASF500
 180 0097 01       		.byte	0x1
 181 0098 03       		.byte	0x3
 182 0099 C0000000 		.4byte	0xc0
 183 009d 00000000 		.4byte	.LLST0
 184 00a1 06       		.uleb128 0x6
 185 00a2 656E6400 		.ascii	"end\000"
 186 00a6 01       		.byte	0x1
 187 00a7 03       		.byte	0x3
 188 00a8 C0000000 		.4byte	0xc0
 189 00ac 2B000000 		.4byte	.LLST1
 190 00b0 07       		.uleb128 0x7
 191 00b1 E7010000 		.4byte	.LASF505
 192 00b5 01       		.byte	0x1
 193 00b6 04       		.byte	0x4
 194 00b7 6F000000 		.4byte	0x6f
 195 00bb 49000000 		.4byte	.LLST2
 196 00bf 00       		.byte	0
 197 00c0 08       		.uleb128 0x8
 198 00c1 04       		.byte	0x4
 199 00c2 6F000000 		.4byte	0x6f
 200 00c6 00       		.byte	0
 201              		.section	.debug_abbrev,"",%progbits
 202              	.Ldebug_abbrev0:
 203 0000 01       		.uleb128 0x1
 204 0001 11       		.uleb128 0x11
 205 0002 01       		.byte	0x1
 206 0003 25       		.uleb128 0x25
 207 0004 0E       		.uleb128 0xe
 208 0005 13       		.uleb128 0x13
 209 0006 0B       		.uleb128 0xb
 210 0007 03       		.uleb128 0x3
 211 0008 0E       		.uleb128 0xe
 212 0009 1B       		.uleb128 0x1b
 213 000a 0E       		.uleb128 0xe
 214 000b 55       		.uleb128 0x55
 215 000c 17       		.uleb128 0x17
 216 000d 11       		.uleb128 0x11
ARM GAS  /tmp/ccmtygTw.s 			page 5


 217 000e 01       		.uleb128 0x1
 218 000f 10       		.uleb128 0x10
 219 0010 17       		.uleb128 0x17
 220 0011 9942     		.uleb128 0x2119
 221 0013 17       		.uleb128 0x17
 222 0014 00       		.byte	0
 223 0015 00       		.byte	0
 224 0016 02       		.uleb128 0x2
 225 0017 24       		.uleb128 0x24
 226 0018 00       		.byte	0
 227 0019 0B       		.uleb128 0xb
 228 001a 0B       		.uleb128 0xb
 229 001b 3E       		.uleb128 0x3e
 230 001c 0B       		.uleb128 0xb
 231 001d 03       		.uleb128 0x3
 232 001e 0E       		.uleb128 0xe
 233 001f 00       		.byte	0
 234 0020 00       		.byte	0
 235 0021 03       		.uleb128 0x3
 236 0022 24       		.uleb128 0x24
 237 0023 00       		.byte	0
 238 0024 0B       		.uleb128 0xb
 239 0025 0B       		.uleb128 0xb
 240 0026 3E       		.uleb128 0x3e
 241 0027 0B       		.uleb128 0xb
 242 0028 03       		.uleb128 0x3
 243 0029 08       		.uleb128 0x8
 244 002a 00       		.byte	0
 245 002b 00       		.byte	0
 246 002c 04       		.uleb128 0x4
 247 002d 2E       		.uleb128 0x2e
 248 002e 01       		.byte	0x1
 249 002f 3F       		.uleb128 0x3f
 250 0030 19       		.uleb128 0x19
 251 0031 03       		.uleb128 0x3
 252 0032 0E       		.uleb128 0xe
 253 0033 3A       		.uleb128 0x3a
 254 0034 0B       		.uleb128 0xb
 255 0035 3B       		.uleb128 0x3b
 256 0036 0B       		.uleb128 0xb
 257 0037 27       		.uleb128 0x27
 258 0038 19       		.uleb128 0x19
 259 0039 11       		.uleb128 0x11
 260 003a 01       		.uleb128 0x1
 261 003b 12       		.uleb128 0x12
 262 003c 06       		.uleb128 0x6
 263 003d 40       		.uleb128 0x40
 264 003e 18       		.uleb128 0x18
 265 003f 9742     		.uleb128 0x2117
 266 0041 19       		.uleb128 0x19
 267 0042 01       		.uleb128 0x1
 268 0043 13       		.uleb128 0x13
 269 0044 00       		.byte	0
 270 0045 00       		.byte	0
 271 0046 05       		.uleb128 0x5
 272 0047 05       		.uleb128 0x5
 273 0048 00       		.byte	0
ARM GAS  /tmp/ccmtygTw.s 			page 6


 274 0049 03       		.uleb128 0x3
 275 004a 0E       		.uleb128 0xe
 276 004b 3A       		.uleb128 0x3a
 277 004c 0B       		.uleb128 0xb
 278 004d 3B       		.uleb128 0x3b
 279 004e 0B       		.uleb128 0xb
 280 004f 49       		.uleb128 0x49
 281 0050 13       		.uleb128 0x13
 282 0051 02       		.uleb128 0x2
 283 0052 17       		.uleb128 0x17
 284 0053 00       		.byte	0
 285 0054 00       		.byte	0
 286 0055 06       		.uleb128 0x6
 287 0056 05       		.uleb128 0x5
 288 0057 00       		.byte	0
 289 0058 03       		.uleb128 0x3
 290 0059 08       		.uleb128 0x8
 291 005a 3A       		.uleb128 0x3a
 292 005b 0B       		.uleb128 0xb
 293 005c 3B       		.uleb128 0x3b
 294 005d 0B       		.uleb128 0xb
 295 005e 49       		.uleb128 0x49
 296 005f 13       		.uleb128 0x13
 297 0060 02       		.uleb128 0x2
 298 0061 17       		.uleb128 0x17
 299 0062 00       		.byte	0
 300 0063 00       		.byte	0
 301 0064 07       		.uleb128 0x7
 302 0065 34       		.uleb128 0x34
 303 0066 00       		.byte	0
 304 0067 03       		.uleb128 0x3
 305 0068 0E       		.uleb128 0xe
 306 0069 3A       		.uleb128 0x3a
 307 006a 0B       		.uleb128 0xb
 308 006b 3B       		.uleb128 0x3b
 309 006c 0B       		.uleb128 0xb
 310 006d 49       		.uleb128 0x49
 311 006e 13       		.uleb128 0x13
 312 006f 02       		.uleb128 0x2
 313 0070 17       		.uleb128 0x17
 314 0071 00       		.byte	0
 315 0072 00       		.byte	0
 316 0073 08       		.uleb128 0x8
 317 0074 0F       		.uleb128 0xf
 318 0075 00       		.byte	0
 319 0076 0B       		.uleb128 0xb
 320 0077 0B       		.uleb128 0xb
 321 0078 49       		.uleb128 0x49
 322 0079 13       		.uleb128 0x13
 323 007a 00       		.byte	0
 324 007b 00       		.byte	0
 325 007c 00       		.byte	0
 326              		.section	.debug_loc,"",%progbits
 327              	.Ldebug_loc0:
 328              	.LLST0:
 329 0000 00000000 		.4byte	.LVL0
 330 0004 0C000000 		.4byte	.LVL3
ARM GAS  /tmp/ccmtygTw.s 			page 7


 331 0008 0100     		.2byte	0x1
 332 000a 50       		.byte	0x50
 333 000b 0C000000 		.4byte	.LVL3
 334 000f 10000000 		.4byte	.LVL4
 335 0013 0300     		.2byte	0x3
 336 0015 70       		.byte	0x70
 337 0016 01       		.sleb128 1
 338 0017 9F       		.byte	0x9f
 339 0018 10000000 		.4byte	.LVL4
 340 001c 14000000 		.4byte	.LFE0
 341 0020 0100     		.2byte	0x1
 342 0022 50       		.byte	0x50
 343 0023 00000000 		.4byte	0
 344 0027 00000000 		.4byte	0
 345              	.LLST1:
 346 002b 00000000 		.4byte	.LVL0
 347 002f 0A000000 		.4byte	.LVL2
 348 0033 0100     		.2byte	0x1
 349 0035 51       		.byte	0x51
 350 0036 0A000000 		.4byte	.LVL2
 351 003a 14000000 		.4byte	.LFE0
 352 003e 0100     		.2byte	0x1
 353 0040 51       		.byte	0x51
 354 0041 00000000 		.4byte	0
 355 0045 00000000 		.4byte	0
 356              	.LLST2:
 357 0049 06000000 		.4byte	.LVL1
 358 004d 12000000 		.4byte	.LVL5
 359 0051 0100     		.2byte	0x1
 360 0053 53       		.byte	0x53
 361 0054 00000000 		.4byte	0
 362 0058 00000000 		.4byte	0
 363              		.section	.debug_aranges,"",%progbits
 364 0000 1C000000 		.4byte	0x1c
 365 0004 0200     		.2byte	0x2
 366 0006 00000000 		.4byte	.Ldebug_info0
 367 000a 04       		.byte	0x4
 368 000b 00       		.byte	0
 369 000c 0000     		.2byte	0
 370 000e 0000     		.2byte	0
 371 0010 00000000 		.4byte	.LFB0
 372 0014 14000000 		.4byte	.LFE0-.LFB0
 373 0018 00000000 		.4byte	0
 374 001c 00000000 		.4byte	0
 375              		.section	.debug_ranges,"",%progbits
 376              	.Ldebug_ranges0:
 377 0000 00000000 		.4byte	.LFB0
 378 0004 14000000 		.4byte	.LFE0
 379 0008 00000000 		.4byte	0
 380 000c 00000000 		.4byte	0
 381              		.section	.debug_macro,"",%progbits
 382              	.Ldebug_macro0:
 383 0000 0400     		.2byte	0x4
 384 0002 02       		.byte	0x2
 385 0003 00000000 		.4byte	.Ldebug_line0
 386 0007 07       		.byte	0x7
 387 0008 00000000 		.4byte	.Ldebug_macro1
ARM GAS  /tmp/ccmtygTw.s 			page 8


 388 000c 03       		.byte	0x3
 389 000d 00       		.uleb128 0
 390 000e 01       		.uleb128 0x1
 391              		.file 2 "../../lpc11cx4-library/evt_lib/inc/util.h"
 392 000f 03       		.byte	0x3
 393 0010 01       		.uleb128 0x1
 394 0011 02       		.uleb128 0x2
 395 0012 05       		.byte	0x5
 396 0013 02       		.uleb128 0x2
 397 0014 25100000 		.4byte	.LASF346
 398              		.file 3 "../../lpc11cx4-library/lpc_chip_11cxx_lib/inc/lpc_types.h"
 399 0018 03       		.byte	0x3
 400 0019 04       		.uleb128 0x4
 401 001a 03       		.uleb128 0x3
 402 001b 05       		.byte	0x5
 403 001c 21       		.uleb128 0x21
 404 001d 50260000 		.4byte	.LASF347
 405              		.file 4 "/usr/lib/gcc/arm-none-eabi/4.9.3/include/stdint.h"
 406 0021 03       		.byte	0x3
 407 0022 23       		.uleb128 0x23
 408 0023 04       		.uleb128 0x4
 409              		.file 5 "/usr/arm-none-eabi/include/stdint.h"
 410 0024 03       		.byte	0x3
 411 0025 09       		.uleb128 0x9
 412 0026 05       		.uleb128 0x5
 413 0027 05       		.byte	0x5
 414 0028 0A       		.uleb128 0xa
 415 0029 7F0F0000 		.4byte	.LASF348
 416              		.file 6 "/usr/arm-none-eabi/include/machine/_default_types.h"
 417 002d 03       		.byte	0x3
 418 002e 0C       		.uleb128 0xc
 419 002f 06       		.uleb128 0x6
 420 0030 05       		.byte	0x5
 421 0031 06       		.uleb128 0x6
 422 0032 4E170000 		.4byte	.LASF349
 423              		.file 7 "/usr/arm-none-eabi/include/sys/features.h"
 424 0036 03       		.byte	0x3
 425 0037 08       		.uleb128 0x8
 426 0038 07       		.uleb128 0x7
 427 0039 07       		.byte	0x7
 428 003a 00000000 		.4byte	.Ldebug_macro2
 429 003e 04       		.byte	0x4
 430 003f 07       		.byte	0x7
 431 0040 00000000 		.4byte	.Ldebug_macro3
 432 0044 04       		.byte	0x4
 433              		.file 8 "/usr/arm-none-eabi/include/sys/_intsup.h"
 434 0045 03       		.byte	0x3
 435 0046 0D       		.uleb128 0xd
 436 0047 08       		.uleb128 0x8
 437 0048 07       		.byte	0x7
 438 0049 00000000 		.4byte	.Ldebug_macro4
 439 004d 04       		.byte	0x4
 440              		.file 9 "/usr/arm-none-eabi/include/sys/_stdint.h"
 441 004e 03       		.byte	0x3
 442 004f 0E       		.uleb128 0xe
 443 0050 09       		.uleb128 0x9
 444 0051 07       		.byte	0x7
ARM GAS  /tmp/ccmtygTw.s 			page 9


 445 0052 00000000 		.4byte	.Ldebug_macro5
 446 0056 04       		.byte	0x4
 447 0057 07       		.byte	0x7
 448 0058 00000000 		.4byte	.Ldebug_macro6
 449 005c 04       		.byte	0x4
 450 005d 05       		.byte	0x5
 451 005e 0D       		.uleb128 0xd
 452 005f 7B090000 		.4byte	.LASF467
 453 0063 04       		.byte	0x4
 454              		.file 10 "/usr/lib/gcc/arm-none-eabi/4.9.3/include/stdbool.h"
 455 0064 03       		.byte	0x3
 456 0065 24       		.uleb128 0x24
 457 0066 0A       		.uleb128 0xa
 458 0067 07       		.byte	0x7
 459 0068 00000000 		.4byte	.Ldebug_macro7
 460 006c 04       		.byte	0x4
 461 006d 07       		.byte	0x7
 462 006e 00000000 		.4byte	.Ldebug_macro8
 463 0072 04       		.byte	0x4
 464 0073 05       		.byte	0x5
 465 0074 05       		.uleb128 0x5
 466 0075 98190000 		.4byte	.LASF489
 467 0079 04       		.byte	0x4
 468 007a 04       		.byte	0x4
 469 007b 00       		.byte	0
 470              		.section	.debug_macro,"G",%progbits,wm4.0.d60539c8b2f01ca1b851fc35675107cd,comdat
 471              	.Ldebug_macro1:
 472 0000 0400     		.2byte	0x4
 473 0002 00       		.byte	0
 474 0003 05       		.byte	0x5
 475 0004 00       		.uleb128 0
 476 0005 481A0000 		.4byte	.LASF0
 477 0009 05       		.byte	0x5
 478 000a 00       		.uleb128 0
 479 000b 51270000 		.4byte	.LASF1
 480 000f 05       		.byte	0x5
 481 0010 00       		.uleb128 0
 482 0011 80040000 		.4byte	.LASF2
 483 0015 05       		.byte	0x5
 484 0016 00       		.uleb128 0
 485 0017 14120000 		.4byte	.LASF3
 486 001b 05       		.byte	0x5
 487 001c 00       		.uleb128 0
 488 001d DD1B0000 		.4byte	.LASF4
 489 0021 05       		.byte	0x5
 490 0022 00       		.uleb128 0
 491 0023 A20A0000 		.4byte	.LASF5
 492 0027 05       		.byte	0x5
 493 0028 00       		.uleb128 0
 494 0029 89070000 		.4byte	.LASF6
 495 002d 05       		.byte	0x5
 496 002e 00       		.uleb128 0
 497 002f 0E060000 		.4byte	.LASF7
 498 0033 05       		.byte	0x5
 499 0034 00       		.uleb128 0
 500 0035 C5190000 		.4byte	.LASF8
 501 0039 05       		.byte	0x5
ARM GAS  /tmp/ccmtygTw.s 			page 10


 502 003a 00       		.uleb128 0
 503 003b 52050000 		.4byte	.LASF9
 504 003f 05       		.byte	0x5
 505 0040 00       		.uleb128 0
 506 0041 80300000 		.4byte	.LASF10
 507 0045 05       		.byte	0x5
 508 0046 00       		.uleb128 0
 509 0047 A61A0000 		.4byte	.LASF11
 510 004b 05       		.byte	0x5
 511 004c 00       		.uleb128 0
 512 004d 3D270000 		.4byte	.LASF12
 513 0051 05       		.byte	0x5
 514 0052 00       		.uleb128 0
 515 0053 D4050000 		.4byte	.LASF13
 516 0057 05       		.byte	0x5
 517 0058 00       		.uleb128 0
 518 0059 54180000 		.4byte	.LASF14
 519 005d 05       		.byte	0x5
 520 005e 00       		.uleb128 0
 521 005f 452C0000 		.4byte	.LASF15
 522 0063 05       		.byte	0x5
 523 0064 00       		.uleb128 0
 524 0065 531A0000 		.4byte	.LASF16
 525 0069 05       		.byte	0x5
 526 006a 00       		.uleb128 0
 527 006b E6230000 		.4byte	.LASF17
 528 006f 05       		.byte	0x5
 529 0070 00       		.uleb128 0
 530 0071 48060000 		.4byte	.LASF18
 531 0075 05       		.byte	0x5
 532 0076 00       		.uleb128 0
 533 0077 8A0F0000 		.4byte	.LASF19
 534 007b 05       		.byte	0x5
 535 007c 00       		.uleb128 0
 536 007d B11B0000 		.4byte	.LASF20
 537 0081 05       		.byte	0x5
 538 0082 00       		.uleb128 0
 539 0083 67040000 		.4byte	.LASF21
 540 0087 05       		.byte	0x5
 541 0088 00       		.uleb128 0
 542 0089 30040000 		.4byte	.LASF22
 543 008d 05       		.byte	0x5
 544 008e 00       		.uleb128 0
 545 008f DB170000 		.4byte	.LASF23
 546 0093 05       		.byte	0x5
 547 0094 00       		.uleb128 0
 548 0095 AE100000 		.4byte	.LASF24
 549 0099 05       		.byte	0x5
 550 009a 00       		.uleb128 0
 551 009b C60E0000 		.4byte	.LASF25
 552 009f 05       		.byte	0x5
 553 00a0 00       		.uleb128 0
 554 00a1 8B040000 		.4byte	.LASF26
 555 00a5 05       		.byte	0x5
 556 00a6 00       		.uleb128 0
 557 00a7 D51F0000 		.4byte	.LASF27
 558 00ab 05       		.byte	0x5
ARM GAS  /tmp/ccmtygTw.s 			page 11


 559 00ac 00       		.uleb128 0
 560 00ad B3060000 		.4byte	.LASF28
 561 00b1 05       		.byte	0x5
 562 00b2 00       		.uleb128 0
 563 00b3 A01D0000 		.4byte	.LASF29
 564 00b7 05       		.byte	0x5
 565 00b8 00       		.uleb128 0
 566 00b9 20250000 		.4byte	.LASF30
 567 00bd 05       		.byte	0x5
 568 00be 00       		.uleb128 0
 569 00bf A12A0000 		.4byte	.LASF31
 570 00c3 05       		.byte	0x5
 571 00c4 00       		.uleb128 0
 572 00c5 CD2F0000 		.4byte	.LASF32
 573 00c9 05       		.byte	0x5
 574 00ca 00       		.uleb128 0
 575 00cb 511B0000 		.4byte	.LASF33
 576 00cf 05       		.byte	0x5
 577 00d0 00       		.uleb128 0
 578 00d1 FC1A0000 		.4byte	.LASF34
 579 00d5 05       		.byte	0x5
 580 00d6 00       		.uleb128 0
 581 00d7 562C0000 		.4byte	.LASF35
 582 00db 05       		.byte	0x5
 583 00dc 00       		.uleb128 0
 584 00dd 46290000 		.4byte	.LASF36
 585 00e1 05       		.byte	0x5
 586 00e2 00       		.uleb128 0
 587 00e3 44040000 		.4byte	.LASF37
 588 00e7 05       		.byte	0x5
 589 00e8 00       		.uleb128 0
 590 00e9 881E0000 		.4byte	.LASF38
 591 00ed 05       		.byte	0x5
 592 00ee 00       		.uleb128 0
 593 00ef 2D310000 		.4byte	.LASF39
 594 00f3 05       		.byte	0x5
 595 00f4 00       		.uleb128 0
 596 00f5 28220000 		.4byte	.LASF40
 597 00f9 05       		.byte	0x5
 598 00fa 00       		.uleb128 0
 599 00fb 92050000 		.4byte	.LASF41
 600 00ff 05       		.byte	0x5
 601 0100 00       		.uleb128 0
 602 0101 36210000 		.4byte	.LASF42
 603 0105 05       		.byte	0x5
 604 0106 00       		.uleb128 0
 605 0107 AB120000 		.4byte	.LASF43
 606 010b 05       		.byte	0x5
 607 010c 00       		.uleb128 0
 608 010d FD230000 		.4byte	.LASF44
 609 0111 05       		.byte	0x5
 610 0112 00       		.uleb128 0
 611 0113 F1110000 		.4byte	.LASF45
 612 0117 05       		.byte	0x5
 613 0118 00       		.uleb128 0
 614 0119 E3240000 		.4byte	.LASF46
 615 011d 05       		.byte	0x5
ARM GAS  /tmp/ccmtygTw.s 			page 12


 616 011e 00       		.uleb128 0
 617 011f 4C2D0000 		.4byte	.LASF47
 618 0123 05       		.byte	0x5
 619 0124 00       		.uleb128 0
 620 0125 7D120000 		.4byte	.LASF48
 621 0129 05       		.byte	0x5
 622 012a 00       		.uleb128 0
 623 012b 57160000 		.4byte	.LASF49
 624 012f 05       		.byte	0x5
 625 0130 00       		.uleb128 0
 626 0131 2F0C0000 		.4byte	.LASF50
 627 0135 05       		.byte	0x5
 628 0136 00       		.uleb128 0
 629 0137 B61E0000 		.4byte	.LASF51
 630 013b 05       		.byte	0x5
 631 013c 00       		.uleb128 0
 632 013d 11070000 		.4byte	.LASF52
 633 0141 05       		.byte	0x5
 634 0142 00       		.uleb128 0
 635 0143 082E0000 		.4byte	.LASF53
 636 0147 05       		.byte	0x5
 637 0148 00       		.uleb128 0
 638 0149 F21E0000 		.4byte	.LASF54
 639 014d 05       		.byte	0x5
 640 014e 00       		.uleb128 0
 641 014f 17050000 		.4byte	.LASF55
 642 0153 05       		.byte	0x5
 643 0154 00       		.uleb128 0
 644 0155 3D0D0000 		.4byte	.LASF56
 645 0159 05       		.byte	0x5
 646 015a 00       		.uleb128 0
 647 015b B6110000 		.4byte	.LASF57
 648 015f 05       		.byte	0x5
 649 0160 00       		.uleb128 0
 650 0161 032C0000 		.4byte	.LASF58
 651 0165 05       		.byte	0x5
 652 0166 00       		.uleb128 0
 653 0167 0F090000 		.4byte	.LASF59
 654 016b 05       		.byte	0x5
 655 016c 00       		.uleb128 0
 656 016d E7140000 		.4byte	.LASF60
 657 0171 05       		.byte	0x5
 658 0172 00       		.uleb128 0
 659 0173 7A0D0000 		.4byte	.LASF61
 660 0177 05       		.byte	0x5
 661 0178 00       		.uleb128 0
 662 0179 362A0000 		.4byte	.LASF62
 663 017d 05       		.byte	0x5
 664 017e 00       		.uleb128 0
 665 017f F4280000 		.4byte	.LASF63
 666 0183 05       		.byte	0x5
 667 0184 00       		.uleb128 0
 668 0185 97290000 		.4byte	.LASF64
 669 0189 05       		.byte	0x5
 670 018a 00       		.uleb128 0
 671 018b A1090000 		.4byte	.LASF65
 672 018f 05       		.byte	0x5
ARM GAS  /tmp/ccmtygTw.s 			page 13


 673 0190 00       		.uleb128 0
 674 0191 EC270000 		.4byte	.LASF66
 675 0195 05       		.byte	0x5
 676 0196 00       		.uleb128 0
 677 0197 EA070000 		.4byte	.LASF67
 678 019b 05       		.byte	0x5
 679 019c 00       		.uleb128 0
 680 019d 51110000 		.4byte	.LASF68
 681 01a1 05       		.byte	0x5
 682 01a2 00       		.uleb128 0
 683 01a3 A0200000 		.4byte	.LASF69
 684 01a7 05       		.byte	0x5
 685 01a8 00       		.uleb128 0
 686 01a9 C7180000 		.4byte	.LASF70
 687 01ad 05       		.byte	0x5
 688 01ae 00       		.uleb128 0
 689 01af E3050000 		.4byte	.LASF71
 690 01b3 05       		.byte	0x5
 691 01b4 00       		.uleb128 0
 692 01b5 062B0000 		.4byte	.LASF72
 693 01b9 05       		.byte	0x5
 694 01ba 00       		.uleb128 0
 695 01bb 1B000000 		.4byte	.LASF73
 696 01bf 05       		.byte	0x5
 697 01c0 00       		.uleb128 0
 698 01c1 74000000 		.4byte	.LASF74
 699 01c5 05       		.byte	0x5
 700 01c6 00       		.uleb128 0
 701 01c7 BC2B0000 		.4byte	.LASF75
 702 01cb 05       		.byte	0x5
 703 01cc 00       		.uleb128 0
 704 01cd 33200000 		.4byte	.LASF76
 705 01d1 05       		.byte	0x5
 706 01d2 00       		.uleb128 0
 707 01d3 2E1C0000 		.4byte	.LASF77
 708 01d7 05       		.byte	0x5
 709 01d8 00       		.uleb128 0
 710 01d9 00000000 		.4byte	.LASF78
 711 01dd 05       		.byte	0x5
 712 01de 00       		.uleb128 0
 713 01df 65050000 		.4byte	.LASF79
 714 01e3 05       		.byte	0x5
 715 01e4 00       		.uleb128 0
 716 01e5 79270000 		.4byte	.LASF80
 717 01e9 05       		.byte	0x5
 718 01ea 00       		.uleb128 0
 719 01eb 842C0000 		.4byte	.LASF81
 720 01ef 05       		.byte	0x5
 721 01f0 00       		.uleb128 0
 722 01f1 15270000 		.4byte	.LASF82
 723 01f5 05       		.byte	0x5
 724 01f6 00       		.uleb128 0
 725 01f7 83060000 		.4byte	.LASF83
 726 01fb 05       		.byte	0x5
 727 01fc 00       		.uleb128 0
 728 01fd A2250000 		.4byte	.LASF84
 729 0201 05       		.byte	0x5
ARM GAS  /tmp/ccmtygTw.s 			page 14


 730 0202 00       		.uleb128 0
 731 0203 121E0000 		.4byte	.LASF85
 732 0207 05       		.byte	0x5
 733 0208 00       		.uleb128 0
 734 0209 3D010000 		.4byte	.LASF86
 735 020d 05       		.byte	0x5
 736 020e 00       		.uleb128 0
 737 020f B9170000 		.4byte	.LASF87
 738 0213 05       		.byte	0x5
 739 0214 00       		.uleb128 0
 740 0215 88010000 		.4byte	.LASF88
 741 0219 05       		.byte	0x5
 742 021a 00       		.uleb128 0
 743 021b 43230000 		.4byte	.LASF89
 744 021f 05       		.byte	0x5
 745 0220 00       		.uleb128 0
 746 0221 651F0000 		.4byte	.LASF90
 747 0225 05       		.byte	0x5
 748 0226 00       		.uleb128 0
 749 0227 E6260000 		.4byte	.LASF91
 750 022b 05       		.byte	0x5
 751 022c 00       		.uleb128 0
 752 022d 58140000 		.4byte	.LASF92
 753 0231 05       		.byte	0x5
 754 0232 00       		.uleb128 0
 755 0233 E8080000 		.4byte	.LASF93
 756 0237 05       		.byte	0x5
 757 0238 00       		.uleb128 0
 758 0239 26010000 		.4byte	.LASF94
 759 023d 05       		.byte	0x5
 760 023e 00       		.uleb128 0
 761 023f 31090000 		.4byte	.LASF95
 762 0243 05       		.byte	0x5
 763 0244 00       		.uleb128 0
 764 0245 D9100000 		.4byte	.LASF96
 765 0249 05       		.byte	0x5
 766 024a 00       		.uleb128 0
 767 024b 21060000 		.4byte	.LASF97
 768 024f 05       		.byte	0x5
 769 0250 00       		.uleb128 0
 770 0251 08160000 		.4byte	.LASF98
 771 0255 05       		.byte	0x5
 772 0256 00       		.uleb128 0
 773 0257 EE2E0000 		.4byte	.LASF99
 774 025b 05       		.byte	0x5
 775 025c 00       		.uleb128 0
 776 025d 72020000 		.4byte	.LASF100
 777 0261 05       		.byte	0x5
 778 0262 00       		.uleb128 0
 779 0263 58240000 		.4byte	.LASF101
 780 0267 05       		.byte	0x5
 781 0268 00       		.uleb128 0
 782 0269 DA060000 		.4byte	.LASF102
 783 026d 05       		.byte	0x5
 784 026e 00       		.uleb128 0
 785 026f 79010000 		.4byte	.LASF103
 786 0273 05       		.byte	0x5
ARM GAS  /tmp/ccmtygTw.s 			page 15


 787 0274 00       		.uleb128 0
 788 0275 AC240000 		.4byte	.LASF104
 789 0279 05       		.byte	0x5
 790 027a 00       		.uleb128 0
 791 027b 16040000 		.4byte	.LASF105
 792 027f 05       		.byte	0x5
 793 0280 00       		.uleb128 0
 794 0281 F2180000 		.4byte	.LASF106
 795 0285 05       		.byte	0x5
 796 0286 00       		.uleb128 0
 797 0287 9D0F0000 		.4byte	.LASF107
 798 028b 05       		.byte	0x5
 799 028c 00       		.uleb128 0
 800 028d DE0C0000 		.4byte	.LASF108
 801 0291 05       		.byte	0x5
 802 0292 00       		.uleb128 0
 803 0293 E1250000 		.4byte	.LASF109
 804 0297 05       		.byte	0x5
 805 0298 00       		.uleb128 0
 806 0299 842A0000 		.4byte	.LASF110
 807 029d 05       		.byte	0x5
 808 029e 00       		.uleb128 0
 809 029f D6280000 		.4byte	.LASF111
 810 02a3 05       		.byte	0x5
 811 02a4 00       		.uleb128 0
 812 02a5 4D0C0000 		.4byte	.LASF112
 813 02a9 05       		.byte	0x5
 814 02aa 00       		.uleb128 0
 815 02ab 21280000 		.4byte	.LASF113
 816 02af 05       		.byte	0x5
 817 02b0 00       		.uleb128 0
 818 02b1 B9080000 		.4byte	.LASF114
 819 02b5 05       		.byte	0x5
 820 02b6 00       		.uleb128 0
 821 02b7 A5230000 		.4byte	.LASF115
 822 02bb 05       		.byte	0x5
 823 02bc 00       		.uleb128 0
 824 02bd C6200000 		.4byte	.LASF116
 825 02c1 05       		.byte	0x5
 826 02c2 00       		.uleb128 0
 827 02c3 AB220000 		.4byte	.LASF117
 828 02c7 05       		.byte	0x5
 829 02c8 00       		.uleb128 0
 830 02c9 171B0000 		.4byte	.LASF118
 831 02cd 05       		.byte	0x5
 832 02ce 00       		.uleb128 0
 833 02cf 72260000 		.4byte	.LASF119
 834 02d3 05       		.byte	0x5
 835 02d4 00       		.uleb128 0
 836 02d5 D4310000 		.4byte	.LASF120
 837 02d9 05       		.byte	0x5
 838 02da 00       		.uleb128 0
 839 02db 091D0000 		.4byte	.LASF121
 840 02df 05       		.byte	0x5
 841 02e0 00       		.uleb128 0
 842 02e1 CC140000 		.4byte	.LASF122
 843 02e5 05       		.byte	0x5
ARM GAS  /tmp/ccmtygTw.s 			page 16


 844 02e6 00       		.uleb128 0
 845 02e7 15140000 		.4byte	.LASF123
 846 02eb 05       		.byte	0x5
 847 02ec 00       		.uleb128 0
 848 02ed 742A0000 		.4byte	.LASF124
 849 02f1 05       		.byte	0x5
 850 02f2 00       		.uleb128 0
 851 02f3 93130000 		.4byte	.LASF125
 852 02f7 05       		.byte	0x5
 853 02f8 00       		.uleb128 0
 854 02f9 080A0000 		.4byte	.LASF126
 855 02fd 05       		.byte	0x5
 856 02fe 00       		.uleb128 0
 857 02ff 722E0000 		.4byte	.LASF127
 858 0303 05       		.byte	0x5
 859 0304 00       		.uleb128 0
 860 0305 A32B0000 		.4byte	.LASF128
 861 0309 05       		.byte	0x5
 862 030a 00       		.uleb128 0
 863 030b 93280000 		.4byte	.LASF129
 864 030f 05       		.byte	0x5
 865 0310 00       		.uleb128 0
 866 0311 C8120000 		.4byte	.LASF130
 867 0315 05       		.byte	0x5
 868 0316 00       		.uleb128 0
 869 0317 02200000 		.4byte	.LASF131
 870 031b 05       		.byte	0x5
 871 031c 00       		.uleb128 0
 872 031d 14020000 		.4byte	.LASF132
 873 0321 05       		.byte	0x5
 874 0322 00       		.uleb128 0
 875 0323 7C1D0000 		.4byte	.LASF133
 876 0327 05       		.byte	0x5
 877 0328 00       		.uleb128 0
 878 0329 6D240000 		.4byte	.LASF134
 879 032d 05       		.byte	0x5
 880 032e 00       		.uleb128 0
 881 032f 9A0C0000 		.4byte	.LASF135
 882 0333 05       		.byte	0x5
 883 0334 00       		.uleb128 0
 884 0335 74140000 		.4byte	.LASF136
 885 0339 05       		.byte	0x5
 886 033a 00       		.uleb128 0
 887 033b 83080000 		.4byte	.LASF137
 888 033f 05       		.byte	0x5
 889 0340 00       		.uleb128 0
 890 0341 2D2C0000 		.4byte	.LASF138
 891 0345 05       		.byte	0x5
 892 0346 00       		.uleb128 0
 893 0347 03050000 		.4byte	.LASF139
 894 034b 05       		.byte	0x5
 895 034c 00       		.uleb128 0
 896 034d 80160000 		.4byte	.LASF140
 897 0351 05       		.byte	0x5
 898 0352 00       		.uleb128 0
 899 0353 38020000 		.4byte	.LASF141
 900 0357 05       		.byte	0x5
ARM GAS  /tmp/ccmtygTw.s 			page 17


 901 0358 00       		.uleb128 0
 902 0359 2B140000 		.4byte	.LASF142
 903 035d 05       		.byte	0x5
 904 035e 00       		.uleb128 0
 905 035f 651A0000 		.4byte	.LASF143
 906 0363 05       		.byte	0x5
 907 0364 00       		.uleb128 0
 908 0365 A62D0000 		.4byte	.LASF144
 909 0369 05       		.byte	0x5
 910 036a 00       		.uleb128 0
 911 036b F7310000 		.4byte	.LASF145
 912 036f 05       		.byte	0x5
 913 0370 00       		.uleb128 0
 914 0371 5B030000 		.4byte	.LASF146
 915 0375 05       		.byte	0x5
 916 0376 00       		.uleb128 0
 917 0377 D12A0000 		.4byte	.LASF147
 918 037b 05       		.byte	0x5
 919 037c 00       		.uleb128 0
 920 037d 160A0000 		.4byte	.LASF148
 921 0381 05       		.byte	0x5
 922 0382 00       		.uleb128 0
 923 0383 162D0000 		.4byte	.LASF149
 924 0387 05       		.byte	0x5
 925 0388 00       		.uleb128 0
 926 0389 E22F0000 		.4byte	.LASF150
 927 038d 05       		.byte	0x5
 928 038e 00       		.uleb128 0
 929 038f CD2B0000 		.4byte	.LASF151
 930 0393 05       		.byte	0x5
 931 0394 00       		.uleb128 0
 932 0395 EA130000 		.4byte	.LASF152
 933 0399 05       		.byte	0x5
 934 039a 00       		.uleb128 0
 935 039b 90180000 		.4byte	.LASF153
 936 039f 05       		.byte	0x5
 937 03a0 00       		.uleb128 0
 938 03a1 C4050000 		.4byte	.LASF154
 939 03a5 05       		.byte	0x5
 940 03a6 00       		.uleb128 0
 941 03a7 331D0000 		.4byte	.LASF155
 942 03ab 05       		.byte	0x5
 943 03ac 00       		.uleb128 0
 944 03ad 05250000 		.4byte	.LASF156
 945 03b1 05       		.byte	0x5
 946 03b2 00       		.uleb128 0
 947 03b3 8B210000 		.4byte	.LASF157
 948 03b7 05       		.byte	0x5
 949 03b8 00       		.uleb128 0
 950 03b9 5E1E0000 		.4byte	.LASF158
 951 03bd 05       		.byte	0x5
 952 03be 00       		.uleb128 0
 953 03bf DB2E0000 		.4byte	.LASF159
 954 03c3 05       		.byte	0x5
 955 03c4 00       		.uleb128 0
 956 03c5 2E180000 		.4byte	.LASF160
 957 03c9 05       		.byte	0x5
ARM GAS  /tmp/ccmtygTw.s 			page 18


 958 03ca 00       		.uleb128 0
 959 03cb BC1C0000 		.4byte	.LASF161
 960 03cf 05       		.byte	0x5
 961 03d0 00       		.uleb128 0
 962 03d1 6E290000 		.4byte	.LASF162
 963 03d5 05       		.byte	0x5
 964 03d6 00       		.uleb128 0
 965 03d7 860E0000 		.4byte	.LASF163
 966 03db 05       		.byte	0x5
 967 03dc 00       		.uleb128 0
 968 03dd 87310000 		.4byte	.LASF164
 969 03e1 05       		.byte	0x5
 970 03e2 00       		.uleb128 0
 971 03e3 F11C0000 		.4byte	.LASF165
 972 03e7 05       		.byte	0x5
 973 03e8 00       		.uleb128 0
 974 03e9 0F220000 		.4byte	.LASF166
 975 03ed 05       		.byte	0x5
 976 03ee 00       		.uleb128 0
 977 03ef FD1D0000 		.4byte	.LASF167
 978 03f3 05       		.byte	0x5
 979 03f4 00       		.uleb128 0
 980 03f5 2E290000 		.4byte	.LASF168
 981 03f9 05       		.byte	0x5
 982 03fa 00       		.uleb128 0
 983 03fb B30F0000 		.4byte	.LASF169
 984 03ff 05       		.byte	0x5
 985 0400 00       		.uleb128 0
 986 0401 8C0A0000 		.4byte	.LASF170
 987 0405 05       		.byte	0x5
 988 0406 00       		.uleb128 0
 989 0407 28160000 		.4byte	.LASF171
 990 040b 05       		.byte	0x5
 991 040c 00       		.uleb128 0
 992 040d AB050000 		.4byte	.LASF172
 993 0411 05       		.byte	0x5
 994 0412 00       		.uleb128 0
 995 0413 71190000 		.4byte	.LASF173
 996 0417 05       		.byte	0x5
 997 0418 00       		.uleb128 0
 998 0419 BE310000 		.4byte	.LASF174
 999 041d 05       		.byte	0x5
 1000 041e 00       		.uleb128 0
 1001 041f 3B150000 		.4byte	.LASF175
 1002 0423 05       		.byte	0x5
 1003 0424 00       		.uleb128 0
 1004 0425 10210000 		.4byte	.LASF176
 1005 0429 05       		.byte	0x5
 1006 042a 00       		.uleb128 0
 1007 042b D9300000 		.4byte	.LASF177
 1008 042f 05       		.byte	0x5
 1009 0430 00       		.uleb128 0
 1010 0431 F90D0000 		.4byte	.LASF178
 1011 0435 05       		.byte	0x5
 1012 0436 00       		.uleb128 0
 1013 0437 0C010000 		.4byte	.LASF179
 1014 043b 05       		.byte	0x5
ARM GAS  /tmp/ccmtygTw.s 			page 19


 1015 043c 00       		.uleb128 0
 1016 043d 43000000 		.4byte	.LASF180
 1017 0441 05       		.byte	0x5
 1018 0442 00       		.uleb128 0
 1019 0443 500F0000 		.4byte	.LASF181
 1020 0447 05       		.byte	0x5
 1021 0448 00       		.uleb128 0
 1022 0449 F50B0000 		.4byte	.LASF182
 1023 044d 05       		.byte	0x5
 1024 044e 00       		.uleb128 0
 1025 044f E4210000 		.4byte	.LASF183
 1026 0453 05       		.byte	0x5
 1027 0454 00       		.uleb128 0
 1028 0455 D1040000 		.4byte	.LASF184
 1029 0459 05       		.byte	0x5
 1030 045a 00       		.uleb128 0
 1031 045b 892E0000 		.4byte	.LASF185
 1032 045f 05       		.byte	0x5
 1033 0460 00       		.uleb128 0
 1034 0461 18200000 		.4byte	.LASF186
 1035 0465 05       		.byte	0x5
 1036 0466 00       		.uleb128 0
 1037 0467 5B200000 		.4byte	.LASF187
 1038 046b 05       		.byte	0x5
 1039 046c 00       		.uleb128 0
 1040 046d 761E0000 		.4byte	.LASF188
 1041 0471 05       		.byte	0x5
 1042 0472 00       		.uleb128 0
 1043 0473 D4230000 		.4byte	.LASF189
 1044 0477 05       		.byte	0x5
 1045 0478 00       		.uleb128 0
 1046 0479 FA0E0000 		.4byte	.LASF190
 1047 047d 05       		.byte	0x5
 1048 047e 00       		.uleb128 0
 1049 047f 910B0000 		.4byte	.LASF191
 1050 0483 05       		.byte	0x5
 1051 0484 00       		.uleb128 0
 1052 0485 15260000 		.4byte	.LASF192
 1053 0489 05       		.byte	0x5
 1054 048a 00       		.uleb128 0
 1055 048b 73230000 		.4byte	.LASF193
 1056 048f 05       		.byte	0x5
 1057 0490 00       		.uleb128 0
 1058 0491 FB290000 		.4byte	.LASF194
 1059 0495 05       		.byte	0x5
 1060 0496 00       		.uleb128 0
 1061 0497 8A030000 		.4byte	.LASF195
 1062 049b 05       		.byte	0x5
 1063 049c 00       		.uleb128 0
 1064 049d F3100000 		.4byte	.LASF196
 1065 04a1 05       		.byte	0x5
 1066 04a2 00       		.uleb128 0
 1067 04a3 8D220000 		.4byte	.LASF197
 1068 04a7 05       		.byte	0x5
 1069 04a8 00       		.uleb128 0
 1070 04a9 9F140000 		.4byte	.LASF198
 1071 04ad 05       		.byte	0x5
ARM GAS  /tmp/ccmtygTw.s 			page 20


 1072 04ae 00       		.uleb128 0
 1073 04af AB1C0000 		.4byte	.LASF199
 1074 04b3 05       		.byte	0x5
 1075 04b4 00       		.uleb128 0
 1076 04b5 1F0E0000 		.4byte	.LASF200
 1077 04b9 05       		.byte	0x5
 1078 04ba 00       		.uleb128 0
 1079 04bb 141C0000 		.4byte	.LASF201
 1080 04bf 05       		.byte	0x5
 1081 04c0 00       		.uleb128 0
 1082 04c1 882B0000 		.4byte	.LASF202
 1083 04c5 05       		.byte	0x5
 1084 04c6 00       		.uleb128 0
 1085 04c7 5E190000 		.4byte	.LASF203
 1086 04cb 05       		.byte	0x5
 1087 04cc 00       		.uleb128 0
 1088 04cd EB1D0000 		.4byte	.LASF204
 1089 04d1 05       		.byte	0x5
 1090 04d2 00       		.uleb128 0
 1091 04d3 701C0000 		.4byte	.LASF205
 1092 04d7 05       		.byte	0x5
 1093 04d8 00       		.uleb128 0
 1094 04d9 750B0000 		.4byte	.LASF206
 1095 04dd 05       		.byte	0x5
 1096 04de 00       		.uleb128 0
 1097 04df BD160000 		.4byte	.LASF207
 1098 04e3 05       		.byte	0x5
 1099 04e4 00       		.uleb128 0
 1100 04e5 44160000 		.4byte	.LASF208
 1101 04e9 05       		.byte	0x5
 1102 04ea 00       		.uleb128 0
 1103 04eb F2060000 		.4byte	.LASF209
 1104 04ef 05       		.byte	0x5
 1105 04f0 00       		.uleb128 0
 1106 04f1 B0210000 		.4byte	.LASF210
 1107 04f5 05       		.byte	0x5
 1108 04f6 00       		.uleb128 0
 1109 04f7 60300000 		.4byte	.LASF211
 1110 04fb 05       		.byte	0x5
 1111 04fc 00       		.uleb128 0
 1112 04fd 200D0000 		.4byte	.LASF212
 1113 0501 05       		.byte	0x5
 1114 0502 00       		.uleb128 0
 1115 0503 3D1B0000 		.4byte	.LASF213
 1116 0507 05       		.byte	0x5
 1117 0508 00       		.uleb128 0
 1118 0509 6B0C0000 		.4byte	.LASF214
 1119 050d 05       		.byte	0x5
 1120 050e 00       		.uleb128 0
 1121 050f 7C130000 		.4byte	.LASF215
 1122 0513 05       		.byte	0x5
 1123 0514 00       		.uleb128 0
 1124 0515 50250000 		.4byte	.LASF216
 1125 0519 05       		.byte	0x5
 1126 051a 00       		.uleb128 0
 1127 051b 100C0000 		.4byte	.LASF217
 1128 051f 05       		.byte	0x5
ARM GAS  /tmp/ccmtygTw.s 			page 21


 1129 0520 00       		.uleb128 0
 1130 0521 82150000 		.4byte	.LASF218
 1131 0525 05       		.byte	0x5
 1132 0526 00       		.uleb128 0
 1133 0527 280F0000 		.4byte	.LASF219
 1134 052b 05       		.byte	0x5
 1135 052c 00       		.uleb128 0
 1136 052d 45310000 		.4byte	.LASF220
 1137 0531 05       		.byte	0x5
 1138 0532 00       		.uleb128 0
 1139 0533 DE090000 		.4byte	.LASF221
 1140 0537 05       		.byte	0x5
 1141 0538 00       		.uleb128 0
 1142 0539 3F1E0000 		.4byte	.LASF222
 1143 053d 05       		.byte	0x5
 1144 053e 00       		.uleb128 0
 1145 053f 4C1D0000 		.4byte	.LASF223
 1146 0543 05       		.byte	0x5
 1147 0544 00       		.uleb128 0
 1148 0545 6B070000 		.4byte	.LASF224
 1149 0549 05       		.byte	0x5
 1150 054a 00       		.uleb128 0
 1151 054b C50C0000 		.4byte	.LASF225
 1152 054f 05       		.byte	0x5
 1153 0550 00       		.uleb128 0
 1154 0551 A5040000 		.4byte	.LASF226
 1155 0555 05       		.byte	0x5
 1156 0556 00       		.uleb128 0
 1157 0557 66310000 		.4byte	.LASF227
 1158 055b 05       		.byte	0x5
 1159 055c 00       		.uleb128 0
 1160 055d A50D0000 		.4byte	.LASF228
 1161 0561 05       		.byte	0x5
 1162 0562 00       		.uleb128 0
 1163 0563 1B2C0000 		.4byte	.LASF229
 1164 0567 05       		.byte	0x5
 1165 0568 00       		.uleb128 0
 1166 0569 80250000 		.4byte	.LASF230
 1167 056d 05       		.byte	0x5
 1168 056e 00       		.uleb128 0
 1169 056f 6B180000 		.4byte	.LASF231
 1170 0573 05       		.byte	0x5
 1171 0574 00       		.uleb128 0
 1172 0575 85110000 		.4byte	.LASF232
 1173 0579 05       		.byte	0x5
 1174 057a 00       		.uleb128 0
 1175 057b B30E0000 		.4byte	.LASF233
 1176 057f 05       		.byte	0x5
 1177 0580 00       		.uleb128 0
 1178 0581 45140000 		.4byte	.LASF234
 1179 0585 05       		.byte	0x5
 1180 0586 00       		.uleb128 0
 1181 0587 BE290000 		.4byte	.LASF235
 1182 058b 05       		.byte	0x5
 1183 058c 00       		.uleb128 0
 1184 058d 291F0000 		.4byte	.LASF236
 1185 0591 05       		.byte	0x5
ARM GAS  /tmp/ccmtygTw.s 			page 22


 1186 0592 00       		.uleb128 0
 1187 0593 FD0A0000 		.4byte	.LASF237
 1188 0597 05       		.byte	0x5
 1189 0598 00       		.uleb128 0
 1190 0599 08150000 		.4byte	.LASF238
 1191 059d 05       		.byte	0x5
 1192 059e 00       		.uleb128 0
 1193 059f 740E0000 		.4byte	.LASF239
 1194 05a3 05       		.byte	0x5
 1195 05a4 00       		.uleb128 0
 1196 05a5 901B0000 		.4byte	.LASF240
 1197 05a9 05       		.byte	0x5
 1198 05aa 00       		.uleb128 0
 1199 05ab CD1D0000 		.4byte	.LASF241
 1200 05af 05       		.byte	0x5
 1201 05b0 00       		.uleb128 0
 1202 05b1 33170000 		.4byte	.LASF242
 1203 05b5 05       		.byte	0x5
 1204 05b6 00       		.uleb128 0
 1205 05b7 E4310000 		.4byte	.LASF243
 1206 05bb 05       		.byte	0x5
 1207 05bc 00       		.uleb128 0
 1208 05bd 02140000 		.4byte	.LASF244
 1209 05c1 05       		.byte	0x5
 1210 05c2 00       		.uleb128 0
 1211 05c3 0B0D0000 		.4byte	.LASF245
 1212 05c7 05       		.byte	0x5
 1213 05c8 00       		.uleb128 0
 1214 05c9 F0200000 		.4byte	.LASF246
 1215 05cd 05       		.byte	0x5
 1216 05ce 00       		.uleb128 0
 1217 05cf 570E0000 		.4byte	.LASF247
 1218 05d3 05       		.byte	0x5
 1219 05d4 00       		.uleb128 0
 1220 05d5 AA160000 		.4byte	.LASF248
 1221 05d9 05       		.byte	0x5
 1222 05da 00       		.uleb128 0
 1223 05db C6100000 		.4byte	.LASF249
 1224 05df 05       		.byte	0x5
 1225 05e0 00       		.uleb128 0
 1226 05e1 1C080000 		.4byte	.LASF250
 1227 05e5 05       		.byte	0x5
 1228 05e6 00       		.uleb128 0
 1229 05e7 AD1F0000 		.4byte	.LASF251
 1230 05eb 05       		.byte	0x5
 1231 05ec 00       		.uleb128 0
 1232 05ed F8250000 		.4byte	.LASF252
 1233 05f1 05       		.byte	0x5
 1234 05f2 00       		.uleb128 0
 1235 05f3 3E1C0000 		.4byte	.LASF253
 1236 05f7 05       		.byte	0x5
 1237 05f8 00       		.uleb128 0
 1238 05f9 54150000 		.4byte	.LASF254
 1239 05fd 05       		.byte	0x5
 1240 05fe 00       		.uleb128 0
 1241 05ff 6C080000 		.4byte	.LASF255
 1242 0603 05       		.byte	0x5
ARM GAS  /tmp/ccmtygTw.s 			page 23


 1243 0604 00       		.uleb128 0
 1244 0605 4B0B0000 		.4byte	.LASF256
 1245 0609 05       		.byte	0x5
 1246 060a 00       		.uleb128 0
 1247 060b 461F0000 		.4byte	.LASF257
 1248 060f 05       		.byte	0x5
 1249 0610 00       		.uleb128 0
 1250 0611 C5300000 		.4byte	.LASF258
 1251 0615 05       		.byte	0x5
 1252 0616 00       		.uleb128 0
 1253 0617 FA050000 		.4byte	.LASF259
 1254 061b 05       		.byte	0x5
 1255 061c 00       		.uleb128 0
 1256 061d 2A110000 		.4byte	.LASF260
 1257 0621 05       		.byte	0x5
 1258 0622 00       		.uleb128 0
 1259 0623 07130000 		.4byte	.LASF261
 1260 0627 05       		.byte	0x5
 1261 0628 00       		.uleb128 0
 1262 0629 31130000 		.4byte	.LASF262
 1263 062d 05       		.byte	0x5
 1264 062e 00       		.uleb128 0
 1265 062f BC2A0000 		.4byte	.LASF263
 1266 0633 05       		.byte	0x5
 1267 0634 00       		.uleb128 0
 1268 0635 2E230000 		.4byte	.LASF264
 1269 0639 05       		.byte	0x5
 1270 063a 00       		.uleb128 0
 1271 063b 62090000 		.4byte	.LASF265
 1272 063f 05       		.byte	0x5
 1273 0640 00       		.uleb128 0
 1274 0641 40080000 		.4byte	.LASF266
 1275 0645 05       		.byte	0x5
 1276 0646 00       		.uleb128 0
 1277 0647 9D310000 		.4byte	.LASF267
 1278 064b 05       		.byte	0x5
 1279 064c 00       		.uleb128 0
 1280 064d 52300000 		.4byte	.LASF268
 1281 0651 05       		.byte	0x5
 1282 0652 00       		.uleb128 0
 1283 0653 B0010000 		.4byte	.LASF269
 1284 0657 05       		.byte	0x5
 1285 0658 00       		.uleb128 0
 1286 0659 96230000 		.4byte	.LASF270
 1287 065d 05       		.byte	0x5
 1288 065e 00       		.uleb128 0
 1289 065f A2010000 		.4byte	.LASF271
 1290 0663 05       		.byte	0x5
 1291 0664 00       		.uleb128 0
 1292 0665 A1210000 		.4byte	.LASF272
 1293 0669 05       		.byte	0x5
 1294 066a 00       		.uleb128 0
 1295 066b EF1F0000 		.4byte	.LASF273
 1296 066f 05       		.byte	0x5
 1297 0670 00       		.uleb128 0
 1298 0671 1A1F0000 		.4byte	.LASF274
 1299 0675 05       		.byte	0x5
ARM GAS  /tmp/ccmtygTw.s 			page 24


 1300 0676 00       		.uleb128 0
 1301 0677 662A0000 		.4byte	.LASF275
 1302 067b 05       		.byte	0x5
 1303 067c 00       		.uleb128 0
 1304 067d 7D220000 		.4byte	.LASF276
 1305 0681 05       		.byte	0x5
 1306 0682 00       		.uleb128 0
 1307 0683 A5180000 		.4byte	.LASF277
 1308 0687 05       		.byte	0x5
 1309 0688 00       		.uleb128 0
 1310 0689 4C200000 		.4byte	.LASF278
 1311 068d 05       		.byte	0x5
 1312 068e 00       		.uleb128 0
 1313 068f 31260000 		.4byte	.LASF279
 1314 0693 05       		.byte	0x5
 1315 0694 00       		.uleb128 0
 1316 0695 26210000 		.4byte	.LASF280
 1317 0699 05       		.byte	0x5
 1318 069a 00       		.uleb128 0
 1319 069b 43120000 		.4byte	.LASF281
 1320 069f 05       		.byte	0x5
 1321 06a0 00       		.uleb128 0
 1322 06a1 40260000 		.4byte	.LASF282
 1323 06a5 05       		.byte	0x5
 1324 06a6 00       		.uleb128 0
 1325 06a7 B4130000 		.4byte	.LASF283
 1326 06ab 05       		.byte	0x5
 1327 06ac 00       		.uleb128 0
 1328 06ad 86230000 		.4byte	.LASF284
 1329 06b1 05       		.byte	0x5
 1330 06b2 00       		.uleb128 0
 1331 06b3 BE010000 		.4byte	.LASF285
 1332 06b7 05       		.byte	0x5
 1333 06b8 00       		.uleb128 0
 1334 06b9 A8170000 		.4byte	.LASF286
 1335 06bd 05       		.byte	0x5
 1336 06be 00       		.uleb128 0
 1337 06bf 7E0C0000 		.4byte	.LASF287
 1338 06c3 05       		.byte	0x5
 1339 06c4 00       		.uleb128 0
 1340 06c5 72250000 		.4byte	.LASF288
 1341 06c9 05       		.byte	0x5
 1342 06ca 00       		.uleb128 0
 1343 06cb 69170000 		.4byte	.LASF289
 1344 06cf 05       		.byte	0x5
 1345 06d0 00       		.uleb128 0
 1346 06d1 76110000 		.4byte	.LASF290
 1347 06d5 05       		.byte	0x5
 1348 06d6 00       		.uleb128 0
 1349 06d7 CF090000 		.4byte	.LASF291
 1350 06db 05       		.byte	0x5
 1351 06dc 00       		.uleb128 0
 1352 06dd 4D0A0000 		.4byte	.LASF292
 1353 06e1 05       		.byte	0x5
 1354 06e2 00       		.uleb128 0
 1355 06e3 9F100000 		.4byte	.LASF293
 1356 06e7 05       		.byte	0x5
ARM GAS  /tmp/ccmtygTw.s 			page 25


 1357 06e8 00       		.uleb128 0
 1358 06e9 E21C0000 		.4byte	.LASF294
 1359 06ed 05       		.byte	0x5
 1360 06ee 00       		.uleb128 0
 1361 06ef D62D0000 		.4byte	.LASF295
 1362 06f3 05       		.byte	0x5
 1363 06f4 00       		.uleb128 0
 1364 06f5 B3180000 		.4byte	.LASF296
 1365 06f9 05       		.byte	0x5
 1366 06fa 00       		.uleb128 0
 1367 06fb C5230000 		.4byte	.LASF297
 1368 06ff 05       		.byte	0x5
 1369 0700 00       		.uleb128 0
 1370 0701 96150000 		.4byte	.LASF298
 1371 0705 05       		.byte	0x5
 1372 0706 00       		.uleb128 0
 1373 0707 180F0000 		.4byte	.LASF299
 1374 070b 05       		.byte	0x5
 1375 070c 00       		.uleb128 0
 1376 070d 93300000 		.4byte	.LASF300
 1377 0711 05       		.byte	0x5
 1378 0712 00       		.uleb128 0
 1379 0713 D8080000 		.4byte	.LASF301
 1380 0717 05       		.byte	0x5
 1381 0718 00       		.uleb128 0
 1382 0719 F3040000 		.4byte	.LASF302
 1383 071d 05       		.byte	0x5
 1384 071e 00       		.uleb128 0
 1385 071f 25300000 		.4byte	.LASF303
 1386 0723 05       		.byte	0x5
 1387 0724 00       		.uleb128 0
 1388 0725 6E060000 		.4byte	.LASF304
 1389 0729 05       		.byte	0x5
 1390 072a 00       		.uleb128 0
 1391 072b 42220000 		.4byte	.LASF305
 1392 072f 05       		.byte	0x5
 1393 0730 00       		.uleb128 0
 1394 0731 CE210000 		.4byte	.LASF306
 1395 0735 05       		.byte	0x5
 1396 0736 00       		.uleb128 0
 1397 0737 7E050000 		.4byte	.LASF307
 1398 073b 05       		.byte	0x5
 1399 073c 00       		.uleb128 0
 1400 073d 10180000 		.4byte	.LASF308
 1401 0741 05       		.byte	0x5
 1402 0742 00       		.uleb128 0
 1403 0743 25120000 		.4byte	.LASF309
 1404 0747 05       		.byte	0x5
 1405 0748 00       		.uleb128 0
 1406 0749 50020000 		.4byte	.LASF310
 1407 074d 05       		.byte	0x5
 1408 074e 00       		.uleb128 0
 1409 074f 8E260000 		.4byte	.LASF311
 1410 0753 05       		.byte	0x5
 1411 0754 00       		.uleb128 0
 1412 0755 1A150000 		.4byte	.LASF312
 1413 0759 05       		.byte	0x5
ARM GAS  /tmp/ccmtygTw.s 			page 26


 1414 075a 00       		.uleb128 0
 1415 075b 1F2B0000 		.4byte	.LASF313
 1416 075f 05       		.byte	0x5
 1417 0760 00       		.uleb128 0
 1418 0761 3A0E0000 		.4byte	.LASF314
 1419 0765 05       		.byte	0x5
 1420 0766 00       		.uleb128 0
 1421 0767 DA160000 		.4byte	.LASF315
 1422 076b 05       		.byte	0x5
 1423 076c 00       		.uleb128 0
 1424 076d 74280000 		.4byte	.LASF316
 1425 0771 05       		.byte	0x5
 1426 0772 00       		.uleb128 0
 1427 0773 1E190000 		.4byte	.LASF317
 1428 0777 05       		.byte	0x5
 1429 0778 00       		.uleb128 0
 1430 0779 C0250000 		.4byte	.LASF318
 1431 077d 05       		.byte	0x5
 1432 077e 00       		.uleb128 0
 1433 077f 42190000 		.4byte	.LASF319
 1434 0783 05       		.byte	0x5
 1435 0784 00       		.uleb128 0
 1436 0785 11310000 		.4byte	.LASF320
 1437 0789 05       		.byte	0x5
 1438 078a 00       		.uleb128 0
 1439 078b 611D0000 		.4byte	.LASF321
 1440 078f 05       		.byte	0x5
 1441 0790 00       		.uleb128 0
 1442 0791 F3020000 		.4byte	.LASF322
 1443 0795 05       		.byte	0x5
 1444 0796 00       		.uleb128 0
 1445 0797 E30E0000 		.4byte	.LASF323
 1446 079b 05       		.byte	0x5
 1447 079c 00       		.uleb128 0
 1448 079d 5C0A0000 		.4byte	.LASF324
 1449 07a1 05       		.byte	0x5
 1450 07a2 00       		.uleb128 0
 1451 07a3 9C020000 		.4byte	.LASF325
 1452 07a7 05       		.byte	0x5
 1453 07a8 00       		.uleb128 0
 1454 07a9 D50D0000 		.4byte	.LASF326
 1455 07ad 05       		.byte	0x5
 1456 07ae 00       		.uleb128 0
 1457 07af 86180000 		.4byte	.LASF327
 1458 07b3 05       		.byte	0x5
 1459 07b4 00       		.uleb128 0
 1460 07b5 04070000 		.4byte	.LASF328
 1461 07b9 05       		.byte	0x5
 1462 07ba 00       		.uleb128 0
 1463 07bb BB2C0000 		.4byte	.LASF329
 1464 07bf 05       		.byte	0x5
 1465 07c0 00       		.uleb128 0
 1466 07c1 FC210000 		.4byte	.LASF330
 1467 07c5 05       		.byte	0x5
 1468 07c6 00       		.uleb128 0
 1469 07c7 77170000 		.4byte	.LASF331
 1470 07cb 05       		.byte	0x5
ARM GAS  /tmp/ccmtygTw.s 			page 27


 1471 07cc 00       		.uleb128 0
 1472 07cd AD080000 		.4byte	.LASF332
 1473 07d1 05       		.byte	0x5
 1474 07d2 00       		.uleb128 0
 1475 07d3 57100000 		.4byte	.LASF333
 1476 07d7 05       		.byte	0x5
 1477 07d8 00       		.uleb128 0
 1478 07d9 14280000 		.4byte	.LASF334
 1479 07dd 05       		.byte	0x5
 1480 07de 00       		.uleb128 0
 1481 07df 43250000 		.4byte	.LASF335
 1482 07e3 05       		.byte	0x5
 1483 07e4 00       		.uleb128 0
 1484 07e5 EA170000 		.4byte	.LASF336
 1485 07e9 05       		.byte	0x5
 1486 07ea 00       		.uleb128 0
 1487 07eb D7220000 		.4byte	.LASF337
 1488 07ef 05       		.byte	0x5
 1489 07f0 00       		.uleb128 0
 1490 07f1 89140000 		.4byte	.LASF338
 1491 07f5 05       		.byte	0x5
 1492 07f6 00       		.uleb128 0
 1493 07f7 59070000 		.4byte	.LASF339
 1494 07fb 05       		.byte	0x5
 1495 07fc 00       		.uleb128 0
 1496 07fd AA1E0000 		.4byte	.LASF340
 1497 0801 05       		.byte	0x5
 1498 0802 00       		.uleb128 0
 1499 0803 AA0B0000 		.4byte	.LASF341
 1500 0807 05       		.byte	0x5
 1501 0808 00       		.uleb128 0
 1502 0809 F31B0000 		.4byte	.LASF342
 1503 080d 05       		.byte	0x5
 1504 080e 00       		.uleb128 0
 1505 080f 14190000 		.4byte	.LASF343
 1506 0813 05       		.byte	0x5
 1507 0814 00       		.uleb128 0
 1508 0815 780A0000 		.4byte	.LASF344
 1509 0819 05       		.byte	0x5
 1510 081a 00       		.uleb128 0
 1511 081b E52D0000 		.4byte	.LASF345
 1512 081f 00       		.byte	0
 1513              		.section	.debug_macro,"G",%progbits,wm4.features.h.22.2e382148a0560adabf236cddd4e880f4,comdat
 1514              	.Ldebug_macro2:
 1515 0000 0400     		.2byte	0x4
 1516 0002 00       		.byte	0
 1517 0003 05       		.byte	0x5
 1518 0004 16       		.uleb128 0x16
 1519 0005 B90B0000 		.4byte	.LASF350
 1520 0009 05       		.byte	0x5
 1521 000a 1F       		.uleb128 0x1f
 1522 000b 8D0C0000 		.4byte	.LASF351
 1523 000f 05       		.byte	0x5
 1524 0010 20       		.uleb128 0x20
 1525 0011 9A080000 		.4byte	.LASF352
 1526 0015 05       		.byte	0x5
 1527 0016 25       		.uleb128 0x25
ARM GAS  /tmp/ccmtygTw.s 			page 28


 1528 0017 07030000 		.4byte	.LASF353
 1529 001b 05       		.byte	0x5
 1530 001c 2C       		.uleb128 0x2c
 1531 001d 771F0000 		.4byte	.LASF354
 1532 0021 00       		.byte	0
 1533              		.section	.debug_macro,"G",%progbits,wm4._default_types.h.15.933e8edd27a65e0b69af4a865eb623d2,comda
 1534              	.Ldebug_macro3:
 1535 0000 0400     		.2byte	0x4
 1536 0002 00       		.byte	0
 1537 0003 05       		.byte	0x5
 1538 0004 0F       		.uleb128 0xf
 1539 0005 8E000000 		.4byte	.LASF355
 1540 0009 05       		.byte	0x5
 1541 000a 21       		.uleb128 0x21
 1542 000b 1B0B0000 		.4byte	.LASF356
 1543 000f 05       		.byte	0x5
 1544 0010 2F       		.uleb128 0x2f
 1545 0011 15110000 		.4byte	.LASF357
 1546 0015 05       		.byte	0x5
 1547 0016 45       		.uleb128 0x45
 1548 0017 A1110000 		.4byte	.LASF358
 1549 001b 05       		.byte	0x5
 1550 001c 5F       		.uleb128 0x5f
 1551 001d 3B0F0000 		.4byte	.LASF359
 1552 0021 05       		.byte	0x5
 1553 0022 7E       		.uleb128 0x7e
 1554 0023 3E2B0000 		.4byte	.LASF360
 1555 0027 05       		.byte	0x5
 1556 0028 9801     		.uleb128 0x98
 1557 002a ED150000 		.4byte	.LASF361
 1558 002e 05       		.byte	0x5
 1559 002f AE01     		.uleb128 0xae
 1560 0031 8F160000 		.4byte	.LASF362
 1561 0035 05       		.byte	0x5
 1562 0036 C001     		.uleb128 0xc0
 1563 0038 B1140000 		.4byte	.LASF363
 1564 003c 06       		.byte	0x6
 1565 003d D601     		.uleb128 0xd6
 1566 003f 002B0000 		.4byte	.LASF364
 1567 0043 00       		.byte	0
 1568              		.section	.debug_macro,"G",%progbits,wm4._intsup.h.10.35a45952db64d30146faa63a55c20c1c,comdat
 1569              	.Ldebug_macro4:
 1570 0000 0400     		.2byte	0x4
 1571 0002 00       		.byte	0
 1572 0003 05       		.byte	0x5
 1573 0004 0A       		.uleb128 0xa
 1574 0005 D6260000 		.4byte	.LASF365
 1575 0009 05       		.byte	0x5
 1576 000a 10       		.uleb128 0x10
 1577 000b 4A280000 		.4byte	.LASF366
 1578 000f 05       		.byte	0x5
 1579 0010 1A       		.uleb128 0x1a
 1580 0011 F72F0000 		.4byte	.LASF367
 1581 0015 05       		.byte	0x5
 1582 0016 21       		.uleb128 0x21
 1583 0017 DF000000 		.4byte	.LASF368
 1584 001b 06       		.byte	0x6
ARM GAS  /tmp/ccmtygTw.s 			page 29


 1585 001c 37       		.uleb128 0x37
 1586 001d 08220000 		.4byte	.LASF369
 1587 0021 06       		.byte	0x6
 1588 0022 38       		.uleb128 0x38
 1589 0023 50070000 		.4byte	.LASF370
 1590 0027 06       		.byte	0x6
 1591 0028 39       		.uleb128 0x39
 1592 0029 FD1F0000 		.4byte	.LASF371
 1593 002d 06       		.byte	0x6
 1594 002e 3A       		.uleb128 0x3a
 1595 002f 50130000 		.4byte	.LASF372
 1596 0033 02       		.byte	0x2
 1597 0034 3B       		.uleb128 0x3b
 1598 0035 696E7400 		.ascii	"int\000"
 1599 0039 06       		.byte	0x6
 1600 003a 3C       		.uleb128 0x3c
 1601 003b 480A0000 		.4byte	.LASF373
 1602 003f 05       		.byte	0x5
 1603 0040 3D       		.uleb128 0x3d
 1604 0041 F30A0000 		.4byte	.LASF374
 1605 0045 05       		.byte	0x5
 1606 0046 3E       		.uleb128 0x3e
 1607 0047 7C2B0000 		.4byte	.LASF375
 1608 004b 05       		.byte	0x5
 1609 004c 3F       		.uleb128 0x3f
 1610 004d 4B090000 		.4byte	.LASF376
 1611 0051 05       		.byte	0x5
 1612 0052 40       		.uleb128 0x40
 1613 0053 EA040000 		.4byte	.LASF377
 1614 0057 05       		.byte	0x5
 1615 0058 41       		.uleb128 0x41
 1616 0059 8F090000 		.4byte	.LASF378
 1617 005d 05       		.byte	0x5
 1618 005e 42       		.uleb128 0x42
 1619 005f F0300000 		.4byte	.LASF379
 1620 0063 05       		.byte	0x5
 1621 0064 4D       		.uleb128 0x4d
 1622 0065 742C0000 		.4byte	.LASF380
 1623 0069 05       		.byte	0x5
 1624 006a 55       		.uleb128 0x55
 1625 006b 851C0000 		.4byte	.LASF381
 1626 006f 05       		.byte	0x5
 1627 0070 60       		.uleb128 0x60
 1628 0071 67230000 		.4byte	.LASF382
 1629 0075 05       		.byte	0x5
 1630 0076 6B       		.uleb128 0x6b
 1631 0077 311B0000 		.4byte	.LASF383
 1632 007b 05       		.byte	0x5
 1633 007c 74       		.uleb128 0x74
 1634 007d A7130000 		.4byte	.LASF384
 1635 0081 05       		.byte	0x5
 1636 0082 7B       		.uleb128 0x7b
 1637 0083 A41F0000 		.4byte	.LASF385
 1638 0087 05       		.byte	0x5
 1639 0088 8401     		.uleb128 0x84
 1640 008a 26040000 		.4byte	.LASF386
 1641 008e 05       		.byte	0x5
ARM GAS  /tmp/ccmtygTw.s 			page 30


 1642 008f 8B01     		.uleb128 0x8b
 1643 0091 7F070000 		.4byte	.LASF387
 1644 0095 05       		.byte	0x5
 1645 0096 9601     		.uleb128 0x96
 1646 0098 9D120000 		.4byte	.LASF388
 1647 009c 05       		.byte	0x5
 1648 009d 9A01     		.uleb128 0x9a
 1649 009f 44050000 		.4byte	.LASF389
 1650 00a3 05       		.byte	0x5
 1651 00a4 A501     		.uleb128 0xa5
 1652 00a6 68110000 		.4byte	.LASF390
 1653 00aa 05       		.byte	0x5
 1654 00ab B001     		.uleb128 0xb0
 1655 00ad 582A0000 		.4byte	.LASF391
 1656 00b1 05       		.byte	0x5
 1657 00b2 B901     		.uleb128 0xb9
 1658 00b4 53090000 		.4byte	.LASF392
 1659 00b8 06       		.byte	0x6
 1660 00b9 BB01     		.uleb128 0xbb
 1661 00bb 08220000 		.4byte	.LASF369
 1662 00bf 06       		.byte	0x6
 1663 00c0 BC01     		.uleb128 0xbc
 1664 00c2 50070000 		.4byte	.LASF370
 1665 00c6 06       		.byte	0x6
 1666 00c7 BD01     		.uleb128 0xbd
 1667 00c9 FD1F0000 		.4byte	.LASF371
 1668 00cd 06       		.byte	0x6
 1669 00ce BE01     		.uleb128 0xbe
 1670 00d0 50130000 		.4byte	.LASF372
 1671 00d4 02       		.byte	0x2
 1672 00d5 BF01     		.uleb128 0xbf
 1673 00d7 696E7400 		.ascii	"int\000"
 1674 00db 06       		.byte	0x6
 1675 00dc C001     		.uleb128 0xc0
 1676 00de 480A0000 		.4byte	.LASF373
 1677 00e2 00       		.byte	0
 1678              		.section	.debug_macro,"G",%progbits,wm4._stdint.h.10.f76354baea1c7088202064e6f3d4f5e3,comdat
 1679              	.Ldebug_macro5:
 1680 0000 0400     		.2byte	0x4
 1681 0002 00       		.byte	0
 1682 0003 05       		.byte	0x5
 1683 0004 0A       		.uleb128 0xa
 1684 0005 BF090000 		.4byte	.LASF393
 1685 0009 05       		.byte	0x5
 1686 000a 15       		.uleb128 0x15
 1687 000b 5B060000 		.4byte	.LASF394
 1688 000f 05       		.byte	0x5
 1689 0010 1B       		.uleb128 0x1b
 1690 0011 B2200000 		.4byte	.LASF395
 1691 0015 05       		.byte	0x5
 1692 0016 21       		.uleb128 0x21
 1693 0017 77210000 		.4byte	.LASF396
 1694 001b 05       		.byte	0x5
 1695 001c 27       		.uleb128 0x27
 1696 001d 65100000 		.4byte	.LASF397
 1697 0021 00       		.byte	0
 1698              		.section	.debug_macro,"G",%progbits,wm4.stdint.h.23.373a9d32a9e4c2e88fd347156532d281,comdat
ARM GAS  /tmp/ccmtygTw.s 			page 31


 1699              	.Ldebug_macro6:
 1700 0000 0400     		.2byte	0x4
 1701 0002 00       		.byte	0
 1702 0003 05       		.byte	0x5
 1703 0004 17       		.uleb128 0x17
 1704 0005 F8300000 		.4byte	.LASF398
 1705 0009 05       		.byte	0x5
 1706 000a 1D       		.uleb128 0x1d
 1707 000b D8190000 		.4byte	.LASF399
 1708 000f 05       		.byte	0x5
 1709 0010 23       		.uleb128 0x23
 1710 0011 B91A0000 		.4byte	.LASF400
 1711 0015 05       		.byte	0x5
 1712 0016 29       		.uleb128 0x29
 1713 0017 F6170000 		.4byte	.LASF401
 1714 001b 05       		.byte	0x5
 1715 001c 35       		.uleb128 0x35
 1716 001d A3000000 		.4byte	.LASF402
 1717 0021 05       		.byte	0x5
 1718 0022 3F       		.uleb128 0x3f
 1719 0023 D91E0000 		.4byte	.LASF403
 1720 0027 05       		.byte	0x5
 1721 0028 49       		.uleb128 0x49
 1722 0029 2F1A0000 		.4byte	.LASF404
 1723 002d 05       		.byte	0x5
 1724 002e 53       		.uleb128 0x53
 1725 002f EF2D0000 		.4byte	.LASF405
 1726 0033 05       		.byte	0x5
 1727 0034 9301     		.uleb128 0x93
 1728 0036 9A2C0000 		.4byte	.LASF406
 1729 003a 05       		.byte	0x5
 1730 003b 9401     		.uleb128 0x94
 1731 003d 34070000 		.4byte	.LASF407
 1732 0041 05       		.byte	0x5
 1733 0042 9501     		.uleb128 0x95
 1734 0044 521C0000 		.4byte	.LASF408
 1735 0048 05       		.byte	0x5
 1736 0049 AB01     		.uleb128 0xab
 1737 004b 35300000 		.4byte	.LASF409
 1738 004f 05       		.byte	0x5
 1739 0050 AC01     		.uleb128 0xac
 1740 0052 C51B0000 		.4byte	.LASF410
 1741 0056 05       		.byte	0x5
 1742 0057 AD01     		.uleb128 0xad
 1743 0059 0B300000 		.4byte	.LASF411
 1744 005d 05       		.byte	0x5
 1745 005e B501     		.uleb128 0xb5
 1746 0060 DE120000 		.4byte	.LASF412
 1747 0064 05       		.byte	0x5
 1748 0065 B601     		.uleb128 0xb6
 1749 0067 BB000000 		.4byte	.LASF413
 1750 006b 05       		.byte	0x5
 1751 006c B701     		.uleb128 0xb7
 1752 006e B3020000 		.4byte	.LASF414
 1753 0072 05       		.byte	0x5
 1754 0073 C101     		.uleb128 0xc1
 1755 0075 022F0000 		.4byte	.LASF415
ARM GAS  /tmp/ccmtygTw.s 			page 32


 1756 0079 05       		.byte	0x5
 1757 007a C201     		.uleb128 0xc2
 1758 007c D9020000 		.4byte	.LASF416
 1759 0080 05       		.byte	0x5
 1760 0081 C301     		.uleb128 0xc3
 1761 0083 3B100000 		.4byte	.LASF417
 1762 0087 05       		.byte	0x5
 1763 0088 CB01     		.uleb128 0xcb
 1764 008a 52120000 		.4byte	.LASF418
 1765 008e 05       		.byte	0x5
 1766 008f CC01     		.uleb128 0xcc
 1767 0091 540D0000 		.4byte	.LASF419
 1768 0095 05       		.byte	0x5
 1769 0096 CD01     		.uleb128 0xcd
 1770 0098 0E2A0000 		.4byte	.LASF420
 1771 009c 05       		.byte	0x5
 1772 009d D701     		.uleb128 0xd7
 1773 009f 101A0000 		.4byte	.LASF421
 1774 00a3 05       		.byte	0x5
 1775 00a4 D801     		.uleb128 0xd8
 1776 00a6 AB300000 		.4byte	.LASF422
 1777 00aa 05       		.byte	0x5
 1778 00ab D901     		.uleb128 0xd9
 1779 00ad 2F0B0000 		.4byte	.LASF423
 1780 00b1 05       		.byte	0x5
 1781 00b2 E701     		.uleb128 0xe7
 1782 00b4 A6150000 		.4byte	.LASF424
 1783 00b8 05       		.byte	0x5
 1784 00b9 E801     		.uleb128 0xe8
 1785 00bb 79100000 		.4byte	.LASF425
 1786 00bf 05       		.byte	0x5
 1787 00c0 E901     		.uleb128 0xe9
 1788 00c2 EC010000 		.4byte	.LASF426
 1789 00c6 05       		.byte	0x5
 1790 00c7 F901     		.uleb128 0xf9
 1791 00c9 E42B0000 		.4byte	.LASF427
 1792 00cd 05       		.byte	0x5
 1793 00ce FA01     		.uleb128 0xfa
 1794 00d0 3E240000 		.4byte	.LASF428
 1795 00d4 05       		.byte	0x5
 1796 00d5 FB01     		.uleb128 0xfb
 1797 00d7 D1150000 		.4byte	.LASF429
 1798 00db 05       		.byte	0x5
 1799 00dc 8902     		.uleb128 0x109
 1800 00de 4E010000 		.4byte	.LASF430
 1801 00e2 05       		.byte	0x5
 1802 00e3 8A02     		.uleb128 0x10a
 1803 00e5 56130000 		.4byte	.LASF431
 1804 00e9 05       		.byte	0x5
 1805 00ea 8B02     		.uleb128 0x10b
 1806 00ec 9C070000 		.4byte	.LASF432
 1807 00f0 05       		.byte	0x5
 1808 00f1 9902     		.uleb128 0x119
 1809 00f3 C3130000 		.4byte	.LASF433
 1810 00f7 05       		.byte	0x5
 1811 00f8 9A02     		.uleb128 0x11a
 1812 00fa 312E0000 		.4byte	.LASF434
ARM GAS  /tmp/ccmtygTw.s 			page 33


 1813 00fe 05       		.byte	0x5
 1814 00ff 9B02     		.uleb128 0x11b
 1815 0101 9E270000 		.4byte	.LASF435
 1816 0105 05       		.byte	0x5
 1817 0106 A902     		.uleb128 0x129
 1818 0108 D31A0000 		.4byte	.LASF436
 1819 010c 05       		.byte	0x5
 1820 010d AA02     		.uleb128 0x12a
 1821 010f 1A240000 		.4byte	.LASF437
 1822 0113 05       		.byte	0x5
 1823 0114 AB02     		.uleb128 0x12b
 1824 0116 C4070000 		.4byte	.LASF438
 1825 011a 05       		.byte	0x5
 1826 011b B902     		.uleb128 0x139
 1827 011d FC0F0000 		.4byte	.LASF439
 1828 0121 05       		.byte	0x5
 1829 0122 BA02     		.uleb128 0x13a
 1830 0124 582B0000 		.4byte	.LASF440
 1831 0128 05       		.byte	0x5
 1832 0129 BB02     		.uleb128 0x13b
 1833 012b B0260000 		.4byte	.LASF441
 1834 012f 05       		.byte	0x5
 1835 0130 C902     		.uleb128 0x149
 1836 0132 A1030000 		.4byte	.LASF442
 1837 0136 05       		.byte	0x5
 1838 0137 CA02     		.uleb128 0x14a
 1839 0139 59220000 		.4byte	.LASF443
 1840 013d 05       		.byte	0x5
 1841 013e CB02     		.uleb128 0x14b
 1842 0140 D5290000 		.4byte	.LASF444
 1843 0144 05       		.byte	0x5
 1844 0145 D902     		.uleb128 0x159
 1845 0147 732D0000 		.4byte	.LASF445
 1846 014b 05       		.byte	0x5
 1847 014c DA02     		.uleb128 0x15a
 1848 014e EF000000 		.4byte	.LASF446
 1849 0152 05       		.byte	0x5
 1850 0153 E202     		.uleb128 0x162
 1851 0155 B70D0000 		.4byte	.LASF447
 1852 0159 05       		.byte	0x5
 1853 015a EA02     		.uleb128 0x16a
 1854 015c 94240000 		.4byte	.LASF448
 1855 0160 05       		.byte	0x5
 1856 0161 F002     		.uleb128 0x170
 1857 0163 7A1A0000 		.4byte	.LASF449
 1858 0167 05       		.byte	0x5
 1859 0168 F102     		.uleb128 0x171
 1860 016a D7030000 		.4byte	.LASF450
 1861 016e 05       		.byte	0x5
 1862 016f F502     		.uleb128 0x175
 1863 0171 F2190000 		.4byte	.LASF451
 1864 0175 05       		.byte	0x5
 1865 0176 F902     		.uleb128 0x179
 1866 0178 532E0000 		.4byte	.LASF452
 1867 017c 05       		.byte	0x5
 1868 017d FE02     		.uleb128 0x17e
 1869 017f FB260000 		.4byte	.LASF453
ARM GAS  /tmp/ccmtygTw.s 			page 34


 1870 0183 05       		.byte	0x5
 1871 0184 8903     		.uleb128 0x189
 1872 0186 68150000 		.4byte	.LASF454
 1873 018a 05       		.byte	0x5
 1874 018b 9303     		.uleb128 0x193
 1875 018d C32E0000 		.4byte	.LASF455
 1876 0191 05       		.byte	0x5
 1877 0192 9803     		.uleb128 0x198
 1878 0194 FE030000 		.4byte	.LASF456
 1879 0198 05       		.byte	0x5
 1880 0199 9F03     		.uleb128 0x19f
 1881 019b 63270000 		.4byte	.LASF457
 1882 019f 05       		.byte	0x5
 1883 01a0 A003     		.uleb128 0x1a0
 1884 01a2 DA180000 		.4byte	.LASF458
 1885 01a6 05       		.byte	0x5
 1886 01a7 AB03     		.uleb128 0x1ab
 1887 01a9 670F0000 		.4byte	.LASF459
 1888 01ad 05       		.byte	0x5
 1889 01ae AC03     		.uleb128 0x1ac
 1890 01b0 8E170000 		.4byte	.LASF460
 1891 01b4 05       		.byte	0x5
 1892 01b5 B703     		.uleb128 0x1b7
 1893 01b7 9B060000 		.4byte	.LASF461
 1894 01bb 05       		.byte	0x5
 1895 01bc B803     		.uleb128 0x1b8
 1896 01be 911C0000 		.4byte	.LASF462
 1897 01c2 05       		.byte	0x5
 1898 01c3 C403     		.uleb128 0x1c4
 1899 01c5 30060000 		.4byte	.LASF463
 1900 01c9 05       		.byte	0x5
 1901 01ca C503     		.uleb128 0x1c5
 1902 01cc CD010000 		.4byte	.LASF464
 1903 01d0 05       		.byte	0x5
 1904 01d1 D403     		.uleb128 0x1d4
 1905 01d3 FC2C0000 		.4byte	.LASF465
 1906 01d7 05       		.byte	0x5
 1907 01d8 D503     		.uleb128 0x1d5
 1908 01da C7240000 		.4byte	.LASF466
 1909 01de 00       		.byte	0
 1910              		.section	.debug_macro,"G",%progbits,wm4.stdbool.h.29.1c9ee6859ce8145f7838a4f2549ccec2,comdat
 1911              	.Ldebug_macro7:
 1912 0000 0400     		.2byte	0x4
 1913 0002 00       		.byte	0
 1914 0003 05       		.byte	0x5
 1915 0004 1D       		.uleb128 0x1d
 1916 0005 2F100000 		.4byte	.LASF468
 1917 0009 05       		.byte	0x5
 1918 000a 21       		.uleb128 0x21
 1919 000b 96090000 		.4byte	.LASF469
 1920 000f 05       		.byte	0x5
 1921 0010 22       		.uleb128 0x22
 1922 0011 0E110000 		.4byte	.LASF470
 1923 0015 05       		.byte	0x5
 1924 0016 23       		.uleb128 0x23
 1925 0017 A3300000 		.4byte	.LASF471
 1926 001b 05       		.byte	0x5
ARM GAS  /tmp/ccmtygTw.s 			page 35


 1927 001c 30       		.uleb128 0x30
 1928 001d 4E210000 		.4byte	.LASF472
 1929 0021 00       		.byte	0
 1930              		.section	.debug_macro,"G",%progbits,wm4.lpc_types.h.63.860ba57581a002825766a7c2ac00d549,comdat
 1931              	.Ldebug_macro8:
 1932 0000 0400     		.2byte	0x4
 1933 0002 00       		.byte	0
 1934 0003 05       		.byte	0x5
 1935 0004 3F       		.uleb128 0x3f
 1936 0005 F8160000 		.4byte	.LASF473
 1937 0009 05       		.byte	0x5
 1938 000a 45       		.uleb128 0x45
 1939 000b E7220000 		.4byte	.LASF474
 1940 000f 06       		.byte	0x6
 1941 0010 66       		.uleb128 0x66
 1942 0011 E2140000 		.4byte	.LASF475
 1943 0015 05       		.byte	0x5
 1944 0016 68       		.uleb128 0x68
 1945 0017 AB290000 		.4byte	.LASF476
 1946 001b 06       		.byte	0x6
 1947 001c 6E       		.uleb128 0x6e
 1948 001d C2180000 		.4byte	.LASF477
 1949 0021 05       		.byte	0x5
 1950 0022 70       		.uleb128 0x70
 1951 0023 8F2D0000 		.4byte	.LASF478
 1952 0027 06       		.byte	0x6
 1953 0028 7F       		.uleb128 0x7f
 1954 0029 9C0D0000 		.4byte	.LASF479
 1955 002d 05       		.byte	0x5
 1956 002e 8101     		.uleb128 0x81
 1957 0030 A7280000 		.4byte	.LASF480
 1958 0034 05       		.byte	0x5
 1959 0035 8501     		.uleb128 0x85
 1960 0037 211D0000 		.4byte	.LASF481
 1961 003b 05       		.byte	0x5
 1962 003c 8901     		.uleb128 0x89
 1963 003e C80F0000 		.4byte	.LASF482
 1964 0042 05       		.byte	0x5
 1965 0043 8C01     		.uleb128 0x8c
 1966 0045 66280000 		.4byte	.LASF483
 1967 0049 05       		.byte	0x5
 1968 004a 8E01     		.uleb128 0x8e
 1969 004c 35250000 		.4byte	.LASF484
 1970 0050 05       		.byte	0x5
 1971 0051 9101     		.uleb128 0x91
 1972 0053 E10B0000 		.4byte	.LASF485
 1973 0057 05       		.byte	0x5
 1974 0058 9401     		.uleb128 0x94
 1975 005a 6D1B0000 		.4byte	.LASF486
 1976 005e 05       		.byte	0x5
 1977 005f 9701     		.uleb128 0x97
 1978 0061 CE110000 		.4byte	.LASF487
 1979 0065 05       		.byte	0x5
 1980 0066 D001     		.uleb128 0xd0
 1981 0068 EB0D0000 		.4byte	.LASF488
 1982 006c 00       		.byte	0
 1983              		.section	.debug_line,"",%progbits
ARM GAS  /tmp/ccmtygTw.s 			page 36


 1984              	.Ldebug_line0:
 1985 0000 A9010000 		.section	.debug_str,"MS",%progbits,1
 1985      02009101 
 1985      00000201 
 1985      FB0E0D00 
 1985      01010101 
 1986              	.LASF78:
 1987 0000 5F5F5054 		.ascii	"__PTRDIFF_MAX__ 2147483647\000"
 1987      52444946 
 1987      465F4D41 
 1987      585F5F20 
 1987      32313437 
 1988              	.LASF73:
 1989 001b 5F5F4C4F 		.ascii	"__LONG_LONG_MAX__ 9223372036854775807LL\000"
 1989      4E475F4C 
 1989      4F4E475F 
 1989      4D41585F 
 1989      5F203932 
 1990              	.LASF180:
 1991 0043 5F5F4445 		.ascii	"__DEC64_SUBNORMAL_MIN__ 0.000000000000001E-383DD\000"
 1991      4336345F 
 1991      5355424E 
 1991      4F524D41 
 1991      4C5F4D49 
 1992              	.LASF74:
 1993 0074 5F5F5743 		.ascii	"__WCHAR_MAX__ 4294967295U\000"
 1993      4841525F 
 1993      4D41585F 
 1993      5F203432 
 1993      39343936 
 1994              	.LASF355:
 1995 008e 5F5F4558 		.ascii	"__EXP(x) __ ##x ##__\000"
 1995      50287829 
 1995      205F5F20 
 1995      23237820 
 1995      23235F5F 
 1996              	.LASF402:
 1997 00a3 5F5F696E 		.ascii	"__int_fast8_t_defined 1\000"
 1997      745F6661 
 1997      7374385F 
 1997      745F6465 
 1997      66696E65 
 1998              	.LASF413:
 1999 00bb 494E545F 		.ascii	"INT_LEAST8_MAX (__INT_LEAST8_MAX__)\000"
 1999      4C454153 
 1999      54385F4D 
 1999      41582028 
 1999      5F5F494E 
 2000              	.LASF368:
 2001 00df 5F5F6861 		.ascii	"__have_long32 1\000"
 2001      76655F6C 
 2001      6F6E6733 
 2001      32203100 
 2002              	.LASF446:
 2003 00ef 494E544D 		.ascii	"INTMAX_MIN (-INTMAX_MAX - 1)\000"
 2003      41585F4D 
 2003      494E2028 
ARM GAS  /tmp/ccmtygTw.s 			page 37


 2003      2D494E54 
 2003      4D41585F 
 2004              	.LASF179:
 2005 010c 5F5F4445 		.ascii	"__DEC64_EPSILON__ 1E-15DD\000"
 2005      4336345F 
 2005      45505349 
 2005      4C4F4E5F 
 2005      5F203145 
 2006              	.LASF94:
 2007 0126 5F5F494E 		.ascii	"__INT_LEAST8_MAX__ 127\000"
 2007      545F4C45 
 2007      41535438 
 2007      5F4D4158 
 2007      5F5F2031 
 2008              	.LASF86:
 2009 013d 5F5F494E 		.ascii	"__INT8_MAX__ 127\000"
 2009      54385F4D 
 2009      41585F5F 
 2009      20313237 
 2009      00
 2010              	.LASF430:
 2011 014e 494E545F 		.ascii	"INT_LEAST64_MIN (-__INT_LEAST64_MAX__ - 1)\000"
 2011      4C454153 
 2011      5436345F 
 2011      4D494E20 
 2011      282D5F5F 
 2012              	.LASF103:
 2013 0179 5F5F5549 		.ascii	"__UINT8_C(c) c\000"
 2013      4E54385F 
 2013      43286329 
 2013      206300
 2014              	.LASF88:
 2015 0188 5F5F494E 		.ascii	"__INT32_MAX__ 2147483647L\000"
 2015      5433325F 
 2015      4D41585F 
 2015      5F203231 
 2015      34373438 
 2016              	.LASF271:
 2017 01a2 5F5F4851 		.ascii	"__HQ_IBIT__ 0\000"
 2017      5F494249 
 2017      545F5F20 
 2017      3000
 2018              	.LASF269:
 2019 01b0 5F5F5151 		.ascii	"__QQ_IBIT__ 0\000"
 2019      5F494249 
 2019      545F5F20 
 2019      3000
 2020              	.LASF285:
 2021 01be 5F5F5544 		.ascii	"__UDQ_IBIT__ 0\000"
 2021      515F4942 
 2021      49545F5F 
 2021      203000
 2022              	.LASF464:
 2023 01cd 55494E54 		.ascii	"UINT64_C(x) __UINT64_C(x)\000"
 2023      36345F43 
 2023      28782920 
 2023      5F5F5549 
ARM GAS  /tmp/ccmtygTw.s 			page 38


 2023      4E543634 
 2024              	.LASF505:
 2025 01e7 74656D70 		.ascii	"temp\000"
 2025      00
 2026              	.LASF426:
 2027 01ec 55494E54 		.ascii	"UINT_LEAST32_MAX (__UINT_LEAST32_MAX__)\000"
 2027      5F4C4541 
 2027      53543332 
 2027      5F4D4158 
 2027      20285F5F 
 2028              	.LASF132:
 2029 0214 5F5F464C 		.ascii	"__FLT_MAX__ 3.4028234663852886e+38F\000"
 2029      545F4D41 
 2029      585F5F20 
 2029      332E3430 
 2029      32383233 
 2030              	.LASF141:
 2031 0238 5F5F4442 		.ascii	"__DBL_MIN_EXP__ (-1021)\000"
 2031      4C5F4D49 
 2031      4E5F4558 
 2031      505F5F20 
 2031      282D3130 
 2032              	.LASF310:
 2033 0250 5F5F4743 		.ascii	"__GCC_ATOMIC_CHAR16_T_LOCK_FREE 1\000"
 2033      435F4154 
 2033      4F4D4943 
 2033      5F434841 
 2033      5231365F 
 2034              	.LASF100:
 2035 0272 5F5F494E 		.ascii	"__INT_LEAST64_MAX__ 9223372036854775807LL\000"
 2035      545F4C45 
 2035      41535436 
 2035      345F4D41 
 2035      585F5F20 
 2036              	.LASF325:
 2037 029c 5F5F4152 		.ascii	"__ARM_SIZEOF_WCHAR_T 4\000"
 2037      4D5F5349 
 2037      5A454F46 
 2037      5F574348 
 2037      41525F54 
 2038              	.LASF414:
 2039 02b3 55494E54 		.ascii	"UINT_LEAST8_MAX (__UINT_LEAST8_MAX__)\000"
 2039      5F4C4541 
 2039      5354385F 
 2039      4D415820 
 2039      285F5F55 
 2040              	.LASF416:
 2041 02d9 494E5431 		.ascii	"INT16_MAX (__INT16_MAX__)\000"
 2041      365F4D41 
 2041      5820285F 
 2041      5F494E54 
 2041      31365F4D 
 2042              	.LASF322:
 2043 02f3 5F5F5349 		.ascii	"__SIZEOF_WINT_T__ 4\000"
 2043      5A454F46 
 2043      5F57494E 
 2043      545F545F 
ARM GAS  /tmp/ccmtygTw.s 			page 39


 2043      5F203400 
 2044              	.LASF353:
 2045 0307 5F5F474E 		.ascii	"__GNUC_PREREQ(maj,min) ((__GNUC__ << 16) + __GNUC_M"
 2045      55435F50 
 2045      52455245 
 2045      51286D61 
 2045      6A2C6D69 
 2046 033a 494E4F52 		.ascii	"INOR__ >= ((maj) << 16) + (min))\000"
 2046      5F5F203E 
 2046      3D202828 
 2046      6D616A29 
 2046      203C3C20 
 2047              	.LASF146:
 2048 035b 5F5F4442 		.ascii	"__DBL_MAX__ ((double)1.7976931348623157e+308L)\000"
 2048      4C5F4D41 
 2048      585F5F20 
 2048      2828646F 
 2048      75626C65 
 2049              	.LASF195:
 2050 038a 5F5F5553 		.ascii	"__USFRACT_MIN__ 0.0UHR\000"
 2050      46524143 
 2050      545F4D49 
 2050      4E5F5F20 
 2050      302E3055 
 2051              	.LASF442:
 2052 03a1 494E545F 		.ascii	"INT_FAST64_MIN (-__INT_FAST64_MAX__ - 1)\000"
 2052      46415354 
 2052      36345F4D 
 2052      494E2028 
 2052      2D5F5F49 
 2053              	.LASF498:
 2054 03ca 756E7369 		.ascii	"unsigned int\000"
 2054      676E6564 
 2054      20696E74 
 2054      00
 2055              	.LASF450:
 2056 03d7 5349475F 		.ascii	"SIG_ATOMIC_MAX (__STDINT_EXP(INT_MAX))\000"
 2056      41544F4D 
 2056      49435F4D 
 2056      41582028 
 2056      5F5F5354 
 2057              	.LASF456:
 2058 03fe 57494E54 		.ascii	"WINT_MIN (__WINT_MIN__)\000"
 2058      5F4D494E 
 2058      20285F5F 
 2058      57494E54 
 2058      5F4D494E 
 2059              	.LASF105:
 2060 0416 5F5F5549 		.ascii	"__UINT16_C(c) c\000"
 2060      4E543136 
 2060      5F432863 
 2060      29206300 
 2061              	.LASF386:
 2062 0426 5F5F4641 		.ascii	"__FAST16 \000"
 2062      53543136 
 2062      2000
 2063              	.LASF22:
ARM GAS  /tmp/ccmtygTw.s 			page 40


 2064 0430 5F5F5349 		.ascii	"__SIZEOF_SIZE_T__ 4\000"
 2064      5A454F46 
 2064      5F53495A 
 2064      455F545F 
 2064      5F203400 
 2065              	.LASF37:
 2066 0444 5F5F4348 		.ascii	"__CHAR16_TYPE__ short unsigned int\000"
 2066      41523136 
 2066      5F545950 
 2066      455F5F20 
 2066      73686F72 
 2067              	.LASF21:
 2068 0467 5F5F5349 		.ascii	"__SIZEOF_LONG_DOUBLE__ 8\000"
 2068      5A454F46 
 2068      5F4C4F4E 
 2068      475F444F 
 2068      55424C45 
 2069              	.LASF2:
 2070 0480 5F5F474E 		.ascii	"__GNUC__ 4\000"
 2070      55435F5F 
 2070      203400
 2071              	.LASF26:
 2072 048b 5F5F4F52 		.ascii	"__ORDER_BIG_ENDIAN__ 4321\000"
 2072      4445525F 
 2072      4249475F 
 2072      454E4449 
 2072      414E5F5F 
 2073              	.LASF226:
 2074 04a5 5F5F554C 		.ascii	"__ULLFRACT_MAX__ 0XFFFFFFFFFFFFFFFFP-64ULLR\000"
 2074      4C465241 
 2074      43545F4D 
 2074      41585F5F 
 2074      20305846 
 2075              	.LASF184:
 2076 04d1 5F5F4445 		.ascii	"__DEC128_MIN__ 1E-6143DL\000"
 2076      43313238 
 2076      5F4D494E 
 2076      5F5F2031 
 2076      452D3631 
 2077              	.LASF377:
 2078 04ea 73686F72 		.ascii	"short +1\000"
 2078      74202B31 
 2078      00
 2079              	.LASF302:
 2080 04f3 5F5F5554 		.ascii	"__UTA_FBIT__ 64\000"
 2080      415F4642 
 2080      49545F5F 
 2080      20363400 
 2081              	.LASF139:
 2082 0503 5F5F4442 		.ascii	"__DBL_MANT_DIG__ 53\000"
 2082      4C5F4D41 
 2082      4E545F44 
 2082      49475F5F 
 2082      20353300 
 2083              	.LASF55:
 2084 0517 5F5F5549 		.ascii	"__UINT_LEAST64_TYPE__ long long unsigned int\000"
 2084      4E545F4C 
ARM GAS  /tmp/ccmtygTw.s 			page 41


 2084      45415354 
 2084      36345F54 
 2084      5950455F 
 2085              	.LASF389:
 2086 0544 5F5F4C45 		.ascii	"__LEAST8 \"hh\"\000"
 2086      41535438 
 2086      20226868 
 2086      2200
 2087              	.LASF9:
 2088 0552 5F5F4154 		.ascii	"__ATOMIC_RELEASE 3\000"
 2088      4F4D4943 
 2088      5F52454C 
 2088      45415345 
 2088      203300
 2089              	.LASF79:
 2090 0565 5F5F5349 		.ascii	"__SIZE_MAX__ 4294967295U\000"
 2090      5A455F4D 
 2090      41585F5F 
 2090      20343239 
 2090      34393637 
 2091              	.LASF307:
 2092 057e 5F5F4348 		.ascii	"__CHAR_UNSIGNED__ 1\000"
 2092      41525F55 
 2092      4E534947 
 2092      4E45445F 
 2092      5F203100 
 2093              	.LASF41:
 2094 0592 5F5F494E 		.ascii	"__INT16_TYPE__ short int\000"
 2094      5431365F 
 2094      54595045 
 2094      5F5F2073 
 2094      686F7274 
 2095              	.LASF172:
 2096 05ab 5F5F4445 		.ascii	"__DEC32_EPSILON__ 1E-6DF\000"
 2096      4333325F 
 2096      45505349 
 2096      4C4F4E5F 
 2096      5F203145 
 2097              	.LASF154:
 2098 05c4 5F5F4C44 		.ascii	"__LDBL_DIG__ 15\000"
 2098      424C5F44 
 2098      49475F5F 
 2098      20313500 
 2099              	.LASF13:
 2100 05d4 5F5F4F50 		.ascii	"__OPTIMIZE__ 1\000"
 2100      54494D49 
 2100      5A455F5F 
 2100      203100
 2101              	.LASF71:
 2102 05e3 5F5F494E 		.ascii	"__INT_MAX__ 2147483647\000"
 2102      545F4D41 
 2102      585F5F20 
 2102      32313437 
 2102      34383336 
 2103              	.LASF259:
 2104 05fa 5F5F4C4C 		.ascii	"__LLACCUM_IBIT__ 32\000"
 2104      41434355 
ARM GAS  /tmp/ccmtygTw.s 			page 42


 2104      4D5F4942 
 2104      49545F5F 
 2104      20333200 
 2105              	.LASF7:
 2106 060e 5F5F4154 		.ascii	"__ATOMIC_SEQ_CST 5\000"
 2106      4F4D4943 
 2106      5F534551 
 2106      5F435354 
 2106      203500
 2107              	.LASF97:
 2108 0621 5F5F494E 		.ascii	"__INT16_C(c) c\000"
 2108      5431365F 
 2108      43286329 
 2108      206300
 2109              	.LASF463:
 2110 0630 494E5436 		.ascii	"INT64_C(x) __INT64_C(x)\000"
 2110      345F4328 
 2110      7829205F 
 2110      5F494E54 
 2110      36345F43 
 2111              	.LASF18:
 2112 0648 5F5F5349 		.ascii	"__SIZEOF_SHORT__ 2\000"
 2112      5A454F46 
 2112      5F53484F 
 2112      52545F5F 
 2112      203200
 2113              	.LASF394:
 2114 065b 5F5F696E 		.ascii	"__int8_t_defined 1\000"
 2114      74385F74 
 2114      5F646566 
 2114      696E6564 
 2114      203100
 2115              	.LASF304:
 2116 066e 5F5F5245 		.ascii	"__REGISTER_PREFIX__ \000"
 2116      47495354 
 2116      45525F50 
 2116      52454649 
 2116      585F5F20 
 2117              	.LASF83:
 2118 0683 5F5F5549 		.ascii	"__UINTMAX_C(c) c ## ULL\000"
 2118      4E544D41 
 2118      585F4328 
 2118      63292063 
 2118      20232320 
 2119              	.LASF461:
 2120 069b 494E5433 		.ascii	"INT32_C(x) __INT32_C(x)\000"
 2120      325F4328 
 2120      7829205F 
 2120      5F494E54 
 2120      33325F43 
 2121              	.LASF28:
 2122 06b3 5F5F4259 		.ascii	"__BYTE_ORDER__ __ORDER_LITTLE_ENDIAN__\000"
 2122      54455F4F 
 2122      52444552 
 2122      5F5F205F 
 2122      5F4F5244 
 2123              	.LASF102:
ARM GAS  /tmp/ccmtygTw.s 			page 43


 2124 06da 5F5F5549 		.ascii	"__UINT_LEAST8_MAX__ 255\000"
 2124      4E545F4C 
 2124      45415354 
 2124      385F4D41 
 2124      585F5F20 
 2125              	.LASF209:
 2126 06f2 5F5F4C46 		.ascii	"__LFRACT_IBIT__ 0\000"
 2126      52414354 
 2126      5F494249 
 2126      545F5F20 
 2126      3000
 2127              	.LASF328:
 2128 0704 5F5F4152 		.ascii	"__ARM_ARCH 6\000"
 2128      4D5F4152 
 2128      43482036 
 2128      00
 2129              	.LASF52:
 2130 0711 5F5F5549 		.ascii	"__UINT_LEAST8_TYPE__ unsigned char\000"
 2130      4E545F4C 
 2130      45415354 
 2130      385F5459 
 2130      50455F5F 
 2131              	.LASF407:
 2132 0734 494E5450 		.ascii	"INTPTR_MAX (__INTPTR_MAX__)\000"
 2132      54525F4D 
 2132      41582028 
 2132      5F5F494E 
 2132      54505452 
 2133              	.LASF370:
 2134 0750 756E7369 		.ascii	"unsigned\000"
 2134      676E6564 
 2134      00
 2135              	.LASF339:
 2136 0759 5F5F4152 		.ascii	"__ARM_ARCH_6M__ 1\000"
 2136      4D5F4152 
 2136      43485F36 
 2136      4D5F5F20 
 2136      3100
 2137              	.LASF224:
 2138 076b 5F5F554C 		.ascii	"__ULLFRACT_IBIT__ 0\000"
 2138      4C465241 
 2138      43545F49 
 2138      4249545F 
 2138      5F203000 
 2139              	.LASF387:
 2140 077f 5F5F4641 		.ascii	"__FAST32 \000"
 2140      53543332 
 2140      2000
 2141              	.LASF6:
 2142 0789 5F5F4154 		.ascii	"__ATOMIC_RELAXED 0\000"
 2142      4F4D4943 
 2142      5F52454C 
 2142      41584544 
 2142      203000
 2143              	.LASF432:
 2144 079c 55494E54 		.ascii	"UINT_LEAST64_MAX (__UINT_LEAST64_MAX__)\000"
 2144      5F4C4541 
ARM GAS  /tmp/ccmtygTw.s 			page 44


 2144      53543634 
 2144      5F4D4158 
 2144      20285F5F 
 2145              	.LASF438:
 2146 07c4 55494E54 		.ascii	"UINT_FAST16_MAX (__UINT_FAST16_MAX__)\000"
 2146      5F464153 
 2146      5431365F 
 2146      4D415820 
 2146      285F5F55 
 2147              	.LASF67:
 2148 07ea 5F5F6861 		.ascii	"__has_include_next(STR) __has_include_next__(STR)\000"
 2148      735F696E 
 2148      636C7564 
 2148      655F6E65 
 2148      78742853 
 2149              	.LASF250:
 2150 081c 5F5F4C41 		.ascii	"__LACCUM_MIN__ (-0X1P31LK-0X1P31LK)\000"
 2150      4343554D 
 2150      5F4D494E 
 2150      5F5F2028 
 2150      2D305831 
 2151              	.LASF266:
 2152 0840 5F5F554C 		.ascii	"__ULLACCUM_MAX__ 0XFFFFFFFFFFFFFFFFP-32ULLK\000"
 2152      4C414343 
 2152      554D5F4D 
 2152      41585F5F 
 2152      20305846 
 2153              	.LASF255:
 2154 086c 5F5F554C 		.ascii	"__ULACCUM_MIN__ 0.0ULK\000"
 2154      41434355 
 2154      4D5F4D49 
 2154      4E5F5F20 
 2154      302E3055 
 2155              	.LASF137:
 2156 0883 5F5F464C 		.ascii	"__FLT_HAS_INFINITY__ 1\000"
 2156      545F4841 
 2156      535F494E 
 2156      46494E49 
 2156      54595F5F 
 2157              	.LASF352:
 2158 089a 5F5F4E45 		.ascii	"__NEWLIB_MINOR__ 2\000"
 2158      574C4942 
 2158      5F4D494E 
 2158      4F525F5F 
 2158      203200
 2159              	.LASF332:
 2160 08ad 5F5F4152 		.ascii	"__ARMEL__ 1\000"
 2160      4D454C5F 
 2160      5F203100 
 2161              	.LASF114:
 2162 08b9 5F5F5549 		.ascii	"__UINT_FAST8_MAX__ 4294967295U\000"
 2162      4E545F46 
 2162      41535438 
 2162      5F4D4158 
 2162      5F5F2034 
 2163              	.LASF301:
 2164 08d8 5F5F5544 		.ascii	"__UDA_IBIT__ 32\000"
ARM GAS  /tmp/ccmtygTw.s 			page 45


 2164      415F4942 
 2164      49545F5F 
 2164      20333200 
 2165              	.LASF93:
 2166 08e8 5F5F5549 		.ascii	"__UINT64_MAX__ 18446744073709551615ULL\000"
 2166      4E543634 
 2166      5F4D4158 
 2166      5F5F2031 
 2166      38343436 
 2167              	.LASF59:
 2168 090f 5F5F494E 		.ascii	"__INT_FAST64_TYPE__ long long int\000"
 2168      545F4641 
 2168      53543634 
 2168      5F545950 
 2168      455F5F20 
 2169              	.LASF95:
 2170 0931 5F5F494E 		.ascii	"__INT8_C(c) c\000"
 2170      54385F43 
 2170      28632920 
 2170      6300
 2171              	.LASF490:
 2172 093f 7369676E 		.ascii	"signed char\000"
 2172      65642063 
 2172      68617200 
 2173              	.LASF376:
 2174 094b 63686172 		.ascii	"char +0\000"
 2174      202B3000 
 2175              	.LASF392:
 2176 0953 5F5F4C45 		.ascii	"__LEAST64 \"ll\"\000"
 2176      41535436 
 2176      3420226C 
 2176      6C2200
 2177              	.LASF265:
 2178 0962 5F5F554C 		.ascii	"__ULLACCUM_MIN__ 0.0ULLK\000"
 2178      4C414343 
 2178      554D5F4D 
 2178      494E5F5F 
 2178      20302E30 
 2179              	.LASF467:
 2180 097b 5F474343 		.ascii	"_GCC_WRAP_STDINT_H \000"
 2180      5F575241 
 2180      505F5354 
 2180      44494E54 
 2180      5F482000 
 2181              	.LASF378:
 2182 098f 696E7420 		.ascii	"int +2\000"
 2182      2B3200
 2183              	.LASF469:
 2184 0996 626F6F6C 		.ascii	"bool _Bool\000"
 2184      205F426F 
 2184      6F6C00
 2185              	.LASF65:
 2186 09a1 5F5F5549 		.ascii	"__UINTPTR_TYPE__ unsigned int\000"
 2186      4E545054 
 2186      525F5459 
 2186      50455F5F 
 2186      20756E73 
ARM GAS  /tmp/ccmtygTw.s 			page 46


 2187              	.LASF393:
 2188 09bf 5F535953 		.ascii	"_SYS__STDINT_H \000"
 2188      5F5F5354 
 2188      44494E54 
 2188      5F482000 
 2189              	.LASF291:
 2190 09cf 5F5F5341 		.ascii	"__SA_IBIT__ 16\000"
 2190      5F494249 
 2190      545F5F20 
 2190      313600
 2191              	.LASF221:
 2192 09de 5F5F4C4C 		.ascii	"__LLFRACT_MAX__ 0X7FFFFFFFFFFFFFFFP-63LLR\000"
 2192      46524143 
 2192      545F4D41 
 2192      585F5F20 
 2192      30583746 
 2193              	.LASF126:
 2194 0a08 5F5F464C 		.ascii	"__FLT_DIG__ 6\000"
 2194      545F4449 
 2194      475F5F20 
 2194      3600
 2195              	.LASF148:
 2196 0a16 5F5F4442 		.ascii	"__DBL_EPSILON__ ((double)2.2204460492503131e-16L)\000"
 2196      4C5F4550 
 2196      53494C4F 
 2196      4E5F5F20 
 2196      2828646F 
 2197              	.LASF373:
 2198 0a48 6C6F6E67 		.ascii	"long\000"
 2198      00
 2199              	.LASF292:
 2200 0a4d 5F5F4441 		.ascii	"__DA_FBIT__ 31\000"
 2200      5F464249 
 2200      545F5F20 
 2200      333100
 2201              	.LASF324:
 2202 0a5c 5F5F4152 		.ascii	"__ARM_SIZEOF_MINIMAL_ENUM 1\000"
 2202      4D5F5349 
 2202      5A454F46 
 2202      5F4D494E 
 2202      494D414C 
 2203              	.LASF344:
 2204 0a78 5F5F5553 		.ascii	"__USES_INITFINI__ 1\000"
 2204      45535F49 
 2204      4E495446 
 2204      494E495F 
 2204      5F203100 
 2205              	.LASF170:
 2206 0a8c 5F5F4445 		.ascii	"__DEC32_MIN__ 1E-95DF\000"
 2206      4333325F 
 2206      4D494E5F 
 2206      5F203145 
 2206      2D393544 
 2207              	.LASF5:
 2208 0aa2 5F5F5645 		.ascii	"__VERSION__ \"4.9.3 20150529 (release) [ARM/embedde"
 2208      5253494F 
 2208      4E5F5F20 
ARM GAS  /tmp/ccmtygTw.s 			page 47


 2208      22342E39 
 2208      2E332032 
 2209 0ad4 642D345F 		.ascii	"d-4_9-branch revision 227977]\"\000"
 2209      392D6272 
 2209      616E6368 
 2209      20726576 
 2209      6973696F 
 2210              	.LASF374:
 2211 0af3 7369676E 		.ascii	"signed +0\000"
 2211      6564202B 
 2211      3000
 2212              	.LASF237:
 2213 0afd 5F5F5553 		.ascii	"__USACCUM_EPSILON__ 0x1P-8UHK\000"
 2213      41434355 
 2213      4D5F4550 
 2213      53494C4F 
 2213      4E5F5F20 
 2214              	.LASF356:
 2215 0b1b 5F5F5F69 		.ascii	"___int8_t_defined 1\000"
 2215      6E74385F 
 2215      745F6465 
 2215      66696E65 
 2215      64203100 
 2216              	.LASF423:
 2217 0b2f 55494E54 		.ascii	"UINT32_MAX (__UINT32_MAX__)\000"
 2217      33325F4D 
 2217      41582028 
 2217      5F5F5549 
 2217      4E543332 
 2218              	.LASF256:
 2219 0b4b 5F5F554C 		.ascii	"__ULACCUM_MAX__ 0XFFFFFFFFFFFFFFFFP-32ULK\000"
 2219      41434355 
 2219      4D5F4D41 
 2219      585F5F20 
 2219      30584646 
 2220              	.LASF206:
 2221 0b75 5F5F5546 		.ascii	"__UFRACT_MAX__ 0XFFFFP-16UR\000"
 2221      52414354 
 2221      5F4D4158 
 2221      5F5F2030 
 2221      58464646 
 2222              	.LASF191:
 2223 0b91 5F5F5346 		.ascii	"__SFRACT_MAX__ 0X7FP-7HR\000"
 2223      52414354 
 2223      5F4D4158 
 2223      5F5F2030 
 2223      58374650 
 2224              	.LASF341:
 2225 0baa 5F5F4152 		.ascii	"__ARM_EABI__ 1\000"
 2225      4D5F4541 
 2225      42495F5F 
 2225      203100
 2226              	.LASF350:
 2227 0bb9 5F535953 		.ascii	"_SYS_FEATURES_H \000"
 2227      5F464541 
 2227      54555245 
 2227      535F4820 
ARM GAS  /tmp/ccmtygTw.s 			page 48


 2227      00
 2228              	.LASF497:
 2229 0bca 6C6F6E67 		.ascii	"long long unsigned int\000"
 2229      206C6F6E 
 2229      6720756E 
 2229      7369676E 
 2229      65642069 
 2230              	.LASF485:
 2231 0be1 554E5553 		.ascii	"UNUSED(x) (void)(x)\000"
 2231      45442878 
 2231      29202876 
 2231      6F696429 
 2231      28782900 
 2232              	.LASF182:
 2233 0bf5 5F5F4445 		.ascii	"__DEC128_MIN_EXP__ (-6142)\000"
 2233      43313238 
 2233      5F4D494E 
 2233      5F455850 
 2233      5F5F2028 
 2234              	.LASF217:
 2235 0c10 5F5F554C 		.ascii	"__ULFRACT_EPSILON__ 0x1P-32ULR\000"
 2235      46524143 
 2235      545F4550 
 2235      53494C4F 
 2235      4E5F5F20 
 2236              	.LASF50:
 2237 0c2f 5F5F494E 		.ascii	"__INT_LEAST32_TYPE__ long int\000"
 2237      545F4C45 
 2237      41535433 
 2237      325F5459 
 2237      50455F5F 
 2238              	.LASF112:
 2239 0c4d 5F5F494E 		.ascii	"__INT_FAST32_MAX__ 2147483647\000"
 2239      545F4641 
 2239      53543332 
 2239      5F4D4158 
 2239      5F5F2032 
 2240              	.LASF214:
 2241 0c6b 5F5F554C 		.ascii	"__ULFRACT_IBIT__ 0\000"
 2241      46524143 
 2241      545F4942 
 2241      49545F5F 
 2241      203000
 2242              	.LASF287:
 2243 0c7e 5F5F5554 		.ascii	"__UTQ_IBIT__ 0\000"
 2243      515F4942 
 2243      49545F5F 
 2243      203000
 2244              	.LASF351:
 2245 0c8d 5F5F4E45 		.ascii	"__NEWLIB__ 2\000"
 2245      574C4942 
 2245      5F5F2032 
 2245      00
 2246              	.LASF135:
 2247 0c9a 5F5F464C 		.ascii	"__FLT_DENORM_MIN__ 1.4012984643248171e-45F\000"
 2247      545F4445 
 2247      4E4F524D 
ARM GAS  /tmp/ccmtygTw.s 			page 49


 2247      5F4D494E 
 2247      5F5F2031 
 2248              	.LASF225:
 2249 0cc5 5F5F554C 		.ascii	"__ULLFRACT_MIN__ 0.0ULLR\000"
 2249      4C465241 
 2249      43545F4D 
 2249      494E5F5F 
 2249      20302E30 
 2250              	.LASF108:
 2251 0cde 5F5F5549 		.ascii	"__UINT_LEAST64_MAX__ 18446744073709551615ULL\000"
 2251      4E545F4C 
 2251      45415354 
 2251      36345F4D 
 2251      41585F5F 
 2252              	.LASF245:
 2253 0d0b 5F5F5541 		.ascii	"__UACCUM_MIN__ 0.0UK\000"
 2253      4343554D 
 2253      5F4D494E 
 2253      5F5F2030 
 2253      2E30554B 
 2254              	.LASF212:
 2255 0d20 5F5F4C46 		.ascii	"__LFRACT_EPSILON__ 0x1P-31LR\000"
 2255      52414354 
 2255      5F455053 
 2255      494C4F4E 
 2255      5F5F2030 
 2256              	.LASF56:
 2257 0d3d 5F5F494E 		.ascii	"__INT_FAST8_TYPE__ int\000"
 2257      545F4641 
 2257      5354385F 
 2257      54595045 
 2257      5F5F2069 
 2258              	.LASF419:
 2259 0d54 494E545F 		.ascii	"INT_LEAST16_MAX (__INT_LEAST16_MAX__)\000"
 2259      4C454153 
 2259      5431365F 
 2259      4D415820 
 2259      285F5F49 
 2260              	.LASF61:
 2261 0d7a 5F5F5549 		.ascii	"__UINT_FAST16_TYPE__ unsigned int\000"
 2261      4E545F46 
 2261      41535431 
 2261      365F5459 
 2261      50455F5F 
 2262              	.LASF479:
 2263 0d9c 5F424954 		.ascii	"_BITMASK\000"
 2263      4D41534B 
 2263      00
 2264              	.LASF228:
 2265 0da5 5F5F5341 		.ascii	"__SACCUM_FBIT__ 7\000"
 2265      4343554D 
 2265      5F464249 
 2265      545F5F20 
 2265      3700
 2266              	.LASF447:
 2267 0db7 55494E54 		.ascii	"UINTMAX_MAX (__UINTMAX_MAX__)\000"
 2267      4D41585F 
ARM GAS  /tmp/ccmtygTw.s 			page 50


 2267      4D415820 
 2267      285F5F55 
 2267      494E544D 
 2268              	.LASF326:
 2269 0dd5 5F5F4152 		.ascii	"__ARM_ARCH_PROFILE 77\000"
 2269      4D5F4152 
 2269      43485F50 
 2269      524F4649 
 2269      4C452037 
 2270              	.LASF488:
 2271 0deb 494E4C49 		.ascii	"INLINE inline\000"
 2271      4E452069 
 2271      6E6C696E 
 2271      6500
 2272              	.LASF178:
 2273 0df9 5F5F4445 		.ascii	"__DEC64_MAX__ 9.999999999999999E384DD\000"
 2273      4336345F 
 2273      4D41585F 
 2273      5F20392E 
 2273      39393939 
 2274              	.LASF200:
 2275 0e1f 5F5F4652 		.ascii	"__FRACT_MIN__ (-0.5R-0.5R)\000"
 2275      4143545F 
 2275      4D494E5F 
 2275      5F20282D 
 2275      302E3552 
 2276              	.LASF314:
 2277 0e3a 5F5F4743 		.ascii	"__GCC_ATOMIC_INT_LOCK_FREE 1\000"
 2277      435F4154 
 2277      4F4D4943 
 2277      5F494E54 
 2277      5F4C4F43 
 2278              	.LASF247:
 2279 0e57 5F5F5541 		.ascii	"__UACCUM_EPSILON__ 0x1P-16UK\000"
 2279      4343554D 
 2279      5F455053 
 2279      494C4F4E 
 2279      5F5F2030 
 2280              	.LASF239:
 2281 0e74 5F5F4143 		.ascii	"__ACCUM_IBIT__ 16\000"
 2281      43554D5F 
 2281      49424954 
 2281      5F5F2031 
 2281      3600
 2282              	.LASF163:
 2283 0e86 5F5F4C44 		.ascii	"__LDBL_DENORM_MIN__ 4.9406564584124654e-324L\000"
 2283      424C5F44 
 2283      454E4F52 
 2283      4D5F4D49 
 2283      4E5F5F20 
 2284              	.LASF233:
 2285 0eb3 5F5F5553 		.ascii	"__USACCUM_FBIT__ 8\000"
 2285      41434355 
 2285      4D5F4642 
 2285      49545F5F 
 2285      203800
 2286              	.LASF25:
ARM GAS  /tmp/ccmtygTw.s 			page 51


 2287 0ec6 5F5F4F52 		.ascii	"__ORDER_LITTLE_ENDIAN__ 1234\000"
 2287      4445525F 
 2287      4C495454 
 2287      4C455F45 
 2287      4E444941 
 2288              	.LASF323:
 2289 0ee3 5F5F5349 		.ascii	"__SIZEOF_PTRDIFF_T__ 4\000"
 2289      5A454F46 
 2289      5F505452 
 2289      44494646 
 2289      5F545F5F 
 2290              	.LASF190:
 2291 0efa 5F5F5346 		.ascii	"__SFRACT_MIN__ (-0.5HR-0.5HR)\000"
 2291      52414354 
 2291      5F4D494E 
 2291      5F5F2028 
 2291      2D302E35 
 2292              	.LASF299:
 2293 0f18 5F5F5553 		.ascii	"__USA_IBIT__ 16\000"
 2293      415F4942 
 2293      49545F5F 
 2293      20313600 
 2294              	.LASF219:
 2295 0f28 5F5F4C4C 		.ascii	"__LLFRACT_IBIT__ 0\000"
 2295      46524143 
 2295      545F4942 
 2295      49545F5F 
 2295      203000
 2296              	.LASF359:
 2297 0f3b 5F5F5F69 		.ascii	"___int64_t_defined 1\000"
 2297      6E743634 
 2297      5F745F64 
 2297      6566696E 
 2297      65642031 
 2298              	.LASF181:
 2299 0f50 5F5F4445 		.ascii	"__DEC128_MANT_DIG__ 34\000"
 2299      43313238 
 2299      5F4D414E 
 2299      545F4449 
 2299      475F5F20 
 2300              	.LASF459:
 2301 0f67 494E5431 		.ascii	"INT16_C(x) __INT16_C(x)\000"
 2301      365F4328 
 2301      7829205F 
 2301      5F494E54 
 2301      31365F43 
 2302              	.LASF348:
 2303 0f7f 5F535444 		.ascii	"_STDINT_H \000"
 2303      494E545F 
 2303      482000
 2304              	.LASF19:
 2305 0f8a 5F5F5349 		.ascii	"__SIZEOF_FLOAT__ 4\000"
 2305      5A454F46 
 2305      5F464C4F 
 2305      41545F5F 
 2305      203400
 2306              	.LASF107:
ARM GAS  /tmp/ccmtygTw.s 			page 52


 2307 0f9d 5F5F5549 		.ascii	"__UINT32_C(c) c ## UL\000"
 2307      4E543332 
 2307      5F432863 
 2307      29206320 
 2307      23232055 
 2308              	.LASF169:
 2309 0fb3 5F5F4445 		.ascii	"__DEC32_MAX_EXP__ 97\000"
 2309      4333325F 
 2309      4D41585F 
 2309      4558505F 
 2309      5F203937 
 2310              	.LASF482:
 2311 0fc8 4E454C45 		.ascii	"NELEMENTS(array) (sizeof(array) / sizeof(array[0]))"
 2311      4D454E54 
 2311      53286172 
 2311      72617929 
 2311      20287369 
 2312 0ffb 00       		.ascii	"\000"
 2313              	.LASF439:
 2314 0ffc 494E545F 		.ascii	"INT_FAST32_MIN (-__INT_FAST32_MAX__ - 1)\000"
 2314      46415354 
 2314      33325F4D 
 2314      494E2028 
 2314      2D5F5F49 
 2315              	.LASF346:
 2316 1025 5F555449 		.ascii	"_UTIL_H_ \000"
 2316      4C5F485F 
 2316      2000
 2317              	.LASF468:
 2318 102f 5F535444 		.ascii	"_STDBOOL_H \000"
 2318      424F4F4C 
 2318      5F482000 
 2319              	.LASF417:
 2320 103b 55494E54 		.ascii	"UINT16_MAX (__UINT16_MAX__)\000"
 2320      31365F4D 
 2320      41582028 
 2320      5F5F5549 
 2320      4E543136 
 2321              	.LASF333:
 2322 1057 5F5F5448 		.ascii	"__THUMBEL__ 1\000"
 2322      554D4245 
 2322      4C5F5F20 
 2322      3100
 2323              	.LASF397:
 2324 1065 5F5F696E 		.ascii	"__int64_t_defined 1\000"
 2324      7436345F 
 2324      745F6465 
 2324      66696E65 
 2324      64203100 
 2325              	.LASF425:
 2326 1079 494E545F 		.ascii	"INT_LEAST32_MAX (__INT_LEAST32_MAX__)\000"
 2326      4C454153 
 2326      5433325F 
 2326      4D415820 
 2326      285F5F49 
 2327              	.LASF293:
 2328 109f 5F5F4441 		.ascii	"__DA_IBIT__ 32\000"
ARM GAS  /tmp/ccmtygTw.s 			page 53


 2328      5F494249 
 2328      545F5F20 
 2328      333200
 2329              	.LASF24:
 2330 10ae 5F5F4249 		.ascii	"__BIGGEST_ALIGNMENT__ 8\000"
 2330      47474553 
 2330      545F414C 
 2330      49474E4D 
 2330      454E545F 
 2331              	.LASF249:
 2332 10c6 5F5F4C41 		.ascii	"__LACCUM_IBIT__ 32\000"
 2332      4343554D 
 2332      5F494249 
 2332      545F5F20 
 2332      333200
 2333              	.LASF96:
 2334 10d9 5F5F494E 		.ascii	"__INT_LEAST16_MAX__ 32767\000"
 2334      545F4C45 
 2334      41535431 
 2334      365F4D41 
 2334      585F5F20 
 2335              	.LASF196:
 2336 10f3 5F5F5553 		.ascii	"__USFRACT_MAX__ 0XFFP-8UHR\000"
 2336      46524143 
 2336      545F4D41 
 2336      585F5F20 
 2336      30584646 
 2337              	.LASF470:
 2338 110e 74727565 		.ascii	"true 1\000"
 2338      203100
 2339              	.LASF357:
 2340 1115 5F5F5F69 		.ascii	"___int16_t_defined 1\000"
 2340      6E743136 
 2340      5F745F64 
 2340      6566696E 
 2340      65642031 
 2341              	.LASF260:
 2342 112a 5F5F4C4C 		.ascii	"__LLACCUM_MIN__ (-0X1P31LLK-0X1P31LLK)\000"
 2342      41434355 
 2342      4D5F4D49 
 2342      4E5F5F20 
 2342      282D3058 
 2343              	.LASF68:
 2344 1151 5F5F4758 		.ascii	"__GXX_ABI_VERSION 1002\000"
 2344      585F4142 
 2344      495F5645 
 2344      5253494F 
 2344      4E203130 
 2345              	.LASF390:
 2346 1168 5F5F4C45 		.ascii	"__LEAST16 \"h\"\000"
 2346      41535431 
 2346      36202268 
 2346      2200
 2347              	.LASF290:
 2348 1176 5F5F5341 		.ascii	"__SA_FBIT__ 15\000"
 2348      5F464249 
 2348      545F5F20 
ARM GAS  /tmp/ccmtygTw.s 			page 54


 2348      313500
 2349              	.LASF232:
 2350 1185 5F5F5341 		.ascii	"__SACCUM_EPSILON__ 0x1P-7HK\000"
 2350      4343554D 
 2350      5F455053 
 2350      494C4F4E 
 2350      5F5F2030 
 2351              	.LASF358:
 2352 11a1 5F5F5F69 		.ascii	"___int32_t_defined 1\000"
 2352      6E743332 
 2352      5F745F64 
 2352      6566696E 
 2352      65642031 
 2353              	.LASF57:
 2354 11b6 5F5F494E 		.ascii	"__INT_FAST16_TYPE__ int\000"
 2354      545F4641 
 2354      53543136 
 2354      5F545950 
 2354      455F5F20 
 2355              	.LASF487:
 2356 11ce 4D494E28 		.ascii	"MIN(a,b) (((a) < (b)) ? (a) : (b))\000"
 2356      612C6229 
 2356      20282828 
 2356      6129203C 
 2356      20286229 
 2357              	.LASF45:
 2358 11f1 5F5F5549 		.ascii	"__UINT16_TYPE__ short unsigned int\000"
 2358      4E543136 
 2358      5F545950 
 2358      455F5F20 
 2358      73686F72 
 2359              	.LASF3:
 2360 1214 5F5F474E 		.ascii	"__GNUC_MINOR__ 9\000"
 2360      55435F4D 
 2360      494E4F52 
 2360      5F5F2039 
 2360      00
 2361              	.LASF309:
 2362 1225 5F5F4743 		.ascii	"__GCC_ATOMIC_CHAR_LOCK_FREE 1\000"
 2362      435F4154 
 2362      4F4D4943 
 2362      5F434841 
 2362      525F4C4F 
 2363              	.LASF281:
 2364 1243 5F5F5548 		.ascii	"__UHQ_IBIT__ 0\000"
 2364      515F4942 
 2364      49545F5F 
 2364      203000
 2365              	.LASF418:
 2366 1252 494E545F 		.ascii	"INT_LEAST16_MIN (-__INT_LEAST16_MAX__ - 1)\000"
 2366      4C454153 
 2366      5431365F 
 2366      4D494E20 
 2366      282D5F5F 
 2367              	.LASF48:
 2368 127d 5F5F494E 		.ascii	"__INT_LEAST8_TYPE__ signed char\000"
 2368      545F4C45 
ARM GAS  /tmp/ccmtygTw.s 			page 55


 2368      41535438 
 2368      5F545950 
 2368      455F5F20 
 2369              	.LASF388:
 2370 129d 5F5F4641 		.ascii	"__FAST64 \"ll\"\000"
 2370      53543634 
 2370      20226C6C 
 2370      2200
 2371              	.LASF43:
 2372 12ab 5F5F494E 		.ascii	"__INT64_TYPE__ long long int\000"
 2372      5436345F 
 2372      54595045 
 2372      5F5F206C 
 2372      6F6E6720 
 2373              	.LASF130:
 2374 12c8 5F5F464C 		.ascii	"__FLT_MAX_10_EXP__ 38\000"
 2374      545F4D41 
 2374      585F3130 
 2374      5F455850 
 2374      5F5F2033 
 2375              	.LASF412:
 2376 12de 494E545F 		.ascii	"INT_LEAST8_MIN (-__INT_LEAST8_MAX__ - 1)\000"
 2376      4C454153 
 2376      54385F4D 
 2376      494E2028 
 2376      2D5F5F49 
 2377              	.LASF261:
 2378 1307 5F5F4C4C 		.ascii	"__LLACCUM_MAX__ 0X7FFFFFFFFFFFFFFFP-31LLK\000"
 2378      41434355 
 2378      4D5F4D41 
 2378      585F5F20 
 2378      30583746 
 2379              	.LASF262:
 2380 1331 5F5F4C4C 		.ascii	"__LLACCUM_EPSILON__ 0x1P-31LLK\000"
 2380      41434355 
 2380      4D5F4550 
 2380      53494C4F 
 2380      4E5F5F20 
 2381              	.LASF372:
 2382 1350 73686F72 		.ascii	"short\000"
 2382      7400
 2383              	.LASF431:
 2384 1356 494E545F 		.ascii	"INT_LEAST64_MAX (__INT_LEAST64_MAX__)\000"
 2384      4C454153 
 2384      5436345F 
 2384      4D415820 
 2384      285F5F49 
 2385              	.LASF215:
 2386 137c 5F5F554C 		.ascii	"__ULFRACT_MIN__ 0.0ULR\000"
 2386      46524143 
 2386      545F4D49 
 2386      4E5F5F20 
 2386      302E3055 
 2387              	.LASF125:
 2388 1393 5F5F464C 		.ascii	"__FLT_MANT_DIG__ 24\000"
 2388      545F4D41 
 2388      4E545F44 
ARM GAS  /tmp/ccmtygTw.s 			page 56


 2388      49475F5F 
 2388      20323400 
 2389              	.LASF384:
 2390 13a7 5F5F494E 		.ascii	"__INT64 \"ll\"\000"
 2390      54363420 
 2390      226C6C22 
 2390      00
 2391              	.LASF283:
 2392 13b4 5F5F5553 		.ascii	"__USQ_IBIT__ 0\000"
 2392      515F4942 
 2392      49545F5F 
 2392      203000
 2393              	.LASF433:
 2394 13c3 494E545F 		.ascii	"INT_FAST8_MIN (-__INT_FAST8_MAX__ - 1)\000"
 2394      46415354 
 2394      385F4D49 
 2394      4E20282D 
 2394      5F5F494E 
 2395              	.LASF152:
 2396 13ea 5F5F4442 		.ascii	"__DBL_HAS_QUIET_NAN__ 1\000"
 2396      4C5F4841 
 2396      535F5155 
 2396      4945545F 
 2396      4E414E5F 
 2397              	.LASF244:
 2398 1402 5F5F5541 		.ascii	"__UACCUM_IBIT__ 16\000"
 2398      4343554D 
 2398      5F494249 
 2398      545F5F20 
 2398      313600
 2399              	.LASF123:
 2400 1415 5F5F4445 		.ascii	"__DEC_EVAL_METHOD__ 2\000"
 2400      435F4556 
 2400      414C5F4D 
 2400      4554484F 
 2400      445F5F20 
 2401              	.LASF142:
 2402 142b 5F5F4442 		.ascii	"__DBL_MIN_10_EXP__ (-307)\000"
 2402      4C5F4D49 
 2402      4E5F3130 
 2402      5F455850 
 2402      5F5F2028 
 2403              	.LASF234:
 2404 1445 5F5F5553 		.ascii	"__USACCUM_IBIT__ 8\000"
 2404      41434355 
 2404      4D5F4942 
 2404      49545F5F 
 2404      203800
 2405              	.LASF92:
 2406 1458 5F5F5549 		.ascii	"__UINT32_MAX__ 4294967295UL\000"
 2406      4E543332 
 2406      5F4D4158 
 2406      5F5F2034 
 2406      32393439 
 2407              	.LASF136:
 2408 1474 5F5F464C 		.ascii	"__FLT_HAS_DENORM__ 1\000"
 2408      545F4841 
ARM GAS  /tmp/ccmtygTw.s 			page 57


 2408      535F4445 
 2408      4E4F524D 
 2408      5F5F2031 
 2409              	.LASF338:
 2410 1489 5F5F5448 		.ascii	"__THUMB_INTERWORK__ 1\000"
 2410      554D425F 
 2410      494E5445 
 2410      52574F52 
 2410      4B5F5F20 
 2411              	.LASF198:
 2412 149f 5F5F4652 		.ascii	"__FRACT_FBIT__ 15\000"
 2412      4143545F 
 2412      46424954 
 2412      5F5F2031 
 2412      3500
 2413              	.LASF363:
 2414 14b1 5F5F5F69 		.ascii	"___int_least64_t_defined 1\000"
 2414      6E745F6C 
 2414      65617374 
 2414      36345F74 
 2414      5F646566 
 2415              	.LASF122:
 2416 14cc 5F5F464C 		.ascii	"__FLT_EVAL_METHOD__ 0\000"
 2416      545F4556 
 2416      414C5F4D 
 2416      4554484F 
 2416      445F5F20 
 2417              	.LASF475:
 2418 14e2 5F424954 		.ascii	"_BIT\000"
 2418      00
 2419              	.LASF60:
 2420 14e7 5F5F5549 		.ascii	"__UINT_FAST8_TYPE__ unsigned int\000"
 2420      4E545F46 
 2420      41535438 
 2420      5F545950 
 2420      455F5F20 
 2421              	.LASF238:
 2422 1508 5F5F4143 		.ascii	"__ACCUM_FBIT__ 15\000"
 2422      43554D5F 
 2422      46424954 
 2422      5F5F2031 
 2422      3500
 2423              	.LASF312:
 2424 151a 5F5F4743 		.ascii	"__GCC_ATOMIC_WCHAR_T_LOCK_FREE 1\000"
 2424      435F4154 
 2424      4F4D4943 
 2424      5F574348 
 2424      41525F54 
 2425              	.LASF175:
 2426 153b 5F5F4445 		.ascii	"__DEC64_MIN_EXP__ (-382)\000"
 2426      4336345F 
 2426      4D494E5F 
 2426      4558505F 
 2426      5F20282D 
 2427              	.LASF254:
 2428 1554 5F5F554C 		.ascii	"__ULACCUM_IBIT__ 32\000"
 2428      41434355 
ARM GAS  /tmp/ccmtygTw.s 			page 58


 2428      4D5F4942 
 2428      49545F5F 
 2428      20333200 
 2429              	.LASF454:
 2430 1568 57434841 		.ascii	"WCHAR_MAX (__WCHAR_MAX__)\000"
 2430      525F4D41 
 2430      5820285F 
 2430      5F574348 
 2430      41525F4D 
 2431              	.LASF218:
 2432 1582 5F5F4C4C 		.ascii	"__LLFRACT_FBIT__ 63\000"
 2432      46524143 
 2432      545F4642 
 2432      49545F5F 
 2432      20363300 
 2433              	.LASF298:
 2434 1596 5F5F5553 		.ascii	"__USA_FBIT__ 16\000"
 2434      415F4642 
 2434      49545F5F 
 2434      20313600 
 2435              	.LASF424:
 2436 15a6 494E545F 		.ascii	"INT_LEAST32_MIN (-__INT_LEAST32_MAX__ - 1)\000"
 2436      4C454153 
 2436      5433325F 
 2436      4D494E20 
 2436      282D5F5F 
 2437              	.LASF429:
 2438 15d1 55494E54 		.ascii	"UINT64_MAX (__UINT64_MAX__)\000"
 2438      36345F4D 
 2438      41582028 
 2438      5F5F5549 
 2438      4E543634 
 2439              	.LASF361:
 2440 15ed 5F5F5F69 		.ascii	"___int_least16_t_defined 1\000"
 2440      6E745F6C 
 2440      65617374 
 2440      31365F74 
 2440      5F646566 
 2441              	.LASF98:
 2442 1608 5F5F494E 		.ascii	"__INT_LEAST32_MAX__ 2147483647L\000"
 2442      545F4C45 
 2442      41535433 
 2442      325F4D41 
 2442      585F5F20 
 2443              	.LASF171:
 2444 1628 5F5F4445 		.ascii	"__DEC32_MAX__ 9.999999E96DF\000"
 2444      4333325F 
 2444      4D41585F 
 2444      5F20392E 
 2444      39393939 
 2445              	.LASF208:
 2446 1644 5F5F4C46 		.ascii	"__LFRACT_FBIT__ 31\000"
 2446      52414354 
 2446      5F464249 
 2446      545F5F20 
 2446      333100
 2447              	.LASF49:
ARM GAS  /tmp/ccmtygTw.s 			page 59


 2448 1657 5F5F494E 		.ascii	"__INT_LEAST16_TYPE__ short int\000"
 2448      545F4C45 
 2448      41535431 
 2448      365F5459 
 2448      50455F5F 
 2449              	.LASF504:
 2450 1676 5F5F7265 		.ascii	"__reverse\000"
 2450      76657273 
 2450      6500
 2451              	.LASF140:
 2452 1680 5F5F4442 		.ascii	"__DBL_DIG__ 15\000"
 2452      4C5F4449 
 2452      475F5F20 
 2452      313500
 2453              	.LASF362:
 2454 168f 5F5F5F69 		.ascii	"___int_least32_t_defined 1\000"
 2454      6E745F6C 
 2454      65617374 
 2454      33325F74 
 2454      5F646566 
 2455              	.LASF248:
 2456 16aa 5F5F4C41 		.ascii	"__LACCUM_FBIT__ 31\000"
 2456      4343554D 
 2456      5F464249 
 2456      545F5F20 
 2456      333100
 2457              	.LASF207:
 2458 16bd 5F5F5546 		.ascii	"__UFRACT_EPSILON__ 0x1P-16UR\000"
 2458      52414354 
 2458      5F455053 
 2458      494C4F4E 
 2458      5F5F2030 
 2459              	.LASF315:
 2460 16da 5F5F4743 		.ascii	"__GCC_ATOMIC_LONG_LOCK_FREE 1\000"
 2460      435F4154 
 2460      4F4D4943 
 2460      5F4C4F4E 
 2460      475F4C4F 
 2461              	.LASF473:
 2462 16f8 50415241 		.ascii	"PARAM_SETSTATE(State) ((State == RESET) || (State ="
 2462      4D5F5345 
 2462      54535441 
 2462      54452853 
 2462      74617465 
 2463 172b 3D205345 		.ascii	"= SET))\000"
 2463      54292900 
 2464              	.LASF242:
 2465 1733 5F5F4143 		.ascii	"__ACCUM_EPSILON__ 0x1P-15K\000"
 2465      43554D5F 
 2465      45505349 
 2465      4C4F4E5F 
 2465      5F203078 
 2466              	.LASF349:
 2467 174e 5F4D4143 		.ascii	"_MACHINE__DEFAULT_TYPES_H \000"
 2467      48494E45 
 2467      5F5F4445 
 2467      4641554C 
ARM GAS  /tmp/ccmtygTw.s 			page 60


 2467      545F5459 
 2468              	.LASF289:
 2469 1769 5F5F4841 		.ascii	"__HA_IBIT__ 8\000"
 2469      5F494249 
 2469      545F5F20 
 2469      3800
 2470              	.LASF331:
 2471 1777 5F5F4152 		.ascii	"__ARM_ARCH_ISA_THUMB 1\000"
 2471      4D5F4152 
 2471      43485F49 
 2471      53415F54 
 2471      48554D42 
 2472              	.LASF460:
 2473 178e 55494E54 		.ascii	"UINT16_C(x) __UINT16_C(x)\000"
 2473      31365F43 
 2473      28782920 
 2473      5F5F5549 
 2473      4E543136 
 2474              	.LASF286:
 2475 17a8 5F5F5554 		.ascii	"__UTQ_FBIT__ 128\000"
 2475      515F4642 
 2475      49545F5F 
 2475      20313238 
 2475      00
 2476              	.LASF87:
 2477 17b9 5F5F494E 		.ascii	"__INT16_MAX__ 32767\000"
 2477      5431365F 
 2477      4D41585F 
 2477      5F203332 
 2477      37363700 
 2478              	.LASF496:
 2479 17cd 6C6F6E67 		.ascii	"long long int\000"
 2479      206C6F6E 
 2479      6720696E 
 2479      7400
 2480              	.LASF23:
 2481 17db 5F5F4348 		.ascii	"__CHAR_BIT__ 8\000"
 2481      41525F42 
 2481      49545F5F 
 2481      203800
 2482              	.LASF336:
 2483 17ea 5F5F4152 		.ascii	"__ARM_FP 12\000"
 2483      4D5F4650 
 2483      20313200 
 2484              	.LASF401:
 2485 17f6 5F5F696E 		.ascii	"__int_least64_t_defined 1\000"
 2485      745F6C65 
 2485      61737436 
 2485      345F745F 
 2485      64656669 
 2486              	.LASF308:
 2487 1810 5F5F4743 		.ascii	"__GCC_ATOMIC_BOOL_LOCK_FREE 1\000"
 2487      435F4154 
 2487      4F4D4943 
 2487      5F424F4F 
 2487      4C5F4C4F 
 2488              	.LASF160:
ARM GAS  /tmp/ccmtygTw.s 			page 61


 2489 182e 5F5F4C44 		.ascii	"__LDBL_MAX__ 1.7976931348623157e+308L\000"
 2489      424C5F4D 
 2489      41585F5F 
 2489      20312E37 
 2489      39373639 
 2490              	.LASF14:
 2491 1854 5F5F4649 		.ascii	"__FINITE_MATH_ONLY__ 0\000"
 2491      4E495445 
 2491      5F4D4154 
 2491      485F4F4E 
 2491      4C595F5F 
 2492              	.LASF231:
 2493 186b 5F5F5341 		.ascii	"__SACCUM_MAX__ 0X7FFFP-7HK\000"
 2493      4343554D 
 2493      5F4D4158 
 2493      5F5F2030 
 2493      58374646 
 2494              	.LASF327:
 2495 1886 5F5F6172 		.ascii	"__arm__ 1\000"
 2495      6D5F5F20 
 2495      3100
 2496              	.LASF153:
 2497 1890 5F5F4C44 		.ascii	"__LDBL_MANT_DIG__ 53\000"
 2497      424C5F4D 
 2497      414E545F 
 2497      4449475F 
 2497      5F203533 
 2498              	.LASF277:
 2499 18a5 5F5F5451 		.ascii	"__TQ_IBIT__ 0\000"
 2499      5F494249 
 2499      545F5F20 
 2499      3000
 2500              	.LASF296:
 2501 18b3 5F5F5548 		.ascii	"__UHA_FBIT__ 8\000"
 2501      415F4642 
 2501      49545F5F 
 2501      203800
 2502              	.LASF477:
 2503 18c2 5F534246 		.ascii	"_SBF\000"
 2503      00
 2504              	.LASF70:
 2505 18c7 5F5F5348 		.ascii	"__SHRT_MAX__ 32767\000"
 2505      52545F4D 
 2505      41585F5F 
 2505      20333237 
 2505      363700
 2506              	.LASF458:
 2507 18da 55494E54 		.ascii	"UINT8_C(x) __UINT8_C(x)\000"
 2507      385F4328 
 2507      7829205F 
 2507      5F55494E 
 2507      54385F43 
 2508              	.LASF106:
 2509 18f2 5F5F5549 		.ascii	"__UINT_LEAST32_MAX__ 4294967295UL\000"
 2509      4E545F4C 
 2509      45415354 
 2509      33325F4D 
ARM GAS  /tmp/ccmtygTw.s 			page 62


 2509      41585F5F 
 2510              	.LASF343:
 2511 1914 5F5F454C 		.ascii	"__ELF__ 1\000"
 2511      465F5F20 
 2511      3100
 2512              	.LASF317:
 2513 191e 5F5F4743 		.ascii	"__GCC_ATOMIC_TEST_AND_SET_TRUEVAL 1\000"
 2513      435F4154 
 2513      4F4D4943 
 2513      5F544553 
 2513      545F414E 
 2514              	.LASF319:
 2515 1942 5F5F4743 		.ascii	"__GCC_HAVE_DWARF2_CFI_ASM 1\000"
 2515      435F4841 
 2515      56455F44 
 2515      57415246 
 2515      325F4346 
 2516              	.LASF203:
 2517 195e 5F5F5546 		.ascii	"__UFRACT_FBIT__ 16\000"
 2517      52414354 
 2517      5F464249 
 2517      545F5F20 
 2517      313600
 2518              	.LASF173:
 2519 1971 5F5F4445 		.ascii	"__DEC32_SUBNORMAL_MIN__ 0.000001E-95DF\000"
 2519      4333325F 
 2519      5355424E 
 2519      4F524D41 
 2519      4C5F4D49 
 2520              	.LASF489:
 2521 1998 41525241 		.ascii	"ARRAY_SIZE(foo) (sizeof(foo)/sizeof(foo[0]))\000"
 2521      595F5349 
 2521      5A452866 
 2521      6F6F2920 
 2521      2873697A 
 2522              	.LASF8:
 2523 19c5 5F5F4154 		.ascii	"__ATOMIC_ACQUIRE 2\000"
 2523      4F4D4943 
 2523      5F414351 
 2523      55495245 
 2523      203200
 2524              	.LASF399:
 2525 19d8 5F5F696E 		.ascii	"__int_least16_t_defined 1\000"
 2525      745F6C65 
 2525      61737431 
 2525      365F745F 
 2525      64656669 
 2526              	.LASF451:
 2527 19f2 50545244 		.ascii	"PTRDIFF_MAX (__PTRDIFF_MAX__)\000"
 2527      4946465F 
 2527      4D415820 
 2527      285F5F50 
 2527      54524449 
 2528              	.LASF421:
 2529 1a10 494E5433 		.ascii	"INT32_MIN (-__INT32_MAX__ - 1)\000"
 2529      325F4D49 
 2529      4E20282D 
ARM GAS  /tmp/ccmtygTw.s 			page 63


 2529      5F5F494E 
 2529      5433325F 
 2530              	.LASF404:
 2531 1a2f 5F5F696E 		.ascii	"__int_fast32_t_defined 1\000"
 2531      745F6661 
 2531      73743332 
 2531      5F745F64 
 2531      6566696E 
 2532              	.LASF0:
 2533 1a48 5F5F5354 		.ascii	"__STDC__ 1\000"
 2533      44435F5F 
 2533      203100
 2534              	.LASF16:
 2535 1a53 5F5F5349 		.ascii	"__SIZEOF_LONG__ 4\000"
 2535      5A454F46 
 2535      5F4C4F4E 
 2535      475F5F20 
 2535      3400
 2536              	.LASF143:
 2537 1a65 5F5F4442 		.ascii	"__DBL_MAX_EXP__ 1024\000"
 2537      4C5F4D41 
 2537      585F4558 
 2537      505F5F20 
 2537      31303234 
 2538              	.LASF449:
 2539 1a7a 5349475F 		.ascii	"SIG_ATOMIC_MIN (-__STDINT_EXP(INT_MAX) - 1)\000"
 2539      41544F4D 
 2539      49435F4D 
 2539      494E2028 
 2539      2D5F5F53 
 2540              	.LASF11:
 2541 1aa6 5F5F4154 		.ascii	"__ATOMIC_CONSUME 1\000"
 2541      4F4D4943 
 2541      5F434F4E 
 2541      53554D45 
 2541      203100
 2542              	.LASF400:
 2543 1ab9 5F5F696E 		.ascii	"__int_least32_t_defined 1\000"
 2543      745F6C65 
 2543      61737433 
 2543      325F745F 
 2543      64656669 
 2544              	.LASF436:
 2545 1ad3 494E545F 		.ascii	"INT_FAST16_MIN (-__INT_FAST16_MAX__ - 1)\000"
 2545      46415354 
 2545      31365F4D 
 2545      494E2028 
 2545      2D5F5F49 
 2546              	.LASF34:
 2547 1afc 5F5F5749 		.ascii	"__WINT_TYPE__ unsigned int\000"
 2547      4E545F54 
 2547      5950455F 
 2547      5F20756E 
 2547      7369676E 
 2548              	.LASF118:
 2549 1b17 5F5F494E 		.ascii	"__INTPTR_MAX__ 2147483647\000"
 2549      54505452 
ARM GAS  /tmp/ccmtygTw.s 			page 64


 2549      5F4D4158 
 2549      5F5F2032 
 2549      31343734 
 2550              	.LASF383:
 2551 1b31 5F5F494E 		.ascii	"__INT32 \"l\"\000"
 2551      54333220 
 2551      226C2200 
 2552              	.LASF213:
 2553 1b3d 5F5F554C 		.ascii	"__ULFRACT_FBIT__ 32\000"
 2553      46524143 
 2553      545F4642 
 2553      49545F5F 
 2553      20333200 
 2554              	.LASF33:
 2555 1b51 5F5F5743 		.ascii	"__WCHAR_TYPE__ unsigned int\000"
 2555      4841525F 
 2555      54595045 
 2555      5F5F2075 
 2555      6E736967 
 2556              	.LASF486:
 2557 1b6d 4D415828 		.ascii	"MAX(a,b) (((a) > (b)) ? (a) : (b))\000"
 2557      612C6229 
 2557      20282828 
 2557      6129203E 
 2557      20286229 
 2558              	.LASF240:
 2559 1b90 5F5F4143 		.ascii	"__ACCUM_MIN__ (-0X1P15K-0X1P15K)\000"
 2559      43554D5F 
 2559      4D494E5F 
 2559      5F20282D 
 2559      30583150 
 2560              	.LASF20:
 2561 1bb1 5F5F5349 		.ascii	"__SIZEOF_DOUBLE__ 8\000"
 2561      5A454F46 
 2561      5F444F55 
 2561      424C455F 
 2561      5F203800 
 2562              	.LASF410:
 2563 1bc5 494E5438 		.ascii	"INT8_MAX (__INT8_MAX__)\000"
 2563      5F4D4158 
 2563      20285F5F 
 2563      494E5438 
 2563      5F4D4158 
 2564              	.LASF4:
 2565 1bdd 5F5F474E 		.ascii	"__GNUC_PATCHLEVEL__ 3\000"
 2565      55435F50 
 2565      41544348 
 2565      4C455645 
 2565      4C5F5F20 
 2566              	.LASF342:
 2567 1bf3 5F5F4758 		.ascii	"__GXX_TYPEINFO_EQUALITY_INLINE 0\000"
 2567      585F5459 
 2567      5045494E 
 2567      464F5F45 
 2567      5155414C 
 2568              	.LASF201:
 2569 1c14 5F5F4652 		.ascii	"__FRACT_MAX__ 0X7FFFP-15R\000"
ARM GAS  /tmp/ccmtygTw.s 			page 65


 2569      4143545F 
 2569      4D41585F 
 2569      5F203058 
 2569      37464646 
 2570              	.LASF77:
 2571 1c2e 5F5F5749 		.ascii	"__WINT_MIN__ 0U\000"
 2571      4E545F4D 
 2571      494E5F5F 
 2571      20305500 
 2572              	.LASF253:
 2573 1c3e 5F5F554C 		.ascii	"__ULACCUM_FBIT__ 32\000"
 2573      41434355 
 2573      4D5F4642 
 2573      49545F5F 
 2573      20333200 
 2574              	.LASF408:
 2575 1c52 55494E54 		.ascii	"UINTPTR_MAX (__UINTPTR_MAX__)\000"
 2575      5054525F 
 2575      4D415820 
 2575      285F5F55 
 2575      494E5450 
 2576              	.LASF205:
 2577 1c70 5F5F5546 		.ascii	"__UFRACT_MIN__ 0.0UR\000"
 2577      52414354 
 2577      5F4D494E 
 2577      5F5F2030 
 2577      2E305552 
 2578              	.LASF381:
 2579 1c85 5F5F494E 		.ascii	"__INT8 \"hh\"\000"
 2579      54382022 
 2579      68682200 
 2580              	.LASF462:
 2581 1c91 55494E54 		.ascii	"UINT32_C(x) __UINT32_C(x)\000"
 2581      33325F43 
 2581      28782920 
 2581      5F5F5549 
 2581      4E543332 
 2582              	.LASF199:
 2583 1cab 5F5F4652 		.ascii	"__FRACT_IBIT__ 0\000"
 2583      4143545F 
 2583      49424954 
 2583      5F5F2030 
 2583      00
 2584              	.LASF161:
 2585 1cbc 5F5F4C44 		.ascii	"__LDBL_MIN__ 2.2250738585072014e-308L\000"
 2585      424C5F4D 
 2585      494E5F5F 
 2585      20322E32 
 2585      32353037 
 2586              	.LASF294:
 2587 1ce2 5F5F5441 		.ascii	"__TA_FBIT__ 63\000"
 2587      5F464249 
 2587      545F5F20 
 2587      363300
 2588              	.LASF165:
 2589 1cf1 5F5F4C44 		.ascii	"__LDBL_HAS_INFINITY__ 1\000"
 2589      424C5F48 
ARM GAS  /tmp/ccmtygTw.s 			page 66


 2589      41535F49 
 2589      4E46494E 
 2589      4954595F 
 2590              	.LASF121:
 2591 1d09 5F5F4743 		.ascii	"__GCC_IEC_559_COMPLEX 0\000"
 2591      435F4945 
 2591      435F3535 
 2591      395F434F 
 2591      4D504C45 
 2592              	.LASF481:
 2593 1d21 4E554C4C 		.ascii	"NULL ((void *) 0)\000"
 2593      20282876 
 2593      6F696420 
 2593      2A292030 
 2593      2900
 2594              	.LASF155:
 2595 1d33 5F5F4C44 		.ascii	"__LDBL_MIN_EXP__ (-1021)\000"
 2595      424C5F4D 
 2595      494E5F45 
 2595      58505F5F 
 2595      20282D31 
 2596              	.LASF223:
 2597 1d4c 5F5F554C 		.ascii	"__ULLFRACT_FBIT__ 64\000"
 2597      4C465241 
 2597      43545F46 
 2597      4249545F 
 2597      5F203634 
 2598              	.LASF321:
 2599 1d61 5F5F5349 		.ascii	"__SIZEOF_WCHAR_T__ 4\000"
 2599      5A454F46 
 2599      5F574348 
 2599      41525F54 
 2599      5F5F2034 
 2600              	.LASF499:
 2601 1d76 5F426F6F 		.ascii	"_Bool\000"
 2601      6C00
 2602              	.LASF133:
 2603 1d7c 5F5F464C 		.ascii	"__FLT_MIN__ 1.1754943508222875e-38F\000"
 2603      545F4D49 
 2603      4E5F5F20 
 2603      312E3137 
 2603      35343934 
 2604              	.LASF29:
 2605 1da0 5F5F464C 		.ascii	"__FLOAT_WORD_ORDER__ __ORDER_LITTLE_ENDIAN__\000"
 2605      4F41545F 
 2605      574F5244 
 2605      5F4F5244 
 2605      45525F5F 
 2606              	.LASF241:
 2607 1dcd 5F5F4143 		.ascii	"__ACCUM_MAX__ 0X7FFFFFFFP-15K\000"
 2607      43554D5F 
 2607      4D41585F 
 2607      5F203058 
 2607      37464646 
 2608              	.LASF204:
 2609 1deb 5F5F5546 		.ascii	"__UFRACT_IBIT__ 0\000"
 2609      52414354 
ARM GAS  /tmp/ccmtygTw.s 			page 67


 2609      5F494249 
 2609      545F5F20 
 2609      3000
 2610              	.LASF167:
 2611 1dfd 5F5F4445 		.ascii	"__DEC32_MANT_DIG__ 7\000"
 2611      4333325F 
 2611      4D414E54 
 2611      5F444947 
 2611      5F5F2037 
 2612              	.LASF85:
 2613 1e12 5F5F5349 		.ascii	"__SIG_ATOMIC_MIN__ (-__SIG_ATOMIC_MAX__ - 1)\000"
 2613      475F4154 
 2613      4F4D4943 
 2613      5F4D494E 
 2613      5F5F2028 
 2614              	.LASF222:
 2615 1e3f 5F5F4C4C 		.ascii	"__LLFRACT_EPSILON__ 0x1P-63LLR\000"
 2615      46524143 
 2615      545F4550 
 2615      53494C4F 
 2615      4E5F5F20 
 2616              	.LASF158:
 2617 1e5e 5F5F4C44 		.ascii	"__LDBL_MAX_10_EXP__ 308\000"
 2617      424C5F4D 
 2617      41585F31 
 2617      305F4558 
 2617      505F5F20 
 2618              	.LASF188:
 2619 1e76 5F5F5346 		.ascii	"__SFRACT_FBIT__ 7\000"
 2619      52414354 
 2619      5F464249 
 2619      545F5F20 
 2619      3700
 2620              	.LASF38:
 2621 1e88 5F5F4348 		.ascii	"__CHAR32_TYPE__ long unsigned int\000"
 2621      41523332 
 2621      5F545950 
 2621      455F5F20 
 2621      6C6F6E67 
 2622              	.LASF340:
 2623 1eaa 5F5F4152 		.ascii	"__ARM_PCS 1\000"
 2623      4D5F5043 
 2623      53203100 
 2624              	.LASF51:
 2625 1eb6 5F5F494E 		.ascii	"__INT_LEAST64_TYPE__ long long int\000"
 2625      545F4C45 
 2625      41535436 
 2625      345F5459 
 2625      50455F5F 
 2626              	.LASF403:
 2627 1ed9 5F5F696E 		.ascii	"__int_fast16_t_defined 1\000"
 2627      745F6661 
 2627      73743136 
 2627      5F745F64 
 2627      6566696E 
 2628              	.LASF54:
 2629 1ef2 5F5F5549 		.ascii	"__UINT_LEAST32_TYPE__ long unsigned int\000"
ARM GAS  /tmp/ccmtygTw.s 			page 68


 2629      4E545F4C 
 2629      45415354 
 2629      33325F54 
 2629      5950455F 
 2630              	.LASF274:
 2631 1f1a 5F5F4451 		.ascii	"__DQ_FBIT__ 63\000"
 2631      5F464249 
 2631      545F5F20 
 2631      363300
 2632              	.LASF236:
 2633 1f29 5F5F5553 		.ascii	"__USACCUM_MAX__ 0XFFFFP-8UHK\000"
 2633      41434355 
 2633      4D5F4D41 
 2633      585F5F20 
 2633      30584646 
 2634              	.LASF257:
 2635 1f46 5F5F554C 		.ascii	"__ULACCUM_EPSILON__ 0x1P-32ULK\000"
 2635      41434355 
 2635      4D5F4550 
 2635      53494C4F 
 2635      4E5F5F20 
 2636              	.LASF90:
 2637 1f65 5F5F5549 		.ascii	"__UINT8_MAX__ 255\000"
 2637      4E54385F 
 2637      4D41585F 
 2637      5F203235 
 2637      3500
 2638              	.LASF354:
 2639 1f77 5F5F474E 		.ascii	"__GNUC_PREREQ__(ma,mi) __GNUC_PREREQ(ma, mi)\000"
 2639      55435F50 
 2639      52455245 
 2639      515F5F28 
 2639      6D612C6D 
 2640              	.LASF385:
 2641 1fa4 5F5F4641 		.ascii	"__FAST8 \000"
 2641      53543820 
 2641      00
 2642              	.LASF251:
 2643 1fad 5F5F4C41 		.ascii	"__LACCUM_MAX__ 0X7FFFFFFFFFFFFFFFP-31LK\000"
 2643      4343554D 
 2643      5F4D4158 
 2643      5F5F2030 
 2643      58374646 
 2644              	.LASF27:
 2645 1fd5 5F5F4F52 		.ascii	"__ORDER_PDP_ENDIAN__ 3412\000"
 2645      4445525F 
 2645      5044505F 
 2645      454E4449 
 2645      414E5F5F 
 2646              	.LASF273:
 2647 1fef 5F5F5351 		.ascii	"__SQ_IBIT__ 0\000"
 2647      5F494249 
 2647      545F5F20 
 2647      3000
 2648              	.LASF371:
 2649 1ffd 63686172 		.ascii	"char\000"
 2649      00
ARM GAS  /tmp/ccmtygTw.s 			page 69


 2650              	.LASF131:
 2651 2002 5F5F464C 		.ascii	"__FLT_DECIMAL_DIG__ 9\000"
 2651      545F4445 
 2651      43494D41 
 2651      4C5F4449 
 2651      475F5F20 
 2652              	.LASF186:
 2653 2018 5F5F4445 		.ascii	"__DEC128_EPSILON__ 1E-33DL\000"
 2653      43313238 
 2653      5F455053 
 2653      494C4F4E 
 2653      5F5F2031 
 2654              	.LASF76:
 2655 2033 5F5F5749 		.ascii	"__WINT_MAX__ 4294967295U\000"
 2655      4E545F4D 
 2655      41585F5F 
 2655      20343239 
 2655      34393637 
 2656              	.LASF278:
 2657 204c 5F5F5551 		.ascii	"__UQQ_FBIT__ 8\000"
 2657      515F4642 
 2657      49545F5F 
 2657      203800
 2658              	.LASF187:
 2659 205b 5F5F4445 		.ascii	"__DEC128_SUBNORMAL_MIN__ 0.000000000000000000000000"
 2659      43313238 
 2659      5F535542 
 2659      4E4F524D 
 2659      414C5F4D 
 2660 208e 30303030 		.ascii	"000000001E-6143DL\000"
 2660      30303030 
 2660      31452D36 
 2660      31343344 
 2660      4C00
 2661              	.LASF69:
 2662 20a0 5F5F5343 		.ascii	"__SCHAR_MAX__ 127\000"
 2662      4841525F 
 2662      4D41585F 
 2662      5F203132 
 2662      3700
 2663              	.LASF395:
 2664 20b2 5F5F696E 		.ascii	"__int16_t_defined 1\000"
 2664      7431365F 
 2664      745F6465 
 2664      66696E65 
 2664      64203100 
 2665              	.LASF116:
 2666 20c6 5F5F5549 		.ascii	"__UINT_FAST32_MAX__ 4294967295U\000"
 2666      4E545F46 
 2666      41535433 
 2666      325F4D41 
 2666      585F5F20 
 2667              	.LASF492:
 2668 20e6 73686F72 		.ascii	"short int\000"
 2668      7420696E 
 2668      7400
 2669              	.LASF246:
ARM GAS  /tmp/ccmtygTw.s 			page 70


 2670 20f0 5F5F5541 		.ascii	"__UACCUM_MAX__ 0XFFFFFFFFP-16UK\000"
 2670      4343554D 
 2670      5F4D4158 
 2670      5F5F2030 
 2670      58464646 
 2671              	.LASF176:
 2672 2110 5F5F4445 		.ascii	"__DEC64_MAX_EXP__ 385\000"
 2672      4336345F 
 2672      4D41585F 
 2672      4558505F 
 2672      5F203338 
 2673              	.LASF280:
 2674 2126 5F5F5548 		.ascii	"__UHQ_FBIT__ 16\000"
 2674      515F4642 
 2674      49545F5F 
 2674      20313600 
 2675              	.LASF42:
 2676 2136 5F5F494E 		.ascii	"__INT32_TYPE__ long int\000"
 2676      5433325F 
 2676      54595045 
 2676      5F5F206C 
 2676      6F6E6720 
 2677              	.LASF472:
 2678 214e 5F5F626F 		.ascii	"__bool_true_false_are_defined 1\000"
 2678      6F6C5F74 
 2678      7275655F 
 2678      66616C73 
 2678      655F6172 
 2679              	.LASF494:
 2680 216e 6C6F6E67 		.ascii	"long int\000"
 2680      20696E74 
 2680      00
 2681              	.LASF396:
 2682 2177 5F5F696E 		.ascii	"__int32_t_defined 1\000"
 2682      7433325F 
 2682      745F6465 
 2682      66696E65 
 2682      64203100 
 2683              	.LASF157:
 2684 218b 5F5F4C44 		.ascii	"__LDBL_MAX_EXP__ 1024\000"
 2684      424C5F4D 
 2684      41585F45 
 2684      58505F5F 
 2684      20313032 
 2685              	.LASF272:
 2686 21a1 5F5F5351 		.ascii	"__SQ_FBIT__ 31\000"
 2686      5F464249 
 2686      545F5F20 
 2686      333100
 2687              	.LASF210:
 2688 21b0 5F5F4C46 		.ascii	"__LFRACT_MIN__ (-0.5LR-0.5LR)\000"
 2688      52414354 
 2688      5F4D494E 
 2688      5F5F2028 
 2688      2D302E35 
 2689              	.LASF306:
 2690 21ce 5F5F474E 		.ascii	"__GNUC_GNU_INLINE__ 1\000"
ARM GAS  /tmp/ccmtygTw.s 			page 71


 2690      55435F47 
 2690      4E555F49 
 2690      4E4C494E 
 2690      455F5F20 
 2691              	.LASF183:
 2692 21e4 5F5F4445 		.ascii	"__DEC128_MAX_EXP__ 6145\000"
 2692      43313238 
 2692      5F4D4158 
 2692      5F455850 
 2692      5F5F2036 
 2693              	.LASF330:
 2694 21fc 5F5F7468 		.ascii	"__thumb__ 1\000"
 2694      756D625F 
 2694      5F203100 
 2695              	.LASF369:
 2696 2208 7369676E 		.ascii	"signed\000"
 2696      656400
 2697              	.LASF166:
 2698 220f 5F5F4C44 		.ascii	"__LDBL_HAS_QUIET_NAN__ 1\000"
 2698      424C5F48 
 2698      41535F51 
 2698      55494554 
 2698      5F4E414E 
 2699              	.LASF40:
 2700 2228 5F5F494E 		.ascii	"__INT8_TYPE__ signed char\000"
 2700      54385F54 
 2700      5950455F 
 2700      5F207369 
 2700      676E6564 
 2701              	.LASF305:
 2702 2242 5F5F5553 		.ascii	"__USER_LABEL_PREFIX__ \000"
 2702      45525F4C 
 2702      4142454C 
 2702      5F505245 
 2702      4649585F 
 2703              	.LASF443:
 2704 2259 494E545F 		.ascii	"INT_FAST64_MAX (__INT_FAST64_MAX__)\000"
 2704      46415354 
 2704      36345F4D 
 2704      41582028 
 2704      5F5F494E 
 2705              	.LASF276:
 2706 227d 5F5F5451 		.ascii	"__TQ_FBIT__ 127\000"
 2706      5F464249 
 2706      545F5F20 
 2706      31323700 
 2707              	.LASF197:
 2708 228d 5F5F5553 		.ascii	"__USFRACT_EPSILON__ 0x1P-8UHR\000"
 2708      46524143 
 2708      545F4550 
 2708      53494C4F 
 2708      4E5F5F20 
 2709              	.LASF117:
 2710 22ab 5F5F5549 		.ascii	"__UINT_FAST64_MAX__ 18446744073709551615ULL\000"
 2710      4E545F46 
 2710      41535436 
 2710      345F4D41 
ARM GAS  /tmp/ccmtygTw.s 			page 72


 2710      585F5F20 
 2711              	.LASF337:
 2712 22d7 5F5F4152 		.ascii	"__ARM_NEON_FP 4\000"
 2712      4D5F4E45 
 2712      4F4E5F46 
 2712      50203400 
 2713              	.LASF474:
 2714 22e7 50415241 		.ascii	"PARAM_FUNCTIONALSTATE(State) ((State == DISABLE) ||"
 2714      4D5F4655 
 2714      4E435449 
 2714      4F4E414C 
 2714      53544154 
 2715 231a 20285374 		.ascii	" (State == ENABLE))\000"
 2715      61746520 
 2715      3D3D2045 
 2715      4E41424C 
 2715      45292900 
 2716              	.LASF264:
 2717 232e 5F5F554C 		.ascii	"__ULLACCUM_IBIT__ 32\000"
 2717      4C414343 
 2717      554D5F49 
 2717      4249545F 
 2717      5F203332 
 2718              	.LASF89:
 2719 2343 5F5F494E 		.ascii	"__INT64_MAX__ 9223372036854775807LL\000"
 2719      5436345F 
 2719      4D41585F 
 2719      5F203932 
 2719      32333337 
 2720              	.LASF382:
 2721 2367 5F5F494E 		.ascii	"__INT16 \"h\"\000"
 2721      54313620 
 2721      22682200 
 2722              	.LASF193:
 2723 2373 5F5F5553 		.ascii	"__USFRACT_FBIT__ 8\000"
 2723      46524143 
 2723      545F4642 
 2723      49545F5F 
 2723      203800
 2724              	.LASF284:
 2725 2386 5F5F5544 		.ascii	"__UDQ_FBIT__ 64\000"
 2725      515F4642 
 2725      49545F5F 
 2725      20363400 
 2726              	.LASF270:
 2727 2396 5F5F4851 		.ascii	"__HQ_FBIT__ 15\000"
 2727      5F464249 
 2727      545F5F20 
 2727      313500
 2728              	.LASF115:
 2729 23a5 5F5F5549 		.ascii	"__UINT_FAST16_MAX__ 4294967295U\000"
 2729      4E545F46 
 2729      41535431 
 2729      365F4D41 
 2729      585F5F20 
 2730              	.LASF297:
 2731 23c5 5F5F5548 		.ascii	"__UHA_IBIT__ 8\000"
ARM GAS  /tmp/ccmtygTw.s 			page 73


 2731      415F4942 
 2731      49545F5F 
 2731      203800
 2732              	.LASF189:
 2733 23d4 5F5F5346 		.ascii	"__SFRACT_IBIT__ 0\000"
 2733      52414354 
 2733      5F494249 
 2733      545F5F20 
 2733      3000
 2734              	.LASF17:
 2735 23e6 5F5F5349 		.ascii	"__SIZEOF_LONG_LONG__ 8\000"
 2735      5A454F46 
 2735      5F4C4F4E 
 2735      475F4C4F 
 2735      4E475F5F 
 2736              	.LASF44:
 2737 23fd 5F5F5549 		.ascii	"__UINT8_TYPE__ unsigned char\000"
 2737      4E54385F 
 2737      54595045 
 2737      5F5F2075 
 2737      6E736967 
 2738              	.LASF437:
 2739 241a 494E545F 		.ascii	"INT_FAST16_MAX (__INT_FAST16_MAX__)\000"
 2739      46415354 
 2739      31365F4D 
 2739      41582028 
 2739      5F5F494E 
 2740              	.LASF428:
 2741 243e 494E5436 		.ascii	"INT64_MAX (__INT64_MAX__)\000"
 2741      345F4D41 
 2741      5820285F 
 2741      5F494E54 
 2741      36345F4D 
 2742              	.LASF101:
 2743 2458 5F5F494E 		.ascii	"__INT64_C(c) c ## LL\000"
 2743      5436345F 
 2743      43286329 
 2743      20632023 
 2743      23204C4C 
 2744              	.LASF134:
 2745 246d 5F5F464C 		.ascii	"__FLT_EPSILON__ 1.1920928955078125e-7F\000"
 2745      545F4550 
 2745      53494C4F 
 2745      4E5F5F20 
 2745      312E3139 
 2746              	.LASF448:
 2747 2494 53495A45 		.ascii	"SIZE_MAX (__SIZE_MAX__)\000"
 2747      5F4D4158 
 2747      20285F5F 
 2747      53495A45 
 2747      5F4D4158 
 2748              	.LASF104:
 2749 24ac 5F5F5549 		.ascii	"__UINT_LEAST16_MAX__ 65535\000"
 2749      4E545F4C 
 2749      45415354 
 2749      31365F4D 
 2749      41585F5F 
ARM GAS  /tmp/ccmtygTw.s 			page 74


 2750              	.LASF466:
 2751 24c7 55494E54 		.ascii	"UINTMAX_C(x) __UINTMAX_C(x)\000"
 2751      4D41585F 
 2751      43287829 
 2751      205F5F55 
 2751      494E544D 
 2752              	.LASF46:
 2753 24e3 5F5F5549 		.ascii	"__UINT32_TYPE__ long unsigned int\000"
 2753      4E543332 
 2753      5F545950 
 2753      455F5F20 
 2753      6C6F6E67 
 2754              	.LASF156:
 2755 2505 5F5F4C44 		.ascii	"__LDBL_MIN_10_EXP__ (-307)\000"
 2755      424C5F4D 
 2755      494E5F31 
 2755      305F4558 
 2755      505F5F20 
 2756              	.LASF30:
 2757 2520 5F5F5349 		.ascii	"__SIZEOF_POINTER__ 4\000"
 2757      5A454F46 
 2757      5F504F49 
 2757      4E544552 
 2757      5F5F2034 
 2758              	.LASF484:
 2759 2535 45585445 		.ascii	"EXTERN extern\000"
 2759      524E2065 
 2759      78746572 
 2759      6E00
 2760              	.LASF335:
 2761 2543 5F5F5646 		.ascii	"__VFP_FP__ 1\000"
 2761      505F4650 
 2761      5F5F2031 
 2761      00
 2762              	.LASF216:
 2763 2550 5F5F554C 		.ascii	"__ULFRACT_MAX__ 0XFFFFFFFFP-32ULR\000"
 2763      46524143 
 2763      545F4D41 
 2763      585F5F20 
 2763      30584646 
 2764              	.LASF288:
 2765 2572 5F5F4841 		.ascii	"__HA_FBIT__ 7\000"
 2765      5F464249 
 2765      545F5F20 
 2765      3700
 2766              	.LASF230:
 2767 2580 5F5F5341 		.ascii	"__SACCUM_MIN__ (-0X1P7HK-0X1P7HK)\000"
 2767      4343554D 
 2767      5F4D494E 
 2767      5F5F2028 
 2767      2D305831 
 2768              	.LASF84:
 2769 25a2 5F5F5349 		.ascii	"__SIG_ATOMIC_MAX__ 2147483647\000"
 2769      475F4154 
 2769      4F4D4943 
 2769      5F4D4158 
 2769      5F5F2032 
ARM GAS  /tmp/ccmtygTw.s 			page 75


 2770              	.LASF318:
 2771 25c0 5F5F4743 		.ascii	"__GCC_ATOMIC_POINTER_LOCK_FREE 1\000"
 2771      435F4154 
 2771      4F4D4943 
 2771      5F504F49 
 2771      4E544552 
 2772              	.LASF109:
 2773 25e1 5F5F5549 		.ascii	"__UINT64_C(c) c ## ULL\000"
 2773      4E543634 
 2773      5F432863 
 2773      29206320 
 2773      23232055 
 2774              	.LASF252:
 2775 25f8 5F5F4C41 		.ascii	"__LACCUM_EPSILON__ 0x1P-31LK\000"
 2775      4343554D 
 2775      5F455053 
 2775      494C4F4E 
 2775      5F5F2030 
 2776              	.LASF192:
 2777 2615 5F5F5346 		.ascii	"__SFRACT_EPSILON__ 0x1P-7HR\000"
 2777      52414354 
 2777      5F455053 
 2777      494C4F4E 
 2777      5F5F2030 
 2778              	.LASF279:
 2779 2631 5F5F5551 		.ascii	"__UQQ_IBIT__ 0\000"
 2779      515F4942 
 2779      49545F5F 
 2779      203000
 2780              	.LASF282:
 2781 2640 5F5F5553 		.ascii	"__USQ_FBIT__ 32\000"
 2781      515F4642 
 2781      49545F5F 
 2781      20333200 
 2782              	.LASF347:
 2783 2650 5F5F4C50 		.ascii	"__LPC_TYPES_H_ \000"
 2783      435F5459 
 2783      5045535F 
 2783      485F2000 
 2784              	.LASF495:
 2785 2660 6C6F6E67 		.ascii	"long unsigned int\000"
 2785      20756E73 
 2785      69676E65 
 2785      6420696E 
 2785      7400
 2786              	.LASF119:
 2787 2672 5F5F5549 		.ascii	"__UINTPTR_MAX__ 4294967295U\000"
 2787      4E545054 
 2787      525F4D41 
 2787      585F5F20 
 2787      34323934 
 2788              	.LASF311:
 2789 268e 5F5F4743 		.ascii	"__GCC_ATOMIC_CHAR32_T_LOCK_FREE 1\000"
 2789      435F4154 
 2789      4F4D4943 
 2789      5F434841 
 2789      5233325F 
ARM GAS  /tmp/ccmtygTw.s 			page 76


 2790              	.LASF441:
 2791 26b0 55494E54 		.ascii	"UINT_FAST32_MAX (__UINT_FAST32_MAX__)\000"
 2791      5F464153 
 2791      5433325F 
 2791      4D415820 
 2791      285F5F55 
 2792              	.LASF365:
 2793 26d6 5F535953 		.ascii	"_SYS__INTSUP_H \000"
 2793      5F5F494E 
 2793      54535550 
 2793      5F482000 
 2794              	.LASF91:
 2795 26e6 5F5F5549 		.ascii	"__UINT16_MAX__ 65535\000"
 2795      4E543136 
 2795      5F4D4158 
 2795      5F5F2036 
 2795      35353335 
 2796              	.LASF453:
 2797 26fb 57434841 		.ascii	"WCHAR_MIN (__WCHAR_MIN__)\000"
 2797      525F4D49 
 2797      4E20285F 
 2797      5F574348 
 2797      41525F4D 
 2798              	.LASF82:
 2799 2715 5F5F5549 		.ascii	"__UINTMAX_MAX__ 18446744073709551615ULL\000"
 2799      4E544D41 
 2799      585F4D41 
 2799      585F5F20 
 2799      31383434 
 2800              	.LASF12:
 2801 273d 5F5F4F50 		.ascii	"__OPTIMIZE_SIZE__ 1\000"
 2801      54494D49 
 2801      5A455F53 
 2801      495A455F 
 2801      5F203100 
 2802              	.LASF1:
 2803 2751 5F5F5354 		.ascii	"__STDC_HOSTED__ 1\000"
 2803      44435F48 
 2803      4F535445 
 2803      445F5F20 
 2803      3100
 2804              	.LASF457:
 2805 2763 494E5438 		.ascii	"INT8_C(x) __INT8_C(x)\000"
 2805      5F432878 
 2805      29205F5F 
 2805      494E5438 
 2805      5F432878 
 2806              	.LASF80:
 2807 2779 5F5F494E 		.ascii	"__INTMAX_MAX__ 9223372036854775807LL\000"
 2807      544D4158 
 2807      5F4D4158 
 2807      5F5F2039 
 2807      32323333 
 2808              	.LASF435:
 2809 279e 55494E54 		.ascii	"UINT_FAST8_MAX (__UINT_FAST8_MAX__)\000"
 2809      5F464153 
 2809      54385F4D 
ARM GAS  /tmp/ccmtygTw.s 			page 77


 2809      41582028 
 2809      5F5F5549 
 2810              	.LASF502:
 2811 27c2 2E2E2F2E 		.ascii	"../../lpc11cx4-library/evt_lib/src/util.c\000"
 2811      2E2F6C70 
 2811      63313163 
 2811      78342D6C 
 2811      69627261 
 2812              	.LASF66:
 2813 27ec 5F5F6861 		.ascii	"__has_include(STR) __has_include__(STR)\000"
 2813      735F696E 
 2813      636C7564 
 2813      65285354 
 2813      5229205F 
 2814              	.LASF334:
 2815 2814 5F5F534F 		.ascii	"__SOFTFP__ 1\000"
 2815      46544650 
 2815      5F5F2031 
 2815      00
 2816              	.LASF113:
 2817 2821 5F5F494E 		.ascii	"__INT_FAST64_MAX__ 9223372036854775807LL\000"
 2817      545F4641 
 2817      53543634 
 2817      5F4D4158 
 2817      5F5F2039 
 2818              	.LASF366:
 2819 284a 5F5F5354 		.ascii	"__STDINT_EXP(x) __ ##x ##__\000"
 2819      44494E54 
 2819      5F455850 
 2819      28782920 
 2819      5F5F2023 
 2820              	.LASF483:
 2821 2866 53544154 		.ascii	"STATIC static\000"
 2821      49432073 
 2821      74617469 
 2821      6300
 2822              	.LASF316:
 2823 2874 5F5F4743 		.ascii	"__GCC_ATOMIC_LLONG_LOCK_FREE 1\000"
 2823      435F4154 
 2823      4F4D4943 
 2823      5F4C4C4F 
 2823      4E475F4C 
 2824              	.LASF129:
 2825 2893 5F5F464C 		.ascii	"__FLT_MAX_EXP__ 128\000"
 2825      545F4D41 
 2825      585F4558 
 2825      505F5F20 
 2825      31323800 
 2826              	.LASF480:
 2827 28a7 5F424954 		.ascii	"_BITMASK(field_width) ( _BIT(field_width) - 1)\000"
 2827      4D41534B 
 2827      28666965 
 2827      6C645F77 
 2827      69647468 
 2828              	.LASF111:
 2829 28d6 5F5F494E 		.ascii	"__INT_FAST16_MAX__ 2147483647\000"
 2829      545F4641 
ARM GAS  /tmp/ccmtygTw.s 			page 78


 2829      53543136 
 2829      5F4D4158 
 2829      5F5F2032 
 2830              	.LASF63:
 2831 28f4 5F5F5549 		.ascii	"__UINT_FAST64_TYPE__ long long unsigned int\000"
 2831      4E545F46 
 2831      41535436 
 2831      345F5459 
 2831      50455F5F 
 2832              	.LASF491:
 2833 2920 756E7369 		.ascii	"unsigned char\000"
 2833      676E6564 
 2833      20636861 
 2833      7200
 2834              	.LASF168:
 2835 292e 5F5F4445 		.ascii	"__DEC32_MIN_EXP__ (-94)\000"
 2835      4333325F 
 2835      4D494E5F 
 2835      4558505F 
 2835      5F20282D 
 2836              	.LASF36:
 2837 2946 5F5F5549 		.ascii	"__UINTMAX_TYPE__ long long unsigned int\000"
 2837      4E544D41 
 2837      585F5459 
 2837      50455F5F 
 2837      206C6F6E 
 2838              	.LASF162:
 2839 296e 5F5F4C44 		.ascii	"__LDBL_EPSILON__ 2.2204460492503131e-16L\000"
 2839      424C5F45 
 2839      5053494C 
 2839      4F4E5F5F 
 2839      20322E32 
 2840              	.LASF64:
 2841 2997 5F5F494E 		.ascii	"__INTPTR_TYPE__ int\000"
 2841      54505452 
 2841      5F545950 
 2841      455F5F20 
 2841      696E7400 
 2842              	.LASF476:
 2843 29ab 5F424954 		.ascii	"_BIT(n) (1 << (n))\000"
 2843      286E2920 
 2843      2831203C 
 2843      3C20286E 
 2843      292900
 2844              	.LASF235:
 2845 29be 5F5F5553 		.ascii	"__USACCUM_MIN__ 0.0UHK\000"
 2845      41434355 
 2845      4D5F4D49 
 2845      4E5F5F20 
 2845      302E3055 
 2846              	.LASF444:
 2847 29d5 55494E54 		.ascii	"UINT_FAST64_MAX (__UINT_FAST64_MAX__)\000"
 2847      5F464153 
 2847      5436345F 
 2847      4D415820 
 2847      285F5F55 
 2848              	.LASF194:
ARM GAS  /tmp/ccmtygTw.s 			page 79


 2849 29fb 5F5F5553 		.ascii	"__USFRACT_IBIT__ 0\000"
 2849      46524143 
 2849      545F4942 
 2849      49545F5F 
 2849      203000
 2850              	.LASF420:
 2851 2a0e 55494E54 		.ascii	"UINT_LEAST16_MAX (__UINT_LEAST16_MAX__)\000"
 2851      5F4C4541 
 2851      53543136 
 2851      5F4D4158 
 2851      20285F5F 
 2852              	.LASF62:
 2853 2a36 5F5F5549 		.ascii	"__UINT_FAST32_TYPE__ unsigned int\000"
 2853      4E545F46 
 2853      41535433 
 2853      325F5459 
 2853      50455F5F 
 2854              	.LASF391:
 2855 2a58 5F5F4C45 		.ascii	"__LEAST32 \"l\"\000"
 2855      41535433 
 2855      3220226C 
 2855      2200
 2856              	.LASF275:
 2857 2a66 5F5F4451 		.ascii	"__DQ_IBIT__ 0\000"
 2857      5F494249 
 2857      545F5F20 
 2857      3000
 2858              	.LASF124:
 2859 2a74 5F5F464C 		.ascii	"__FLT_RADIX__ 2\000"
 2859      545F5241 
 2859      4449585F 
 2859      5F203200 
 2860              	.LASF110:
 2861 2a84 5F5F494E 		.ascii	"__INT_FAST8_MAX__ 2147483647\000"
 2861      545F4641 
 2861      5354385F 
 2861      4D41585F 
 2861      5F203231 
 2862              	.LASF31:
 2863 2aa1 5F5F5349 		.ascii	"__SIZE_TYPE__ unsigned int\000"
 2863      5A455F54 
 2863      5950455F 
 2863      5F20756E 
 2863      7369676E 
 2864              	.LASF263:
 2865 2abc 5F5F554C 		.ascii	"__ULLACCUM_FBIT__ 32\000"
 2865      4C414343 
 2865      554D5F46 
 2865      4249545F 
 2865      5F203332 
 2866              	.LASF147:
 2867 2ad1 5F5F4442 		.ascii	"__DBL_MIN__ ((double)2.2250738585072014e-308L)\000"
 2867      4C5F4D49 
 2867      4E5F5F20 
 2867      2828646F 
 2867      75626C65 
 2868              	.LASF364:
ARM GAS  /tmp/ccmtygTw.s 			page 80


 2869 2b00 5F5F4558 		.ascii	"__EXP\000"
 2869      5000
 2870              	.LASF72:
 2871 2b06 5F5F4C4F 		.ascii	"__LONG_MAX__ 2147483647L\000"
 2871      4E475F4D 
 2871      41585F5F 
 2871      20323134 
 2871      37343833 
 2872              	.LASF313:
 2873 2b1f 5F5F4743 		.ascii	"__GCC_ATOMIC_SHORT_LOCK_FREE 1\000"
 2873      435F4154 
 2873      4F4D4943 
 2873      5F53484F 
 2873      52545F4C 
 2874              	.LASF360:
 2875 2b3e 5F5F5F69 		.ascii	"___int_least8_t_defined 1\000"
 2875      6E745F6C 
 2875      65617374 
 2875      385F745F 
 2875      64656669 
 2876              	.LASF440:
 2877 2b58 494E545F 		.ascii	"INT_FAST32_MAX (__INT_FAST32_MAX__)\000"
 2877      46415354 
 2877      33325F4D 
 2877      41582028 
 2877      5F5F494E 
 2878              	.LASF375:
 2879 2b7c 756E7369 		.ascii	"unsigned +0\000"
 2879      676E6564 
 2879      202B3000 
 2880              	.LASF202:
 2881 2b88 5F5F4652 		.ascii	"__FRACT_EPSILON__ 0x1P-15R\000"
 2881      4143545F 
 2881      45505349 
 2881      4C4F4E5F 
 2881      5F203078 
 2882              	.LASF128:
 2883 2ba3 5F5F464C 		.ascii	"__FLT_MIN_10_EXP__ (-37)\000"
 2883      545F4D49 
 2883      4E5F3130 
 2883      5F455850 
 2883      5F5F2028 
 2884              	.LASF75:
 2885 2bbc 5F5F5743 		.ascii	"__WCHAR_MIN__ 0U\000"
 2885      4841525F 
 2885      4D494E5F 
 2885      5F203055 
 2885      00
 2886              	.LASF151:
 2887 2bcd 5F5F4442 		.ascii	"__DBL_HAS_INFINITY__ 1\000"
 2887      4C5F4841 
 2887      535F494E 
 2887      46494E49 
 2887      54595F5F 
 2888              	.LASF427:
 2889 2be4 494E5436 		.ascii	"INT64_MIN (-__INT64_MAX__ - 1)\000"
 2889      345F4D49 
ARM GAS  /tmp/ccmtygTw.s 			page 81


 2889      4E20282D 
 2889      5F5F494E 
 2889      5436345F 
 2890              	.LASF58:
 2891 2c03 5F5F494E 		.ascii	"__INT_FAST32_TYPE__ int\000"
 2891      545F4641 
 2891      53543332 
 2891      5F545950 
 2891      455F5F20 
 2892              	.LASF229:
 2893 2c1b 5F5F5341 		.ascii	"__SACCUM_IBIT__ 8\000"
 2893      4343554D 
 2893      5F494249 
 2893      545F5F20 
 2893      3800
 2894              	.LASF138:
 2895 2c2d 5F5F464C 		.ascii	"__FLT_HAS_QUIET_NAN__ 1\000"
 2895      545F4841 
 2895      535F5155 
 2895      4945545F 
 2895      4E414E5F 
 2896              	.LASF15:
 2897 2c45 5F5F5349 		.ascii	"__SIZEOF_INT__ 4\000"
 2897      5A454F46 
 2897      5F494E54 
 2897      5F5F2034 
 2897      00
 2898              	.LASF35:
 2899 2c56 5F5F494E 		.ascii	"__INTMAX_TYPE__ long long int\000"
 2899      544D4158 
 2899      5F545950 
 2899      455F5F20 
 2899      6C6F6E67 
 2900              	.LASF380:
 2901 2c74 5F494E54 		.ascii	"_INT32_EQ_LONG \000"
 2901      33325F45 
 2901      515F4C4F 
 2901      4E472000 
 2902              	.LASF81:
 2903 2c84 5F5F494E 		.ascii	"__INTMAX_C(c) c ## LL\000"
 2903      544D4158 
 2903      5F432863 
 2903      29206320 
 2903      2323204C 
 2904              	.LASF406:
 2905 2c9a 494E5450 		.ascii	"INTPTR_MIN (-__INTPTR_MAX__ - 1)\000"
 2905      54525F4D 
 2905      494E2028 
 2905      2D5F5F49 
 2905      4E545054 
 2906              	.LASF329:
 2907 2cbb 5F5F4150 		.ascii	"__APCS_32__ 1\000"
 2907      43535F33 
 2907      325F5F20 
 2907      3100
 2908              	.LASF503:
 2909 2cc9 2F686F6D 		.ascii	"/home/evt/opel_EE/opel_velocity_interface/firmware\000"
ARM GAS  /tmp/ccmtygTw.s 			page 82


 2909      652F6576 
 2909      742F6F70 
 2909      656C5F45 
 2909      452F6F70 
 2910              	.LASF465:
 2911 2cfc 494E544D 		.ascii	"INTMAX_C(x) __INTMAX_C(x)\000"
 2911      41585F43 
 2911      28782920 
 2911      5F5F494E 
 2911      544D4158 
 2912              	.LASF149:
 2913 2d16 5F5F4442 		.ascii	"__DBL_DENORM_MIN__ ((double)4.9406564584124654e-324"
 2913      4C5F4445 
 2913      4E4F524D 
 2913      5F4D494E 
 2913      5F5F2028 
 2914 2d49 4C2900   		.ascii	"L)\000"
 2915              	.LASF47:
 2916 2d4c 5F5F5549 		.ascii	"__UINT64_TYPE__ long long unsigned int\000"
 2916      4E543634 
 2916      5F545950 
 2916      455F5F20 
 2916      6C6F6E67 
 2917              	.LASF445:
 2918 2d73 494E544D 		.ascii	"INTMAX_MAX (__INTMAX_MAX__)\000"
 2918      41585F4D 
 2918      41582028 
 2918      5F5F494E 
 2918      544D4158 
 2919              	.LASF478:
 2920 2d8f 5F534246 		.ascii	"_SBF(f,v) ((v) << (f))\000"
 2920      28662C76 
 2920      29202828 
 2920      7629203C 
 2920      3C202866 
 2921              	.LASF144:
 2922 2da6 5F5F4442 		.ascii	"__DBL_MAX_10_EXP__ 308\000"
 2922      4C5F4D41 
 2922      585F3130 
 2922      5F455850 
 2922      5F5F2033 
 2923              	.LASF493:
 2924 2dbd 73686F72 		.ascii	"short unsigned int\000"
 2924      7420756E 
 2924      7369676E 
 2924      65642069 
 2924      6E7400
 2925              	.LASF500:
 2926 2dd0 62656769 		.ascii	"begin\000"
 2926      6E00
 2927              	.LASF295:
 2928 2dd6 5F5F5441 		.ascii	"__TA_IBIT__ 64\000"
 2928      5F494249 
 2928      545F5F20 
 2928      363400
 2929              	.LASF345:
 2930 2de5 434F5245 		.ascii	"CORE_M0 1\000"
ARM GAS  /tmp/ccmtygTw.s 			page 83


 2930      5F4D3020 
 2930      3100
 2931              	.LASF405:
 2932 2def 5F5F696E 		.ascii	"__int_fast64_t_defined 1\000"
 2932      745F6661 
 2932      73743634 
 2932      5F745F64 
 2932      6566696E 
 2933              	.LASF53:
 2934 2e08 5F5F5549 		.ascii	"__UINT_LEAST16_TYPE__ short unsigned int\000"
 2934      4E545F4C 
 2934      45415354 
 2934      31365F54 
 2934      5950455F 
 2935              	.LASF434:
 2936 2e31 494E545F 		.ascii	"INT_FAST8_MAX (__INT_FAST8_MAX__)\000"
 2936      46415354 
 2936      385F4D41 
 2936      5820285F 
 2936      5F494E54 
 2937              	.LASF452:
 2938 2e53 50545244 		.ascii	"PTRDIFF_MIN (-PTRDIFF_MAX - 1)\000"
 2938      4946465F 
 2938      4D494E20 
 2938      282D5054 
 2938      52444946 
 2939              	.LASF127:
 2940 2e72 5F5F464C 		.ascii	"__FLT_MIN_EXP__ (-125)\000"
 2940      545F4D49 
 2940      4E5F4558 
 2940      505F5F20 
 2940      282D3132 
 2941              	.LASF185:
 2942 2e89 5F5F4445 		.ascii	"__DEC128_MAX__ 9.999999999999999999999999999999999E"
 2942      43313238 
 2942      5F4D4158 
 2942      5F5F2039 
 2942      2E393939 
 2943 2ebc 36313434 		.ascii	"6144DL\000"
 2943      444C00
 2944              	.LASF455:
 2945 2ec3 57494E54 		.ascii	"WINT_MAX (__WINT_MAX__)\000"
 2945      5F4D4158 
 2945      20285F5F 
 2945      57494E54 
 2945      5F4D4158 
 2946              	.LASF159:
 2947 2edb 5F5F4445 		.ascii	"__DECIMAL_DIG__ 17\000"
 2947      43494D41 
 2947      4C5F4449 
 2947      475F5F20 
 2947      313700
 2948              	.LASF99:
 2949 2eee 5F5F494E 		.ascii	"__INT32_C(c) c ## L\000"
 2949      5433325F 
 2949      43286329 
 2949      20632023 
ARM GAS  /tmp/ccmtygTw.s 			page 84


 2949      23204C00 
 2950              	.LASF415:
 2951 2f02 494E5431 		.ascii	"INT16_MIN (-__INT16_MAX__ - 1)\000"
 2951      365F4D49 
 2951      4E20282D 
 2951      5F5F494E 
 2951      5431365F 
 2952              	.LASF501:
 2953 2f21 474E5520 		.ascii	"GNU C 4.9.3 20150529 (release) [ARM/embedded-4_9-br"
 2953      4320342E 
 2953      392E3320 
 2953      32303135 
 2953      30353239 
 2954 2f54 616E6368 		.ascii	"anch revision 227977] -mcpu=cortex-m0 -mthumb -g -g"
 2954      20726576 
 2954      6973696F 
 2954      6E203232 
 2954      37393737 
 2955 2f87 67646233 		.ascii	"gdb3 -Os -std=gnu90 -ffunction-sections -fdata-sect"
 2955      202D4F73 
 2955      202D7374 
 2955      643D676E 
 2955      75393020 
 2956 2fba 696F6E73 		.ascii	"ions -fstack-usage\000"
 2956      202D6673 
 2956      7461636B 
 2956      2D757361 
 2956      676500
 2957              	.LASF32:
 2958 2fcd 5F5F5054 		.ascii	"__PTRDIFF_TYPE__ int\000"
 2958      52444946 
 2958      465F5459 
 2958      50455F5F 
 2958      20696E74 
 2959              	.LASF150:
 2960 2fe2 5F5F4442 		.ascii	"__DBL_HAS_DENORM__ 1\000"
 2960      4C5F4841 
 2960      535F4445 
 2960      4E4F524D 
 2960      5F5F2031 
 2961              	.LASF367:
 2962 2ff7 5F5F6861 		.ascii	"__have_longlong64 1\000"
 2962      76655F6C 
 2962      6F6E676C 
 2962      6F6E6736 
 2962      34203100 
 2963              	.LASF411:
 2964 300b 55494E54 		.ascii	"UINT8_MAX (__UINT8_MAX__)\000"
 2964      385F4D41 
 2964      5820285F 
 2964      5F55494E 
 2964      54385F4D 
 2965              	.LASF303:
 2966 3025 5F5F5554 		.ascii	"__UTA_IBIT__ 64\000"
 2966      415F4942 
 2966      49545F5F 
 2966      20363400 
ARM GAS  /tmp/ccmtygTw.s 			page 85


 2967              	.LASF409:
 2968 3035 494E5438 		.ascii	"INT8_MIN (-__INT8_MAX__ - 1)\000"
 2968      5F4D494E 
 2968      20282D5F 
 2968      5F494E54 
 2968      385F4D41 
 2969              	.LASF268:
 2970 3052 5F5F5151 		.ascii	"__QQ_FBIT__ 7\000"
 2970      5F464249 
 2970      545F5F20 
 2970      3700
 2971              	.LASF211:
 2972 3060 5F5F4C46 		.ascii	"__LFRACT_MAX__ 0X7FFFFFFFP-31LR\000"
 2972      52414354 
 2972      5F4D4158 
 2972      5F5F2030 
 2972      58374646 
 2973              	.LASF10:
 2974 3080 5F5F4154 		.ascii	"__ATOMIC_ACQ_REL 4\000"
 2974      4F4D4943 
 2974      5F414351 
 2974      5F52454C 
 2974      203400
 2975              	.LASF300:
 2976 3093 5F5F5544 		.ascii	"__UDA_FBIT__ 32\000"
 2976      415F4642 
 2976      49545F5F 
 2976      20333200 
 2977              	.LASF471:
 2978 30a3 66616C73 		.ascii	"false 0\000"
 2978      65203000 
 2979              	.LASF422:
 2980 30ab 494E5433 		.ascii	"INT32_MAX (__INT32_MAX__)\000"
 2980      325F4D41 
 2980      5820285F 
 2980      5F494E54 
 2980      33325F4D 
 2981              	.LASF258:
 2982 30c5 5F5F4C4C 		.ascii	"__LLACCUM_FBIT__ 31\000"
 2982      41434355 
 2982      4D5F4642 
 2982      49545F5F 
 2982      20333100 
 2983              	.LASF177:
 2984 30d9 5F5F4445 		.ascii	"__DEC64_MIN__ 1E-383DD\000"
 2984      4336345F 
 2984      4D494E5F 
 2984      5F203145 
 2984      2D333833 
 2985              	.LASF379:
 2986 30f0 6C6F6E67 		.ascii	"long +4\000"
 2986      202B3400 
 2987              	.LASF398:
 2988 30f8 5F5F696E 		.ascii	"__int_least8_t_defined 1\000"
 2988      745F6C65 
 2988      61737438 
 2988      5F745F64 
ARM GAS  /tmp/ccmtygTw.s 			page 86


 2988      6566696E 
 2989              	.LASF320:
 2990 3111 5F5F5052 		.ascii	"__PRAGMA_REDEFINE_EXTNAME 1\000"
 2990      41474D41 
 2990      5F524544 
 2990      4546494E 
 2990      455F4558 
 2991              	.LASF39:
 2992 312d 5F5F5349 		.ascii	"__SIG_ATOMIC_TYPE__ int\000"
 2992      475F4154 
 2992      4F4D4943 
 2992      5F545950 
 2992      455F5F20 
 2993              	.LASF220:
 2994 3145 5F5F4C4C 		.ascii	"__LLFRACT_MIN__ (-0.5LLR-0.5LLR)\000"
 2994      46524143 
 2994      545F4D49 
 2994      4E5F5F20 
 2994      282D302E 
 2995              	.LASF227:
 2996 3166 5F5F554C 		.ascii	"__ULLFRACT_EPSILON__ 0x1P-64ULLR\000"
 2996      4C465241 
 2996      43545F45 
 2996      5053494C 
 2996      4F4E5F5F 
 2997              	.LASF164:
 2998 3187 5F5F4C44 		.ascii	"__LDBL_HAS_DENORM__ 1\000"
 2998      424C5F48 
 2998      41535F44 
 2998      454E4F52 
 2998      4D5F5F20 
 2999              	.LASF267:
 3000 319d 5F5F554C 		.ascii	"__ULLACCUM_EPSILON__ 0x1P-32ULLK\000"
 3000      4C414343 
 3000      554D5F45 
 3000      5053494C 
 3000      4F4E5F5F 
 3001              	.LASF174:
 3002 31be 5F5F4445 		.ascii	"__DEC64_MANT_DIG__ 16\000"
 3002      4336345F 
 3002      4D414E54 
 3002      5F444947 
 3002      5F5F2031 
 3003              	.LASF120:
 3004 31d4 5F5F4743 		.ascii	"__GCC_IEC_559 0\000"
 3004      435F4945 
 3004      435F3535 
 3004      39203000 
 3005              	.LASF243:
 3006 31e4 5F5F5541 		.ascii	"__UACCUM_FBIT__ 16\000"
 3006      4343554D 
 3006      5F464249 
 3006      545F5F20 
 3006      313600
 3007              	.LASF145:
 3008 31f7 5F5F4442 		.ascii	"__DBL_DECIMAL_DIG__ 17\000"
 3008      4C5F4445 
ARM GAS  /tmp/ccmtygTw.s 			page 87


 3008      43494D41 
 3008      4C5F4449 
 3008      475F5F20 
 3009              		.ident	"GCC: (GNU Tools for ARM Embedded Processors) 4.9.3 20150529 (release) [ARM/embedded-4_9-br
ARM GAS  /tmp/ccmtygTw.s 			page 88


DEFINED SYMBOLS
                            *ABS*:00000000 util.c
     /tmp/ccmtygTw.s:67     .text.__reverse:00000000 $t
     /tmp/ccmtygTw.s:72     .text.__reverse:00000000 __reverse
                     .debug_frame:00000010 $d
                           .group:00000000 wm4.0.d60539c8b2f01ca1b851fc35675107cd
                           .group:00000000 wm4.features.h.22.2e382148a0560adabf236cddd4e880f4
                           .group:00000000 wm4._default_types.h.15.933e8edd27a65e0b69af4a865eb623d2
                           .group:00000000 wm4._intsup.h.10.35a45952db64d30146faa63a55c20c1c
                           .group:00000000 wm4._stdint.h.10.f76354baea1c7088202064e6f3d4f5e3
                           .group:00000000 wm4.stdint.h.23.373a9d32a9e4c2e88fd347156532d281
                           .group:00000000 wm4.stdbool.h.29.1c9ee6859ce8145f7838a4f2549ccec2
                           .group:00000000 wm4.lpc_types.h.63.860ba57581a002825766a7c2ac00d549

NO UNDEFINED SYMBOLS
